	.file	"AsmCtx.cpp"
	.text
.Ltext0:
	.file 0 "/home/arsenyfucker/Cprojects/Lang/Translator/BackEnd" "./src/AsmCtx.cpp"
	.section	.rodata
	.align 32
	.type	_ZL12NOT_DECLARED, @object
	.size	_ZL12NOT_DECLARED, 4
_ZL12NOT_DECLARED:
	.long	-111
	.zero	60
	.align 32
	.type	_ZL11NOT_A_LABEL, @object
	.size	_ZL11NOT_A_LABEL, 4
_ZL11NOT_A_LABEL:
	.long	-9
	.zero	60
	.bss
	.align 32
	.type	_ZStL8__ioinit, @object
	.size	_ZStL8__ioinit, 1
_ZStL8__ioinit:
	.zero	64
	.section	.rodata
	.align 32
	.type	_ZL12STD_LOG_NAME, @object
	.size	_ZL12STD_LOG_NAME, 18
_ZL12STD_LOG_NAME:
	.string	"./logs/stdlog.ars"
	.zero	46
	.align 32
	.type	_ZL6CRINGE, @object
	.size	_ZL6CRINGE, 4
_ZL6CRINGE:
	.long	3565
	.zero	60
	.align 32
.LC0:
	.string	"ctx"
	.zero	60
	.align 32
.LC1:
	.string	"ASSERTLOG:: Condition (%s) is false\n"
	.zero	59
	.align 32
.LC2:
	.string	"\033[93mASSERTLOG:: \033[0mCondition\033[95m (%s) \033[0mis \033[91mfalse\n\033[0m"
	.zero	32
	.align 32
.LC3:
	.string	"int AsmCtxCtor(AsmCtx*, const Program*)"
	.zero	56
	.align 32
.LC4:
	.string	"./src/AsmCtx.cpp"
	.zero	47
	.align 32
.LC5:
	.string	"\t%s:%d, function: %s\n"
	.zero	42
	.align 32
.LC6:
	.string	"It matches to error: (code %d) %s\n\n"
	.zero	60
	.align 32
.LC7:
	.string	"AsmCtxCtor"
	.zero	53
	.align 32
.LC8:
	.string	"Shutting down the system (%s:%d)"
	.zero	63
	.align 32
.LC9:
	.string	"echo LOX\n"
	.zero	54
	.align 32
.LC10:
	.string	"program"
	.zero	56
	.text
	.globl	_Z10AsmCtxCtorP6AsmCtxPK7Program
	.type	_Z10AsmCtxCtorP6AsmCtxPK7Program, @function
_Z10AsmCtxCtorP6AsmCtxPK7Program:
.LASANPC2270:
.LFB2270:
	.file 1 "./src/AsmCtx.cpp"
	.loc 1 6 5
	.cfi_startproc
	endbr64
	pushq	%rbp
	.cfi_def_cfa_offset 16
	.cfi_offset 6, -16
	movq	%rsp, %rbp
	.cfi_def_cfa_register 6
	pushq	%rbx
	subq	$24, %rsp
	.cfi_offset 3, -24
	movq	%rdi, -24(%rbp)
	movq	%rsi, -32(%rbp)
	.loc 1 7 10
	cmpq	$0, -24(%rbp)
	jne	.L2
	.loc 1 7 43 discriminator 1
	call	_ZN6Logger11getInstanceEv@PLT
	movq	%rax, %rcx
	.loc 1 7 49 discriminator 1
	leaq	.LC0(%rip), %rax
	movq	%rax, %rdx
	leaq	.LC1(%rip), %rax
	movq	%rax, %rsi
	movq	%rcx, %rdi
	movl	$0, %eax
	call	_ZN6Logger3logEPKcz@PLT
	.loc 1 7 105 discriminator 1
	leaq	.LC0(%rip), %rax
	movq	%rax, %rsi
	leaq	.LC2(%rip), %rax
	movq	%rax, %rdi
	movl	$0, %eax
	call	printf@PLT
	.loc 1 7 249 discriminator 1
	call	_ZN6Logger11getInstanceEv@PLT
	movq	%rax, %rdi
	.loc 1 7 255 discriminator 1
	leaq	.LC3(%rip), %r8
	movl	$7, %ecx
	leaq	.LC4(%rip), %rax
	movq	%rax, %rdx
	leaq	.LC5(%rip), %rax
	movq	%rax, %rsi
	movl	$0, %eax
	call	_ZN6Logger3logEPKcz@PLT
	.loc 1 7 334 discriminator 1
	leaq	.LC3(%rip), %rax
	movq	%rax, %rcx
	movl	$7, %edx
	leaq	.LC4(%rip), %rax
	movq	%rax, %rsi
	leaq	.LC5(%rip), %rax
	movq	%rax, %rdi
	movl	$0, %eax
	call	printf@PLT
	.loc 1 7 426 discriminator 1
	call	_ZN6Logger11getInstanceEv@PLT
	movq	%rax, %rbx
	.loc 1 7 432 discriminator 1
	movl	$14, %edi
	call	strerror@PLT
	movq	%rax, %rcx
	movl	$14, %edx
	leaq	.LC6(%rip), %rax
	movq	%rax, %rsi
	movq	%rbx, %rdi
	movl	$0, %eax
	call	_ZN6Logger3logEPKcz@PLT
	.loc 1 7 27 discriminator 1
	call	_ZN6Logger11getInstanceEv@PLT
	movq	%rax, %rdi
	.loc 1 7 33 discriminator 1
	movl	$7, %ecx
	leaq	.LC7(%rip), %rax
	movq	%rax, %rdx
	leaq	.LC8(%rip), %rax
	movq	%rax, %rsi
	movl	$0, %eax
	call	_ZN6Logger3logEPKcz@PLT
	.loc 1 7 90 discriminator 1
	leaq	.LC9(%rip), %rax
	movq	%rax, %rdi
	call	system@PLT
	.loc 1 7 113 discriminator 1
	movl	$-2, %eax
	jmp	.L3
.L2:
	.loc 1 8 10
	cmpq	$0, -32(%rbp)
	jne	.L4
	.loc 1 8 47 discriminator 1
	call	_ZN6Logger11getInstanceEv@PLT
	movq	%rax, %rcx
	.loc 1 8 53 discriminator 1
	leaq	.LC10(%rip), %rax
	movq	%rax, %rdx
	leaq	.LC1(%rip), %rax
	movq	%rax, %rsi
	movq	%rcx, %rdi
	movl	$0, %eax
	call	_ZN6Logger3logEPKcz@PLT
	.loc 1 8 113 discriminator 1
	leaq	.LC10(%rip), %rax
	movq	%rax, %rsi
	leaq	.LC2(%rip), %rax
	movq	%rax, %rdi
	movl	$0, %eax
	call	printf@PLT
	.loc 1 8 261 discriminator 1
	call	_ZN6Logger11getInstanceEv@PLT
	movq	%rax, %rdi
	.loc 1 8 267 discriminator 1
	leaq	.LC3(%rip), %r8
	movl	$8, %ecx
	leaq	.LC4(%rip), %rax
	movq	%rax, %rdx
	leaq	.LC5(%rip), %rax
	movq	%rax, %rsi
	movl	$0, %eax
	call	_ZN6Logger3logEPKcz@PLT
	.loc 1 8 346 discriminator 1
	leaq	.LC3(%rip), %rax
	movq	%rax, %rcx
	movl	$8, %edx
	leaq	.LC4(%rip), %rax
	movq	%rax, %rsi
	leaq	.LC5(%rip), %rax
	movq	%rax, %rdi
	movl	$0, %eax
	call	printf@PLT
	.loc 1 8 438 discriminator 1
	call	_ZN6Logger11getInstanceEv@PLT
	movq	%rax, %rbx
	.loc 1 8 444 discriminator 1
	movl	$14, %edi
	call	strerror@PLT
	movq	%rax, %rcx
	movl	$14, %edx
	leaq	.LC6(%rip), %rax
	movq	%rax, %rsi
	movq	%rbx, %rdi
	movl	$0, %eax
	call	_ZN6Logger3logEPKcz@PLT
	.loc 1 8 27 discriminator 1
	call	_ZN6Logger11getInstanceEv@PLT
	movq	%rax, %rdi
	.loc 1 8 33 discriminator 1
	movl	$8, %ecx
	leaq	.LC7(%rip), %rax
	movq	%rax, %rdx
	leaq	.LC8(%rip), %rax
	movq	%rax, %rsi
	movl	$0, %eax
	call	_ZN6Logger3logEPKcz@PLT
	.loc 1 8 90 discriminator 1
	leaq	.LC9(%rip), %rax
	movq	%rax, %rdi
	call	system@PLT
	.loc 1 8 113 discriminator 1
	movl	$-2, %eax
	jmp	.L3
.L4:
	.loc 1 10 18
	movq	-24(%rbp), %rax
	movq	%rax, %rdx
	shrq	$3, %rdx
	addq	$2147450880, %rdx
	movzbl	(%rdx), %edx
	testb	%dl, %dl
	je	.L5
	movq	%rax, %rdi
	call	__asan_report_store8@PLT
.L5:
	movq	-24(%rbp), %rax
	movq	-32(%rbp), %rdx
	movq	%rdx, (%rax)
	.loc 1 11 36
	call	_Z12NewNameTablev@PLT
	.loc 1 11 22
	movq	-24(%rbp), %rdx
	addq	$8, %rdx
	movq	%rdx, %rcx
	shrq	$3, %rcx
	addq	$2147450880, %rcx
	movzbl	(%rcx), %ecx
	testb	%cl, %cl
	je	.L6
	movq	%rdx, %rdi
	call	__asan_report_store8@PLT
.L6:
	movq	-24(%rbp), %rdx
	movq	%rax, 8(%rdx)
	.loc 1 13 15
	movq	-24(%rbp), %rax
	movq	8(%rax), %rax
	.loc 1 13 5
	testq	%rax, %rax
	jne	.L7
	.loc 1 14 16
	movl	$-1, %eax
	jmp	.L3
.L7:
	.loc 1 16 32
	movq	-24(%rbp), %rax
	addq	$16, %rax
	movq	%rax, %rdx
	movq	%rdx, %rax
	shrq	$3, %rax
	addq	$2147450880, %rax
	movzbl	(%rax), %eax
	testb	%al, %al
	setne	%cl
	cmpb	$3, %al
	setle	%al
	andl	%ecx, %eax
	testb	%al, %al
	je	.L8
	movq	%rdx, %rdi
	call	__asan_report_store4@PLT
.L8:
	movq	-24(%rbp), %rax
	movl	$0, 16(%rax)
	.loc 1 18 12
	movl	$0, %eax
.L3:
	.loc 1 19 5
	movq	-8(%rbp), %rbx
	leave
	.cfi_def_cfa 7, 8
	ret
	.cfi_endproc
.LFE2270:
	.size	_Z10AsmCtxCtorP6AsmCtxPK7Program, .-_Z10AsmCtxCtorP6AsmCtxPK7Program
	.section	.rodata
	.align 32
.LC11:
	.string	"int AsmCtxDtor(AsmCtx*)"
	.zero	40
	.align 32
.LC12:
	.string	"AsmCtxDtor"
	.zero	53
	.align 32
.LC13:
	.string	"Failed (%s:%d, %s:%d)"
	.zero	42
	.text
	.globl	_Z10AsmCtxDtorP6AsmCtx
	.type	_Z10AsmCtxDtorP6AsmCtx, @function
_Z10AsmCtxDtorP6AsmCtx:
.LASANPC2271:
.LFB2271:
	.loc 1 22 5
	.cfi_startproc
	endbr64
	pushq	%rbp
	.cfi_def_cfa_offset 16
	.cfi_offset 6, -16
	movq	%rsp, %rbp
	.cfi_def_cfa_register 6
	pushq	%rbx
	subq	$24, %rsp
	.cfi_offset 3, -24
	movq	%rdi, -24(%rbp)
	.loc 1 23 10
	cmpq	$0, -24(%rbp)
	jne	.L10
	.loc 1 23 43 discriminator 1
	call	_ZN6Logger11getInstanceEv@PLT
	movq	%rax, %rcx
	.loc 1 23 49 discriminator 1
	leaq	.LC0(%rip), %rax
	movq	%rax, %rdx
	leaq	.LC1(%rip), %rax
	movq	%rax, %rsi
	movq	%rcx, %rdi
	movl	$0, %eax
	call	_ZN6Logger3logEPKcz@PLT
	.loc 1 23 105 discriminator 1
	leaq	.LC0(%rip), %rax
	movq	%rax, %rsi
	leaq	.LC2(%rip), %rax
	movq	%rax, %rdi
	movl	$0, %eax
	call	printf@PLT
	.loc 1 23 249 discriminator 1
	call	_ZN6Logger11getInstanceEv@PLT
	movq	%rax, %rdi
	.loc 1 23 255 discriminator 1
	leaq	.LC11(%rip), %r8
	movl	$23, %ecx
	leaq	.LC4(%rip), %rax
	movq	%rax, %rdx
	leaq	.LC5(%rip), %rax
	movq	%rax, %rsi
	movl	$0, %eax
	call	_ZN6Logger3logEPKcz@PLT
	.loc 1 23 335 discriminator 1
	leaq	.LC11(%rip), %rax
	movq	%rax, %rcx
	movl	$23, %edx
	leaq	.LC4(%rip), %rax
	movq	%rax, %rsi
	leaq	.LC5(%rip), %rax
	movq	%rax, %rdi
	movl	$0, %eax
	call	printf@PLT
	.loc 1 23 428 discriminator 1
	call	_ZN6Logger11getInstanceEv@PLT
	movq	%rax, %rbx
	.loc 1 23 434 discriminator 1
	movl	$14, %edi
	call	strerror@PLT
	movq	%rax, %rcx
	movl	$14, %edx
	leaq	.LC6(%rip), %rax
	movq	%rax, %rsi
	movq	%rbx, %rdi
	movl	$0, %eax
	call	_ZN6Logger3logEPKcz@PLT
	.loc 1 23 27 discriminator 1
	call	_ZN6Logger11getInstanceEv@PLT
	movq	%rax, %rdi
	.loc 1 23 33 discriminator 1
	movl	$23, %ecx
	leaq	.LC12(%rip), %rax
	movq	%rax, %rdx
	leaq	.LC8(%rip), %rax
	movq	%rax, %rsi
	movl	$0, %eax
	call	_ZN6Logger3logEPKcz@PLT
	.loc 1 23 91 discriminator 1
	leaq	.LC9(%rip), %rax
	movq	%rax, %rdi
	call	system@PLT
	.loc 1 23 114 discriminator 1
	movl	$-2, %eax
	jmp	.L11
.L10:
	.loc 1 25 23
	movq	-24(%rbp), %rax
	addq	$8, %rax
	movq	%rax, %rdx
	shrq	$3, %rdx
	addq	$2147450880, %rdx
	movzbl	(%rdx), %edx
	testb	%dl, %dl
	je	.L12
	movq	%rax, %rdi
	call	__asan_report_load8@PLT
.L12:
	movq	-24(%rbp), %rax
	movq	8(%rax), %rax
	movq	%rax, %rdi
	call	_Z14CloseNameTableP9NameTable@PLT
	.loc 1 25 42
	testl	%eax, %eax
	setne	%al
	.loc 1 25 5
	testb	%al, %al
	je	.L13
	.loc 1 26 35
	call	_ZN6Logger11getInstanceEv@PLT
	.loc 1 26 57
	call	_ZN6Logger11getInstanceEv@PLT
	movq	%rax, %rdi
	.loc 1 26 70
	subq	$8, %rsp
	pushq	$26
	leaq	.LC12(%rip), %r9
	movl	$26, %r8d
	leaq	.LC4(%rip), %rax
	movq	%rax, %rcx
	leaq	.LC13(%rip), %rax
	movq	%rax, %rdx
	movl	$-1, %esi
	movl	$0, %eax
	call	_ZN6Logger9LogMsgRetEiPKcz@PLT
	addq	$16, %rsp
	.loc 1 26 142
	jmp	.L11
.L13:
	.loc 1 32 12
	movl	$0, %eax
.L11:
	.loc 1 33 5
	movq	-8(%rbp), %rbx
	leave
	.cfi_def_cfa 7, 8
	ret
	.cfi_endproc
.LFE2271:
	.size	_Z10AsmCtxDtorP6AsmCtx, .-_Z10AsmCtxDtorP6AsmCtx
	.type	_Z41__static_initialization_and_destruction_0ii, @function
_Z41__static_initialization_and_destruction_0ii:
.LASANPC2938:
.LFB2938:
	.loc 1 33 5
	.cfi_startproc
	endbr64
	pushq	%rbp
	.cfi_def_cfa_offset 16
	.cfi_offset 6, -16
	movq	%rsp, %rbp
	.cfi_def_cfa_register 6
	subq	$16, %rsp
	movl	%edi, -4(%rbp)
	movl	%esi, -8(%rbp)
	.loc 1 33 5
	cmpl	$1, -4(%rbp)
	jne	.L17
	.loc 1 33 5 is_stmt 0 discriminator 1
	leaq	.LC4(%rip), %rax
	movq	%rax, %rdi
	call	__asan_before_dynamic_init@PLT
	cmpl	$65535, -8(%rbp)
	jne	.L16
	.file 2 "/usr/include/c++/11/iostream"
	.loc 2 74 25 is_stmt 1
	leaq	_ZStL8__ioinit(%rip), %rax
	movq	%rax, %rdi
	call	_ZNSt8ios_base4InitC1Ev@PLT
	leaq	__dso_handle(%rip), %rax
	movq	%rax, %rdx
	leaq	_ZStL8__ioinit(%rip), %rax
	movq	%rax, %rsi
	movq	_ZNSt8ios_base4InitD1Ev@GOTPCREL(%rip), %rax
	movq	%rax, %rdi
	call	__cxa_atexit@PLT
.L16:
	.loc 2 74 25 is_stmt 0 discriminator 1
	call	__asan_after_dynamic_init@PLT
.L17:
	.loc 1 33 5 is_stmt 1
	nop
	leave
	.cfi_def_cfa 7, 8
	ret
	.cfi_endproc
.LFE2938:
	.size	_Z41__static_initialization_and_destruction_0ii, .-_Z41__static_initialization_and_destruction_0ii
	.type	_GLOBAL__sub_I__Z10AsmCtxCtorP6AsmCtxPK7Program, @function
_GLOBAL__sub_I__Z10AsmCtxCtorP6AsmCtxPK7Program:
.LASANPC2939:
.LFB2939:
	.loc 1 33 5
	.cfi_startproc
	endbr64
	pushq	%rbp
	.cfi_def_cfa_offset 16
	.cfi_offset 6, -16
	movq	%rsp, %rbp
	.cfi_def_cfa_register 6
	.loc 1 33 5
	movl	$65535, %esi
	movl	$1, %edi
	call	_Z41__static_initialization_and_destruction_0ii
	popq	%rbp
	.cfi_def_cfa 7, 8
	ret
	.cfi_endproc
.LFE2939:
	.size	_GLOBAL__sub_I__Z10AsmCtxCtorP6AsmCtxPK7Program, .-_GLOBAL__sub_I__Z10AsmCtxCtorP6AsmCtxPK7Program
	.section	.init_array,"aw"
	.align 8
	.quad	_GLOBAL__sub_I__Z10AsmCtxCtorP6AsmCtxPK7Program
	.section	.rodata
	.align 8
.LC14:
	.string	"../ATC/RandomStuff/CommonEnums.h"
	.section	.data.rel.local,"aw"
	.align 16
	.type	.LASANLOC1, @object
	.size	.LASANLOC1, 16
.LASANLOC1:
	.quad	.LC14
	.long	3
	.long	11
	.section	.rodata
.LC15:
	.string	"../ATC/Logger/LogConfig.h"
	.section	.data.rel.local
	.align 16
	.type	.LASANLOC2, @object
	.size	.LASANLOC2, 16
.LASANLOC2:
	.quad	.LC15
	.long	3
	.long	12
	.section	.rodata
.LC16:
	.string	"/usr/include/c++/11/iostream"
	.section	.data.rel.local
	.align 16
	.type	.LASANLOC3, @object
	.size	.LASANLOC3, 16
.LASANLOC3:
	.quad	.LC16
	.long	74
	.long	25
	.section	.rodata
	.align 8
.LC17:
	.string	"../Common/Structures/Tabels/Tabels.h"
	.section	.data.rel.local
	.align 16
	.type	.LASANLOC4, @object
	.size	.LASANLOC4, 16
.LASANLOC4:
	.quad	.LC17
	.long	8
	.long	11
	.align 16
	.type	.LASANLOC5, @object
	.size	.LASANLOC5, 16
.LASANLOC5:
	.quad	.LC17
	.long	7
	.long	11
	.section	.rodata
.LC18:
	.string	"CRINGE"
.LC19:
	.string	"STD_LOG_NAME"
.LC20:
	.string	"__ioinit"
.LC21:
	.string	"NOT_A_LABEL"
.LC22:
	.string	"NOT_DECLARED"
.LC23:
	.string	"*.LC11"
.LC24:
	.string	"*.LC9"
.LC25:
	.string	"*.LC5"
.LC26:
	.string	"*.LC2"
.LC27:
	.string	"*.LC10"
.LC28:
	.string	"*.LC13"
.LC29:
	.string	"*.LC7"
.LC30:
	.string	"*.LC1"
.LC31:
	.string	"*.LC12"
.LC32:
	.string	"*.LC0"
.LC33:
	.string	"*.LC3"
.LC34:
	.string	"*.LC6"
.LC35:
	.string	"*.LC4"
.LC36:
	.string	"*.LC8"
	.section	.data.rel.local
	.align 32
	.type	.LASAN0, @object
	.size	.LASAN0, 1216
.LASAN0:
	.quad	_ZL6CRINGE
	.quad	4
	.quad	64
	.quad	.LC18
	.quad	.LC4
	.quad	0
	.quad	.LASANLOC1
	.quad	0
	.quad	_ZL12STD_LOG_NAME
	.quad	18
	.quad	64
	.quad	.LC19
	.quad	.LC4
	.quad	0
	.quad	.LASANLOC2
	.quad	0
	.quad	_ZStL8__ioinit
	.quad	1
	.quad	64
	.quad	.LC20
	.quad	.LC4
	.quad	1
	.quad	.LASANLOC3
	.quad	0
	.quad	_ZL11NOT_A_LABEL
	.quad	4
	.quad	64
	.quad	.LC21
	.quad	.LC4
	.quad	0
	.quad	.LASANLOC4
	.quad	0
	.quad	_ZL12NOT_DECLARED
	.quad	4
	.quad	64
	.quad	.LC22
	.quad	.LC4
	.quad	0
	.quad	.LASANLOC5
	.quad	0
	.quad	.LC11
	.quad	24
	.quad	64
	.quad	.LC23
	.quad	.LC4
	.quad	0
	.quad	0
	.quad	0
	.quad	.LC9
	.quad	10
	.quad	64
	.quad	.LC24
	.quad	.LC4
	.quad	0
	.quad	0
	.quad	0
	.quad	.LC5
	.quad	22
	.quad	64
	.quad	.LC25
	.quad	.LC4
	.quad	0
	.quad	0
	.quad	0
	.quad	.LC2
	.quad	64
	.quad	96
	.quad	.LC26
	.quad	.LC4
	.quad	0
	.quad	0
	.quad	0
	.quad	.LC10
	.quad	8
	.quad	64
	.quad	.LC27
	.quad	.LC4
	.quad	0
	.quad	0
	.quad	0
	.quad	.LC13
	.quad	22
	.quad	64
	.quad	.LC28
	.quad	.LC4
	.quad	0
	.quad	0
	.quad	0
	.quad	.LC7
	.quad	11
	.quad	64
	.quad	.LC29
	.quad	.LC4
	.quad	0
	.quad	0
	.quad	0
	.quad	.LC1
	.quad	37
	.quad	96
	.quad	.LC30
	.quad	.LC4
	.quad	0
	.quad	0
	.quad	0
	.quad	.LC12
	.quad	11
	.quad	64
	.quad	.LC31
	.quad	.LC4
	.quad	0
	.quad	0
	.quad	0
	.quad	.LC0
	.quad	4
	.quad	64
	.quad	.LC32
	.quad	.LC4
	.quad	0
	.quad	0
	.quad	0
	.quad	.LC3
	.quad	40
	.quad	96
	.quad	.LC33
	.quad	.LC4
	.quad	0
	.quad	0
	.quad	0
	.quad	.LC6
	.quad	36
	.quad	96
	.quad	.LC34
	.quad	.LC4
	.quad	0
	.quad	0
	.quad	0
	.quad	.LC4
	.quad	17
	.quad	64
	.quad	.LC35
	.quad	.LC4
	.quad	0
	.quad	0
	.quad	0
	.quad	.LC8
	.quad	33
	.quad	96
	.quad	.LC36
	.quad	.LC4
	.quad	0
	.quad	0
	.quad	0
	.text
	.type	_sub_D_00099_0, @function
_sub_D_00099_0:
.LFB2940:
	.cfi_startproc
	endbr64
	pushq	%rbp
	.cfi_def_cfa_offset 16
	.cfi_offset 6, -16
	movq	%rsp, %rbp
	.cfi_def_cfa_register 6
	movl	$19, %esi
	leaq	.LASAN0(%rip), %rax
	movq	%rax, %rdi
	call	__asan_unregister_globals@PLT
	popq	%rbp
	.cfi_def_cfa 7, 8
	ret
	.cfi_endproc
.LFE2940:
	.size	_sub_D_00099_0, .-_sub_D_00099_0
	.section	.fini_array.00099,"aw"
	.align 8
	.quad	_sub_D_00099_0
	.text
	.type	_sub_I_00099_1, @function
_sub_I_00099_1:
.LFB2941:
	.cfi_startproc
	endbr64
	pushq	%rbp
	.cfi_def_cfa_offset 16
	.cfi_offset 6, -16
	movq	%rsp, %rbp
	.cfi_def_cfa_register 6
	call	__asan_init@PLT
	call	__asan_version_mismatch_check_v8@PLT
	movl	$19, %esi
	leaq	.LASAN0(%rip), %rax
	movq	%rax, %rdi
	call	__asan_register_globals@PLT
	popq	%rbp
	.cfi_def_cfa 7, 8
	ret
	.cfi_endproc
.LFE2941:
	.size	_sub_I_00099_1, .-_sub_I_00099_1
	.section	.init_array.00099,"aw"
	.align 8
	.quad	_sub_I_00099_1
	.text
.Letext0:
	.file 3 "../Common/Structures/Tabels/NameTable.h"
	.file 4 "../Common/Structures/Token/Token.h"
	.file 5 "../Common/Structures/Tabels/Tabels.h"
	.file 6 "../Common/Structures/Program/Program.h"
	.file 7 "./src/AsmCtx.h"
	.file 8 "<built-in>"
	.file 9 "/usr/lib/gcc/x86_64-linux-gnu/11/include/stddef.h"
	.file 10 "/usr/include/x86_64-linux-gnu/bits/types/wint_t.h"
	.file 11 "/usr/include/x86_64-linux-gnu/bits/types/__mbstate_t.h"
	.file 12 "/usr/include/x86_64-linux-gnu/bits/types/mbstate_t.h"
	.file 13 "/usr/include/x86_64-linux-gnu/bits/types/__FILE.h"
	.file 14 "/usr/include/x86_64-linux-gnu/bits/types/struct_FILE.h"
	.file 15 "/usr/include/x86_64-linux-gnu/bits/types/FILE.h"
	.file 16 "/usr/include/c++/11/cwchar"
	.file 17 "/usr/include/c++/11/type_traits"
	.file 18 "/usr/include/c++/11/bits/exception_ptr.h"
	.file 19 "/usr/include/x86_64-linux-gnu/c++/11/bits/c++config.h"
	.file 20 "/usr/include/c++/11/concepts"
	.file 21 "/usr/include/c++/11/bits/iterator_concepts.h"
	.file 22 "/usr/include/c++/11/bits/ranges_cmp.h"
	.file 23 "/usr/include/c++/11/compare"
	.file 24 "/usr/include/c++/11/debug/debug.h"
	.file 25 "/usr/include/c++/11/cstdint"
	.file 26 "/usr/include/c++/11/clocale"
	.file 27 "/usr/include/c++/11/cstdlib"
	.file 28 "/usr/include/c++/11/numbers"
	.file 29 "/usr/include/c++/11/cstdio"
	.file 30 "/usr/include/c++/11/bits/ios_base.h"
	.file 31 "/usr/include/c++/11/cwctype"
	.file 32 "/usr/include/wchar.h"
	.file 33 "/usr/include/x86_64-linux-gnu/bits/types/struct_tm.h"
	.file 34 "/usr/include/c++/11/bits/predefined_ops.h"
	.file 35 "/usr/include/c++/11/bits/ptr_traits.h"
	.file 36 "/usr/include/x86_64-linux-gnu/bits/types.h"
	.file 37 "/usr/include/x86_64-linux-gnu/bits/stdint-intn.h"
	.file 38 "/usr/include/x86_64-linux-gnu/bits/stdint-uintn.h"
	.file 39 "/usr/include/stdint.h"
	.file 40 "/usr/include/locale.h"
	.file 41 "/usr/include/stdlib.h"
	.file 42 "/usr/include/x86_64-linux-gnu/bits/types/__fpos_t.h"
	.file 43 "/usr/include/stdio.h"
	.file 44 "/usr/include/x86_64-linux-gnu/bits/wctype-wchar.h"
	.file 45 "/usr/include/wctype.h"
	.file 46 "../ATC/Logger/LogConfig.h"
	.file 47 "../ATC/RandomStuff/CommonEnums.h"
	.file 48 "../ATC/Logger/Logger.h"
	.file 49 "/usr/include/string.h"
	.file 50 "/usr/include/c++/11/bits/algorithmfwd.h"
	.section	.note.GNU-stack,"",@progbits
	.section	.note.gnu.property,"a"
	.align 8
	.long	1f - 0f
	.long	4f - 1f
	.long	5
0:
	.string	"GNU"
1:
	.align 8
	.long	0xc0000002
	.long	3f - 2f
2:
	.long	0x3
3:
	.align 8
4:
