	.file	"GetStd.cpp"
	.text
.Ltext0:
	.file 0 "/home/arsenyfucker/Cprojects/Lang/Translator/BackEnd" "../Common/StandartAWP/GetStd.cpp"
	.section	.rodata
	.align 32
	.type	_ZL12NOT_DECLARED, @object
	.size	_ZL12NOT_DECLARED, 4
_ZL12NOT_DECLARED:
	.long	-111
	.zero	60
	.align 32
	.type	_ZL11NOT_A_LABEL, @object
	.size	_ZL11NOT_A_LABEL, 4
_ZL11NOT_A_LABEL:
	.long	-9
	.zero	60
	.align 32
.LC0:
	.string	"if"
	.zero	61
	.align 32
.LC1:
	.string	"else"
	.zero	59
	.align 32
.LC2:
	.string	"while"
	.zero	58
	.align 32
.LC3:
	.string	"return"
	.zero	57
	.section	.data.rel.ro.local,"aw"
	.align 32
	.type	_ZL12INSTRUCTIONS, @object
	.size	_ZL12INSTRUCTIONS, 32
_ZL12INSTRUCTIONS:
	.quad	.LC0
	.quad	.LC1
	.quad	.LC2
	.quad	.LC3
	.zero	32
	.section	.rodata
	.align 32
.LC4:
	.string	"fout"
	.zero	59
	.align 32
.LC5:
	.string	"fin"
	.zero	60
	.align 32
.LC6:
	.string	"sin"
	.zero	60
	.align 32
.LC7:
	.string	"cos"
	.zero	60
	.align 32
.LC8:
	.string	"pow"
	.zero	60
	.section	.data.rel.ro.local
	.align 32
	.type	_ZL16NATIVE_FUNCTIONS, @object
	.size	_ZL16NATIVE_FUNCTIONS, 80
_ZL16NATIVE_FUNCTIONS:
	.quad	.LC4
	.long	0
	.long	1
	.quad	.LC5
	.long	1
	.long	1
	.quad	.LC6
	.long	2
	.long	1
	.quad	.LC7
	.long	3
	.long	1
	.quad	.LC8
	.long	4
	.long	2
	.zero	48
	.section	.rodata
	.align 32
	.type	_ZL33NUMBER_OF_NATIVE_FUNCTIONS_STRUCT, @object
	.size	_ZL33NUMBER_OF_NATIVE_FUNCTIONS_STRUCT, 4
_ZL33NUMBER_OF_NATIVE_FUNCTIONS_STRUCT:
	.long	5
	.zero	60
	.align 32
.LC9:
	.string	"extern"
	.zero	57
	.align 32
.LC10:
	.string	"var"
	.zero	60
	.section	.data.rel.ro.local
	.align 32
	.type	_ZL14INITIALIZATORS, @object
	.size	_ZL14INITIALIZATORS, 16
_ZL14INITIALIZATORS:
	.quad	.LC9
	.quad	.LC10
	.zero	48
	.section	.rodata
	.align 32
.LC11:
	.string	"double"
	.zero	57
	.align 32
.LC12:
	.string	"void"
	.zero	59
	.section	.data.rel.ro.local
	.align 32
	.type	_ZL18FUNCTION_RET_TYPES, @object
	.size	_ZL18FUNCTION_RET_TYPES, 16
_ZL18FUNCTION_RET_TYPES:
	.quad	.LC11
	.quad	.LC12
	.zero	48
	.section	.rodata
	.align 32
	.type	_ZL9OPERATORS, @object
	.size	_ZL9OPERATORS, 9
_ZL9OPERATORS:
	.string	"+-/*<<>>"
	.zero	55
	.align 32
	.type	_ZL7COMMENT, @object
	.size	_ZL7COMMENT, 1
_ZL7COMMENT:
	.byte	35
	.zero	63
	.align 32
.LC13:
	.string	"main"
	.zero	59
	.section	.data.rel.ro.local
	.align 32
	.type	_ZL9MAIN_NAME, @object
	.size	_ZL9MAIN_NAME, 8
_ZL9MAIN_NAME:
	.quad	.LC13
	.zero	56
	.section	.rodata
	.align 32
	.type	_ZL24MAX_FUNCTION_NAME_LENGTH, @object
	.size	_ZL24MAX_FUNCTION_NAME_LENGTH, 4
_ZL24MAX_FUNCTION_NAME_LENGTH:
	.long	256
	.zero	60
	.align 32
	.type	_ZL15MAX_WORD_LENGTH, @object
	.size	_ZL15MAX_WORD_LENGTH, 4
_ZL15MAX_WORD_LENGTH:
	.long	256
	.zero	60
	.align 32
	.type	_ZL11INDENT_SIZE, @object
	.size	_ZL11INDENT_SIZE, 4
_ZL11INDENT_SIZE:
	.long	2
	.zero	60
	.align 32
	.type	_ZL10NOT_A_NAME, @object
	.size	_ZL10NOT_A_NAME, 4
_ZL10NOT_A_NAME:
	.long	-555
	.zero	60
	.align 32
	.type	_ZL17NOT_A_INSTRUCTION, @object
	.size	_ZL17NOT_A_INSTRUCTION, 4
_ZL17NOT_A_INSTRUCTION:
	.long	-666
	.zero	60
	.align 32
	.type	_ZL19NOT_A_INITIALIZATOR, @object
	.size	_ZL19NOT_A_INITIALIZATOR, 4
_ZL19NOT_A_INITIALIZATOR:
	.long	-111
	.zero	60
	.align 32
	.type	_ZL14NOT_A_RET_TYPE, @object
	.size	_ZL14NOT_A_RET_TYPE, 4
_ZL14NOT_A_RET_TYPE:
	.long	-333
	.zero	60
	.align 32
	.type	_ZL21NOT_A_NATIVE_FUNCTION, @object
	.size	_ZL21NOT_A_NATIVE_FUNCTION, 4
_ZL21NOT_A_NATIVE_FUNCTION:
	.long	-222
	.zero	60
	.align 32
	.type	_ZL22START_NUMBER_OF_TOKENS, @object
	.size	_ZL22START_NUMBER_OF_TOKENS, 4
_ZL22START_NUMBER_OF_TOKENS:
	.long	20
	.zero	60
	.align 32
	.type	_ZL23START_NUMBER_OF_STRINGS, @object
	.size	_ZL23START_NUMBER_OF_STRINGS, 4
_ZL23START_NUMBER_OF_STRINGS:
	.long	16
	.zero	60
	.bss
	.align 32
	.type	_ZStL8__ioinit, @object
	.size	_ZStL8__ioinit, 1
_ZStL8__ioinit:
	.zero	64
	.section	.rodata
	.align 32
	.type	_ZL12STD_LOG_NAME, @object
	.size	_ZL12STD_LOG_NAME, 18
_ZL12STD_LOG_NAME:
	.string	"./logs/stdlog.ars"
	.zero	46
	.align 32
	.type	_ZL6CRINGE, @object
	.size	_ZL6CRINGE, 4
_ZL6CRINGE:
	.long	3565
	.zero	60
	.align 32
.LC14:
	.string	"NIL"
	.zero	60
	.align 32
.LC15:
	.string	"PARAM"
	.zero	58
	.align 32
.LC16:
	.string	"ST"
	.zero	61
	.align 32
.LC17:
	.string	"FUNC"
	.zero	59
	.align 32
.LC18:
	.string	"RET"
	.zero	60
	.align 32
.LC19:
	.string	"CALL"
	.zero	59
	.align 32
.LC20:
	.string	"VAR"
	.zero	60
	.align 32
.LC21:
	.string	"IF"
	.zero	61
	.align 32
.LC22:
	.string	"ELSE"
	.zero	59
	.align 32
.LC23:
	.string	"TYPE"
	.zero	59
	.align 32
.LC24:
	.string	"VOID"
	.zero	59
	.align 32
.LC25:
	.string	"IN"
	.zero	61
	.align 32
.LC26:
	.string	"OUT"
	.zero	60
	.align 32
.LC27:
	.string	"SIN"
	.zero	60
	.align 32
.LC28:
	.string	"COS"
	.zero	60
	.align 32
.LC29:
	.string	"POW"
	.zero	60
	.align 32
.LC30:
	.string	"EQ"
	.zero	61
	.align 32
.LC31:
	.string	"ADD"
	.zero	60
	.align 32
.LC32:
	.string	"SUB"
	.zero	60
	.align 32
.LC33:
	.string	"MUL"
	.zero	60
	.align 32
.LC34:
	.string	"DIV"
	.zero	60
	.align 32
.LC35:
	.string	"IS_GT"
	.zero	58
	.align 32
.LC36:
	.string	"IS_BT"
	.zero	58
	.section	.data.rel.ro.local
	.align 32
	.type	_ZL10STD_LEXEMS, @object
	.size	_ZL10STD_LEXEMS, 552
_ZL10STD_LEXEMS:
	.quad	.LC14
	.zero	8
	.long	0
	.zero	4
	.quad	.LC15
	.byte	36
	.zero	7
	.long	12
	.zero	4
	.quad	.LC16
	.byte	36
	.zero	7
	.long	1
	.zero	4
	.quad	.LC17
	.byte	36
	.zero	7
	.long	9
	.zero	4
	.quad	.LC18
	.zero	8
	.long	4
	.zero	4
	.quad	.LC19
	.byte	36
	.zero	7
	.long	10
	.zero	4
	.quad	.LC20
	.long	1
	.zero	4
	.long	3
	.zero	4
	.quad	.LC21
	.long	0
	.zero	4
	.long	2
	.zero	4
	.quad	.LC22
	.long	1
	.zero	4
	.long	2
	.zero	4
	.quad	.LC23
	.long	0
	.zero	4
	.long	4
	.zero	4
	.quad	.LC24
	.long	1
	.zero	4
	.long	4
	.zero	4
	.quad	.LC25
	.long	1
	.zero	4
	.long	11
	.zero	4
	.quad	.LC26
	.long	0
	.zero	4
	.long	11
	.zero	4
	.quad	.LC27
	.long	2
	.zero	4
	.long	11
	.zero	4
	.quad	.LC28
	.long	3
	.zero	4
	.long	11
	.zero	4
	.quad	.LC29
	.long	4
	.zero	4
	.long	11
	.zero	4
	.quad	.LC30
	.byte	61
	.zero	7
	.long	61
	.zero	4
	.quad	.LC31
	.byte	43
	.zero	7
	.long	5
	.zero	4
	.quad	.LC32
	.byte	45
	.zero	7
	.long	5
	.zero	4
	.quad	.LC33
	.byte	42
	.zero	7
	.long	5
	.zero	4
	.quad	.LC34
	.byte	47
	.zero	7
	.long	5
	.zero	4
	.quad	.LC35
	.byte	62
	.zero	7
	.long	5
	.zero	4
	.quad	.LC36
	.byte	60
	.zero	7
	.long	5
	.zero	4
	.zero	56
	.section	.rodata
	.align 32
	.type	_ZL20NUMBER_OF_STD_LEXEMS, @object
	.size	_ZL20NUMBER_OF_STD_LEXEMS, 4
_ZL20NUMBER_OF_STD_LEXEMS:
	.long	23
	.zero	60
	.align 32
	.type	_ZL7ERROR_1, @object
	.size	_ZL7ERROR_1, 8
_ZL7ERROR_1:
	.quad	1
	.zero	56
	.align 32
	.type	_ZL7ERROR_2, @object
	.size	_ZL7ERROR_2, 8
_ZL7ERROR_2:
	.quad	2
	.zero	56
	.align 32
	.type	_ZL7ERROR_3, @object
	.size	_ZL7ERROR_3, 8
_ZL7ERROR_3:
	.quad	3
	.zero	56
	.align 32
	.type	_ZL7ERROR_4, @object
	.size	_ZL7ERROR_4, 8
_ZL7ERROR_4:
	.quad	4
	.zero	56
	.align 32
	.type	_ZL7ERROR_5, @object
	.size	_ZL7ERROR_5, 8
_ZL7ERROR_5:
	.quad	5
	.zero	56
	.align 32
	.type	_ZL7ERROR_6, @object
	.size	_ZL7ERROR_6, 8
_ZL7ERROR_6:
	.quad	6
	.zero	56
	.align 32
	.type	_ZL10PREV_ERROR, @object
	.size	_ZL10PREV_ERROR, 8
_ZL10PREV_ERROR:
	.quad	19
	.zero	56
	.align 32
	.type	_ZL14ERROR_TRASHOLD, @object
	.size	_ZL14ERROR_TRASHOLD, 8
_ZL14ERROR_TRASHOLD:
	.quad	153
	.zero	56
	.globl	__asan_stack_malloc_2
	.align 8
.LC37:
	.string	"2 32 24 12 func_111:111 96 64 4 ctx_"
	.align 32
.LC38:
	.string	"GetProgramFromStdAwp"
	.zero	43
	.align 32
.LC39:
	.string	"program"
	.zero	56
	.align 32
.LC40:
	.string	"ASSERTLOG:: Condition (%s) is false\n"
	.zero	59
	.align 32
.LC41:
	.string	"\033[93mASSERTLOG:: \033[0mCondition\033[95m (%s) \033[0mis \033[91mfalse\n\033[0m"
	.zero	32
	.align 32
.LC42:
	.string	"int GetProgramFromStdAwp(Program*, const char*)"
	.zero	48
	.align 32
.LC43:
	.string	"../Common/StandartAWP/GetStd.cpp"
	.zero	63
	.align 32
.LC44:
	.string	"\t%s:%d, function: %s\n"
	.zero	42
	.align 32
.LC45:
	.string	"It matches to error: (code %d) %s\n\n"
	.zero	60
	.align 32
.LC46:
	.string	"Shutting down the system (%s:%d)"
	.zero	63
	.align 32
.LC47:
	.string	"echo LOX\n"
	.zero	54
	.align 32
.LC48:
	.string	"path_to_file"
	.zero	51
	.text
	.globl	_Z20GetProgramFromStdAwpP7ProgramPKc
	.type	_Z20GetProgramFromStdAwpP7ProgramPKc, @function
_Z20GetProgramFromStdAwpP7ProgramPKc:
.LASANPC2865:
.LFB2865:
	.file 1 "../Common/StandartAWP/GetStd.cpp"
	.loc 1 110 5
	.cfi_startproc
	.cfi_personality 0x9b,DW.ref.__gxx_personality_v0
	.cfi_lsda 0x1b,.LLSDA2865
	endbr64
	pushq	%rbp
	.cfi_def_cfa_offset 16
	.cfi_offset 6, -16
	movq	%rsp, %rbp
	.cfi_def_cfa_register 6
	pushq	%r15
	pushq	%r14
	pushq	%r13
	pushq	%r12
	pushq	%rbx
	subq	$248, %rsp
	.cfi_offset 15, -24
	.cfi_offset 14, -32
	.cfi_offset 13, -40
	.cfi_offset 12, -48
	.cfi_offset 3, -56
	movq	%rdi, -280(%rbp)
	movq	%rsi, -288(%rbp)
	leaq	-240(%rbp), %rbx
	movq	%rbx, %r15
	cmpl	$0, __asan_option_detect_stack_use_after_return(%rip)
	je	.L1
	movl	$192, %edi
	call	__asan_stack_malloc_2@PLT
	testq	%rax, %rax
	je	.L1
	movq	%rax, %rbx
.L1:
	leaq	192(%rbx), %rax
	movq	%rax, %r13
	movq	$1102416563, (%rbx)
	leaq	.LC37(%rip), %rax
	movq	%rax, 8(%rbx)
	leaq	.LASANPC2865(%rip), %rax
	movq	%rax, 16(%rbx)
	movq	%rbx, %r12
	shrq	$3, %r12
	movl	$-235802127, 2147450880(%r12)
	movl	$-234881024, 2147450884(%r12)
	movl	$-218959118, 2147450888(%r12)
	movl	$-202116109, 2147450900(%r12)
	.loc 1 111 41
	leaq	-160(%r13), %rax
	leaq	.LC38(%rip), %rdx
	movl	$1, %esi
	movq	%rax, %rdi
.LEHB0:
	call	_ZN14FunctionLoggerC1EiPKc@PLT
.LEHE0:
	.loc 1 112 10
	cmpq	$0, -280(%rbp)
	jne	.L5
.LEHB1:
	.loc 1 112 47 discriminator 1
	call	_ZN6Logger11getInstanceEv@PLT
	movq	%rax, %rcx
	.loc 1 112 53 discriminator 1
	leaq	.LC39(%rip), %rax
	movq	%rax, %rdx
	leaq	.LC40(%rip), %rax
	movq	%rax, %rsi
	movq	%rcx, %rdi
	movl	$0, %eax
	call	_ZN6Logger3logEPKcz@PLT
	.loc 1 112 113 discriminator 3
	leaq	.LC39(%rip), %rax
	movq	%rax, %rsi
	leaq	.LC41(%rip), %rax
	movq	%rax, %rdi
	movl	$0, %eax
	call	printf@PLT
	.loc 1 112 261 discriminator 4
	call	_ZN6Logger11getInstanceEv@PLT
	movq	%rax, %rdi
	.loc 1 112 267 discriminator 4
	leaq	.LC42(%rip), %r8
	movl	$112, %ecx
	leaq	.LC43(%rip), %rax
	movq	%rax, %rdx
	leaq	.LC44(%rip), %rax
	movq	%rax, %rsi
	movl	$0, %eax
	call	_ZN6Logger3logEPKcz@PLT
	.loc 1 112 364 discriminator 6
	leaq	.LC42(%rip), %rax
	movq	%rax, %rcx
	movl	$112, %edx
	leaq	.LC43(%rip), %rax
	movq	%rax, %rsi
	leaq	.LC44(%rip), %rax
	movq	%rax, %rdi
	movl	$0, %eax
	call	printf@PLT
	.loc 1 112 474 discriminator 7
	call	_ZN6Logger11getInstanceEv@PLT
	movq	%rax, %r14
	.loc 1 112 480 discriminator 7
	movl	$14, %edi
	call	strerror@PLT
	movq	%rax, %rcx
	movl	$14, %edx
	leaq	.LC45(%rip), %rax
	movq	%rax, %rsi
	movq	%r14, %rdi
	movl	$0, %eax
	call	_ZN6Logger3logEPKcz@PLT
	.loc 1 112 27 discriminator 9
	call	_ZN6Logger11getInstanceEv@PLT
	movq	%rax, %rdi
	.loc 1 112 33 discriminator 9
	movl	$112, %ecx
	leaq	.LC38(%rip), %rax
	movq	%rax, %rdx
	leaq	.LC46(%rip), %rax
	movq	%rax, %rsi
	movl	$0, %eax
	call	_ZN6Logger3logEPKcz@PLT
	.loc 1 112 92 discriminator 11
	leaq	.LC47(%rip), %rax
	movq	%rax, %rdi
	call	system@PLT
	.loc 1 112 115 discriminator 12
	movl	$-2, %r14d
	jmp	.L6
.L5:
	.loc 1 113 10
	cmpq	$0, -288(%rbp)
	jne	.L7
	.loc 1 113 52 discriminator 1
	call	_ZN6Logger11getInstanceEv@PLT
	movq	%rax, %rcx
	.loc 1 113 58 discriminator 1
	leaq	.LC48(%rip), %rax
	movq	%rax, %rdx
	leaq	.LC40(%rip), %rax
	movq	%rax, %rsi
	movq	%rcx, %rdi
	movl	$0, %eax
	call	_ZN6Logger3logEPKcz@PLT
	.loc 1 113 123 discriminator 3
	leaq	.LC48(%rip), %rax
	movq	%rax, %rsi
	leaq	.LC41(%rip), %rax
	movq	%rax, %rdi
	movl	$0, %eax
	call	printf@PLT
	.loc 1 113 276 discriminator 4
	call	_ZN6Logger11getInstanceEv@PLT
	movq	%rax, %rdi
	.loc 1 113 282 discriminator 4
	leaq	.LC42(%rip), %r8
	movl	$113, %ecx
	leaq	.LC43(%rip), %rax
	movq	%rax, %rdx
	leaq	.LC44(%rip), %rax
	movq	%rax, %rsi
	movl	$0, %eax
	call	_ZN6Logger3logEPKcz@PLT
	.loc 1 113 379 discriminator 6
	leaq	.LC42(%rip), %rax
	movq	%rax, %rcx
	movl	$113, %edx
	leaq	.LC43(%rip), %rax
	movq	%rax, %rsi
	leaq	.LC44(%rip), %rax
	movq	%rax, %rdi
	movl	$0, %eax
	call	printf@PLT
	.loc 1 113 489 discriminator 7
	call	_ZN6Logger11getInstanceEv@PLT
	movq	%rax, %r14
	.loc 1 113 495 discriminator 7
	movl	$14, %edi
	call	strerror@PLT
	movq	%rax, %rcx
	movl	$14, %edx
	leaq	.LC45(%rip), %rax
	movq	%rax, %rsi
	movq	%r14, %rdi
	movl	$0, %eax
	call	_ZN6Logger3logEPKcz@PLT
	.loc 1 113 27 discriminator 9
	call	_ZN6Logger11getInstanceEv@PLT
	movq	%rax, %rdi
	.loc 1 113 33 discriminator 9
	movl	$113, %ecx
	leaq	.LC38(%rip), %rax
	movq	%rax, %rdx
	leaq	.LC46(%rip), %rax
	movq	%rax, %rsi
	movl	$0, %eax
	call	_ZN6Logger3logEPKcz@PLT
	.loc 1 113 92 discriminator 11
	leaq	.LC47(%rip), %rax
	movq	%rax, %rdi
	call	system@PLT
	.loc 1 113 115 discriminator 12
	movl	$-2, %r14d
	jmp	.L6
.L7:
	.loc 1 115 40
	movq	-288(%rbp), %rax
	movq	%rax, %rdi
	call	_Z10GetSrcFilePKc@PLT
	movq	%rax, -272(%rbp)
	.loc 1 116 6
	cmpq	$0, -272(%rbp)
	jne	.L8
	.loc 1 117 15
	movl	$-1, %r14d
	jmp	.L6
.L8:
	.loc 1 119 16
	leaq	-96(%r13), %rax
	movq	%rax, %rdx
	shrq	$3, %rdx
	addq	$2147450880, %rdx
	movzbl	(%rdx), %edx
	testb	%dl, %dl
	setne	%cl
	testb	%dl, %dl
	setle	%dl
	movl	%ecx, %esi
	andl	%edx, %esi
	movl	$64, %edx
	subq	$1, %rdx
	leaq	(%rax,%rdx), %rcx
	movq	%rcx, %rdx
	shrq	$3, %rdx
	addq	$2147450880, %rdx
	movzbl	(%rdx), %edx
	testb	%dl, %dl
	setne	%dil
	andl	$7, %ecx
	cmpb	%dl, %cl
	setge	%dl
	andl	%edi, %edx
	orl	%esi, %edx
	testb	%dl, %dl
	je	.L9
	movl	$64, %esi
	movq	%rax, %rdi
	call	__asan_report_store_n@PLT
.L9:
	movq	$0, -96(%r13)
	movq	$0, -88(%r13)
	movq	$0, -80(%r13)
	movq	$0, -72(%r13)
	movq	$0, -64(%r13)
	movq	$0, -56(%r13)
	movq	$0, -48(%r13)
	movq	$0, -40(%r13)
	.loc 1 120 17
	leaq	-96(%r13), %rax
	movq	%rax, -264(%rbp)
	.loc 1 122 42
	movq	-272(%rbp), %rax
	movl	$123, %esi
	movq	%rax, %rdi
	call	_Z10CountLinesPKcc@PLT
	movq	%rax, -256(%rbp)
	.loc 1 126 23
	movq	-256(%rbp), %rdx
	movq	-272(%rbp), %rsi
	movq	-264(%rbp), %rax
	movq	%rdx, %rcx
	movl	$0, %edx
	movq	%rax, %rdi
	call	_Z14LexicalCtxCtorP10LexicalCtxPKcim@PLT
	.loc 1 126 66 discriminator 1
	testl	%eax, %eax
	setne	%al
	.loc 1 126 5 discriminator 1
	testb	%al, %al
	je	.L10
	.loc 1 127 16
	movl	$-1, %r14d
	jmp	.L6
.L10:
	.loc 1 129 34
	movq	-264(%rbp), %rax
	movq	%rax, %rdi
	call	_ZL15GetTokenFromStdP10LexicalCtx
	movq	%rax, -248(%rbp)
	.loc 1 130 5
	cmpq	$152, -248(%rbp)
	jbe	.L29
	.loc 1 133 34
	movq	-264(%rbp), %rax
	addq	$8, %rax
	movq	%rax, %rdx
	shrq	$3, %rdx
	addq	$2147450880, %rdx
	movzbl	(%rdx), %edx
	testb	%dl, %dl
	je	.L13
	movq	%rax, %rdi
	call	__asan_report_load8@PLT
.L13:
	movq	-264(%rbp), %rax
	movq	8(%rax), %rdx
	.loc 1 133 24
	movq	-280(%rbp), %rax
	movq	%rax, %rcx
	shrq	$3, %rcx
	addq	$2147450880, %rcx
	movzbl	(%rcx), %ecx
	testb	%cl, %cl
	je	.L14
	movq	%rax, %rdi
	call	__asan_report_store8@PLT
.L14:
	movq	-280(%rbp), %rax
	movq	%rdx, (%rax)
	.loc 1 134 47
	movq	-264(%rbp), %rax
	addq	$24, %rax
	movq	%rax, %rdx
	shrq	$3, %rdx
	addq	$2147450880, %rdx
	movzbl	(%rdx), %edx
	testb	%dl, %dl
	je	.L15
	movq	%rax, %rdi
	call	__asan_report_load8@PLT
.L15:
	movq	-264(%rbp), %rax
	movq	24(%rax), %rax
	.loc 1 134 31
	movl	%eax, %ecx
	movq	-280(%rbp), %rax
	addq	$8, %rax
	movq	%rax, %rdx
	movq	%rdx, %rax
	shrq	$3, %rax
	addq	$2147450880, %rax
	movzbl	(%rax), %eax
	testb	%al, %al
	setne	%sil
	cmpb	$3, %al
	setle	%al
	andl	%esi, %eax
	testb	%al, %al
	je	.L16
	movq	%rdx, %rdi
	call	__asan_report_store4@PLT
.L16:
	movq	-280(%rbp), %rax
	movl	%ecx, 8(%rax)
	.loc 1 135 19
	movq	-280(%rbp), %rax
	addq	$16, %rax
	movq	%rax, %rdx
	shrq	$3, %rdx
	addq	$2147450880, %rdx
	movzbl	(%rdx), %edx
	testb	%dl, %dl
	je	.L17
	movq	%rax, %rdi
	call	__asan_report_store8@PLT
.L17:
	movq	-280(%rbp), %rax
	movq	-248(%rbp), %rdx
	movq	%rdx, 16(%rax)
	.loc 1 139 35
	movq	-264(%rbp), %rax
	addq	$32, %rax
	movq	%rax, %rdx
	shrq	$3, %rdx
	addq	$2147450880, %rdx
	movzbl	(%rdx), %edx
	testb	%dl, %dl
	je	.L18
	movq	%rax, %rdi
	call	__asan_report_load8@PLT
.L18:
	movq	-264(%rbp), %rax
	movq	32(%rax), %rdx
	.loc 1 139 25
	movq	-280(%rbp), %rax
	addq	$24, %rax
	movq	%rax, %rcx
	shrq	$3, %rcx
	addq	$2147450880, %rcx
	movzbl	(%rcx), %ecx
	testb	%cl, %cl
	je	.L19
	movq	%rax, %rdi
	call	__asan_report_store8@PLT
.L19:
	movq	-280(%rbp), %rax
	movq	%rdx, 24(%rax)
	.loc 1 140 48
	movq	-264(%rbp), %rax
	addq	$48, %rax
	movq	%rax, %rdx
	shrq	$3, %rdx
	addq	$2147450880, %rdx
	movzbl	(%rdx), %edx
	testb	%dl, %dl
	je	.L20
	movq	%rax, %rdi
	call	__asan_report_load8@PLT
.L20:
	movq	-264(%rbp), %rax
	movq	48(%rax), %rax
	.loc 1 140 32
	movl	%eax, %ecx
	movq	-280(%rbp), %rax
	addq	$32, %rax
	movq	%rax, %rdx
	movq	%rdx, %rax
	shrq	$3, %rax
	addq	$2147450880, %rax
	movzbl	(%rax), %eax
	testb	%al, %al
	setne	%sil
	cmpb	$3, %al
	setle	%al
	andl	%esi, %eax
	testb	%al, %al
	je	.L21
	movq	%rdx, %rdi
	call	__asan_report_store4@PLT
.L21:
	movq	-280(%rbp), %rax
	movl	%ecx, 32(%rax)
	.loc 1 142 31
	movq	-280(%rbp), %rax
	addq	$40, %rax
	movq	%rax, %rdx
	shrq	$3, %rdx
	addq	$2147450880, %rdx
	movzbl	(%rdx), %edx
	testb	%dl, %dl
	je	.L22
	movq	%rax, %rdi
	call	__asan_report_store8@PLT
.L22:
	movq	-280(%rbp), %rax
	movq	-288(%rbp), %rdx
	movq	%rdx, 40(%rax)
	.loc 1 144 24
	call	_ZN6Logger11getInstanceEv@PLT
	movq	%rax, %rdi
	.loc 1 144 45
	movq	-264(%rbp), %rax
	movq	%rax, %rdx
	shrq	$3, %rdx
	addq	$2147450880, %rdx
	movzbl	(%rdx), %edx
	testb	%dl, %dl
	je	.L23
	movq	%rax, %rdi
	call	__asan_report_load8@PLT
.L23:
	.loc 1 144 45 is_stmt 0 discriminator 1
	movq	-264(%rbp), %rax
	movq	(%rax), %rax
	.loc 1 144 36 is_stmt 1 discriminator 1
	movl	$144, %r8d
	leaq	.LC38(%rip), %rdx
	movq	%rdx, %rcx
	leaq	.LC43(%rip), %rdx
	movq	%rax, %rsi
	call	_ZN6Logger8FREE_LOGEPvPKcS2_i@PLT
	.loc 1 145 24
	call	_ZN6Logger11getInstanceEv@PLT
	movq	%rax, %rdi
	.loc 1 145 36
	movq	-272(%rbp), %rax
	movl	$145, %r8d
	leaq	.LC38(%rip), %rdx
	movq	%rdx, %rcx
	leaq	.LC43(%rip), %rdx
	movq	%rax, %rsi
	call	_ZN6Logger8FREE_LOGEPvPKcS2_i@PLT
	.loc 1 147 12
	movl	$0, %r14d
	jmp	.L6
.L29:
	.loc 1 131 14
	nop
.L12:
	.loc 1 151 23
	movq	-264(%rbp), %rax
	movq	%rax, %rdi
	call	_Z18LexicalCtxFailDtorP10LexicalCtx@PLT
	.loc 1 152 24
	call	_ZN6Logger11getInstanceEv@PLT
	movq	%rax, %rdi
	.loc 1 152 36
	movq	-272(%rbp), %rax
	movl	$152, %r8d
	leaq	.LC38(%rip), %rdx
	movq	%rdx, %rcx
	leaq	.LC43(%rip), %rdx
	movq	%rax, %rsi
	call	_ZN6Logger8FREE_LOGEPvPKcS2_i@PLT
.LEHE1:
	.loc 1 154 12
	movl	$-1, %r14d
.L6:
	.loc 1 155 5
	leaq	-160(%r13), %rax
	movq	%rax, %rdi
	call	_ZN14FunctionLoggerD1Ev@PLT
	movl	%r14d, %edx
	.loc 1 110 5
	cmpq	%rbx, %r15
	je	.L2
	jmp	.L28
.L26:
	endbr64
	.loc 1 155 5
	movq	%rax, %rbx
	leaq	-160(%r13), %rax
	movq	%rax, %rdi
	call	_ZN14FunctionLoggerD1Ev@PLT
	call	__asan_handle_no_return@PLT
	movq	%rbx, %rdi
.LEHB2:
	call	_Unwind_Resume@PLT
.LEHE2:
.L28:
	.loc 1 110 5
	movq	$1172321806, (%rbx)
	movabsq	$-723401728380766731, %rsi
	movabsq	$-723401728380766731, %rdi
	movq	%rsi, 2147450880(%r12)
	movq	%rdi, 2147450888(%r12)
	movabsq	$-723401728380766731, %rax
	movq	%rax, 2147450896(%r12)
	movq	248(%rbx), %rax
	movb	$0, (%rax)
	jmp	.L3
.L2:
	movq	$0, 2147450880(%r12)
	movl	$0, 2147450888(%r12)
	movl	$0, 2147450900(%r12)
.L3:
	.loc 1 155 5
	movl	%edx, %eax
	addq	$248, %rsp
	popq	%rbx
	popq	%r12
	popq	%r13
	popq	%r14
	popq	%r15
	popq	%rbp
	.cfi_def_cfa 7, 8
	ret
	.cfi_endproc
.LFE2865:
	.globl	__gxx_personality_v0
	.section	.gcc_except_table,"a",@progbits
.LLSDA2865:
	.byte	0xff
	.byte	0xff
	.byte	0x1
	.uleb128 .LLSDACSE2865-.LLSDACSB2865
.LLSDACSB2865:
	.uleb128 .LEHB0-.LFB2865
	.uleb128 .LEHE0-.LEHB0
	.uleb128 0
	.uleb128 0
	.uleb128 .LEHB1-.LFB2865
	.uleb128 .LEHE1-.LEHB1
	.uleb128 .L26-.LFB2865
	.uleb128 0
	.uleb128 .LEHB2-.LFB2865
	.uleb128 .LEHE2-.LEHB2
	.uleb128 0
	.uleb128 0
.LLSDACSE2865:
	.text
	.size	_Z20GetProgramFromStdAwpP7ProgramPKc, .-_Z20GetProgramFromStdAwpP7ProgramPKc
	.section	.rodata
	.align 32
	.type	_ZL12END_OF_TOKEN, @object
	.size	_ZL12END_OF_TOKEN, 8
_ZL12END_OF_TOKEN:
	.quad	2457
	.zero	56
	.bss
	.align 32
	.type	_ZZL15GetTokenFromStdP10LexicalCtxE11word_buffer, @object
	.size	_ZZL15GetTokenFromStdP10LexicalCtxE11word_buffer, 256
_ZZL15GetTokenFromStdP10LexicalCtxE11word_buffer:
	.zero	288
	.section	.rodata
	.align 8
.LC49:
	.string	"3 48 4 1 n 64 8 5 value 96 24 12 func_174:174"
	.align 32
.LC50:
	.string	"GetTokenFromStd"
	.zero	48
	.align 32
.LC51:
	.string	"ctx"
	.zero	60
	.align 32
.LC52:
	.string	"Token* GetTokenFromStd(LexicalCtx*)"
	.zero	60
	.align 32
.LC53:
	.string	"\t%s: "
	.zero	58
	.align 32
.LC54:
	.string	" \n\t"
	.zero	60
	.align 32
.LC55:
	.string	"Missing '{' in <%.*s>\n"
	.zero	41
	.align 32
.LC56:
	.string	" (%s:%d)\n"
	.zero	54
	.align 32
.LC57:
	.string	" %[a-zA-Z_]%n"
	.zero	50
	.align 32
.LC58:
	.string	"<%s> not a std cmd\n"
	.zero	44
	.align 32
.LC59:
	.string	"Missing '}' in <%.*s>\n"
	.zero	41
	.align 32
.LC61:
	.string	" %lg%n"
	.zero	57
	.align 32
.LC62:
	.string	" \"%[^\"]%n"
	.zero	54
	.align 32
.LC63:
	.string	"word_buffer"
	.zero	52
	.align 32
.LC64:
	.string	"\t%s: <%s>\n"
	.zero	53
	.align 32
.LC65:
	.string	"n"
	.zero	62
	.align 32
.LC66:
	.string	"\t%s: %d\n"
	.zero	55
	.align 32
.LC67:
	.string	"BUF(ctx)->str"
	.zero	50
	.align 32
.LC68:
	.string	"Got left"
	.zero	55
	.align 32
.LC69:
	.string	"\"Got left\""
	.zero	53
	.align 32
.LC70:
	.string	"Got right"
	.zero	54
	.align 32
.LC71:
	.string	"\"Got right\""
	.zero	52
	.text
	.type	_ZL15GetTokenFromStdP10LexicalCtx, @function
_ZL15GetTokenFromStdP10LexicalCtx:
.LASANPC2866:
.LFB2866:
	.loc 1 173 5
	.cfi_startproc
	.cfi_personality 0x9b,DW.ref.__gxx_personality_v0
	.cfi_lsda 0x1b,.LLSDA2866
	endbr64
	pushq	%rbp
	.cfi_def_cfa_offset 16
	.cfi_offset 6, -16
	movq	%rsp, %rbp
	.cfi_def_cfa_register 6
	pushq	%r15
	pushq	%r14
	pushq	%r13
	pushq	%r12
	pushq	%rbx
	subq	$200, %rsp
	.cfi_offset 15, -24
	.cfi_offset 14, -32
	.cfi_offset 13, -40
	.cfi_offset 12, -48
	.cfi_offset 3, -56
	movq	%rdi, -232(%rbp)
	leaq	-208(%rbp), %r12
	movq	%r12, %r15
	cmpl	$0, __asan_option_detect_stack_use_after_return(%rip)
	je	.L30
	movl	$160, %edi
	call	__asan_stack_malloc_2@PLT
	testq	%rax, %rax
	je	.L30
	movq	%rax, %r12
.L30:
	leaq	160(%r12), %rax
	movq	%rax, %rbx
	movq	$1102416563, (%r12)
	leaq	.LC49(%rip), %rax
	movq	%rax, 8(%r12)
	leaq	.LASANPC2866(%rip), %rax
	movq	%rax, 16(%r12)
	movq	%r12, %r13
	shrq	$3, %r13
	movl	$-235802127, 2147450880(%r13)
	movl	$-234556943, 2147450884(%r13)
	movl	$-218959360, 2147450888(%r13)
	movl	$-218103808, 2147450892(%r13)
	movl	$-202116109, 2147450896(%r13)
	.loc 1 174 41
	leaq	-64(%rbx), %rax
	leaq	.LC50(%rip), %rdx
	movl	$1, %esi
	movq	%rax, %rdi
.LEHB3:
	call	_ZN14FunctionLoggerC1EiPKc@PLT
.LEHE3:
	.loc 1 175 10
	cmpq	$0, -232(%rbp)
	jne	.L34
.LEHB4:
	.loc 1 175 43 discriminator 1
	call	_ZN6Logger11getInstanceEv@PLT
	movq	%rax, %rcx
	.loc 1 175 49 discriminator 1
	leaq	.LC51(%rip), %rax
	movq	%rax, %rdx
	leaq	.LC40(%rip), %rax
	movq	%rax, %rsi
	movq	%rcx, %rdi
	movl	$0, %eax
	call	_ZN6Logger3logEPKcz@PLT
	.loc 1 175 105 discriminator 3
	leaq	.LC51(%rip), %rax
	movq	%rax, %rsi
	leaq	.LC41(%rip), %rax
	movq	%rax, %rdi
	movl	$0, %eax
	call	printf@PLT
	.loc 1 175 249 discriminator 4
	call	_ZN6Logger11getInstanceEv@PLT
	movq	%rax, %rdi
	.loc 1 175 255 discriminator 4
	leaq	.LC52(%rip), %r8
	movl	$175, %ecx
	leaq	.LC43(%rip), %rax
	movq	%rax, %rdx
	leaq	.LC44(%rip), %rax
	movq	%rax, %rsi
	movl	$0, %eax
	call	_ZN6Logger3logEPKcz@PLT
	.loc 1 175 352 discriminator 6
	leaq	.LC52(%rip), %rax
	movq	%rax, %rcx
	movl	$175, %edx
	leaq	.LC43(%rip), %rax
	movq	%rax, %rsi
	leaq	.LC44(%rip), %rax
	movq	%rax, %rdi
	movl	$0, %eax
	call	printf@PLT
	.loc 1 175 462 discriminator 7
	call	_ZN6Logger11getInstanceEv@PLT
	movq	%rax, %r14
	.loc 1 175 468 discriminator 7
	movl	$14, %edi
	call	strerror@PLT
	movq	%rax, %rcx
	movl	$14, %edx
	leaq	.LC45(%rip), %rax
	movq	%rax, %rsi
	movq	%r14, %rdi
	movl	$0, %eax
	call	_ZN6Logger3logEPKcz@PLT
	.loc 1 175 27 discriminator 9
	call	_ZN6Logger11getInstanceEv@PLT
	movq	%rax, %rdi
	.loc 1 175 33 discriminator 9
	movl	$175, %ecx
	leaq	.LC50(%rip), %rax
	movq	%rax, %rdx
	leaq	.LC46(%rip), %rax
	movq	%rax, %rsi
	movl	$0, %eax
	call	_ZN6Logger3logEPKcz@PLT
	.loc 1 175 92 discriminator 11
	leaq	.LC47(%rip), %rax
	movq	%rax, %rdi
	call	system@PLT
	.loc 1 175 4 discriminator 12
	movl	$0, %r14d
	jmp	.L35
.L34:
	.loc 1 177 30
	movq	-232(%rbp), %rax
	movq	%rax, %rdx
	shrq	$3, %rdx
	addq	$2147450880, %rdx
	movzbl	(%rdx), %edx
	testb	%dl, %dl
	je	.L36
	movq	%rax, %rdi
	call	__asan_report_load8@PLT
.L36:
	movq	-232(%rbp), %rax
	movq	(%rax), %rax
	movq	%rax, %rdi
	call	_Z11BufferGetChP6Buffer@PLT
	movl	%eax, -224(%rbp)
	.loc 1 179 5
	cmpl	$125, -224(%rbp)
	jne	.L37
	.loc 1 180 16
	movl	$2457, %r14d
	jmp	.L35
.L37:
	.loc 1 182 5
	cmpl	$123, -224(%rbp)
	je	.L38
	.loc 1 184 17
	leaq	.LC50(%rip), %rax
	movq	%rax, %rsi
	leaq	.LC53(%rip), %rax
	movq	%rax, %rdi
	movl	$0, %eax
	call	printf@PLT
	.loc 1 184 124 discriminator 1
	movq	-232(%rbp), %rax
	movq	%rax, %rdx
	shrq	$3, %rdx
	addq	$2147450880, %rdx
	movzbl	(%rdx), %edx
	testb	%dl, %dl
	je	.L39
	.loc 1 184 124 is_stmt 0
	movq	%rax, %rdi
	call	__asan_report_load8@PLT
.L39:
	.loc 1 184 124 discriminator 1
	movq	-232(%rbp), %rax
	movq	(%rax), %rax
	.loc 1 184 45 is_stmt 1 discriminator 1
	leaq	8(%rax), %rdx
	movq	%rdx, %rcx
	shrq	$3, %rcx
	addq	$2147450880, %rcx
	movzbl	(%rcx), %ecx
	testb	%cl, %cl
	je	.L40
	.loc 1 184 45 is_stmt 0
	movq	%rdx, %rdi
	call	__asan_report_load8@PLT
.L40:
	.loc 1 184 45 discriminator 1
	movq	8(%rax), %r14
	.loc 1 184 95 is_stmt 1 discriminator 1
	movq	-232(%rbp), %rax
	movq	(%rax), %rax
	.loc 1 184 101 discriminator 1
	leaq	8(%rax), %rdx
	movq	%rdx, %rcx
	shrq	$3, %rcx
	addq	$2147450880, %rcx
	movzbl	(%rcx), %ecx
	testb	%cl, %cl
	je	.L41
	.loc 1 184 101 is_stmt 0
	movq	%rdx, %rdi
	call	__asan_report_load8@PLT
.L41:
	.loc 1 184 101 discriminator 1
	movq	8(%rax), %rax
	.loc 1 184 86 is_stmt 1 discriminator 1
	leaq	.LC54(%rip), %rdx
	movq	%rdx, %rsi
	movq	%rax, %rdi
	call	strcspn@PLT
	.loc 1 184 45 discriminator 1
	movq	%r14, %rdx
	movl	%eax, %esi
	leaq	.LC55(%rip), %rax
	movq	%rax, %rdi
	movl	$0, %eax
	call	printf@PLT
	.loc 1 184 142 discriminator 2
	movl	$184, %edx
	leaq	.LC43(%rip), %rax
	movq	%rax, %rsi
	leaq	.LC56(%rip), %rax
	movq	%rax, %rdi
	movl	$0, %eax
	call	printf@PLT
	.loc 1 185 16
	movl	$1, %r14d
	jmp	.L35
.L38:
	.loc 1 189 12
	movl	$256, %edx
	movl	$0, %esi
	leaq	_ZZL15GetTokenFromStdP10LexicalCtxE11word_buffer(%rip), %rax
	movq	%rax, %rdi
	call	memset@PLT
	.loc 1 191 9
	leaq	-112(%rbx), %rax
	movq	%rax, %rdx
	movq	%rdx, %rax
	shrq	$3, %rax
	addq	$2147450880, %rax
	movzbl	(%rax), %eax
	testb	%al, %al
	setne	%cl
	cmpb	$3, %al
	setle	%al
	andl	%ecx, %eax
	testb	%al, %al
	je	.L42
	movq	%rdx, %rdi
	call	__asan_report_store4@PLT
.L42:
	movl	$0, -112(%rbx)
	.loc 1 193 28
	movq	-232(%rbp), %rax
	movq	%rax, %rdi
	call	_Z8GetTokenP10LexicalCtx@PLT
	movq	%rax, -216(%rbp)
	.loc 1 194 5
	cmpq	$0, -216(%rbp)
	jne	.L43
	.loc 1 195 16
	movl	$2, %r14d
	jmp	.L35
.L43:
.LBB2:
	.loc 1 198 25
	movq	-232(%rbp), %rax
	movq	%rax, %rdx
	shrq	$3, %rdx
	addq	$2147450880, %rdx
	movzbl	(%rdx), %edx
	testb	%dl, %dl
	je	.L44
	movq	%rax, %rdi
	call	__asan_report_load8@PLT
.L44:
	movq	-232(%rbp), %rax
	movq	(%rax), %rax
	.loc 1 198 31
	leaq	8(%rax), %rdx
	movq	%rdx, %rcx
	shrq	$3, %rcx
	addq	$2147450880, %rcx
	movzbl	(%rcx), %ecx
	testb	%cl, %cl
	je	.L45
	movq	%rdx, %rdi
	call	__asan_report_load8@PLT
.L45:
	movq	8(%rax), %rax
	.loc 1 198 16
	leaq	-112(%rbx), %rdx
	movq	%rdx, %rcx
	leaq	_ZZL15GetTokenFromStdP10LexicalCtxE11word_buffer(%rip), %rdx
	leaq	.LC57(%rip), %rsi
	movq	%rax, %rdi
	movl	$0, %eax
	call	__isoc99_sscanf@PLT
	.loc 1 198 70
	testl	%eax, %eax
	setg	%al
	.loc 1 198 5
	testb	%al, %al
	je	.L46
	.loc 1 200 21
	movq	-216(%rbp), %rax
	leaq	_ZZL15GetTokenFromStdP10LexicalCtxE11word_buffer(%rip), %rdx
	movq	%rdx, %rsi
	movq	%rax, %rdi
	call	_ZL8SetTokenP5TokenPKc
	.loc 1 200 42
	shrl	$31, %eax
	.loc 1 200 9
	testb	%al, %al
	je	.L47
	.loc 1 202 19
	leaq	_ZZL15GetTokenFromStdP10LexicalCtxE11word_buffer(%rip), %rax
	movq	%rax, %rsi
	leaq	.LC58(%rip), %rax
	movq	%rax, %rdi
	movl	$0, %eax
	call	printf@PLT
	.loc 1 203 20
	movl	$3, %r14d
	jmp	.L35
.L47:
	.loc 1 206 20
	movq	-216(%rbp), %rax
	addq	$16, %rax
	movq	%rax, %rdx
	movq	%rdx, %rax
	shrq	$3, %rax
	addq	$2147450880, %rax
	movzbl	(%rax), %eax
	testb	%al, %al
	setne	%cl
	cmpb	$3, %al
	setle	%al
	andl	%ecx, %eax
	testb	%al, %al
	je	.L48
	movq	%rdx, %rdi
	call	__asan_report_load4@PLT
.L48:
	movq	-216(%rbp), %rax
	movl	16(%rax), %eax
	.loc 1 206 9
	testl	%eax, %eax
	jne	.L49
	.loc 1 208 23
	movq	-232(%rbp), %rax
	movq	%rax, %rdi
	call	_Z10UnGetTokenP10LexicalCtx@PLT
	.loc 1 209 21
	movq	-232(%rbp), %rax
	movq	%rax, %rdx
	shrq	$3, %rdx
	addq	$2147450880, %rdx
	movzbl	(%rdx), %edx
	testb	%dl, %dl
	je	.L50
	movq	%rax, %rdi
	call	__asan_report_load8@PLT
.L50:
	movq	-232(%rbp), %rax
	movq	(%rax), %rax
	.loc 1 209 31
	leaq	8(%rax), %rdx
	movq	%rdx, %rcx
	shrq	$3, %rcx
	addq	$2147450880, %rcx
	movzbl	(%rcx), %ecx
	testb	%cl, %cl
	je	.L51
	movq	%rdx, %rdi
	call	__asan_report_load8@PLT
.L51:
	movq	8(%rax), %rcx
	.loc 1 209 34
	leaq	-112(%rbx), %rax
	movq	%rax, %rdx
	movq	%rdx, %rax
	shrq	$3, %rax
	addq	$2147450880, %rax
	movzbl	(%rax), %eax
	testb	%al, %al
	setne	%sil
	cmpb	$3, %al
	setle	%al
	andl	%esi, %eax
	testb	%al, %al
	je	.L52
	movq	%rdx, %rdi
	call	__asan_report_load4@PLT
.L52:
	movl	-112(%rbx), %eax
	movslq	%eax, %rdx
	.loc 1 209 21
	movq	-232(%rbp), %rax
	movq	(%rax), %rax
	.loc 1 209 31
	leaq	(%rcx,%rdx), %rsi
	leaq	8(%rax), %rdx
	movq	%rdx, %rcx
	shrq	$3, %rcx
	addq	$2147450880, %rcx
	movzbl	(%rcx), %ecx
	testb	%cl, %cl
	je	.L53
	movq	%rdx, %rdi
	call	__asan_report_store8@PLT
.L53:
	movq	%rsi, 8(%rax)
	.loc 1 211 28
	movq	-232(%rbp), %rax
	movq	(%rax), %rax
	movq	%rax, %rdi
	call	_Z11BufferGetChP6Buffer@PLT
	.loc 1 211 43
	cmpl	$125, %eax
	setne	%al
	.loc 1 211 13
	testb	%al, %al
	je	.L54
	.loc 1 213 25
	leaq	.LC50(%rip), %rax
	movq	%rax, %rsi
	leaq	.LC53(%rip), %rax
	movq	%rax, %rdi
	movl	$0, %eax
	call	printf@PLT
	.loc 1 213 132 discriminator 1
	movq	-232(%rbp), %rax
	movq	%rax, %rdx
	shrq	$3, %rdx
	addq	$2147450880, %rdx
	movzbl	(%rdx), %edx
	testb	%dl, %dl
	je	.L55
	.loc 1 213 132 is_stmt 0
	movq	%rax, %rdi
	call	__asan_report_load8@PLT
.L55:
	.loc 1 213 132 discriminator 1
	movq	-232(%rbp), %rax
	movq	(%rax), %rax
	.loc 1 213 53 is_stmt 1 discriminator 1
	leaq	8(%rax), %rdx
	movq	%rdx, %rcx
	shrq	$3, %rcx
	addq	$2147450880, %rcx
	movzbl	(%rcx), %ecx
	testb	%cl, %cl
	je	.L56
	.loc 1 213 53 is_stmt 0
	movq	%rdx, %rdi
	call	__asan_report_load8@PLT
.L56:
	.loc 1 213 53 discriminator 1
	movq	8(%rax), %r14
	.loc 1 213 103 is_stmt 1 discriminator 1
	movq	-232(%rbp), %rax
	movq	(%rax), %rax
	.loc 1 213 109 discriminator 1
	leaq	8(%rax), %rdx
	movq	%rdx, %rcx
	shrq	$3, %rcx
	addq	$2147450880, %rcx
	movzbl	(%rcx), %ecx
	testb	%cl, %cl
	je	.L57
	.loc 1 213 109 is_stmt 0
	movq	%rdx, %rdi
	call	__asan_report_load8@PLT
.L57:
	.loc 1 213 109 discriminator 1
	movq	8(%rax), %rax
	.loc 1 213 94 is_stmt 1 discriminator 1
	leaq	.LC54(%rip), %rdx
	movq	%rdx, %rsi
	movq	%rax, %rdi
	call	strcspn@PLT
	.loc 1 213 53 discriminator 1
	movq	%r14, %rdx
	movl	%eax, %esi
	leaq	.LC59(%rip), %rax
	movq	%rax, %rdi
	movl	$0, %eax
	call	printf@PLT
	.loc 1 213 150 discriminator 2
	movl	$213, %edx
	leaq	.LC43(%rip), %rax
	movq	%rax, %rsi
	leaq	.LC56(%rip), %rax
	movq	%rax, %rdi
	movl	$0, %eax
	call	printf@PLT
.LEHE4:
	.loc 1 214 24
	movl	$4, %r14d
	jmp	.L35
.L54:
	.loc 1 217 19
	movl	$0, %r14d
	jmp	.L35
.L46:
.LBB3:
	.loc 1 222 12
	leaq	-96(%rbx), %rax
	movq	%rax, %rdx
	shrq	$3, %rdx
	addq	$2147450880, %rdx
	movzbl	(%rdx), %edx
	testb	%dl, %dl
	je	.L58
	movq	%rax, %rdi
	call	__asan_report_store8@PLT
.L58:
	movsd	.LC60(%rip), %xmm0
	movsd	%xmm0, -96(%rbx)
.LBB4:
	.loc 1 223 25
	movq	-232(%rbp), %rax
	movq	%rax, %rdx
	shrq	$3, %rdx
	addq	$2147450880, %rdx
	movzbl	(%rdx), %edx
	testb	%dl, %dl
	je	.L59
	movq	%rax, %rdi
	call	__asan_report_load8@PLT
.L59:
	movq	-232(%rbp), %rax
	movq	(%rax), %rax
	.loc 1 223 31
	leaq	8(%rax), %rdx
	movq	%rdx, %rcx
	shrq	$3, %rcx
	addq	$2147450880, %rcx
	movzbl	(%rcx), %ecx
	testb	%cl, %cl
	je	.L60
	movq	%rdx, %rdi
	call	__asan_report_load8@PLT
.L60:
	movq	8(%rax), %rax
	.loc 1 223 16
	leaq	-112(%rbx), %rcx
	leaq	-96(%rbx), %rdx
	leaq	.LC61(%rip), %rsi
	movq	%rax, %rdi
	movl	$0, %eax
	call	__isoc99_sscanf@PLT
	.loc 1 223 58
	testl	%eax, %eax
	setg	%al
	.loc 1 223 5
	testb	%al, %al
	je	.L61
	.loc 1 225 21
	movq	-216(%rbp), %rax
	addq	$16, %rax
	movq	%rax, %rdx
	movq	%rdx, %rax
	shrq	$3, %rax
	addq	$2147450880, %rax
	movzbl	(%rax), %eax
	testb	%al, %al
	setne	%cl
	cmpb	$3, %al
	setle	%al
	andl	%ecx, %eax
	testb	%al, %al
	je	.L62
	movq	%rdx, %rdi
	call	__asan_report_store4@PLT
.L62:
	movq	-216(%rbp), %rax
	movl	$8, 16(%rax)
	.loc 1 226 33
	leaq	-96(%rbx), %rax
	movq	%rax, %rdx
	shrq	$3, %rdx
	addq	$2147450880, %rdx
	movzbl	(%rdx), %edx
	testb	%dl, %dl
	je	.L63
	movq	%rax, %rdi
	call	__asan_report_load8@PLT
.L63:
	movsd	-96(%rbx), %xmm0
	movq	-216(%rbp), %rax
	addq	$24, %rax
	movq	%rax, %rdx
	shrq	$3, %rdx
	addq	$2147450880, %rdx
	movzbl	(%rdx), %edx
	testb	%dl, %dl
	je	.L64
	movq	%rax, %rdi
	call	__asan_report_store8@PLT
.L64:
	movq	-216(%rbp), %rax
	movsd	%xmm0, 24(%rax)
	jmp	.L65
.L61:
.LBB5:
.LBB6:
	.loc 1 230 29
	movq	-232(%rbp), %rax
	movq	%rax, %rdx
	shrq	$3, %rdx
	addq	$2147450880, %rdx
	movzbl	(%rdx), %edx
	testb	%dl, %dl
	je	.L66
	movq	%rax, %rdi
	call	__asan_report_load8@PLT
.L66:
	movq	-232(%rbp), %rax
	movq	(%rax), %rax
	.loc 1 230 35
	leaq	8(%rax), %rdx
	movq	%rdx, %rcx
	shrq	$3, %rcx
	addq	$2147450880, %rcx
	movzbl	(%rcx), %ecx
	testb	%cl, %cl
	je	.L67
	movq	%rdx, %rdi
	call	__asan_report_load8@PLT
.L67:
	movq	8(%rax), %rax
	.loc 1 230 20
	leaq	-112(%rbx), %rdx
	movq	%rdx, %rcx
	leaq	_ZZL15GetTokenFromStdP10LexicalCtxE11word_buffer(%rip), %rdx
	leaq	.LC62(%rip), %rsi
	movq	%rax, %rdi
	movl	$0, %eax
	call	__isoc99_sscanf@PLT
	.loc 1 230 72
	testl	%eax, %eax
	setg	%al
	.loc 1 230 9
	testb	%al, %al
	je	.L65
.LBB7:
	.loc 1 232 25
	movq	-216(%rbp), %rax
	addq	$16, %rax
	movq	%rax, %rdx
	movq	%rdx, %rax
	shrq	$3, %rax
	addq	$2147450880, %rax
	movzbl	(%rax), %eax
	testb	%al, %al
	setne	%cl
	cmpb	$3, %al
	setle	%al
	andl	%ecx, %eax
	testb	%al, %al
	je	.L68
	movq	%rdx, %rdi
	call	__asan_report_store4@PLT
.L68:
	movq	-216(%rbp), %rax
	movl	$6, 16(%rax)
	.loc 1 233 37
	movq	-216(%rbp), %rax
	addq	$24, %rax
	movq	%rax, %rdx
	shrq	$3, %rdx
	addq	$2147450880, %rdx
	movzbl	(%rdx), %edx
	testb	%dl, %dl
	je	.L69
	movq	%rax, %rdi
	call	__asan_report_store8@PLT
.L69:
	movq	-216(%rbp), %rax
	leaq	_ZZL15GetTokenFromStdP10LexicalCtxE11word_buffer(%rip), %rdx
	movq	%rdx, 24(%rax)
.LEHB5:
	.loc 1 235 37
	call	_ZN6Logger11getInstanceEv@PLT
	movq	%rax, %rdi
	.loc 1 235 43
	leaq	_ZZL15GetTokenFromStdP10LexicalCtxE11word_buffer(%rip), %rax
	movq	%rax, %rcx
	leaq	.LC63(%rip), %rax
	movq	%rax, %rdx
	leaq	.LC64(%rip), %rax
	movq	%rax, %rsi
	movl	$0, %eax
	call	_ZN6Logger3logEPKcz@PLT
	.loc 1 236 37
	call	_ZN6Logger11getInstanceEv@PLT
	movq	%rax, %rdi
	.loc 1 236 43
	leaq	-112(%rbx), %rax
	movq	%rax, %rdx
	movq	%rdx, %rax
	shrq	$3, %rax
	addq	$2147450880, %rax
	movzbl	(%rax), %eax
	testb	%al, %al
	setne	%cl
	cmpb	$3, %al
	setle	%al
	andl	%ecx, %eax
	testb	%al, %al
	je	.L70
	movq	%rdx, %rdi
	call	__asan_report_load4@PLT
.L70:
	.loc 1 236 43 is_stmt 0 discriminator 1
	movl	-112(%rbx), %eax
	movl	%eax, %ecx
	leaq	.LC65(%rip), %rax
	movq	%rax, %rdx
	leaq	.LC66(%rip), %rax
	movq	%rax, %rsi
	movl	$0, %eax
	call	_ZN6Logger3logEPKcz@PLT
	.loc 1 238 30 is_stmt 1
	movq	-232(%rbp), %rax
	movq	%rax, %rsi
	leaq	_ZZL15GetTokenFromStdP10LexicalCtxE11word_buffer(%rip), %rax
	movq	%rax, %rdi
	call	_Z6IsNamePKcP10LexicalCtx@PLT
	movl	%eax, -220(%rbp)
	.loc 1 241 13
	cmpl	$-555, -220(%rbp)
	jne	.L71
	.loc 1 243 30
	movq	-216(%rbp), %rdx
	movq	-232(%rbp), %rax
	movq	%rdx, %rsi
	movq	%rax, %rdi
	call	_Z9AddStringP10LexicalCtxP5Token@PLT
	.loc 1 243 43
	cmpl	$-1, %eax
	sete	%al
	.loc 1 243 17
	testb	%al, %al
	je	.L72
	.loc 1 244 28
	movl	$5, %r14d
	movl	$0, %eax
	jmp	.L73
.L71:
	.loc 1 247 40
	movq	-216(%rbp), %rax
	addq	$24, %rax
	movq	%rax, %rdx
	movq	%rdx, %rax
	shrq	$3, %rax
	addq	$2147450880, %rax
	movzbl	(%rax), %eax
	testb	%al, %al
	setne	%cl
	cmpb	$3, %al
	setle	%al
	andl	%ecx, %eax
	testb	%al, %al
	je	.L74
	movq	%rdx, %rdi
	call	__asan_report_store4@PLT
.L74:
	movq	-216(%rbp), %rax
	movl	-220(%rbp), %edx
	movl	%edx, 24(%rax)
.L72:
	.loc 1 249 28
	movq	-232(%rbp), %rax
	movq	%rax, %rdx
	shrq	$3, %rdx
	addq	$2147450880, %rdx
	movzbl	(%rdx), %edx
	testb	%dl, %dl
	je	.L75
	movq	%rax, %rdi
	call	__asan_report_load8@PLT
.L75:
	movq	-232(%rbp), %rax
	movq	(%rax), %rax
	movq	%rax, %rdi
	call	_Z11BufferGetChP6Buffer@PLT
.LEHE5:
	.loc 1 249 43
	cmpl	$125, %eax
	sete	%al
	.loc 1 249 13
	testb	%al, %al
	je	.L65
	.loc 1 251 25
	movq	-232(%rbp), %rax
	movq	%rax, %rdx
	shrq	$3, %rdx
	addq	$2147450880, %rdx
	movzbl	(%rdx), %edx
	testb	%dl, %dl
	je	.L76
	movq	%rax, %rdi
	call	__asan_report_load8@PLT
.L76:
	movq	-232(%rbp), %rax
	movq	(%rax), %rax
	.loc 1 251 35
	leaq	8(%rax), %rdx
	movq	%rdx, %rcx
	shrq	$3, %rcx
	addq	$2147450880, %rcx
	movzbl	(%rcx), %ecx
	testb	%cl, %cl
	je	.L77
	movq	%rdx, %rdi
	call	__asan_report_load8@PLT
.L77:
	movq	8(%rax), %rcx
	.loc 1 251 38
	leaq	-112(%rbx), %rax
	movq	%rax, %rdx
	movq	%rdx, %rax
	shrq	$3, %rax
	addq	$2147450880, %rax
	movzbl	(%rax), %eax
	testb	%al, %al
	setne	%sil
	cmpb	$3, %al
	setle	%al
	andl	%esi, %eax
	testb	%al, %al
	je	.L78
	movq	%rdx, %rdi
	call	__asan_report_load4@PLT
.L78:
	movl	-112(%rbx), %eax
	movslq	%eax, %rdx
	.loc 1 251 25
	movq	-232(%rbp), %rax
	movq	(%rax), %rax
	.loc 1 251 35
	leaq	(%rcx,%rdx), %rsi
	leaq	8(%rax), %rdx
	movq	%rdx, %rcx
	shrq	$3, %rcx
	addq	$2147450880, %rcx
	movzbl	(%rcx), %ecx
	testb	%cl, %cl
	je	.L79
	movq	%rdx, %rdi
	call	__asan_report_store8@PLT
.L79:
	movq	%rsi, 8(%rax)
	.loc 1 252 24
	movq	-216(%rbp), %r14
	movl	$0, %eax
	jmp	.L73
.L65:
.LBE7:
.LBE6:
.LBE5:
.LBE4:
	movl	$1, %eax
.L73:
	leaq	-96(%rbx), %rdx
	shrq	$3, %rdx
	addq	$2147450880, %rdx
	movb	$-8, (%rdx)
	cmpl	$1, %eax
	jne	.L35
.L49:
.LBE3:
.LBE2:
	.loc 1 258 13
	movq	-232(%rbp), %rax
	movq	%rax, %rdx
	shrq	$3, %rdx
	addq	$2147450880, %rdx
	movzbl	(%rdx), %edx
	testb	%dl, %dl
	je	.L80
	movq	%rax, %rdi
	call	__asan_report_load8@PLT
.L80:
	movq	-232(%rbp), %rax
	movq	(%rax), %rax
	.loc 1 258 23
	leaq	8(%rax), %rdx
	movq	%rdx, %rcx
	shrq	$3, %rcx
	addq	$2147450880, %rcx
	movzbl	(%rcx), %ecx
	testb	%cl, %cl
	je	.L81
	movq	%rdx, %rdi
	call	__asan_report_load8@PLT
.L81:
	movq	8(%rax), %rcx
	.loc 1 258 26
	leaq	-112(%rbx), %rax
	movq	%rax, %rdx
	movq	%rdx, %rax
	shrq	$3, %rax
	addq	$2147450880, %rax
	movzbl	(%rax), %eax
	testb	%al, %al
	setne	%sil
	cmpb	$3, %al
	setle	%al
	andl	%esi, %eax
	testb	%al, %al
	je	.L82
	movq	%rdx, %rdi
	call	__asan_report_load4@PLT
.L82:
	movl	-112(%rbx), %eax
	movslq	%eax, %rdx
	.loc 1 258 13
	movq	-232(%rbp), %rax
	movq	(%rax), %rax
	.loc 1 258 23
	leaq	(%rcx,%rdx), %rsi
	leaq	8(%rax), %rdx
	movq	%rdx, %rcx
	shrq	$3, %rcx
	addq	$2147450880, %rcx
	movzbl	(%rcx), %ecx
	testb	%cl, %cl
	je	.L83
	movq	%rdx, %rdi
	call	__asan_report_store8@PLT
.L83:
	movq	%rsi, 8(%rax)
.LEHB6:
	.loc 1 260 29
	call	_ZN6Logger11getInstanceEv@PLT
	movq	%rax, %rdi
	.loc 1 260 35
	leaq	-112(%rbx), %rax
	movq	%rax, %rdx
	movq	%rdx, %rax
	shrq	$3, %rax
	addq	$2147450880, %rax
	movzbl	(%rax), %eax
	testb	%al, %al
	setne	%cl
	cmpb	$3, %al
	setle	%al
	andl	%ecx, %eax
	testb	%al, %al
	je	.L84
	movq	%rdx, %rdi
	call	__asan_report_load4@PLT
.L84:
	.loc 1 260 35 is_stmt 0 discriminator 1
	movl	-112(%rbx), %eax
	movl	%eax, %ecx
	leaq	.LC65(%rip), %rax
	movq	%rax, %rdx
	leaq	.LC66(%rip), %rax
	movq	%rax, %rsi
	movl	$0, %eax
	call	_ZN6Logger3logEPKcz@PLT
	.loc 1 261 29 is_stmt 1
	call	_ZN6Logger11getInstanceEv@PLT
	movq	%rax, %rdi
	.loc 1 261 78
	movq	-232(%rbp), %rax
	movq	%rax, %rdx
	shrq	$3, %rdx
	addq	$2147450880, %rdx
	movzbl	(%rdx), %edx
	testb	%dl, %dl
	je	.L85
	movq	%rax, %rdi
	call	__asan_report_load8@PLT
.L85:
	.loc 1 261 78 is_stmt 0 discriminator 1
	movq	-232(%rbp), %rax
	movq	(%rax), %rax
	.loc 1 261 35 is_stmt 1 discriminator 1
	leaq	8(%rax), %rdx
	movq	%rdx, %rcx
	shrq	$3, %rcx
	addq	$2147450880, %rcx
	movzbl	(%rcx), %ecx
	testb	%cl, %cl
	je	.L86
	.loc 1 261 35 is_stmt 0
	movq	%rdx, %rdi
	call	__asan_report_load8@PLT
.L86:
	.loc 1 261 35 discriminator 1
	movq	8(%rax), %rax
	movq	%rax, %rcx
	leaq	.LC67(%rip), %rax
	movq	%rax, %rdx
	leaq	.LC64(%rip), %rax
	movq	%rax, %rsi
	movl	$0, %eax
	call	_ZN6Logger3logEPKcz@PLT
	.loc 1 263 41 is_stmt 1
	movq	-232(%rbp), %rax
	movq	%rax, %rdi
	call	_ZL15GetTokenFromStdP10LexicalCtx
	.loc 1 263 24
	movq	-216(%rbp), %rdx
	movq	%rdx, %rcx
	shrq	$3, %rcx
	addq	$2147450880, %rcx
	movzbl	(%rcx), %ecx
	testb	%cl, %cl
	je	.L87
	movq	%rdx, %rdi
	call	__asan_report_store8@PLT
.L87:
	.loc 1 263 24 is_stmt 0 discriminator 1
	movq	-216(%rbp), %rdx
	movq	%rax, (%rdx)
	.loc 1 264 21 is_stmt 1 discriminator 1
	movq	-216(%rbp), %rax
	movq	(%rax), %rax
	.loc 1 264 10 discriminator 1
	cmpq	$152, %rax
	ja	.L88
	.loc 1 264 59 discriminator 1
	movq	-216(%rbp), %rax
	movq	(%rax), %rax
	.loc 1 264 49 discriminator 1
	testq	%rax, %rax
	je	.L88
	.loc 1 264 80 discriminator 2
	movl	$19, %r14d
	jmp	.L35
.L88:
	.loc 1 266 16
	movq	-216(%rbp), %rax
	movq	%rax, %rdx
	shrq	$3, %rdx
	addq	$2147450880, %rdx
	movzbl	(%rdx), %edx
	testb	%dl, %dl
	je	.L89
	movq	%rax, %rdi
	call	__asan_report_load8@PLT
.L89:
	movq	-216(%rbp), %rax
	movq	(%rax), %rax
	.loc 1 266 5
	cmpq	$2457, %rax
	jne	.L90
	.loc 1 268 27
	movq	-216(%rbp), %rax
	movq	$0, (%rax)
	.loc 1 269 16
	movq	-216(%rbp), %r14
	jmp	.L35
.L90:
	.loc 1 272 29
	call	_ZN6Logger11getInstanceEv@PLT
	movq	%rax, %rdi
	.loc 1 272 35
	leaq	.LC68(%rip), %rax
	movq	%rax, %rcx
	leaq	.LC69(%rip), %rax
	movq	%rax, %rdx
	leaq	.LC64(%rip), %rax
	movq	%rax, %rsi
	movl	$0, %eax
	call	_ZN6Logger3logEPKcz@PLT
	.loc 1 273 29
	call	_ZN6Logger11getInstanceEv@PLT
	movq	%rax, %rdi
	.loc 1 273 35
	leaq	-112(%rbx), %rax
	movq	%rax, %rdx
	movq	%rdx, %rax
	shrq	$3, %rax
	addq	$2147450880, %rax
	movzbl	(%rax), %eax
	testb	%al, %al
	setne	%cl
	cmpb	$3, %al
	setle	%al
	andl	%ecx, %eax
	testb	%al, %al
	je	.L91
	movq	%rdx, %rdi
	call	__asan_report_load4@PLT
.L91:
	.loc 1 273 35 is_stmt 0 discriminator 1
	movl	-112(%rbx), %eax
	movl	%eax, %ecx
	leaq	.LC65(%rip), %rax
	movq	%rax, %rdx
	leaq	.LC66(%rip), %rax
	movq	%rax, %rsi
	movl	$0, %eax
	call	_ZN6Logger3logEPKcz@PLT
	.loc 1 274 29 is_stmt 1
	call	_ZN6Logger11getInstanceEv@PLT
	movq	%rax, %rdi
	.loc 1 274 78
	movq	-232(%rbp), %rax
	movq	%rax, %rdx
	shrq	$3, %rdx
	addq	$2147450880, %rdx
	movzbl	(%rdx), %edx
	testb	%dl, %dl
	je	.L92
	movq	%rax, %rdi
	call	__asan_report_load8@PLT
.L92:
	.loc 1 274 78 is_stmt 0 discriminator 1
	movq	-232(%rbp), %rax
	movq	(%rax), %rax
	.loc 1 274 35 is_stmt 1 discriminator 1
	leaq	8(%rax), %rdx
	movq	%rdx, %rcx
	shrq	$3, %rcx
	addq	$2147450880, %rcx
	movzbl	(%rcx), %ecx
	testb	%cl, %cl
	je	.L93
	.loc 1 274 35 is_stmt 0
	movq	%rdx, %rdi
	call	__asan_report_load8@PLT
.L93:
	.loc 1 274 35 discriminator 1
	movq	8(%rax), %rax
	movq	%rax, %rcx
	leaq	.LC67(%rip), %rax
	movq	%rax, %rdx
	leaq	.LC64(%rip), %rax
	movq	%rax, %rsi
	movl	$0, %eax
	call	_ZN6Logger3logEPKcz@PLT
	.loc 1 276 41 is_stmt 1
	movq	-232(%rbp), %rax
	movq	%rax, %rdi
	call	_ZL15GetTokenFromStdP10LexicalCtx
	.loc 1 276 24
	movq	-216(%rbp), %rdx
	addq	$8, %rdx
	movq	%rdx, %rcx
	shrq	$3, %rcx
	addq	$2147450880, %rcx
	movzbl	(%rcx), %ecx
	testb	%cl, %cl
	je	.L94
	movq	%rdx, %rdi
	call	__asan_report_store8@PLT
.L94:
	.loc 1 276 24 is_stmt 0 discriminator 1
	movq	-216(%rbp), %rdx
	movq	%rax, 8(%rdx)
	.loc 1 277 21 is_stmt 1 discriminator 1
	movq	-216(%rbp), %rax
	movq	8(%rax), %rax
	.loc 1 277 10 discriminator 1
	cmpq	$152, %rax
	ja	.L95
	.loc 1 277 60 discriminator 1
	movq	-216(%rbp), %rax
	movq	8(%rax), %rax
	.loc 1 277 50 discriminator 1
	testq	%rax, %rax
	je	.L95
	.loc 1 277 82 discriminator 2
	movl	$19, %r14d
	jmp	.L35
.L95:
	.loc 1 279 29
	call	_ZN6Logger11getInstanceEv@PLT
	movq	%rax, %rdi
	.loc 1 279 35
	leaq	.LC70(%rip), %rax
	movq	%rax, %rcx
	leaq	.LC71(%rip), %rax
	movq	%rax, %rdx
	leaq	.LC64(%rip), %rax
	movq	%rax, %rsi
	movl	$0, %eax
	call	_ZN6Logger3logEPKcz@PLT
	.loc 1 280 29
	call	_ZN6Logger11getInstanceEv@PLT
	movq	%rax, %rdi
	.loc 1 280 35
	leaq	-112(%rbx), %rax
	movq	%rax, %rdx
	movq	%rdx, %rax
	shrq	$3, %rax
	addq	$2147450880, %rax
	movzbl	(%rax), %eax
	testb	%al, %al
	setne	%cl
	cmpb	$3, %al
	setle	%al
	andl	%ecx, %eax
	testb	%al, %al
	je	.L96
	movq	%rdx, %rdi
	call	__asan_report_load4@PLT
.L96:
	.loc 1 280 35 is_stmt 0 discriminator 1
	movl	-112(%rbx), %eax
	movl	%eax, %ecx
	leaq	.LC65(%rip), %rax
	movq	%rax, %rdx
	leaq	.LC66(%rip), %rax
	movq	%rax, %rsi
	movl	$0, %eax
	call	_ZN6Logger3logEPKcz@PLT
	.loc 1 281 29 is_stmt 1
	call	_ZN6Logger11getInstanceEv@PLT
	movq	%rax, %rdi
	.loc 1 281 78
	movq	-232(%rbp), %rax
	movq	%rax, %rdx
	shrq	$3, %rdx
	addq	$2147450880, %rdx
	movzbl	(%rdx), %edx
	testb	%dl, %dl
	je	.L97
	movq	%rax, %rdi
	call	__asan_report_load8@PLT
.L97:
	.loc 1 281 78 is_stmt 0 discriminator 1
	movq	-232(%rbp), %rax
	movq	(%rax), %rax
	.loc 1 281 35 is_stmt 1 discriminator 1
	leaq	8(%rax), %rdx
	movq	%rdx, %rcx
	shrq	$3, %rcx
	addq	$2147450880, %rcx
	movzbl	(%rcx), %ecx
	testb	%cl, %cl
	je	.L98
	.loc 1 281 35 is_stmt 0
	movq	%rdx, %rdi
	call	__asan_report_load8@PLT
.L98:
	.loc 1 281 35 discriminator 1
	movq	8(%rax), %rax
	movq	%rax, %rcx
	leaq	.LC67(%rip), %rax
	movq	%rax, %rdx
	leaq	.LC64(%rip), %rax
	movq	%rax, %rsi
	movl	$0, %eax
	call	_ZN6Logger3logEPKcz@PLT
	.loc 1 283 20 is_stmt 1
	movq	-232(%rbp), %rax
	movq	%rax, %rdx
	shrq	$3, %rdx
	addq	$2147450880, %rdx
	movzbl	(%rdx), %edx
	testb	%dl, %dl
	je	.L99
	movq	%rax, %rdi
	call	__asan_report_load8@PLT
.L99:
	movq	-232(%rbp), %rax
	movq	(%rax), %rax
	movq	%rax, %rdi
	call	_Z11BufferGetChP6Buffer@PLT
	.loc 1 283 35
	cmpl	$125, %eax
	setne	%al
	.loc 1 283 5
	testb	%al, %al
	je	.L100
	.loc 1 285 25
	leaq	.LC50(%rip), %rax
	movq	%rax, %rsi
	leaq	.LC53(%rip), %rax
	movq	%rax, %rdi
	movl	$0, %eax
	call	printf@PLT
	.loc 1 285 132 discriminator 1
	movq	-232(%rbp), %rax
	movq	%rax, %rdx
	shrq	$3, %rdx
	addq	$2147450880, %rdx
	movzbl	(%rdx), %edx
	testb	%dl, %dl
	je	.L101
	.loc 1 285 132 is_stmt 0
	movq	%rax, %rdi
	call	__asan_report_load8@PLT
.L101:
	.loc 1 285 132 discriminator 1
	movq	-232(%rbp), %rax
	movq	(%rax), %rax
	.loc 1 285 53 is_stmt 1 discriminator 1
	leaq	8(%rax), %rdx
	movq	%rdx, %rcx
	shrq	$3, %rcx
	addq	$2147450880, %rcx
	movzbl	(%rcx), %ecx
	testb	%cl, %cl
	je	.L102
	.loc 1 285 53 is_stmt 0
	movq	%rdx, %rdi
	call	__asan_report_load8@PLT
.L102:
	.loc 1 285 53 discriminator 1
	movq	8(%rax), %r14
	.loc 1 285 103 is_stmt 1 discriminator 1
	movq	-232(%rbp), %rax
	movq	(%rax), %rax
	.loc 1 285 109 discriminator 1
	leaq	8(%rax), %rdx
	movq	%rdx, %rcx
	shrq	$3, %rcx
	addq	$2147450880, %rcx
	movzbl	(%rcx), %ecx
	testb	%cl, %cl
	je	.L103
	.loc 1 285 109 is_stmt 0
	movq	%rdx, %rdi
	call	__asan_report_load8@PLT
.L103:
	.loc 1 285 109 discriminator 1
	movq	8(%rax), %rax
	.loc 1 285 94 is_stmt 1 discriminator 1
	leaq	.LC54(%rip), %rdx
	movq	%rdx, %rsi
	movq	%rax, %rdi
	call	strcspn@PLT
	.loc 1 285 53 discriminator 1
	movq	%r14, %rdx
	movl	%eax, %esi
	leaq	.LC59(%rip), %rax
	movq	%rax, %rdi
	movl	$0, %eax
	call	printf@PLT
	.loc 1 285 150 discriminator 2
	movl	$285, %edx
	leaq	.LC43(%rip), %rax
	movq	%rax, %rsi
	leaq	.LC56(%rip), %rax
	movq	%rax, %rdi
	movl	$0, %eax
	call	printf@PLT
.LEHE6:
	.loc 1 286 24
	movl	$6, %r14d
	jmp	.L35
.L100:
	.loc 1 291 12
	movq	-216(%rbp), %r14
.L35:
	.loc 1 292 5
	leaq	-64(%rbx), %rax
	movq	%rax, %rdi
	call	_ZN14FunctionLoggerD1Ev@PLT
	movq	%r14, %rdx
	.loc 1 173 5
	cmpq	%r12, %r15
	je	.L31
	jmp	.L109
.L108:
	endbr64
.LBB9:
.LBB8:
	leaq	-96(%rbx), %rdx
	shrq	$3, %rdx
	addq	$2147450880, %rdx
	movb	$-8, (%rdx)
	movq	%rax, %r12
	jmp	.L106
.L107:
	endbr64
.LBE8:
.LBE9:
	.loc 1 292 5
	movq	%rax, %r12
.L106:
	leaq	-64(%rbx), %rax
	movq	%rax, %rdi
	call	_ZN14FunctionLoggerD1Ev@PLT
	movq	%r12, %rbx
	call	__asan_handle_no_return@PLT
	movq	%rbx, %rdi
.LEHB7:
	call	_Unwind_Resume@PLT
.LEHE7:
.L109:
	.loc 1 173 5
	movq	$1172321806, (%r12)
	movabsq	$-723401728380766731, %rbx
	movabsq	$-723401728380766731, %rsi
	movq	%rbx, 2147450880(%r13)
	movq	%rsi, 2147450888(%r13)
	movl	$-168430091, 2147450896(%r13)
	movq	248(%r12), %rax
	movb	$0, (%rax)
	jmp	.L32
.L31:
	movq	$0, 2147450880(%r13)
	movq	$0, 2147450888(%r13)
	movl	$0, 2147450896(%r13)
.L32:
	.loc 1 292 5
	movq	%rdx, %rax
	addq	$200, %rsp
	popq	%rbx
	popq	%r12
	popq	%r13
	popq	%r14
	popq	%r15
	popq	%rbp
	.cfi_def_cfa 7, 8
	ret
	.cfi_endproc
.LFE2866:
	.section	.gcc_except_table
.LLSDA2866:
	.byte	0xff
	.byte	0xff
	.byte	0x1
	.uleb128 .LLSDACSE2866-.LLSDACSB2866
.LLSDACSB2866:
	.uleb128 .LEHB3-.LFB2866
	.uleb128 .LEHE3-.LEHB3
	.uleb128 0
	.uleb128 0
	.uleb128 .LEHB4-.LFB2866
	.uleb128 .LEHE4-.LEHB4
	.uleb128 .L107-.LFB2866
	.uleb128 0
	.uleb128 .LEHB5-.LFB2866
	.uleb128 .LEHE5-.LEHB5
	.uleb128 .L108-.LFB2866
	.uleb128 0
	.uleb128 .LEHB6-.LFB2866
	.uleb128 .LEHE6-.LEHB6
	.uleb128 .L107-.LFB2866
	.uleb128 0
	.uleb128 .LEHB7-.LFB2866
	.uleb128 .LEHE7-.LEHB7
	.uleb128 0
	.uleb128 0
.LLSDACSE2866:
	.text
	.size	_ZL15GetTokenFromStdP10LexicalCtx, .-_ZL15GetTokenFromStdP10LexicalCtx
	.globl	__asan_stack_malloc_1
	.section	.rodata
.LC72:
	.string	"1 32 24 12 func_296:296"
	.align 32
.LC73:
	.string	"SetToken"
	.zero	55
	.align 32
.LC74:
	.string	"token"
	.zero	58
	.align 32
.LC75:
	.string	"int SetToken(Token*, const char*)"
	.zero	62
	.text
	.type	_ZL8SetTokenP5TokenPKc, @function
_ZL8SetTokenP5TokenPKc:
.LASANPC2867:
.LFB2867:
	.loc 1 295 5
	.cfi_startproc
	.cfi_personality 0x9b,DW.ref.__gxx_personality_v0
	.cfi_lsda 0x1b,.LLSDA2867
	endbr64
	pushq	%rbp
	.cfi_def_cfa_offset 16
	.cfi_offset 6, -16
	movq	%rsp, %rbp
	.cfi_def_cfa_register 6
	pushq	%r15
	pushq	%r14
	pushq	%r13
	pushq	%r12
	pushq	%rbx
	subq	$136, %rsp
	.cfi_offset 15, -24
	.cfi_offset 14, -32
	.cfi_offset 13, -40
	.cfi_offset 12, -48
	.cfi_offset 3, -56
	movq	%rdi, -168(%rbp)
	movq	%rsi, -176(%rbp)
	leaq	-144(%rbp), %rbx
	movq	%rbx, %r15
	cmpl	$0, __asan_option_detect_stack_use_after_return(%rip)
	je	.L110
	movl	$96, %edi
	call	__asan_stack_malloc_1@PLT
	testq	%rax, %rax
	je	.L110
	movq	%rax, %rbx
.L110:
	leaq	96(%rbx), %rax
	movq	%rax, %r13
	movq	$1102416563, (%rbx)
	leaq	.LC72(%rip), %rax
	movq	%rax, 8(%rbx)
	leaq	.LASANPC2867(%rip), %rax
	movq	%rax, 16(%rbx)
	movq	%rbx, %r12
	shrq	$3, %r12
	movl	$-235802127, 2147450880(%r12)
	movl	$-218103808, 2147450884(%r12)
	movl	$-202116109, 2147450888(%r12)
	.loc 1 296 41
	leaq	-64(%r13), %rax
	leaq	.LC73(%rip), %rdx
	movl	$1, %esi
	movq	%rax, %rdi
.LEHB8:
	call	_ZN14FunctionLoggerC1EiPKc@PLT
.LEHE8:
	.loc 1 297 10
	cmpq	$0, -168(%rbp)
	jne	.L114
.LEHB9:
	.loc 1 297 45 discriminator 1
	call	_ZN6Logger11getInstanceEv@PLT
	movq	%rax, %rcx
	.loc 1 297 51 discriminator 1
	leaq	.LC74(%rip), %rax
	movq	%rax, %rdx
	leaq	.LC40(%rip), %rax
	movq	%rax, %rsi
	movq	%rcx, %rdi
	movl	$0, %eax
	call	_ZN6Logger3logEPKcz@PLT
	.loc 1 297 109 discriminator 3
	leaq	.LC74(%rip), %rax
	movq	%rax, %rsi
	leaq	.LC41(%rip), %rax
	movq	%rax, %rdi
	movl	$0, %eax
	call	printf@PLT
	.loc 1 297 255 discriminator 4
	call	_ZN6Logger11getInstanceEv@PLT
	movq	%rax, %rdi
	.loc 1 297 261 discriminator 4
	leaq	.LC75(%rip), %r8
	movl	$297, %ecx
	leaq	.LC43(%rip), %rax
	movq	%rax, %rdx
	leaq	.LC44(%rip), %rax
	movq	%rax, %rsi
	movl	$0, %eax
	call	_ZN6Logger3logEPKcz@PLT
	.loc 1 297 358 discriminator 6
	leaq	.LC75(%rip), %rax
	movq	%rax, %rcx
	movl	$297, %edx
	leaq	.LC43(%rip), %rax
	movq	%rax, %rsi
	leaq	.LC44(%rip), %rax
	movq	%rax, %rdi
	movl	$0, %eax
	call	printf@PLT
	.loc 1 297 468 discriminator 7
	call	_ZN6Logger11getInstanceEv@PLT
	movq	%rax, %r14
	.loc 1 297 474 discriminator 7
	movl	$14, %edi
	call	strerror@PLT
	movq	%rax, %rcx
	movl	$14, %edx
	leaq	.LC45(%rip), %rax
	movq	%rax, %rsi
	movq	%r14, %rdi
	movl	$0, %eax
	call	_ZN6Logger3logEPKcz@PLT
	.loc 1 297 27 discriminator 9
	call	_ZN6Logger11getInstanceEv@PLT
	movq	%rax, %rdi
	.loc 1 297 33 discriminator 9
	movl	$297, %ecx
	leaq	.LC73(%rip), %rax
	movq	%rax, %rdx
	leaq	.LC46(%rip), %rax
	movq	%rax, %rsi
	movl	$0, %eax
	call	_ZN6Logger3logEPKcz@PLT
	.loc 1 297 92 discriminator 11
	leaq	.LC47(%rip), %rax
	movq	%rax, %rdi
	call	system@PLT
	.loc 1 297 115 discriminator 12
	movl	$-2, %r14d
	jmp	.L115
.L114:
	.loc 1 298 10
	cmpq	$0, -176(%rbp)
	jne	.L116
	.loc 1 298 51 discriminator 1
	call	_ZN6Logger11getInstanceEv@PLT
	movq	%rax, %rcx
	.loc 1 298 57 discriminator 1
	leaq	.LC63(%rip), %rax
	movq	%rax, %rdx
	leaq	.LC40(%rip), %rax
	movq	%rax, %rsi
	movq	%rcx, %rdi
	movl	$0, %eax
	call	_ZN6Logger3logEPKcz@PLT
	.loc 1 298 121 discriminator 3
	leaq	.LC63(%rip), %rax
	movq	%rax, %rsi
	leaq	.LC41(%rip), %rax
	movq	%rax, %rdi
	movl	$0, %eax
	call	printf@PLT
	.loc 1 298 273 discriminator 4
	call	_ZN6Logger11getInstanceEv@PLT
	movq	%rax, %rdi
	.loc 1 298 279 discriminator 4
	leaq	.LC75(%rip), %r8
	movl	$298, %ecx
	leaq	.LC43(%rip), %rax
	movq	%rax, %rdx
	leaq	.LC44(%rip), %rax
	movq	%rax, %rsi
	movl	$0, %eax
	call	_ZN6Logger3logEPKcz@PLT
	.loc 1 298 376 discriminator 6
	leaq	.LC75(%rip), %rax
	movq	%rax, %rcx
	movl	$298, %edx
	leaq	.LC43(%rip), %rax
	movq	%rax, %rsi
	leaq	.LC44(%rip), %rax
	movq	%rax, %rdi
	movl	$0, %eax
	call	printf@PLT
	.loc 1 298 486 discriminator 7
	call	_ZN6Logger11getInstanceEv@PLT
	movq	%rax, %r14
	.loc 1 298 492 discriminator 7
	movl	$14, %edi
	call	strerror@PLT
	movq	%rax, %rcx
	movl	$14, %edx
	leaq	.LC45(%rip), %rax
	movq	%rax, %rsi
	movq	%r14, %rdi
	movl	$0, %eax
	call	_ZN6Logger3logEPKcz@PLT
	.loc 1 298 27 discriminator 9
	call	_ZN6Logger11getInstanceEv@PLT
	movq	%rax, %rdi
	.loc 1 298 33 discriminator 9
	movl	$298, %ecx
	leaq	.LC73(%rip), %rax
	movq	%rax, %rdx
	leaq	.LC46(%rip), %rax
	movq	%rax, %rsi
	movl	$0, %eax
	call	_ZN6Logger3logEPKcz@PLT
	.loc 1 298 92 discriminator 11
	leaq	.LC47(%rip), %rax
	movq	%rax, %rdi
	call	system@PLT
	.loc 1 298 115 discriminator 12
	movl	$-2, %r14d
	jmp	.L115
.L116:
.LBB10:
	.loc 1 300 14
	movl	$0, -148(%rbp)
	.loc 1 300 5
	jmp	.L117
.L124:
	.loc 1 302 49
	movl	-148(%rbp), %eax
	movslq	%eax, %rdx
	movq	%rdx, %rax
	addq	%rax, %rax
	addq	%rdx, %rax
	salq	$3, %rax
	leaq	_ZL10STD_LEXEMS(%rip), %rdx
	addq	%rdx, %rax
	movq	%rax, %rdx
	shrq	$3, %rdx
	addq	$2147450880, %rdx
	movzbl	(%rdx), %edx
	testb	%dl, %dl
	je	.L118
	movq	%rax, %rdi
	call	__asan_report_load8@PLT
.L118:
	movl	-148(%rbp), %eax
	movslq	%eax, %rdx
	movq	%rdx, %rax
	addq	%rax, %rax
	addq	%rdx, %rax
	salq	$3, %rax
	movq	%rax, %rdx
	leaq	_ZL10STD_LEXEMS(%rip), %rax
	movq	(%rdx,%rax), %rdx
	.loc 1 302 21
	movq	-176(%rbp), %rax
	movq	%rdx, %rsi
	movq	%rax, %rdi
	call	_Z7stricmpPKcS0_@PLT
.LEHE9:
	.loc 1 302 13
	testl	%eax, %eax
	sete	%al
	.loc 1 302 9
	testb	%al, %al
	je	.L119
	.loc 1 304 42
	movl	-148(%rbp), %eax
	movslq	%eax, %rdx
	movq	%rdx, %rax
	addq	%rax, %rax
	addq	%rdx, %rax
	salq	$3, %rax
	leaq	16(%rax), %rdx
	leaq	_ZL10STD_LEXEMS(%rip), %rax
	addq	%rdx, %rax
	movq	%rax, %rdx
	movq	%rdx, %rax
	shrq	$3, %rax
	addq	$2147450880, %rax
	movzbl	(%rax), %eax
	testb	%al, %al
	setne	%cl
	cmpb	$3, %al
	setle	%al
	andl	%ecx, %eax
	testb	%al, %al
	je	.L120
	movq	%rdx, %rdi
	call	__asan_report_load4@PLT
.L120:
	movl	-148(%rbp), %eax
	movslq	%eax, %rdx
	movq	%rdx, %rax
	addq	%rax, %rax
	addq	%rdx, %rax
	salq	$3, %rax
	movq	%rax, %rdx
	leaq	16+_ZL10STD_LEXEMS(%rip), %rax
	movl	(%rdx,%rax), %ecx
	.loc 1 304 26
	movq	-168(%rbp), %rax
	addq	$16, %rax
	movq	%rax, %rdx
	movq	%rdx, %rax
	shrq	$3, %rax
	addq	$2147450880, %rax
	movzbl	(%rax), %eax
	testb	%al, %al
	setne	%sil
	cmpb	$3, %al
	setle	%al
	andl	%esi, %eax
	testb	%al, %al
	je	.L121
	movq	%rdx, %rdi
	call	__asan_report_store4@PLT
.L121:
	movq	-168(%rbp), %rax
	movl	%ecx, 16(%rax)
	.loc 1 305 26
	movq	-168(%rbp), %rax
	addq	$24, %rax
	movq	%rax, %rdx
	shrq	$3, %rdx
	addq	$2147450880, %rdx
	movzbl	(%rdx), %edx
	testb	%dl, %dl
	je	.L122
	movq	%rax, %rdi
	call	__asan_report_store8@PLT
.L122:
	movl	-148(%rbp), %eax
	movslq	%eax, %rdx
	movq	%rdx, %rax
	addq	%rax, %rax
	addq	%rdx, %rax
	salq	$3, %rax
	leaq	_ZL10STD_LEXEMS(%rip), %rdx
	addq	%rdx, %rax
	addq	$8, %rax
	movq	%rax, %rdx
	shrq	$3, %rdx
	addq	$2147450880, %rdx
	movzbl	(%rdx), %edx
	testb	%dl, %dl
	je	.L123
	movq	%rax, %rdi
	call	__asan_report_load8@PLT
.L123:
	movq	-168(%rbp), %rdx
	movl	-148(%rbp), %eax
	movslq	%eax, %rcx
	movq	%rcx, %rax
	addq	%rax, %rax
	addq	%rcx, %rax
	salq	$3, %rax
	movq	%rax, %rcx
	leaq	8+_ZL10STD_LEXEMS(%rip), %rax
	movq	(%rcx,%rax), %rax
	movq	%rax, 24(%rdx)
	.loc 1 307 20
	movl	-148(%rbp), %r14d
	jmp	.L115
.L119:
	.loc 1 300 5 discriminator 2
	addl	$1, -148(%rbp)
.L117:
	.loc 1 300 23 discriminator 1
	cmpl	$22, -148(%rbp)
	jle	.L124
.LBE10:
	.loc 1 311 12
	movl	$-555, %r14d
.L115:
	.loc 1 312 5
	leaq	-64(%r13), %rax
	movq	%rax, %rdi
	call	_ZN14FunctionLoggerD1Ev@PLT
	movl	%r14d, %edx
	.loc 1 295 5
	cmpq	%rbx, %r15
	je	.L111
	jmp	.L128
.L127:
	endbr64
	.loc 1 312 5
	movq	%rax, %rbx
	leaq	-64(%r13), %rax
	movq	%rax, %rdi
	call	_ZN14FunctionLoggerD1Ev@PLT
	call	__asan_handle_no_return@PLT
	movq	%rbx, %rdi
.LEHB10:
	call	_Unwind_Resume@PLT
.LEHE10:
.L128:
	.loc 1 295 5
	movq	$1172321806, (%rbx)
	movabsq	$-723401728380766731, %rax
	movq	%rax, 2147450880(%r12)
	movl	$-168430091, 2147450888(%r12)
	movq	120(%rbx), %rax
	movb	$0, (%rax)
	jmp	.L112
.L111:
	movq	$0, 2147450880(%r12)
	movl	$0, 2147450888(%r12)
.L112:
	.loc 1 312 5
	movl	%edx, %eax
	addq	$136, %rsp
	popq	%rbx
	popq	%r12
	popq	%r13
	popq	%r14
	popq	%r15
	popq	%rbp
	.cfi_def_cfa 7, 8
	ret
	.cfi_endproc
.LFE2867:
	.section	.gcc_except_table
.LLSDA2867:
	.byte	0xff
	.byte	0xff
	.byte	0x1
	.uleb128 .LLSDACSE2867-.LLSDACSB2867
.LLSDACSB2867:
	.uleb128 .LEHB8-.LFB2867
	.uleb128 .LEHE8-.LEHB8
	.uleb128 0
	.uleb128 0
	.uleb128 .LEHB9-.LFB2867
	.uleb128 .LEHE9-.LEHB9
	.uleb128 .L127-.LFB2867
	.uleb128 0
	.uleb128 .LEHB10-.LFB2867
	.uleb128 .LEHE10-.LEHB10
	.uleb128 0
	.uleb128 0
.LLSDACSE2867:
	.text
	.size	_ZL8SetTokenP5TokenPKc, .-_ZL8SetTokenP5TokenPKc
	.type	_Z41__static_initialization_and_destruction_0ii, @function
_Z41__static_initialization_and_destruction_0ii:
.LASANPC3651:
.LFB3651:
	.loc 1 312 5
	.cfi_startproc
	endbr64
	pushq	%rbp
	.cfi_def_cfa_offset 16
	.cfi_offset 6, -16
	movq	%rsp, %rbp
	.cfi_def_cfa_register 6
	subq	$16, %rsp
	movl	%edi, -4(%rbp)
	movl	%esi, -8(%rbp)
	.loc 1 312 5
	cmpl	$1, -4(%rbp)
	jne	.L132
	.loc 1 312 5 is_stmt 0 discriminator 1
	leaq	.LC43(%rip), %rax
	movq	%rax, %rdi
	call	__asan_before_dynamic_init@PLT
	cmpl	$65535, -8(%rbp)
	jne	.L131
	.file 2 "/usr/include/c++/11/iostream"
	.loc 2 74 25 is_stmt 1
	leaq	_ZStL8__ioinit(%rip), %rax
	movq	%rax, %rdi
	call	_ZNSt8ios_base4InitC1Ev@PLT
	leaq	__dso_handle(%rip), %rax
	movq	%rax, %rdx
	leaq	_ZStL8__ioinit(%rip), %rax
	movq	%rax, %rsi
	movq	_ZNSt8ios_base4InitD1Ev@GOTPCREL(%rip), %rax
	movq	%rax, %rdi
	call	__cxa_atexit@PLT
.L131:
	.loc 2 74 25 is_stmt 0 discriminator 1
	call	__asan_after_dynamic_init@PLT
.L132:
	.loc 1 312 5 is_stmt 1
	nop
	leave
	.cfi_def_cfa 7, 8
	ret
	.cfi_endproc
.LFE3651:
	.size	_Z41__static_initialization_and_destruction_0ii, .-_Z41__static_initialization_and_destruction_0ii
	.type	_GLOBAL__sub_I__Z20GetProgramFromStdAwpP7ProgramPKc, @function
_GLOBAL__sub_I__Z20GetProgramFromStdAwpP7ProgramPKc:
.LASANPC3652:
.LFB3652:
	.loc 1 312 5
	.cfi_startproc
	endbr64
	pushq	%rbp
	.cfi_def_cfa_offset 16
	.cfi_offset 6, -16
	movq	%rsp, %rbp
	.cfi_def_cfa_register 6
	.loc 1 312 5
	movl	$65535, %esi
	movl	$1, %edi
	call	_Z41__static_initialization_and_destruction_0ii
	popq	%rbp
	.cfi_def_cfa 7, 8
	ret
	.cfi_endproc
.LFE3652:
	.size	_GLOBAL__sub_I__Z20GetProgramFromStdAwpP7ProgramPKc, .-_GLOBAL__sub_I__Z20GetProgramFromStdAwpP7ProgramPKc
	.section	.init_array,"aw"
	.align 8
	.quad	_GLOBAL__sub_I__Z20GetProgramFromStdAwpP7ProgramPKc
	.section	.data.rel.local,"aw"
	.align 16
	.type	.LASANLOC1, @object
	.size	.LASANLOC1, 16
.LASANLOC1:
	.quad	.LC43
	.long	188
	.long	17
	.align 16
	.type	.LASANLOC2, @object
	.size	.LASANLOC2, 16
.LASANLOC2:
	.quad	.LC43
	.long	170
	.long	14
	.align 16
	.type	.LASANLOC3, @object
	.size	.LASANLOC3, 16
.LASANLOC3:
	.quad	.LC43
	.long	107
	.long	14
	.align 16
	.type	.LASANLOC4, @object
	.size	.LASANLOC4, 16
.LASANLOC4:
	.quad	.LC43
	.long	105
	.long	14
	.align 16
	.type	.LASANLOC5, @object
	.size	.LASANLOC5, 16
.LASANLOC5:
	.quad	.LC43
	.long	103
	.long	14
	.align 16
	.type	.LASANLOC6, @object
	.size	.LASANLOC6, 16
.LASANLOC6:
	.quad	.LC43
	.long	102
	.long	14
	.align 16
	.type	.LASANLOC7, @object
	.size	.LASANLOC7, 16
.LASANLOC7:
	.quad	.LC43
	.long	101
	.long	14
	.align 16
	.type	.LASANLOC8, @object
	.size	.LASANLOC8, 16
.LASANLOC8:
	.quad	.LC43
	.long	100
	.long	14
	.align 16
	.type	.LASANLOC9, @object
	.size	.LASANLOC9, 16
.LASANLOC9:
	.quad	.LC43
	.long	99
	.long	14
	.align 16
	.type	.LASANLOC10, @object
	.size	.LASANLOC10, 16
.LASANLOC10:
	.quad	.LC43
	.long	98
	.long	14
	.align 16
	.type	.LASANLOC11, @object
	.size	.LASANLOC11, 16
.LASANLOC11:
	.quad	.LC43
	.long	83
	.long	11
	.align 16
	.type	.LASANLOC12, @object
	.size	.LASANLOC12, 16
.LASANLOC12:
	.quad	.LC43
	.long	43
	.long	14
	.section	.rodata
	.align 8
.LC76:
	.string	"../ATC/RandomStuff/CommonEnums.h"
	.section	.data.rel.local
	.align 16
	.type	.LASANLOC13, @object
	.size	.LASANLOC13, 16
.LASANLOC13:
	.quad	.LC76
	.long	3
	.long	11
	.section	.rodata
.LC77:
	.string	"../ATC/Logger/LogConfig.h"
	.section	.data.rel.local
	.align 16
	.type	.LASANLOC14, @object
	.size	.LASANLOC14, 16
.LASANLOC14:
	.quad	.LC77
	.long	3
	.long	12
	.section	.rodata
.LC78:
	.string	"/usr/include/c++/11/iostream"
	.section	.data.rel.local
	.align 16
	.type	.LASANLOC15, @object
	.size	.LASANLOC15, 16
.LASANLOC15:
	.quad	.LC78
	.long	74
	.long	25
	.section	.rodata
	.align 8
.LC79:
	.string	"../Common/LexicalCtx/LexicalCtx.h"
	.section	.data.rel.local
	.align 16
	.type	.LASANLOC16, @object
	.size	.LASANLOC16, 16
.LASANLOC16:
	.quad	.LC79
	.long	30
	.long	11
	.align 16
	.type	.LASANLOC17, @object
	.size	.LASANLOC17, 16
.LASANLOC17:
	.quad	.LC79
	.long	29
	.long	11
	.align 16
	.type	.LASANLOC18, @object
	.size	.LASANLOC18, 16
.LASANLOC18:
	.quad	.LC79
	.long	27
	.long	11
	.align 16
	.type	.LASANLOC19, @object
	.size	.LASANLOC19, 16
.LASANLOC19:
	.quad	.LC79
	.long	26
	.long	11
	.align 16
	.type	.LASANLOC20, @object
	.size	.LASANLOC20, 16
.LASANLOC20:
	.quad	.LC79
	.long	25
	.long	11
	.align 16
	.type	.LASANLOC21, @object
	.size	.LASANLOC21, 16
.LASANLOC21:
	.quad	.LC79
	.long	24
	.long	11
	.align 16
	.type	.LASANLOC22, @object
	.size	.LASANLOC22, 16
.LASANLOC22:
	.quad	.LC79
	.long	23
	.long	11
	.section	.rodata
.LC80:
	.string	"../ATC/Buffer/my_buffer.h"
	.section	.data.rel.local
	.align 16
	.type	.LASANLOC23, @object
	.size	.LASANLOC23, 16
.LASANLOC23:
	.quad	.LC80
	.long	32
	.long	11
	.section	.rodata
.LC81:
	.string	"../Common/Grammar.h"
	.section	.data.rel.local
	.align 16
	.type	.LASANLOC24, @object
	.size	.LASANLOC24, 16
.LASANLOC24:
	.quad	.LC81
	.long	80
	.long	11
	.align 16
	.type	.LASANLOC25, @object
	.size	.LASANLOC25, 16
.LASANLOC25:
	.quad	.LC81
	.long	79
	.long	11
	.align 16
	.type	.LASANLOC26, @object
	.size	.LASANLOC26, 16
.LASANLOC26:
	.quad	.LC81
	.long	77
	.long	19
	.align 16
	.type	.LASANLOC27, @object
	.size	.LASANLOC27, 16
.LASANLOC27:
	.quad	.LC81
	.long	75
	.long	12
	.align 16
	.type	.LASANLOC28, @object
	.size	.LASANLOC28, 16
.LASANLOC28:
	.quad	.LC81
	.long	60
	.long	12
	.align 16
	.type	.LASANLOC29, @object
	.size	.LASANLOC29, 16
.LASANLOC29:
	.quad	.LC81
	.long	58
	.long	19
	.align 16
	.type	.LASANLOC30, @object
	.size	.LASANLOC30, 16
.LASANLOC30:
	.quad	.LC81
	.long	54
	.long	19
	.align 16
	.type	.LASANLOC31, @object
	.size	.LASANLOC31, 16
.LASANLOC31:
	.quad	.LC81
	.long	48
	.long	11
	.align 16
	.type	.LASANLOC32, @object
	.size	.LASANLOC32, 16
.LASANLOC32:
	.quad	.LC81
	.long	40
	.long	28
	.align 16
	.type	.LASANLOC33, @object
	.size	.LASANLOC33, 16
.LASANLOC33:
	.quad	.LC81
	.long	15
	.long	19
	.section	.rodata
	.align 8
.LC82:
	.string	"../Common/Structures/Tabels/Tabels.h"
	.section	.data.rel.local
	.align 16
	.type	.LASANLOC34, @object
	.size	.LASANLOC34, 16
.LASANLOC34:
	.quad	.LC82
	.long	8
	.long	11
	.align 16
	.type	.LASANLOC35, @object
	.size	.LASANLOC35, 16
.LASANLOC35:
	.quad	.LC82
	.long	7
	.long	11
	.section	.rodata
.LC83:
	.string	"END_OF_TOKEN"
.LC84:
	.string	"ERROR_TRASHOLD"
.LC85:
	.string	"PREV_ERROR"
.LC86:
	.string	"ERROR_6"
.LC87:
	.string	"ERROR_5"
.LC88:
	.string	"ERROR_4"
.LC89:
	.string	"ERROR_3"
.LC90:
	.string	"ERROR_2"
.LC91:
	.string	"ERROR_1"
.LC92:
	.string	"NUMBER_OF_STD_LEXEMS"
.LC93:
	.string	"STD_LEXEMS"
.LC94:
	.string	"CRINGE"
.LC95:
	.string	"STD_LOG_NAME"
.LC96:
	.string	"__ioinit"
.LC97:
	.string	"START_NUMBER_OF_STRINGS"
.LC98:
	.string	"START_NUMBER_OF_TOKENS"
.LC99:
	.string	"NOT_A_NATIVE_FUNCTION"
.LC100:
	.string	"NOT_A_RET_TYPE"
.LC101:
	.string	"NOT_A_INITIALIZATOR"
.LC102:
	.string	"NOT_A_INSTRUCTION"
.LC103:
	.string	"NOT_A_NAME"
.LC104:
	.string	"INDENT_SIZE"
.LC105:
	.string	"MAX_WORD_LENGTH"
.LC106:
	.string	"MAX_FUNCTION_NAME_LENGTH"
.LC107:
	.string	"MAIN_NAME"
.LC108:
	.string	"COMMENT"
.LC109:
	.string	"OPERATORS"
.LC110:
	.string	"FUNCTION_RET_TYPES"
.LC111:
	.string	"INITIALIZATORS"
	.align 8
.LC112:
	.string	"NUMBER_OF_NATIVE_FUNCTIONS_STRUCT"
.LC113:
	.string	"NATIVE_FUNCTIONS"
.LC114:
	.string	"INSTRUCTIONS"
.LC115:
	.string	"NOT_A_LABEL"
.LC116:
	.string	"NOT_DECLARED"
.LC117:
	.string	"*.LC33"
.LC118:
	.string	"*.LC67"
.LC119:
	.string	"*.LC28"
.LC120:
	.string	"*.LC69"
.LC121:
	.string	"*.LC30"
.LC122:
	.string	"*.LC25"
.LC123:
	.string	"*.LC45"
.LC124:
	.string	"*.LC53"
.LC125:
	.string	"*.LC62"
.LC126:
	.string	"*.LC19"
.LC127:
	.string	"*.LC15"
.LC128:
	.string	"*.LC35"
.LC129:
	.string	"*.LC50"
.LC130:
	.string	"*.LC75"
.LC131:
	.string	"*.LC38"
.LC132:
	.string	"*.LC74"
.LC133:
	.string	"*.LC56"
.LC134:
	.string	"*.LC22"
.LC135:
	.string	"*.LC5"
.LC136:
	.string	"*.LC48"
.LC137:
	.string	"*.LC42"
.LC138:
	.string	"*.LC2"
.LC139:
	.string	"*.LC63"
.LC140:
	.string	"*.LC64"
.LC141:
	.string	"*.LC13"
.LC142:
	.string	"*.LC73"
.LC143:
	.string	"*.LC71"
.LC144:
	.string	"*.LC61"
.LC145:
	.string	"*.LC51"
.LC146:
	.string	"*.LC47"
.LC147:
	.string	"*.LC59"
.LC148:
	.string	"*.LC46"
.LC149:
	.string	"*.LC14"
.LC150:
	.string	"*.LC24"
.LC151:
	.string	"*.LC4"
.LC152:
	.string	"*.LC31"
.LC153:
	.string	"*.LC66"
.LC154:
	.string	"*.LC0"
.LC155:
	.string	"*.LC43"
.LC156:
	.string	"*.LC10"
.LC157:
	.string	"*.LC18"
.LC158:
	.string	"*.LC21"
.LC159:
	.string	"*.LC34"
.LC160:
	.string	"*.LC40"
.LC161:
	.string	"*.LC8"
.LC162:
	.string	"*.LC6"
.LC163:
	.string	"*.LC36"
.LC164:
	.string	"*.LC9"
.LC165:
	.string	"*.LC58"
.LC166:
	.string	"*.LC16"
.LC167:
	.string	"*.LC57"
.LC168:
	.string	"*.LC70"
.LC169:
	.string	"*.LC3"
.LC170:
	.string	"*.LC1"
.LC171:
	.string	"*.LC32"
.LC172:
	.string	"*.LC17"
.LC173:
	.string	"*.LC54"
.LC174:
	.string	"*.LC20"
.LC175:
	.string	"*.LC29"
.LC176:
	.string	"*.LC26"
.LC177:
	.string	"*.LC68"
.LC178:
	.string	"*.LC23"
.LC179:
	.string	"*.LC11"
.LC180:
	.string	"*.LC65"
.LC181:
	.string	"*.LC41"
.LC182:
	.string	"*.LC7"
.LC183:
	.string	"*.LC39"
.LC184:
	.string	"*.LC52"
.LC185:
	.string	"*.LC12"
.LC186:
	.string	"*.LC44"
.LC187:
	.string	"*.LC55"
.LC188:
	.string	"*.LC27"
	.section	.data.rel.local
	.align 32
	.type	.LASAN0, @object
	.size	.LASAN0, 6848
.LASAN0:
	.quad	_ZZL15GetTokenFromStdP10LexicalCtxE11word_buffer
	.quad	256
	.quad	288
	.quad	.LC63
	.quad	.LC43
	.quad	0
	.quad	.LASANLOC1
	.quad	0
	.quad	_ZL12END_OF_TOKEN
	.quad	8
	.quad	64
	.quad	.LC83
	.quad	.LC43
	.quad	0
	.quad	.LASANLOC2
	.quad	0
	.quad	_ZL14ERROR_TRASHOLD
	.quad	8
	.quad	64
	.quad	.LC84
	.quad	.LC43
	.quad	0
	.quad	.LASANLOC3
	.quad	0
	.quad	_ZL10PREV_ERROR
	.quad	8
	.quad	64
	.quad	.LC85
	.quad	.LC43
	.quad	0
	.quad	.LASANLOC4
	.quad	0
	.quad	_ZL7ERROR_6
	.quad	8
	.quad	64
	.quad	.LC86
	.quad	.LC43
	.quad	0
	.quad	.LASANLOC5
	.quad	0
	.quad	_ZL7ERROR_5
	.quad	8
	.quad	64
	.quad	.LC87
	.quad	.LC43
	.quad	0
	.quad	.LASANLOC6
	.quad	0
	.quad	_ZL7ERROR_4
	.quad	8
	.quad	64
	.quad	.LC88
	.quad	.LC43
	.quad	0
	.quad	.LASANLOC7
	.quad	0
	.quad	_ZL7ERROR_3
	.quad	8
	.quad	64
	.quad	.LC89
	.quad	.LC43
	.quad	0
	.quad	.LASANLOC8
	.quad	0
	.quad	_ZL7ERROR_2
	.quad	8
	.quad	64
	.quad	.LC90
	.quad	.LC43
	.quad	0
	.quad	.LASANLOC9
	.quad	0
	.quad	_ZL7ERROR_1
	.quad	8
	.quad	64
	.quad	.LC91
	.quad	.LC43
	.quad	0
	.quad	.LASANLOC10
	.quad	0
	.quad	_ZL20NUMBER_OF_STD_LEXEMS
	.quad	4
	.quad	64
	.quad	.LC92
	.quad	.LC43
	.quad	0
	.quad	.LASANLOC11
	.quad	0
	.quad	_ZL10STD_LEXEMS
	.quad	552
	.quad	608
	.quad	.LC93
	.quad	.LC43
	.quad	0
	.quad	.LASANLOC12
	.quad	0
	.quad	_ZL6CRINGE
	.quad	4
	.quad	64
	.quad	.LC94
	.quad	.LC43
	.quad	0
	.quad	.LASANLOC13
	.quad	0
	.quad	_ZL12STD_LOG_NAME
	.quad	18
	.quad	64
	.quad	.LC95
	.quad	.LC43
	.quad	0
	.quad	.LASANLOC14
	.quad	0
	.quad	_ZStL8__ioinit
	.quad	1
	.quad	64
	.quad	.LC96
	.quad	.LC43
	.quad	1
	.quad	.LASANLOC15
	.quad	0
	.quad	_ZL23START_NUMBER_OF_STRINGS
	.quad	4
	.quad	64
	.quad	.LC97
	.quad	.LC43
	.quad	0
	.quad	.LASANLOC16
	.quad	0
	.quad	_ZL22START_NUMBER_OF_TOKENS
	.quad	4
	.quad	64
	.quad	.LC98
	.quad	.LC43
	.quad	0
	.quad	.LASANLOC17
	.quad	0
	.quad	_ZL21NOT_A_NATIVE_FUNCTION
	.quad	4
	.quad	64
	.quad	.LC99
	.quad	.LC43
	.quad	0
	.quad	.LASANLOC18
	.quad	0
	.quad	_ZL14NOT_A_RET_TYPE
	.quad	4
	.quad	64
	.quad	.LC100
	.quad	.LC43
	.quad	0
	.quad	.LASANLOC19
	.quad	0
	.quad	_ZL19NOT_A_INITIALIZATOR
	.quad	4
	.quad	64
	.quad	.LC101
	.quad	.LC43
	.quad	0
	.quad	.LASANLOC20
	.quad	0
	.quad	_ZL17NOT_A_INSTRUCTION
	.quad	4
	.quad	64
	.quad	.LC102
	.quad	.LC43
	.quad	0
	.quad	.LASANLOC21
	.quad	0
	.quad	_ZL10NOT_A_NAME
	.quad	4
	.quad	64
	.quad	.LC103
	.quad	.LC43
	.quad	0
	.quad	.LASANLOC22
	.quad	0
	.quad	_ZL11INDENT_SIZE
	.quad	4
	.quad	64
	.quad	.LC104
	.quad	.LC43
	.quad	0
	.quad	.LASANLOC23
	.quad	0
	.quad	_ZL15MAX_WORD_LENGTH
	.quad	4
	.quad	64
	.quad	.LC105
	.quad	.LC43
	.quad	0
	.quad	.LASANLOC24
	.quad	0
	.quad	_ZL24MAX_FUNCTION_NAME_LENGTH
	.quad	4
	.quad	64
	.quad	.LC106
	.quad	.LC43
	.quad	0
	.quad	.LASANLOC25
	.quad	0
	.quad	_ZL9MAIN_NAME
	.quad	8
	.quad	64
	.quad	.LC107
	.quad	.LC43
	.quad	0
	.quad	.LASANLOC26
	.quad	0
	.quad	_ZL7COMMENT
	.quad	1
	.quad	64
	.quad	.LC108
	.quad	.LC43
	.quad	0
	.quad	.LASANLOC27
	.quad	0
	.quad	_ZL9OPERATORS
	.quad	9
	.quad	64
	.quad	.LC109
	.quad	.LC43
	.quad	0
	.quad	.LASANLOC28
	.quad	0
	.quad	_ZL18FUNCTION_RET_TYPES
	.quad	16
	.quad	64
	.quad	.LC110
	.quad	.LC43
	.quad	0
	.quad	.LASANLOC29
	.quad	0
	.quad	_ZL14INITIALIZATORS
	.quad	16
	.quad	64
	.quad	.LC111
	.quad	.LC43
	.quad	0
	.quad	.LASANLOC30
	.quad	0
	.quad	_ZL33NUMBER_OF_NATIVE_FUNCTIONS_STRUCT
	.quad	4
	.quad	64
	.quad	.LC112
	.quad	.LC43
	.quad	0
	.quad	.LASANLOC31
	.quad	0
	.quad	_ZL16NATIVE_FUNCTIONS
	.quad	80
	.quad	128
	.quad	.LC113
	.quad	.LC43
	.quad	0
	.quad	.LASANLOC32
	.quad	0
	.quad	_ZL12INSTRUCTIONS
	.quad	32
	.quad	64
	.quad	.LC114
	.quad	.LC43
	.quad	0
	.quad	.LASANLOC33
	.quad	0
	.quad	_ZL11NOT_A_LABEL
	.quad	4
	.quad	64
	.quad	.LC115
	.quad	.LC43
	.quad	0
	.quad	.LASANLOC34
	.quad	0
	.quad	_ZL12NOT_DECLARED
	.quad	4
	.quad	64
	.quad	.LC116
	.quad	.LC43
	.quad	0
	.quad	.LASANLOC35
	.quad	0
	.quad	.LC33
	.quad	4
	.quad	64
	.quad	.LC117
	.quad	.LC43
	.quad	0
	.quad	0
	.quad	0
	.quad	.LC67
	.quad	14
	.quad	64
	.quad	.LC118
	.quad	.LC43
	.quad	0
	.quad	0
	.quad	0
	.quad	.LC28
	.quad	4
	.quad	64
	.quad	.LC119
	.quad	.LC43
	.quad	0
	.quad	0
	.quad	0
	.quad	.LC69
	.quad	11
	.quad	64
	.quad	.LC120
	.quad	.LC43
	.quad	0
	.quad	0
	.quad	0
	.quad	.LC30
	.quad	3
	.quad	64
	.quad	.LC121
	.quad	.LC43
	.quad	0
	.quad	0
	.quad	0
	.quad	.LC25
	.quad	3
	.quad	64
	.quad	.LC122
	.quad	.LC43
	.quad	0
	.quad	0
	.quad	0
	.quad	.LC45
	.quad	36
	.quad	96
	.quad	.LC123
	.quad	.LC43
	.quad	0
	.quad	0
	.quad	0
	.quad	.LC53
	.quad	6
	.quad	64
	.quad	.LC124
	.quad	.LC43
	.quad	0
	.quad	0
	.quad	0
	.quad	.LC62
	.quad	10
	.quad	64
	.quad	.LC125
	.quad	.LC43
	.quad	0
	.quad	0
	.quad	0
	.quad	.LC19
	.quad	5
	.quad	64
	.quad	.LC126
	.quad	.LC43
	.quad	0
	.quad	0
	.quad	0
	.quad	.LC15
	.quad	6
	.quad	64
	.quad	.LC127
	.quad	.LC43
	.quad	0
	.quad	0
	.quad	0
	.quad	.LC35
	.quad	6
	.quad	64
	.quad	.LC128
	.quad	.LC43
	.quad	0
	.quad	0
	.quad	0
	.quad	.LC50
	.quad	16
	.quad	64
	.quad	.LC129
	.quad	.LC43
	.quad	0
	.quad	0
	.quad	0
	.quad	.LC75
	.quad	34
	.quad	96
	.quad	.LC130
	.quad	.LC43
	.quad	0
	.quad	0
	.quad	0
	.quad	.LC38
	.quad	21
	.quad	64
	.quad	.LC131
	.quad	.LC43
	.quad	0
	.quad	0
	.quad	0
	.quad	.LC74
	.quad	6
	.quad	64
	.quad	.LC132
	.quad	.LC43
	.quad	0
	.quad	0
	.quad	0
	.quad	.LC56
	.quad	10
	.quad	64
	.quad	.LC133
	.quad	.LC43
	.quad	0
	.quad	0
	.quad	0
	.quad	.LC22
	.quad	5
	.quad	64
	.quad	.LC134
	.quad	.LC43
	.quad	0
	.quad	0
	.quad	0
	.quad	.LC5
	.quad	4
	.quad	64
	.quad	.LC135
	.quad	.LC43
	.quad	0
	.quad	0
	.quad	0
	.quad	.LC48
	.quad	13
	.quad	64
	.quad	.LC136
	.quad	.LC43
	.quad	0
	.quad	0
	.quad	0
	.quad	.LC42
	.quad	48
	.quad	96
	.quad	.LC137
	.quad	.LC43
	.quad	0
	.quad	0
	.quad	0
	.quad	.LC2
	.quad	6
	.quad	64
	.quad	.LC138
	.quad	.LC43
	.quad	0
	.quad	0
	.quad	0
	.quad	.LC63
	.quad	12
	.quad	64
	.quad	.LC139
	.quad	.LC43
	.quad	0
	.quad	0
	.quad	0
	.quad	.LC64
	.quad	11
	.quad	64
	.quad	.LC140
	.quad	.LC43
	.quad	0
	.quad	0
	.quad	0
	.quad	.LC13
	.quad	5
	.quad	64
	.quad	.LC141
	.quad	.LC43
	.quad	0
	.quad	0
	.quad	0
	.quad	.LC73
	.quad	9
	.quad	64
	.quad	.LC142
	.quad	.LC43
	.quad	0
	.quad	0
	.quad	0
	.quad	.LC71
	.quad	12
	.quad	64
	.quad	.LC143
	.quad	.LC43
	.quad	0
	.quad	0
	.quad	0
	.quad	.LC61
	.quad	7
	.quad	64
	.quad	.LC144
	.quad	.LC43
	.quad	0
	.quad	0
	.quad	0
	.quad	.LC51
	.quad	4
	.quad	64
	.quad	.LC145
	.quad	.LC43
	.quad	0
	.quad	0
	.quad	0
	.quad	.LC47
	.quad	10
	.quad	64
	.quad	.LC146
	.quad	.LC43
	.quad	0
	.quad	0
	.quad	0
	.quad	.LC59
	.quad	23
	.quad	64
	.quad	.LC147
	.quad	.LC43
	.quad	0
	.quad	0
	.quad	0
	.quad	.LC46
	.quad	33
	.quad	96
	.quad	.LC148
	.quad	.LC43
	.quad	0
	.quad	0
	.quad	0
	.quad	.LC14
	.quad	4
	.quad	64
	.quad	.LC149
	.quad	.LC43
	.quad	0
	.quad	0
	.quad	0
	.quad	.LC24
	.quad	5
	.quad	64
	.quad	.LC150
	.quad	.LC43
	.quad	0
	.quad	0
	.quad	0
	.quad	.LC4
	.quad	5
	.quad	64
	.quad	.LC151
	.quad	.LC43
	.quad	0
	.quad	0
	.quad	0
	.quad	.LC31
	.quad	4
	.quad	64
	.quad	.LC152
	.quad	.LC43
	.quad	0
	.quad	0
	.quad	0
	.quad	.LC66
	.quad	9
	.quad	64
	.quad	.LC153
	.quad	.LC43
	.quad	0
	.quad	0
	.quad	0
	.quad	.LC0
	.quad	3
	.quad	64
	.quad	.LC154
	.quad	.LC43
	.quad	0
	.quad	0
	.quad	0
	.quad	.LC43
	.quad	33
	.quad	96
	.quad	.LC155
	.quad	.LC43
	.quad	0
	.quad	0
	.quad	0
	.quad	.LC10
	.quad	4
	.quad	64
	.quad	.LC156
	.quad	.LC43
	.quad	0
	.quad	0
	.quad	0
	.quad	.LC18
	.quad	4
	.quad	64
	.quad	.LC157
	.quad	.LC43
	.quad	0
	.quad	0
	.quad	0
	.quad	.LC21
	.quad	3
	.quad	64
	.quad	.LC158
	.quad	.LC43
	.quad	0
	.quad	0
	.quad	0
	.quad	.LC34
	.quad	4
	.quad	64
	.quad	.LC159
	.quad	.LC43
	.quad	0
	.quad	0
	.quad	0
	.quad	.LC40
	.quad	37
	.quad	96
	.quad	.LC160
	.quad	.LC43
	.quad	0
	.quad	0
	.quad	0
	.quad	.LC8
	.quad	4
	.quad	64
	.quad	.LC161
	.quad	.LC43
	.quad	0
	.quad	0
	.quad	0
	.quad	.LC6
	.quad	4
	.quad	64
	.quad	.LC162
	.quad	.LC43
	.quad	0
	.quad	0
	.quad	0
	.quad	.LC36
	.quad	6
	.quad	64
	.quad	.LC163
	.quad	.LC43
	.quad	0
	.quad	0
	.quad	0
	.quad	.LC9
	.quad	7
	.quad	64
	.quad	.LC164
	.quad	.LC43
	.quad	0
	.quad	0
	.quad	0
	.quad	.LC58
	.quad	20
	.quad	64
	.quad	.LC165
	.quad	.LC43
	.quad	0
	.quad	0
	.quad	0
	.quad	.LC16
	.quad	3
	.quad	64
	.quad	.LC166
	.quad	.LC43
	.quad	0
	.quad	0
	.quad	0
	.quad	.LC57
	.quad	14
	.quad	64
	.quad	.LC167
	.quad	.LC43
	.quad	0
	.quad	0
	.quad	0
	.quad	.LC70
	.quad	10
	.quad	64
	.quad	.LC168
	.quad	.LC43
	.quad	0
	.quad	0
	.quad	0
	.quad	.LC3
	.quad	7
	.quad	64
	.quad	.LC169
	.quad	.LC43
	.quad	0
	.quad	0
	.quad	0
	.quad	.LC1
	.quad	5
	.quad	64
	.quad	.LC170
	.quad	.LC43
	.quad	0
	.quad	0
	.quad	0
	.quad	.LC32
	.quad	4
	.quad	64
	.quad	.LC171
	.quad	.LC43
	.quad	0
	.quad	0
	.quad	0
	.quad	.LC17
	.quad	5
	.quad	64
	.quad	.LC172
	.quad	.LC43
	.quad	0
	.quad	0
	.quad	0
	.quad	.LC54
	.quad	4
	.quad	64
	.quad	.LC173
	.quad	.LC43
	.quad	0
	.quad	0
	.quad	0
	.quad	.LC20
	.quad	4
	.quad	64
	.quad	.LC174
	.quad	.LC43
	.quad	0
	.quad	0
	.quad	0
	.quad	.LC29
	.quad	4
	.quad	64
	.quad	.LC175
	.quad	.LC43
	.quad	0
	.quad	0
	.quad	0
	.quad	.LC26
	.quad	4
	.quad	64
	.quad	.LC176
	.quad	.LC43
	.quad	0
	.quad	0
	.quad	0
	.quad	.LC68
	.quad	9
	.quad	64
	.quad	.LC177
	.quad	.LC43
	.quad	0
	.quad	0
	.quad	0
	.quad	.LC23
	.quad	5
	.quad	64
	.quad	.LC178
	.quad	.LC43
	.quad	0
	.quad	0
	.quad	0
	.quad	.LC11
	.quad	7
	.quad	64
	.quad	.LC179
	.quad	.LC43
	.quad	0
	.quad	0
	.quad	0
	.quad	.LC65
	.quad	2
	.quad	64
	.quad	.LC180
	.quad	.LC43
	.quad	0
	.quad	0
	.quad	0
	.quad	.LC41
	.quad	64
	.quad	96
	.quad	.LC181
	.quad	.LC43
	.quad	0
	.quad	0
	.quad	0
	.quad	.LC7
	.quad	4
	.quad	64
	.quad	.LC182
	.quad	.LC43
	.quad	0
	.quad	0
	.quad	0
	.quad	.LC39
	.quad	8
	.quad	64
	.quad	.LC183
	.quad	.LC43
	.quad	0
	.quad	0
	.quad	0
	.quad	.LC52
	.quad	36
	.quad	96
	.quad	.LC184
	.quad	.LC43
	.quad	0
	.quad	0
	.quad	0
	.quad	.LC12
	.quad	5
	.quad	64
	.quad	.LC185
	.quad	.LC43
	.quad	0
	.quad	0
	.quad	0
	.quad	.LC44
	.quad	22
	.quad	64
	.quad	.LC186
	.quad	.LC43
	.quad	0
	.quad	0
	.quad	0
	.quad	.LC55
	.quad	23
	.quad	64
	.quad	.LC187
	.quad	.LC43
	.quad	0
	.quad	0
	.quad	0
	.quad	.LC27
	.quad	4
	.quad	64
	.quad	.LC188
	.quad	.LC43
	.quad	0
	.quad	0
	.quad	0
	.text
	.type	_sub_D_00099_0, @function
_sub_D_00099_0:
.LFB3653:
	.cfi_startproc
	endbr64
	pushq	%rbp
	.cfi_def_cfa_offset 16
	.cfi_offset 6, -16
	movq	%rsp, %rbp
	.cfi_def_cfa_register 6
	movl	$107, %esi
	leaq	.LASAN0(%rip), %rax
	movq	%rax, %rdi
	call	__asan_unregister_globals@PLT
	popq	%rbp
	.cfi_def_cfa 7, 8
	ret
	.cfi_endproc
.LFE3653:
	.size	_sub_D_00099_0, .-_sub_D_00099_0
	.section	.fini_array.00099,"aw"
	.align 8
	.quad	_sub_D_00099_0
	.text
	.type	_sub_I_00099_1, @function
_sub_I_00099_1:
.LFB3654:
	.cfi_startproc
	endbr64
	pushq	%rbp
	.cfi_def_cfa_offset 16
	.cfi_offset 6, -16
	movq	%rsp, %rbp
	.cfi_def_cfa_register 6
	call	__asan_init@PLT
	call	__asan_version_mismatch_check_v8@PLT
	movl	$107, %esi
	leaq	.LASAN0(%rip), %rax
	movq	%rax, %rdi
	call	__asan_register_globals@PLT
	popq	%rbp
	.cfi_def_cfa 7, 8
	ret
	.cfi_endproc
.LFE3654:
	.size	_sub_I_00099_1, .-_sub_I_00099_1
	.section	.init_array.00099,"aw"
	.align 8
	.quad	_sub_I_00099_1
	.section	.rodata
	.align 8
.LC60:
	.long	0
	.long	2146959360
	.text
.Letext0:
	.file 3 "../Common/Structures/Tabels/NameTable.h"
	.file 4 "../Common/Structures/Token/Token.h"
	.file 5 "../Common/Structures/Tabels/Tabels.h"
	.file 6 "../Common/Structures/Program/Program.h"
	.file 7 "<built-in>"
	.file 8 "/usr/lib/gcc/x86_64-linux-gnu/11/include/stddef.h"
	.file 9 "/usr/include/x86_64-linux-gnu/bits/types.h"
	.file 10 "/usr/include/x86_64-linux-gnu/bits/types/__mbstate_t.h"
	.file 11 "/usr/include/x86_64-linux-gnu/bits/types/__fpos_t.h"
	.file 12 "/usr/include/x86_64-linux-gnu/bits/types/__FILE.h"
	.file 13 "/usr/include/x86_64-linux-gnu/bits/types/struct_FILE.h"
	.file 14 "/usr/include/x86_64-linux-gnu/bits/types/FILE.h"
	.file 15 "/usr/include/stdio.h"
	.file 16 "/usr/include/stdlib.h"
	.file 17 "/usr/include/x86_64-linux-gnu/bits/stdint-intn.h"
	.file 18 "/usr/include/c++/11/cstdlib"
	.file 19 "/usr/include/c++/11/bits/std_abs.h"
	.file 20 "/usr/include/c++/11/cmath"
	.file 21 "/usr/include/c++/11/type_traits"
	.file 22 "/usr/include/c++/11/concepts"
	.file 23 "/usr/include/c++/11/bits/iterator_concepts.h"
	.file 24 "/usr/include/c++/11/bits/ranges_cmp.h"
	.file 25 "/usr/include/c++/11/compare"
	.file 26 "/usr/include/c++/11/debug/debug.h"
	.file 27 "/usr/include/c++/11/cwchar"
	.file 28 "/usr/include/c++/11/bits/exception_ptr.h"
	.file 29 "/usr/include/x86_64-linux-gnu/c++/11/bits/c++config.h"
	.file 30 "/usr/include/c++/11/cstdint"
	.file 31 "/usr/include/c++/11/clocale"
	.file 32 "/usr/include/c++/11/numbers"
	.file 33 "/usr/include/c++/11/cstdio"
	.file 34 "/usr/include/c++/11/bits/ios_base.h"
	.file 35 "/usr/include/c++/11/cwctype"
	.file 36 "/usr/include/c++/11/bits/predefined_ops.h"
	.file 37 "/usr/include/c++/11/stdlib.h"
	.file 38 "/usr/include/math.h"
	.file 39 "/usr/include/c++/11/bits/ptr_traits.h"
	.file 40 "/usr/include/c++/11/math.h"
	.file 41 "../Common/Grammar.h"
	.file 42 "../ATC/Buffer/my_buffer.h"
	.file 43 "../Common/LexicalCtx/LexicalCtx.h"
	.file 44 "/usr/include/x86_64-linux-gnu/bits/types/wint_t.h"
	.file 45 "/usr/include/x86_64-linux-gnu/bits/types/mbstate_t.h"
	.file 46 "/usr/include/wchar.h"
	.file 47 "/usr/include/x86_64-linux-gnu/bits/types/struct_tm.h"
	.file 48 "/usr/include/x86_64-linux-gnu/bits/stdint-uintn.h"
	.file 49 "/usr/include/stdint.h"
	.file 50 "/usr/include/locale.h"
	.file 51 "/usr/include/x86_64-linux-gnu/bits/wctype-wchar.h"
	.file 52 "/usr/include/wctype.h"
	.file 53 "../ATC/Logger/LogConfig.h"
	.file 54 "../ATC/Logger/FunctionLogger.h"
	.file 55 "../ATC/RandomStuff/CommonEnums.h"
	.file 56 "/usr/include/string.h"
	.file 57 "../ATC/Logger/Logger.h"
	.file 58 "/usr/include/c++/11/bits/algorithmfwd.h"
	.section	.data.rel.local.DW.ref.__gxx_personality_v0,"awG",@progbits,DW.ref.__gxx_personality_v0,comdat
	.align 8
	.type	DW.ref.__gxx_personality_v0, @object
	.size	DW.ref.__gxx_personality_v0, 8
DW.ref.__gxx_personality_v0:
	.quad	__gxx_personality_v0
	.hidden	__dso_handle
	.ident	"GCC: (Ubuntu 11.3.0-1ubuntu1~22.04) 11.3.0"
	.section	.note.GNU-stack,"",@progbits
	.section	.note.gnu.property,"a"
	.align 8
	.long	1f - 0f
	.long	4f - 1f
	.long	5
0:
	.string	"GNU"
1:
	.align 8
	.long	0xc0000002
	.long	3f - 2f
2:
	.long	0x3
3:
	.align 8
4:
