	.file	"GraphVis.cpp"
	.text
.Ltext0:
	.file 0 "/home/arsenyfucker/Cprojects/Lang/Translator/BackEnd" "../Common/Utils/GraphVis.cpp"
	.section	.rodata
	.align 32
	.type	_ZL12NOT_DECLARED, @object
	.size	_ZL12NOT_DECLARED, 4
_ZL12NOT_DECLARED:
	.long	-111
	.zero	60
	.align 32
	.type	_ZL11NOT_A_LABEL, @object
	.size	_ZL11NOT_A_LABEL, 4
_ZL11NOT_A_LABEL:
	.long	-9
	.zero	60
	.align 32
	.type	_ZL21MAX_GRAPH_NAME_LENGTH, @object
	.size	_ZL21MAX_GRAPH_NAME_LENGTH, 4
_ZL21MAX_GRAPH_NAME_LENGTH:
	.long	128
	.zero	60
	.align 32
	.type	_ZL17IMAGE_NAME_LENGTH, @object
	.size	_ZL17IMAGE_NAME_LENGTH, 4
_ZL17IMAGE_NAME_LENGTH:
	.long	128
	.zero	60
	.align 32
	.type	_ZL12PATH_FOR_DOT, @object
	.size	_ZL12PATH_FOR_DOT, 16
_ZL12PATH_FOR_DOT:
	.string	"./graphics/dot/"
	.zero	48
	.align 32
	.type	_ZL12PATH_FOR_IMG, @object
	.size	_ZL12PATH_FOR_IMG, 12
_ZL12PATH_FOR_IMG:
	.string	"./graphics/"
	.zero	52
	.align 32
	.type	_ZL9EXTENSION, @object
	.size	_ZL9EXTENSION, 4
_ZL9EXTENSION:
	.string	"png"
	.zero	60
	.align 32
	.type	_ZL7RANKDIR, @object
	.size	_ZL7RANKDIR, 3
_ZL7RANKDIR:
	.string	"TB"
	.zero	61
	.align 32
	.type	_ZL21SYSTEM_COMMAND_LENGTH, @object
	.size	_ZL21SYSTEM_COMMAND_LENGTH, 4
_ZL21SYSTEM_COMMAND_LENGTH:
	.long	512
	.zero	60
	.align 32
.LC0:
	.string	"if"
	.zero	61
	.align 32
.LC1:
	.string	"else"
	.zero	59
	.align 32
.LC2:
	.string	"while"
	.zero	58
	.align 32
.LC3:
	.string	"return"
	.zero	57
	.section	.data.rel.ro.local,"aw"
	.align 32
	.type	_ZL12INSTRUCTIONS, @object
	.size	_ZL12INSTRUCTIONS, 32
_ZL12INSTRUCTIONS:
	.quad	.LC0
	.quad	.LC1
	.quad	.LC2
	.quad	.LC3
	.zero	32
	.section	.rodata
	.align 32
.LC4:
	.string	"fout"
	.zero	59
	.align 32
.LC5:
	.string	"fin"
	.zero	60
	.align 32
.LC6:
	.string	"sin"
	.zero	60
	.align 32
.LC7:
	.string	"cos"
	.zero	60
	.align 32
.LC8:
	.string	"pow"
	.zero	60
	.section	.data.rel.ro.local
	.align 32
	.type	_ZL16NATIVE_FUNCTIONS, @object
	.size	_ZL16NATIVE_FUNCTIONS, 80
_ZL16NATIVE_FUNCTIONS:
	.quad	.LC4
	.long	0
	.long	1
	.quad	.LC5
	.long	1
	.long	1
	.quad	.LC6
	.long	2
	.long	1
	.quad	.LC7
	.long	3
	.long	1
	.quad	.LC8
	.long	4
	.long	2
	.zero	48
	.section	.rodata
	.align 32
	.type	_ZL33NUMBER_OF_NATIVE_FUNCTIONS_STRUCT, @object
	.size	_ZL33NUMBER_OF_NATIVE_FUNCTIONS_STRUCT, 4
_ZL33NUMBER_OF_NATIVE_FUNCTIONS_STRUCT:
	.long	5
	.zero	60
	.align 32
.LC9:
	.string	"extern"
	.zero	57
	.align 32
.LC10:
	.string	"var"
	.zero	60
	.section	.data.rel.ro.local
	.align 32
	.type	_ZL14INITIALIZATORS, @object
	.size	_ZL14INITIALIZATORS, 16
_ZL14INITIALIZATORS:
	.quad	.LC9
	.quad	.LC10
	.zero	48
	.section	.rodata
	.align 32
.LC11:
	.string	"double"
	.zero	57
	.align 32
.LC12:
	.string	"void"
	.zero	59
	.section	.data.rel.ro.local
	.align 32
	.type	_ZL18FUNCTION_RET_TYPES, @object
	.size	_ZL18FUNCTION_RET_TYPES, 16
_ZL18FUNCTION_RET_TYPES:
	.quad	.LC11
	.quad	.LC12
	.zero	48
	.section	.rodata
	.align 32
	.type	_ZL9OPERATORS, @object
	.size	_ZL9OPERATORS, 9
_ZL9OPERATORS:
	.string	"+-/*<<>>"
	.zero	55
	.align 32
	.type	_ZL7COMMENT, @object
	.size	_ZL7COMMENT, 1
_ZL7COMMENT:
	.byte	35
	.zero	63
	.align 32
.LC13:
	.string	"main"
	.zero	59
	.section	.data.rel.ro.local
	.align 32
	.type	_ZL9MAIN_NAME, @object
	.size	_ZL9MAIN_NAME, 8
_ZL9MAIN_NAME:
	.quad	.LC13
	.zero	56
	.section	.rodata
	.align 32
	.type	_ZL24MAX_FUNCTION_NAME_LENGTH, @object
	.size	_ZL24MAX_FUNCTION_NAME_LENGTH, 4
_ZL24MAX_FUNCTION_NAME_LENGTH:
	.long	256
	.zero	60
	.align 32
	.type	_ZL15MAX_WORD_LENGTH, @object
	.size	_ZL15MAX_WORD_LENGTH, 4
_ZL15MAX_WORD_LENGTH:
	.long	256
	.zero	60
	.bss
	.align 32
	.type	_ZStL8__ioinit, @object
	.size	_ZStL8__ioinit, 1
_ZStL8__ioinit:
	.zero	64
	.section	.rodata
	.align 32
	.type	_ZL12STD_LOG_NAME, @object
	.size	_ZL12STD_LOG_NAME, 18
_ZL12STD_LOG_NAME:
	.string	"./logs/stdlog.ars"
	.zero	46
	.align 32
	.type	_ZL6CRINGE, @object
	.size	_ZL6CRINGE, 4
_ZL6CRINGE:
	.long	3565
	.zero	60
	.align 32
	.type	_ZL11INDENT_SIZE, @object
	.size	_ZL11INDENT_SIZE, 4
_ZL11INDENT_SIZE:
	.long	2
	.zero	60
	.globl	NUMBER_OF_GRAPVIS_COLORS
	.data
	.align 32
	.type	NUMBER_OF_GRAPVIS_COLORS, @object
	.size	NUMBER_OF_GRAPVIS_COLORS, 4
NUMBER_OF_GRAPVIS_COLORS:
	.long	12
	.zero	60
	.section	.rodata
	.align 32
	.type	_ZL16GRAPH_VIS_COLORS, @object
	.size	_ZL16GRAPH_VIS_COLORS, 48
_ZL16GRAPH_VIS_COLORS:
	.long	16777215
	.long	14745568
	.long	16769248
	.long	14737663
	.long	16777184
	.long	16769279
	.long	14745599
	.long	14737632
	.long	16777215
	.long	16737894
	.long	16751001
	.long	16777113
	.zero	48
	.bss
	.align 32
	.type	_ZL3Dot, @object
	.size	_ZL3Dot, 8
_ZL3Dot:
	.zero	64
	.align 32
	.type	_ZL10STRING_ARR, @object
	.size	_ZL10STRING_ARR, 8
_ZL10STRING_ARR:
	.zero	64
	.align 32
	.type	_ZZ7MakeImgPKcPK7ProgramE13full_img_name, @object
	.size	_ZZ7MakeImgPKcPK7ProgramE13full_img_name, 144
_ZZ7MakeImgPKcPK7ProgramE13full_img_name:
	.zero	192
	.globl	__asan_stack_malloc_4
	.section	.rodata
	.align 8
.LC14:
	.string	"3 32 24 10 func_37:37 96 144 11 dot_file:42 304 528 14 system_command"
	.align 32
.LC15:
	.string	"MakeImg"
	.zero	56
	.align 32
.LC16:
	.string	"img_name"
	.zero	55
	.align 32
.LC17:
	.string	"\033[91mASSERT\033[0m %s: Dyrachok, (%s) - is wrong condition (in line %d)\n"
	.zero	58
	.align 32
.LC18:
	.string	"program"
	.zero	56
	.align 32
.LC19:
	.string	"%s%s.dot"
	.zero	55
	.align 32
.LC20:
	.string	"(%s)\n"
	.zero	58
	.align 32
.LC21:
	.string	"\t%s: "
	.zero	58
	.align 32
.LC22:
	.string	"Can't open DOT file !!!!"
	.zero	39
	.align 32
.LC23:
	.string	"../Common/Utils/GraphVis.cpp"
	.zero	35
	.align 32
.LC24:
	.string	" (%s:%d)\n"
	.zero	54
	.align 32
.LC25:
	.string	"%s%s.%s"
	.zero	56
	.align 32
.LC26:
	.string	"dot -T %s -o %s %s"
	.zero	45
	.text
	.globl	_Z7MakeImgPKcPK7Program
	.type	_Z7MakeImgPKcPK7Program, @function
_Z7MakeImgPKcPK7Program:
.LASANPC2270:
.LFB2270:
	.file 1 "../Common/Utils/GraphVis.cpp"
	.loc 1 36 5
	.cfi_startproc
	.cfi_personality 0x9b,DW.ref.__gxx_personality_v0
	.cfi_lsda 0x1b,.LLSDA2270
	endbr64
	pushq	%rbp
	.cfi_def_cfa_offset 16
	.cfi_offset 6, -16
	movq	%rsp, %rbp
	.cfi_def_cfa_register 6
	pushq	%r15
	pushq	%r14
	pushq	%r13
	pushq	%r12
	pushq	%rbx
	subq	$1016, %rsp
	.cfi_offset 15, -24
	.cfi_offset 14, -32
	.cfi_offset 13, -40
	.cfi_offset 12, -48
	.cfi_offset 3, -56
	movq	%rdi, -1048(%rbp)
	movq	%rsi, -1056(%rbp)
	leaq	-1040(%rbp), %r13
	movq	%r13, %r15
	cmpl	$0, __asan_option_detect_stack_use_after_return(%rip)
	je	.L1
	movl	$960, %edi
	call	__asan_stack_malloc_4@PLT
	testq	%rax, %rax
	je	.L1
	movq	%rax, %r13
.L1:
	leaq	992(%r13), %rax
	movq	%rax, %r12
	movq	$1102416563, 0(%r13)
	leaq	.LC14(%rip), %rax
	movq	%rax, 8(%r13)
	leaq	.LASANPC2270(%rip), %rax
	movq	%rax, 16(%r13)
	movq	%r13, %rbx
	shrq	$3, %rbx
	movl	$-235802127, 2147450880(%rbx)
	movl	$-234881024, 2147450884(%rbx)
	movl	$-218959118, 2147450888(%rbx)
	movl	$-219021312, 2147450908(%rbx)
	movl	$-218959118, 2147450912(%rbx)
	movl	$62194, 2147450916(%rbx)
	movl	$-202116109, 2147450984(%rbx)
	movl	$-202116109, 2147450988(%rbx)
	movl	$-202116109, 2147450992(%rbx)
	movl	$-202116109, 2147450996(%rbx)
	.loc 1 36 5
	movq	%fs:40, %rax
	movq	%rax, -56(%rbp)
	xorl	%eax, %eax
	.loc 1 37 40
	leaq	-960(%r12), %rax
	leaq	.LC15(%rip), %rdx
	movl	$2, %esi
	movq	%rax, %rdi
.LEHB0:
	call	_ZN14FunctionLoggerC1EiPKc@PLT
.LEHE0:
	.loc 1 39 10
	cmpq	$0, -1048(%rbp)
	jne	.L5
	.loc 1 39 34 discriminator 1
	movl	$39, %ecx
	leaq	.LC16(%rip), %rax
	movq	%rax, %rdx
	leaq	.LC15(%rip), %rax
	movq	%rax, %rsi
	leaq	.LC17(%rip), %rax
	movq	%rax, %rdi
	movl	$0, %eax
.LEHB1:
	call	printf@PLT
.L5:
	.loc 1 40 10
	cmpq	$0, -1056(%rbp)
	jne	.L6
	.loc 1 40 33 discriminator 1
	movl	$40, %ecx
	leaq	.LC18(%rip), %rax
	movq	%rax, %rdx
	leaq	.LC15(%rip), %rax
	movq	%rax, %rsi
	leaq	.LC17(%rip), %rax
	movq	%rax, %rdi
	movl	$0, %eax
	call	printf@PLT
.L6:
	.loc 1 42 10
	leaq	-896(%r12), %rax
	movq	%rax, %rdx
	shrq	$3, %rdx
	addq	$2147450880, %rdx
	movzbl	(%rdx), %edx
	testb	%dl, %dl
	setne	%cl
	testb	%dl, %dl
	setle	%dl
	andl	%edx, %ecx
	movl	%ecx, %esi
	movl	$144, %edx
	subq	$1, %rdx
	leaq	(%rax,%rdx), %rcx
	movq	%rcx, %rdx
	shrq	$3, %rdx
	addq	$2147450880, %rdx
	movzbl	(%rdx), %edx
	testb	%dl, %dl
	setne	%dil
	andl	$7, %ecx
	cmpb	%dl, %cl
	setge	%dl
	andl	%edi, %edx
	orl	%esi, %edx
	testb	%dl, %dl
	je	.L7
	movl	$144, %esi
	movq	%rax, %rdi
	call	__asan_report_store_n@PLT
.L7:
	movq	$0, -896(%r12)
	movq	$0, -888(%r12)
	movq	$0, -880(%r12)
	movq	$0, -872(%r12)
	movq	$0, -864(%r12)
	movq	$0, -856(%r12)
	movq	$0, -848(%r12)
	movq	$0, -840(%r12)
	movq	$0, -832(%r12)
	movq	$0, -824(%r12)
	movq	$0, -816(%r12)
	movq	$0, -808(%r12)
	movq	$0, -800(%r12)
	movq	$0, -792(%r12)
	movq	$0, -784(%r12)
	movq	$0, -776(%r12)
	movq	$0, -768(%r12)
	movq	$0, -760(%r12)
	.loc 1 43 14
	movq	-1048(%rbp), %rdx
	leaq	-896(%r12), %rax
	movq	%rdx, %r8
	leaq	_ZL12PATH_FOR_DOT(%rip), %rdx
	movq	%rdx, %rcx
	leaq	.LC19(%rip), %rdx
	movl	$128, %esi
	movq	%rax, %rdi
	movl	$0, %eax
	call	snprintf@PLT
	.loc 1 45 12
	leaq	-896(%r12), %rax
	movq	%rax, %rsi
	leaq	.LC20(%rip), %rax
	movq	%rax, %rdi
	movl	$0, %eax
	call	printf@PLT
	.loc 1 48 17
	leaq	-896(%r12), %rax
	movq	%rax, %rdi
	call	_Z11OpenDotFilePKc
	.loc 1 49 9
	movq	_ZL3Dot(%rip), %rax
	.loc 1 49 5
	testq	%rax, %rax
	jne	.L8
	.loc 1 51 17
	leaq	.LC15(%rip), %rax
	movq	%rax, %rsi
	leaq	.LC21(%rip), %rax
	movq	%rax, %rdi
	movl	$0, %eax
	call	printf@PLT
	.loc 1 51 45 discriminator 1
	leaq	.LC22(%rip), %rax
	movq	%rax, %rdi
	call	puts@PLT
	.loc 1 51 83 discriminator 2
	movl	$51, %edx
	leaq	.LC23(%rip), %rax
	movq	%rax, %rsi
	leaq	.LC24(%rip), %rax
	movq	%rax, %rdi
	movl	$0, %eax
	call	printf@PLT
	.loc 1 52 15
	movl	$0, %r14d
	jmp	.L9
.L8:
	.loc 1 55 12
	call	_ZL6SetDotv
	.loc 1 59 27
	movq	-1056(%rbp), %rax
	addq	$24, %rax
	movq	%rax, %rdx
	shrq	$3, %rdx
	addq	$2147450880, %rdx
	movzbl	(%rdx), %edx
	testb	%dl, %dl
	je	.L10
	movq	%rax, %rdi
	call	__asan_report_load8@PLT
.L10:
	movq	-1056(%rbp), %rax
	movq	24(%rax), %rax
	.loc 1 59 16
	movq	%rax, _ZL10STRING_ARR(%rip)
	.loc 1 61 29
	movq	-1056(%rbp), %rax
	addq	$16, %rax
	movq	%rax, %rdx
	shrq	$3, %rdx
	addq	$2147450880, %rdx
	movzbl	(%rdx), %edx
	testb	%dl, %dl
	je	.L11
	movq	%rax, %rdi
	call	__asan_report_load8@PLT
.L11:
	movq	-1056(%rbp), %rax
	movq	16(%rax), %rax
	.loc 1 61 19
	movq	%rax, %rdi
	call	_ZL13DotTreeBranchPK5Token
	.loc 1 64 15
	call	_ZL9SetEndDotv
	.loc 1 67 14
	movq	-1048(%rbp), %rax
	leaq	_ZL9EXTENSION(%rip), %r9
	movq	%rax, %r8
	leaq	_ZL12PATH_FOR_IMG(%rip), %rax
	movq	%rax, %rcx
	leaq	.LC25(%rip), %rax
	movq	%rax, %rdx
	movl	$128, %esi
	leaq	_ZZ7MakeImgPKcPK7ProgramE13full_img_name(%rip), %rax
	movq	%rax, %rdi
	movl	$0, %eax
	call	snprintf@PLT
	.loc 1 70 10
	leaq	-688(%r12), %rax
	movq	%rax, %rdx
	shrq	$3, %rdx
	addq	$2147450880, %rdx
	movzbl	(%rdx), %edx
	testb	%dl, %dl
	setne	%cl
	testb	%dl, %dl
	setle	%dl
	andl	%edx, %ecx
	movl	%ecx, %esi
	movl	$528, %edx
	subq	$1, %rdx
	leaq	(%rax,%rdx), %rcx
	movq	%rcx, %rdx
	shrq	$3, %rdx
	addq	$2147450880, %rdx
	movzbl	(%rdx), %edx
	testb	%dl, %dl
	setne	%dil
	andl	$7, %ecx
	cmpb	%dl, %cl
	setge	%dl
	andl	%edi, %edx
	orl	%esi, %edx
	testb	%dl, %dl
	je	.L12
	movl	$528, %esi
	movq	%rax, %rdi
	call	__asan_report_store_n@PLT
.L12:
	movq	$0, -688(%r12)
	movq	$0, -680(%r12)
	leaq	-672(%r12), %rdx
	movl	$0, %eax
	movl	$64, %ecx
	movq	%rdx, %rdi
	rep stosq
	.loc 1 71 14
	leaq	-896(%r12), %rdx
	leaq	-688(%r12), %rax
	movq	%rdx, %r9
	leaq	_ZZ7MakeImgPKcPK7ProgramE13full_img_name(%rip), %r8
	leaq	_ZL9EXTENSION(%rip), %rdx
	movq	%rdx, %rcx
	leaq	.LC26(%rip), %rdx
	movl	$512, %esi
	movq	%rax, %rdi
	movl	$0, %eax
	call	snprintf@PLT
	.loc 1 74 12
	leaq	-688(%r12), %rax
	movq	%rax, %rdi
	call	system@PLT
	.loc 1 76 18
	call	_Z12CloseDotFilev
.LEHE1:
	.loc 1 77 12
	leaq	_ZZ7MakeImgPKcPK7ProgramE13full_img_name(%rip), %r14
.L9:
	.loc 1 79 5
	leaq	-960(%r12), %rax
	movq	%rax, %rdi
	call	_ZN14FunctionLoggerD1Ev@PLT
	movq	%r14, %rdx
	.loc 1 36 5
	cmpq	%r13, %r15
	je	.L2
	jmp	.L17
.L16:
	endbr64
	.loc 1 79 5
	movq	%rax, %rbx
	leaq	-960(%r12), %rax
	movq	%rax, %rdi
	call	_ZN14FunctionLoggerD1Ev@PLT
	call	__asan_handle_no_return@PLT
	movq	%rbx, %rdi
.LEHB2:
	call	_Unwind_Resume@PLT
.LEHE2:
.L17:
	.loc 1 36 5
	movq	$1172321806, 0(%r13)
	movabsq	$-723401728380766731, %rsi
	movabsq	$-723401728380766731, %rdi
	movq	%rsi, 2147450880(%rbx)
	movq	%rdi, 2147450888(%rbx)
	movq	%rsi, 2147450896(%rbx)
	movq	%rdi, 2147450904(%rbx)
	movq	%rsi, 2147450912(%rbx)
	movq	%rdi, 2147450920(%rbx)
	movq	%rsi, 2147450928(%rbx)
	movq	%rdi, 2147450936(%rbx)
	movq	%rsi, 2147450944(%rbx)
	movq	%rdi, 2147450952(%rbx)
	movq	%rsi, 2147450960(%rbx)
	movq	%rdi, 2147450968(%rbx)
	movq	%rsi, 2147450976(%rbx)
	movq	%rdi, 2147450984(%rbx)
	movabsq	$-723401728380766731, %rax
	movq	%rax, 2147450992(%rbx)
	movq	1016(%r13), %rax
	movb	$0, (%rax)
	jmp	.L3
.L2:
	movq	$0, 2147450880(%rbx)
	movl	$0, 2147450888(%rbx)
	movq	$0, 2147450908(%rbx)
	movl	$0, 2147450916(%rbx)
	movq	$0, 2147450984(%rbx)
	movq	$0, 2147450992(%rbx)
.L3:
	.loc 1 79 5
	movq	-56(%rbp), %rax
	subq	%fs:40, %rax
	je	.L15
	call	__stack_chk_fail@PLT
.L15:
	movq	%rdx, %rax
	addq	$1016, %rsp
	popq	%rbx
	popq	%r12
	popq	%r13
	popq	%r14
	popq	%r15
	popq	%rbp
	.cfi_def_cfa 7, 8
	ret
	.cfi_endproc
.LFE2270:
	.globl	__gxx_personality_v0
	.section	.gcc_except_table,"a",@progbits
.LLSDA2270:
	.byte	0xff
	.byte	0xff
	.byte	0x1
	.uleb128 .LLSDACSE2270-.LLSDACSB2270
.LLSDACSB2270:
	.uleb128 .LEHB0-.LFB2270
	.uleb128 .LEHE0-.LEHB0
	.uleb128 0
	.uleb128 0
	.uleb128 .LEHB1-.LFB2270
	.uleb128 .LEHE1-.LEHB1
	.uleb128 .L16-.LFB2270
	.uleb128 0
	.uleb128 .LEHB2-.LFB2270
	.uleb128 .LEHE2-.LEHB2
	.uleb128 0
	.uleb128 0
.LLSDACSE2270:
	.text
	.size	_Z7MakeImgPKcPK7Program, .-_Z7MakeImgPKcPK7Program
	.section	.rodata
	.align 32
.LC27:
	.string	"SetDot"
	.zero	57
	.align 32
.LC28:
	.string	"########################################################### %s\n"
	.zero	32
	.align 32
.LC29:
	.string	"digraph \n{\n"
	.zero	52
	.align 32
.LC30:
	.string	"rankdir = %s # RANKDIR\n"
	.zero	40
	.text
	.type	_ZL6SetDotv, @function
_ZL6SetDotv:
.LASANPC2271:
.LFB2271:
	.loc 1 83 5
	.cfi_startproc
	endbr64
	pushq	%rbp
	.cfi_def_cfa_offset 16
	.cfi_offset 6, -16
	movq	%rsp, %rbp
	.cfi_def_cfa_register 6
	.loc 1 84 9
	movq	_ZL3Dot(%rip), %rax
	.loc 1 84 5
	testq	%rax, %rax
	je	.L21
	.loc 1 86 13
	movq	_ZL3Dot(%rip), %rax
	leaq	.LC27(%rip), %rdx
	leaq	.LC28(%rip), %rcx
	movq	%rcx, %rsi
	movq	%rax, %rdi
	movl	$0, %eax
	call	fprintf@PLT
	.loc 1 88 13
	leaq	.LC29(%rip), %rax
	movq	%rax, %rdi
	movl	$0, %eax
	call	_ZL8DotPrintPKcz
	.loc 1 89 13
	leaq	_ZL7RANKDIR(%rip), %rax
	movq	%rax, %rsi
	leaq	.LC30(%rip), %rax
	movq	%rax, %rdi
	movl	$0, %eax
	call	_ZL8DotPrintPKcz
	.loc 1 91 5
	jmp	.L18
.L21:
	.loc 1 84 15
	nop
.L18:
	.loc 1 92 5
	popq	%rbp
	.cfi_def_cfa 7, 8
	ret
	.cfi_endproc
.LFE2271:
	.size	_ZL6SetDotv, .-_ZL6SetDotv
	.section	.rodata
	.align 32
.LC31:
	.string	"SetEndDot"
	.zero	54
	.align 32
.LC32:
	.string	"\n}"
	.zero	61
	.text
	.type	_ZL9SetEndDotv, @function
_ZL9SetEndDotv:
.LASANPC2272:
.LFB2272:
	.loc 1 95 5
	.cfi_startproc
	endbr64
	pushq	%rbp
	.cfi_def_cfa_offset 16
	.cfi_offset 6, -16
	movq	%rsp, %rbp
	.cfi_def_cfa_register 6
	.loc 1 96 9
	movq	_ZL3Dot(%rip), %rax
	.loc 1 96 5
	testq	%rax, %rax
	je	.L25
	.loc 1 98 13
	movq	_ZL3Dot(%rip), %rax
	leaq	.LC31(%rip), %rdx
	leaq	.LC28(%rip), %rcx
	movq	%rcx, %rsi
	movq	%rax, %rdi
	movl	$0, %eax
	call	fprintf@PLT
	.loc 1 100 13
	leaq	.LC32(%rip), %rax
	movq	%rax, %rdi
	movl	$0, %eax
	call	_ZL8DotPrintPKcz
	.loc 1 101 11
	movq	_ZL3Dot(%rip), %rax
	movq	%rax, %rdi
	call	fflush@PLT
	.loc 1 103 5
	jmp	.L22
.L25:
	.loc 1 96 15
	nop
.L22:
	.loc 1 104 5
	popq	%rbp
	.cfi_def_cfa 7, 8
	ret
	.cfi_endproc
.LFE2272:
	.size	_ZL9SetEndDotv, .-_ZL9SetEndDotv
	.globl	__asan_stack_malloc_1
	.section	.rodata
.LC33:
	.string	"1 32 24 7 ptr:109"
	.text
	.type	_ZL8DotPrintPKcz, @function
_ZL8DotPrintPKcz:
.LASANPC2273:
.LFB2273:
	.loc 1 108 5
	.cfi_startproc
	endbr64
	pushq	%rbp
	.cfi_def_cfa_offset 16
	.cfi_offset 6, -16
	movq	%rsp, %rbp
	.cfi_def_cfa_register 6
	pushq	%r13
	pushq	%r12
	pushq	%rbx
	subq	$296, %rsp
	.cfi_offset 13, -24
	.cfi_offset 12, -32
	.cfi_offset 3, -40
	movq	%rdi, -312(%rbp)
	movq	%rsi, -200(%rbp)
	movq	%rdx, -192(%rbp)
	movq	%rcx, -184(%rbp)
	movq	%r8, -176(%rbp)
	movq	%r9, -168(%rbp)
	testb	%al, %al
	je	.L30
	movaps	%xmm0, -160(%rbp)
	movaps	%xmm1, -144(%rbp)
	movaps	%xmm2, -128(%rbp)
	movaps	%xmm3, -112(%rbp)
	movaps	%xmm4, -96(%rbp)
	movaps	%xmm5, -80(%rbp)
	movaps	%xmm6, -64(%rbp)
	movaps	%xmm7, -48(%rbp)
.L30:
	leaq	-304(%rbp), %rbx
	movq	%rbx, %r13
	cmpl	$0, __asan_option_detect_stack_use_after_return(%rip)
	je	.L26
	movl	$96, %edi
	call	__asan_stack_malloc_1@PLT
	testq	%rax, %rax
	je	.L26
	movq	%rax, %rbx
.L26:
	leaq	96(%rbx), %rax
	movq	$1102416563, (%rbx)
	leaq	.LC33(%rip), %rdx
	movq	%rdx, 8(%rbx)
	leaq	.LASANPC2273(%rip), %rdx
	movq	%rdx, 16(%rbx)
	movq	%rbx, %r12
	shrq	$3, %r12
	movl	$-235802127, 2147450880(%r12)
	movl	$-218103808, 2147450884(%r12)
	movl	$-202116109, 2147450888(%r12)
	.loc 1 110 22
	movl	$8, -64(%rax)
	movl	$48, -60(%rax)
	leaq	16(%rbp), %rsi
	movq	%rsi, -56(%rax)
	leaq	-208(%rbp), %rcx
	movq	%rcx, -48(%rax)
	.loc 1 112 14
	movq	_ZL3Dot(%rip), %rcx
	leaq	-64(%rax), %rdx
	movq	-312(%rbp), %rax
	movq	%rax, %rsi
	movq	%rcx, %rdi
	call	vfprintf@PLT
	.loc 1 116 5
	nop
	.loc 1 108 5
	cmpq	%rbx, %r13
	je	.L27
	movq	$1172321806, (%rbx)
	movabsq	$-723401728380766731, %rax
	movq	%rax, 2147450880(%r12)
	movl	$-168430091, 2147450888(%r12)
	movq	120(%rbx), %rax
	movb	$0, (%rax)
	jmp	.L28
.L27:
	movq	$0, 2147450880(%r12)
	movl	$0, 2147450888(%r12)
.L28:
	.loc 1 117 5
	addq	$296, %rsp
	popq	%rbx
	popq	%r12
	popq	%r13
	popq	%rbp
	.cfi_def_cfa 7, 8
	ret
	.cfi_endproc
.LFE2273:
	.size	_ZL8DotPrintPKcz, .-_ZL8DotPrintPKcz
	.section	.rodata
	.align 32
.LC34:
	.string	"wb"
	.zero	61
	.align 32
.LC35:
	.string	"Couldn't open file %s\n"
	.zero	41
	.text
	.globl	_Z11OpenDotFilePKc
	.type	_Z11OpenDotFilePKc, @function
_Z11OpenDotFilePKc:
.LASANPC2274:
.LFB2274:
	.loc 1 120 5
	.cfi_startproc
	endbr64
	pushq	%rbp
	.cfi_def_cfa_offset 16
	.cfi_offset 6, -16
	movq	%rsp, %rbp
	.cfi_def_cfa_register 6
	subq	$16, %rsp
	movq	%rdi, -8(%rbp)
	.loc 1 121 5
	cmpq	$0, -8(%rbp)
	jne	.L33
	.loc 1 121 23 discriminator 1
	movl	$0, %eax
	jmp	.L34
.L33:
	.loc 1 123 17
	movq	-8(%rbp), %rax
	leaq	.LC34(%rip), %rdx
	movq	%rdx, %rsi
	movq	%rax, %rdi
	call	fopen@PLT
	.loc 1 123 9
	movq	%rax, _ZL3Dot(%rip)
	.loc 1 125 9
	movq	_ZL3Dot(%rip), %rax
	.loc 1 125 5
	testq	%rax, %rax
	jne	.L35
	.loc 1 126 15
	movq	-8(%rbp), %rax
	movq	%rax, %rsi
	leaq	.LC35(%rip), %rax
	movq	%rax, %rdi
	movl	$0, %eax
	call	printf@PLT
.L35:
	.loc 1 128 12
	movq	_ZL3Dot(%rip), %rax
.L34:
	.loc 1 129 5
	leave
	.cfi_def_cfa 7, 8
	ret
	.cfi_endproc
.LFE2274:
	.size	_Z11OpenDotFilePKc, .-_Z11OpenDotFilePKc
	.globl	_Z12CloseDotFilev
	.type	_Z12CloseDotFilev, @function
_Z12CloseDotFilev:
.LASANPC2275:
.LFB2275:
	.loc 1 132 5
	.cfi_startproc
	endbr64
	pushq	%rbp
	.cfi_def_cfa_offset 16
	.cfi_offset 6, -16
	movq	%rsp, %rbp
	.cfi_def_cfa_register 6
	.loc 1 133 12
	movq	_ZL3Dot(%rip), %rax
	movq	%rax, %rdi
	call	fclose@PLT
	.loc 1 135 9
	movq	$0, _ZL3Dot(%rip)
	.loc 1 136 5
	nop
	.loc 1 137 5
	popq	%rbp
	.cfi_def_cfa 7, 8
	ret
	.cfi_endproc
.LFE2275:
	.size	_Z12CloseDotFilev, .-_Z12CloseDotFilev
	.section	.rodata
	.align 32
.LC36:
	.string	"node"
	.zero	59
	.align 32
.LC37:
	.string	"ASSERTLOG:: Condition (%s) is false\n"
	.zero	59
	.align 32
.LC38:
	.string	"\033[93mASSERTLOG:: \033[0mCondition\033[95m (%s) \033[0mis \033[91mfalse\n\033[0m"
	.zero	32
	.align 32
.LC39:
	.string	"void DotTreeBranch(const Token*)"
	.zero	63
	.align 32
.LC40:
	.string	"\t%s:%d, function: %s\n"
	.zero	42
	.align 32
.LC41:
	.string	"It matches to error: (code %d) %s\n\n"
	.zero	60
	.align 32
.LC42:
	.string	"DotTreeBranch"
	.zero	50
	.align 32
.LC43:
	.string	"Shutting down the system (%s:%d)"
	.zero	63
	.align 32
.LC44:
	.string	"echo LOX\n"
	.zero	54
	.align 32
.LC45:
	.string	"\t\tnode_%p -> node_%p [label = \"left\"]\n"
	.zero	57
	.align 32
.LC46:
	.string	"\t\tnode_%p -> node_%p [label = \"right\"]\n"
	.zero	56
	.text
	.type	_ZL13DotTreeBranchPK5Token, @function
_ZL13DotTreeBranchPK5Token:
.LASANPC2276:
.LFB2276:
	.loc 1 140 5
	.cfi_startproc
	endbr64
	pushq	%rbp
	.cfi_def_cfa_offset 16
	.cfi_offset 6, -16
	movq	%rsp, %rbp
	.cfi_def_cfa_register 6
	pushq	%rbx
	subq	$24, %rsp
	.cfi_offset 3, -24
	movq	%rdi, -24(%rbp)
	.loc 1 141 10
	cmpq	$0, -24(%rbp)
	jne	.L39
	.loc 1 141 44 discriminator 1
	call	_ZN6Logger11getInstanceEv@PLT
	movq	%rax, %rcx
	.loc 1 141 50 discriminator 1
	leaq	.LC36(%rip), %rax
	movq	%rax, %rdx
	leaq	.LC37(%rip), %rax
	movq	%rax, %rsi
	movq	%rcx, %rdi
	movl	$0, %eax
	call	_ZN6Logger3logEPKcz@PLT
	.loc 1 141 107 discriminator 1
	leaq	.LC36(%rip), %rax
	movq	%rax, %rsi
	leaq	.LC38(%rip), %rax
	movq	%rax, %rdi
	movl	$0, %eax
	call	printf@PLT
	.loc 1 141 252 discriminator 1
	call	_ZN6Logger11getInstanceEv@PLT
	movq	%rax, %rdi
	.loc 1 141 258 discriminator 1
	leaq	.LC39(%rip), %r8
	movl	$141, %ecx
	leaq	.LC23(%rip), %rax
	movq	%rax, %rdx
	leaq	.LC40(%rip), %rax
	movq	%rax, %rsi
	movl	$0, %eax
	call	_ZN6Logger3logEPKcz@PLT
	.loc 1 141 351 discriminator 1
	leaq	.LC39(%rip), %rax
	movq	%rax, %rcx
	movl	$141, %edx
	leaq	.LC23(%rip), %rax
	movq	%rax, %rsi
	leaq	.LC40(%rip), %rax
	movq	%rax, %rdi
	movl	$0, %eax
	call	printf@PLT
	.loc 1 141 457 discriminator 1
	call	_ZN6Logger11getInstanceEv@PLT
	movq	%rax, %rbx
	.loc 1 141 463 discriminator 1
	movl	$14, %edi
	call	strerror@PLT
	movq	%rax, %rcx
	movl	$14, %edx
	leaq	.LC41(%rip), %rax
	movq	%rax, %rsi
	movq	%rbx, %rdi
	movl	$0, %eax
	call	_ZN6Logger3logEPKcz@PLT
	.loc 1 141 27 discriminator 1
	call	_ZN6Logger11getInstanceEv@PLT
	movq	%rax, %rdi
	.loc 1 141 33 discriminator 1
	movl	$141, %ecx
	leaq	.LC42(%rip), %rax
	movq	%rax, %rdx
	leaq	.LC43(%rip), %rax
	movq	%rax, %rsi
	movl	$0, %eax
	call	_ZN6Logger3logEPKcz@PLT
	.loc 1 141 92 discriminator 1
	leaq	.LC44(%rip), %rax
	movq	%rax, %rdi
	call	system@PLT
	.loc 1 141 113 discriminator 1
	call	__asan_handle_no_return@PLT
	call	abort@PLT
.L39:
	.loc 1 143 15
	movq	-24(%rbp), %rax
	movq	%rax, %rdi
	call	_ZL9PrintNodePK5Token
	.loc 1 147 15
	movq	-24(%rbp), %rax
	movq	%rax, %rdx
	shrq	$3, %rdx
	addq	$2147450880, %rdx
	movzbl	(%rdx), %edx
	testb	%dl, %dl
	je	.L40
	movq	%rax, %rdi
	call	__asan_report_load8@PLT
.L40:
	movq	-24(%rbp), %rax
	movq	(%rax), %rax
	.loc 1 147 5
	testq	%rax, %rax
	je	.L41
	.loc 1 149 30
	movq	-24(%rbp), %rax
	movq	(%rax), %rax
	.loc 1 149 23
	movq	%rax, %rdi
	call	_ZL13DotTreeBranchPK5Token
	.loc 1 153 78
	movq	-24(%rbp), %rax
	movq	%rax, %rdx
	shrq	$3, %rdx
	addq	$2147450880, %rdx
	movzbl	(%rdx), %edx
	testb	%dl, %dl
	je	.L42
	movq	%rax, %rdi
	call	__asan_report_load8@PLT
.L42:
	movq	-24(%rbp), %rax
	movq	(%rax), %rdx
	.loc 1 153 18
	movq	-24(%rbp), %rax
	movq	%rax, %rsi
	leaq	.LC45(%rip), %rax
	movq	%rax, %rdi
	movl	$0, %eax
	call	_ZL8DotPrintPKcz
.L41:
	.loc 1 157 15
	movq	-24(%rbp), %rax
	addq	$8, %rax
	movq	%rax, %rdx
	shrq	$3, %rdx
	addq	$2147450880, %rdx
	movzbl	(%rdx), %edx
	testb	%dl, %dl
	je	.L43
	movq	%rax, %rdi
	call	__asan_report_load8@PLT
.L43:
	movq	-24(%rbp), %rax
	movq	8(%rax), %rax
	.loc 1 157 5
	testq	%rax, %rax
	je	.L47
	.loc 1 159 30
	movq	-24(%rbp), %rax
	movq	8(%rax), %rax
	.loc 1 159 23
	movq	%rax, %rdi
	call	_ZL13DotTreeBranchPK5Token
	.loc 1 163 79
	movq	-24(%rbp), %rax
	addq	$8, %rax
	movq	%rax, %rdx
	shrq	$3, %rdx
	addq	$2147450880, %rdx
	movzbl	(%rdx), %edx
	testb	%dl, %dl
	je	.L45
	movq	%rax, %rdi
	call	__asan_report_load8@PLT
.L45:
	movq	-24(%rbp), %rax
	movq	8(%rax), %rdx
	.loc 1 163 18
	movq	-24(%rbp), %rax
	movq	%rax, %rsi
	leaq	.LC46(%rip), %rax
	movq	%rax, %rdi
	movl	$0, %eax
	call	_ZL8DotPrintPKcz
	.loc 1 184 5
	nop
.L47:
	nop
	.loc 1 185 5
	movq	-8(%rbp), %rbx
	leave
	.cfi_def_cfa 7, 8
	ret
	.cfi_endproc
.LFE2276:
	.size	_ZL13DotTreeBranchPK5Token, .-_ZL13DotTreeBranchPK5Token
	.globl	__asan_stack_malloc_3
	.section	.rodata
	.align 8
.LC47:
	.string	"2 48 24 12 func_190:190 112 333 8 def_data"
	.align 32
.LC48:
	.string	"PrintNode"
	.zero	54
	.align 32
.LC49:
	.string	"void PrintNode(const Token*)"
	.zero	35
	.align 32
.LC50:
	.string	"STATEMENT | {%c}"
	.zero	47
	.align 32
.LC51:
	.string	"INSTRUCTION | {%s}"
	.zero	45
	.align 32
.LC52:
	.string	"INITIALIZATOR | {%s}"
	.zero	43
	.align 32
.LC53:
	.string	"FUNCTION_RET_TYPE | {%s}"
	.zero	39
	.align 32
.LC54:
	.string	"OPERATOR | {%c}"
	.zero	48
	.align 32
.LC55:
	.string	"NAME | {%s}"
	.zero	52
	.align 32
.LC56:
	.string	"VARIABLE | {%s}"
	.zero	48
	.align 32
.LC57:
	.string	"CONSTANT | {%lg}"
	.zero	47
	.align 32
.LC58:
	.string	"FUNCTION | {%c}"
	.zero	48
	.align 32
.LC59:
	.string	"CALL | {%c}"
	.zero	52
	.align 32
.LC60:
	.string	"NATIVE_FUNCTION | {%s}"
	.zero	41
	.align 32
.LC61:
	.string	"PARAMETR | {%c}"
	.zero	48
	.align 32
.LC62:
	.string	"ASSIGMENT | {%c}"
	.zero	47
	.align 32
.LC63:
	.string	"SEPARATOR | {%c}"
	.zero	47
	.align 32
.LC64:
	.string	"BLOCK_OPENING_BRACKET | {%c}"
	.zero	35
	.align 32
.LC65:
	.string	"BLOCK_CLOSING_BRACKET | {%c}"
	.zero	35
	.align 32
.LC66:
	.string	"EXPRESSION_OPENING_BRACKET | {%c}"
	.zero	62
	.align 32
.LC67:
	.string	"EXPRESSION_CLOSING_BRACKET | {%c}"
	.zero	62
	.align 32
.LC68:
	.string	"END_OF_STATEMENT | {%c}"
	.zero	40
	.align 32
.LC69:
	.string	"UNCKNOW_NAME\n"
	.zero	50
	.align 32
.LC70:
	.string	"\t\tnode_%p [style = filled, fillcolor = \"#%06X\", shape = Mrecord label =  \"%s\"]\n"
	.zero	48
	.text
	.type	_ZL9PrintNodePK5Token, @function
_ZL9PrintNodePK5Token:
.LASANPC2277:
.LFB2277:
	.loc 1 189 5
	.cfi_startproc
	.cfi_personality 0x9b,DW.ref.__gxx_personality_v0
	.cfi_lsda 0x1b,.LLSDA2277
	endbr64
	pushq	%rbp
	.cfi_def_cfa_offset 16
	.cfi_offset 6, -16
	movq	%rsp, %rbp
	.cfi_def_cfa_register 6
	pushq	%r14
	pushq	%r13
	pushq	%r12
	pushq	%rbx
	subq	$560, %rsp
	.cfi_offset 14, -24
	.cfi_offset 13, -32
	.cfi_offset 12, -40
	.cfi_offset 3, -48
	movq	%rdi, -584(%rbp)
	leaq	-576(%rbp), %r13
	movq	%r13, %r14
	cmpl	$0, __asan_option_detect_stack_use_after_return(%rip)
	je	.L48
	movl	$512, %edi
	call	__asan_stack_malloc_3@PLT
	testq	%rax, %rax
	je	.L48
	movq	%rax, %r13
.L48:
	leaq	544(%r13), %rax
	movq	%rax, %rbx
	movq	$1102416563, 0(%r13)
	leaq	.LC47(%rip), %rax
	movq	%rax, 8(%r13)
	leaq	.LASANPC2277(%rip), %rax
	movq	%rax, 16(%r13)
	movq	%r13, %r12
	shrq	$3, %r12
	movl	$-235802127, 2147450880(%r12)
	movl	$61937, 2147450884(%r12)
	movl	$-218959360, 2147450888(%r12)
	movl	$62194, 2147450892(%r12)
	movl	$83886080, 2147450932(%r12)
	movl	$-202116109, 2147450936(%r12)
	movl	$-202116109, 2147450940(%r12)
	.loc 1 189 5
	movq	%fs:40, %rax
	movq	%rax, -40(%rbp)
	xorl	%eax, %eax
	.loc 1 190 41
	leaq	-496(%rbx), %rax
	leaq	.LC48(%rip), %rdx
	movl	$1, %esi
	movq	%rax, %rdi
.LEHB3:
	call	_ZN14FunctionLoggerC1EiPKc@PLT
.LEHE3:
	.loc 1 191 10
	cmpq	$0, -584(%rbp)
	jne	.L52
.LEHB4:
	.loc 1 191 44 discriminator 1
	call	_ZN6Logger11getInstanceEv@PLT
	movq	%rax, %rcx
	.loc 1 191 50 discriminator 1
	leaq	.LC36(%rip), %rax
	movq	%rax, %rdx
	leaq	.LC37(%rip), %rax
	movq	%rax, %rsi
	movq	%rcx, %rdi
	movl	$0, %eax
	call	_ZN6Logger3logEPKcz@PLT
	.loc 1 191 107 discriminator 3
	leaq	.LC36(%rip), %rax
	movq	%rax, %rsi
	leaq	.LC38(%rip), %rax
	movq	%rax, %rdi
	movl	$0, %eax
	call	printf@PLT
	.loc 1 191 252 discriminator 4
	call	_ZN6Logger11getInstanceEv@PLT
	movq	%rax, %rdi
	.loc 1 191 258 discriminator 4
	leaq	.LC49(%rip), %r8
	movl	$191, %ecx
	leaq	.LC23(%rip), %rax
	movq	%rax, %rdx
	leaq	.LC40(%rip), %rax
	movq	%rax, %rsi
	movl	$0, %eax
	call	_ZN6Logger3logEPKcz@PLT
	.loc 1 191 351 discriminator 6
	leaq	.LC49(%rip), %rax
	movq	%rax, %rcx
	movl	$191, %edx
	leaq	.LC23(%rip), %rax
	movq	%rax, %rsi
	leaq	.LC40(%rip), %rax
	movq	%rax, %rdi
	movl	$0, %eax
	call	printf@PLT
	.loc 1 191 457 discriminator 7
	call	_ZN6Logger11getInstanceEv@PLT
	movq	%rax, %r12
	.loc 1 191 463 discriminator 7
	movl	$14, %edi
	call	strerror@PLT
	movq	%rax, %rcx
	movl	$14, %edx
	leaq	.LC41(%rip), %rax
	movq	%rax, %rsi
	movq	%r12, %rdi
	movl	$0, %eax
	call	_ZN6Logger3logEPKcz@PLT
	.loc 1 191 27 discriminator 9
	call	_ZN6Logger11getInstanceEv@PLT
	movq	%rax, %rdi
	.loc 1 191 33 discriminator 9
	movl	$191, %ecx
	leaq	.LC48(%rip), %rax
	movq	%rax, %rdx
	leaq	.LC43(%rip), %rax
	movq	%rax, %rsi
	movl	$0, %eax
	call	_ZN6Logger3logEPKcz@PLT
	.loc 1 191 92 discriminator 11
	leaq	.LC44(%rip), %rax
	movq	%rax, %rdi
	call	system@PLT
	.loc 1 191 113 discriminator 12
	call	__asan_handle_no_return@PLT
	call	abort@PLT
.L52:
	.loc 1 192 13
	movq	_ZL10STRING_ARR(%rip), %rdx
	movq	-584(%rbp), %rax
	leaq	.LC36(%rip), %rcx
	movq	%rcx, %rsi
	movq	%rax, %rdi
	call	_Z8LogTokenPK5TokenPKcPS3_@PLT
	.loc 1 194 10
	leaq	-432(%rbx), %rax
	movq	%rax, %rdx
	shrq	$3, %rdx
	addq	$2147450880, %rdx
	movzbl	(%rdx), %edx
	testb	%dl, %dl
	setne	%cl
	testb	%dl, %dl
	setle	%dl
	movl	%ecx, %esi
	andl	%edx, %esi
	movl	$333, %edx
	subq	$1, %rdx
	leaq	(%rax,%rdx), %rcx
	movq	%rcx, %rdx
	shrq	$3, %rdx
	addq	$2147450880, %rdx
	movzbl	(%rdx), %edx
	testb	%dl, %dl
	setne	%dil
	andl	$7, %ecx
	cmpb	%dl, %cl
	setge	%dl
	andl	%edi, %edx
	orl	%esi, %edx
	testb	%dl, %dl
	je	.L53
	movl	$333, %esi
	movq	%rax, %rdi
	call	__asan_report_store_n@PLT
.L53:
	movq	$0, -432(%rbx)
	movq	$0, -424(%rbx)
	leaq	-416(%rbx), %rdx
	movl	$0, %eax
	movl	$39, %ecx
	movq	%rdx, %rdi
	rep stosq
	movq	%rdi, %rdx
	movl	%eax, (%rdx)
	addq	$4, %rdx
	movb	%al, (%rdx)
	addq	$1, %rdx
	.loc 1 196 19
	movq	-584(%rbp), %rax
	addq	$16, %rax
	movq	%rax, %rdx
	movq	%rdx, %rax
	shrq	$3, %rax
	addq	$2147450880, %rax
	movzbl	(%rax), %eax
	testb	%al, %al
	setne	%cl
	cmpb	$3, %al
	setle	%al
	andl	%ecx, %eax
	testb	%al, %al
	je	.L54
	movq	%rdx, %rdi
	call	__asan_report_load4@PLT
.L54:
	movq	-584(%rbp), %rax
	movl	16(%rax), %eax
	.loc 1 196 5
	cmpl	$125, %eax
	ja	.L55
	movl	%eax, %eax
	leaq	0(,%rax,4), %rdx
	leaq	.L57(%rip), %rax
	movl	(%rdx,%rax), %eax
	cltq
	leaq	.L57(%rip), %rdx
	addq	%rdx, %rax
	notrack jmp	*%rax
	.section	.rodata
	.align 4
	.align 4
.L57:
	.long	.L55-.L57
	.long	.L75-.L57
	.long	.L74-.L57
	.long	.L73-.L57
	.long	.L72-.L57
	.long	.L71-.L57
	.long	.L70-.L57
	.long	.L69-.L57
	.long	.L68-.L57
	.long	.L67-.L57
	.long	.L66-.L57
	.long	.L65-.L57
	.long	.L64-.L57
	.long	.L55-.L57
	.long	.L55-.L57
	.long	.L55-.L57
	.long	.L55-.L57
	.long	.L55-.L57
	.long	.L55-.L57
	.long	.L55-.L57
	.long	.L55-.L57
	.long	.L55-.L57
	.long	.L55-.L57
	.long	.L55-.L57
	.long	.L55-.L57
	.long	.L55-.L57
	.long	.L55-.L57
	.long	.L55-.L57
	.long	.L55-.L57
	.long	.L55-.L57
	.long	.L55-.L57
	.long	.L55-.L57
	.long	.L55-.L57
	.long	.L55-.L57
	.long	.L55-.L57
	.long	.L55-.L57
	.long	.L55-.L57
	.long	.L55-.L57
	.long	.L55-.L57
	.long	.L55-.L57
	.long	.L63-.L57
	.long	.L62-.L57
	.long	.L55-.L57
	.long	.L55-.L57
	.long	.L61-.L57
	.long	.L55-.L57
	.long	.L55-.L57
	.long	.L55-.L57
	.long	.L55-.L57
	.long	.L55-.L57
	.long	.L55-.L57
	.long	.L55-.L57
	.long	.L55-.L57
	.long	.L55-.L57
	.long	.L55-.L57
	.long	.L55-.L57
	.long	.L55-.L57
	.long	.L55-.L57
	.long	.L55-.L57
	.long	.L60-.L57
	.long	.L55-.L57
	.long	.L59-.L57
	.long	.L55-.L57
	.long	.L55-.L57
	.long	.L55-.L57
	.long	.L55-.L57
	.long	.L55-.L57
	.long	.L55-.L57
	.long	.L55-.L57
	.long	.L55-.L57
	.long	.L55-.L57
	.long	.L55-.L57
	.long	.L55-.L57
	.long	.L55-.L57
	.long	.L55-.L57
	.long	.L55-.L57
	.long	.L55-.L57
	.long	.L55-.L57
	.long	.L55-.L57
	.long	.L55-.L57
	.long	.L55-.L57
	.long	.L55-.L57
	.long	.L55-.L57
	.long	.L55-.L57
	.long	.L55-.L57
	.long	.L55-.L57
	.long	.L55-.L57
	.long	.L55-.L57
	.long	.L55-.L57
	.long	.L55-.L57
	.long	.L55-.L57
	.long	.L55-.L57
	.long	.L55-.L57
	.long	.L55-.L57
	.long	.L55-.L57
	.long	.L55-.L57
	.long	.L55-.L57
	.long	.L55-.L57
	.long	.L55-.L57
	.long	.L55-.L57
	.long	.L55-.L57
	.long	.L55-.L57
	.long	.L55-.L57
	.long	.L55-.L57
	.long	.L55-.L57
	.long	.L55-.L57
	.long	.L55-.L57
	.long	.L55-.L57
	.long	.L55-.L57
	.long	.L55-.L57
	.long	.L55-.L57
	.long	.L55-.L57
	.long	.L55-.L57
	.long	.L55-.L57
	.long	.L55-.L57
	.long	.L55-.L57
	.long	.L55-.L57
	.long	.L55-.L57
	.long	.L55-.L57
	.long	.L55-.L57
	.long	.L55-.L57
	.long	.L55-.L57
	.long	.L55-.L57
	.long	.L58-.L57
	.long	.L55-.L57
	.long	.L56-.L57
	.text
.L75:
	.file 2 "../Common/Structures/TokenTypes.h"
	.loc 2 4 76
	movq	-584(%rbp), %rax
	addq	$24, %rax
	movq	%rax, %rdx
	movq	%rdx, %rax
	shrq	$3, %rax
	addq	$2147450880, %rax
	movzbl	(%rax), %eax
	testb	%al, %al
	setne	%cl
	testb	%al, %al
	setle	%al
	andl	%ecx, %eax
	testb	%al, %al
	je	.L76
	movq	%rdx, %rdi
	call	__asan_report_load1@PLT
.L76:
	movq	-584(%rbp), %rax
	movzbl	24(%rax), %eax
	.loc 2 4 24
	cmpb	$123, %al
	je	.L77
	.loc 2 4 114 discriminator 1
	movq	-584(%rbp), %rax
	movzbl	24(%rax), %eax
	.loc 2 4 94 discriminator 1
	cmpb	$125, %al
	je	.L78
	.loc 2 4 152 discriminator 3
	movq	-584(%rbp), %rax
	movzbl	24(%rax), %eax
	.loc 2 4 94 discriminator 3
	movsbl	%al, %eax
	jmp	.L80
.L78:
	.loc 2 4 94 is_stmt 0 discriminator 4
	movl	$93, %eax
	jmp	.L80
.L77:
	.loc 2 4 24 is_stmt 1 discriminator 2
	movl	$91, %eax
.L80:
	.loc 2 4 24 is_stmt 0 discriminator 8
	leaq	-432(%rbx), %rcx
	movl	%eax, %edx
	leaq	.LC50(%rip), %rax
	movq	%rax, %rsi
	movq	%rcx, %rdi
	movl	$0, %eax
	call	sprintf@PLT
	.loc 2 4 165 is_stmt 1 discriminator 8
	jmp	.L81
.L74:
	.loc 2 5 93
	movq	-584(%rbp), %rax
	addq	$24, %rax
	movq	%rax, %rdx
	movq	%rdx, %rax
	shrq	$3, %rax
	addq	$2147450880, %rax
	movzbl	(%rax), %eax
	testb	%al, %al
	setne	%cl
	cmpb	$3, %al
	setle	%al
	andl	%ecx, %eax
	testb	%al, %al
	je	.L82
	movq	%rdx, %rdi
	call	__asan_report_load4@PLT
.L82:
	movq	-584(%rbp), %rax
	movl	24(%rax), %eax
	.loc 2 5 106
	movslq	%eax, %rdx
	leaq	0(,%rdx,8), %rcx
	leaq	_ZL12INSTRUCTIONS(%rip), %rdx
	addq	%rcx, %rdx
	movq	%rdx, %rcx
	shrq	$3, %rcx
	addq	$2147450880, %rcx
	movzbl	(%rcx), %ecx
	testb	%cl, %cl
	je	.L83
	movq	%rdx, %rdi
	call	__asan_report_load8@PLT
.L83:
	cltq
	leaq	0(,%rax,8), %rdx
	leaq	_ZL12INSTRUCTIONS(%rip), %rax
	movq	(%rdx,%rax), %rdx
	.loc 2 5 26
	leaq	-432(%rbx), %rax
	leaq	.LC51(%rip), %rcx
	movq	%rcx, %rsi
	movq	%rax, %rdi
	movl	$0, %eax
	call	sprintf@PLT
	.loc 2 5 110
	jmp	.L81
.L73:
	.loc 2 6 99
	movq	-584(%rbp), %rax
	addq	$24, %rax
	movq	%rax, %rdx
	movq	%rdx, %rax
	shrq	$3, %rax
	addq	$2147450880, %rax
	movzbl	(%rax), %eax
	testb	%al, %al
	setne	%cl
	cmpb	$3, %al
	setle	%al
	andl	%ecx, %eax
	testb	%al, %al
	je	.L84
	movq	%rdx, %rdi
	call	__asan_report_load4@PLT
.L84:
	movq	-584(%rbp), %rax
	movl	24(%rax), %eax
	.loc 2 6 114
	movslq	%eax, %rdx
	leaq	0(,%rdx,8), %rcx
	leaq	_ZL14INITIALIZATORS(%rip), %rdx
	addq	%rcx, %rdx
	movq	%rdx, %rcx
	shrq	$3, %rcx
	addq	$2147450880, %rcx
	movzbl	(%rcx), %ecx
	testb	%cl, %cl
	je	.L85
	movq	%rdx, %rdi
	call	__asan_report_load8@PLT
.L85:
	cltq
	leaq	0(,%rax,8), %rdx
	leaq	_ZL14INITIALIZATORS(%rip), %rax
	movq	(%rdx,%rax), %rdx
	.loc 2 6 28
	leaq	-432(%rbx), %rax
	leaq	.LC52(%rip), %rcx
	movq	%rcx, %rsi
	movq	%rax, %rdi
	movl	$0, %eax
	call	sprintf@PLT
	.loc 2 6 118
	jmp	.L81
.L72:
	.loc 2 7 111
	movq	-584(%rbp), %rax
	addq	$24, %rax
	movq	%rax, %rdx
	movq	%rdx, %rax
	shrq	$3, %rax
	addq	$2147450880, %rax
	movzbl	(%rax), %eax
	testb	%al, %al
	setne	%cl
	cmpb	$3, %al
	setle	%al
	andl	%ecx, %eax
	testb	%al, %al
	je	.L86
	movq	%rdx, %rdi
	call	__asan_report_load4@PLT
.L86:
	movq	-584(%rbp), %rax
	movl	24(%rax), %eax
	.loc 2 7 130
	movslq	%eax, %rdx
	leaq	0(,%rdx,8), %rcx
	leaq	_ZL18FUNCTION_RET_TYPES(%rip), %rdx
	addq	%rcx, %rdx
	movq	%rdx, %rcx
	shrq	$3, %rcx
	addq	$2147450880, %rcx
	movzbl	(%rcx), %ecx
	testb	%cl, %cl
	je	.L87
	movq	%rdx, %rdi
	call	__asan_report_load8@PLT
.L87:
	cltq
	leaq	0(,%rax,8), %rdx
	leaq	_ZL18FUNCTION_RET_TYPES(%rip), %rax
	movq	(%rdx,%rax), %rdx
	.loc 2 7 32
	leaq	-432(%rbx), %rax
	leaq	.LC53(%rip), %rcx
	movq	%rcx, %rsi
	movq	%rax, %rdi
	movl	$0, %eax
	call	sprintf@PLT
	.loc 2 7 134
	jmp	.L81
.L71:
	.loc 2 8 74
	movq	-584(%rbp), %rax
	addq	$24, %rax
	movq	%rax, %rdx
	movq	%rdx, %rax
	shrq	$3, %rax
	addq	$2147450880, %rax
	movzbl	(%rax), %eax
	testb	%al, %al
	setne	%cl
	testb	%al, %al
	setle	%al
	andl	%ecx, %eax
	testb	%al, %al
	je	.L88
	movq	%rdx, %rdi
	call	__asan_report_load1@PLT
.L88:
	movq	-584(%rbp), %rax
	movzbl	24(%rax), %eax
	.loc 2 8 23
	cmpb	$60, %al
	je	.L89
	.loc 2 8 112 discriminator 1
	movq	-584(%rbp), %rax
	movzbl	24(%rax), %eax
	.loc 2 8 92 discriminator 1
	cmpb	$62, %al
	je	.L90
	.loc 2 8 150 discriminator 3
	movq	-584(%rbp), %rax
	movzbl	24(%rax), %eax
	.loc 2 8 92 discriminator 3
	movsbl	%al, %eax
	jmp	.L92
.L90:
	.loc 2 8 92 is_stmt 0 discriminator 4
	movl	$66, %eax
	jmp	.L92
.L89:
	.loc 2 8 23 is_stmt 1 discriminator 2
	movl	$76, %eax
.L92:
	.loc 2 8 23 is_stmt 0 discriminator 8
	leaq	-432(%rbx), %rcx
	movl	%eax, %edx
	leaq	.LC54(%rip), %rax
	movq	%rax, %rsi
	movq	%rcx, %rdi
	movl	$0, %eax
	call	sprintf@PLT
	.loc 2 8 163 is_stmt 1 discriminator 8
	jmp	.L81
.L70:
	.loc 2 10 86
	movq	_ZL10STRING_ARR(%rip), %rcx
	.loc 2 10 77
	movq	-584(%rbp), %rax
	addq	$24, %rax
	movq	%rax, %rdx
	movq	%rdx, %rax
	shrq	$3, %rax
	addq	$2147450880, %rax
	movzbl	(%rax), %eax
	testb	%al, %al
	setne	%sil
	cmpb	$3, %al
	setle	%al
	andl	%esi, %eax
	testb	%al, %al
	je	.L93
	movq	%rdx, %rdi
	call	__asan_report_load4@PLT
.L93:
	movq	-584(%rbp), %rax
	movl	24(%rax), %eax
	cltq
	.loc 2 10 86
	salq	$3, %rax
	addq	%rcx, %rax
	.loc 2 10 19
	movq	%rax, %rdx
	movq	%rdx, %rcx
	shrq	$3, %rcx
	addq	$2147450880, %rcx
	movzbl	(%rcx), %ecx
	testb	%cl, %cl
	je	.L94
	movq	%rdx, %rdi
	call	__asan_report_load8@PLT
.L94:
	movq	(%rax), %rdx
	leaq	-432(%rbx), %rax
	leaq	.LC55(%rip), %rcx
	movq	%rcx, %rsi
	movq	%rax, %rdi
	movl	$0, %eax
	call	sprintf@PLT
	.loc 2 10 90
	jmp	.L81
.L69:
	.loc 2 11 94
	movq	_ZL10STRING_ARR(%rip), %rcx
	.loc 2 11 85
	movq	-584(%rbp), %rax
	addq	$24, %rax
	movq	%rax, %rdx
	movq	%rdx, %rax
	shrq	$3, %rax
	addq	$2147450880, %rax
	movzbl	(%rax), %eax
	testb	%al, %al
	setne	%sil
	cmpb	$3, %al
	setle	%al
	andl	%esi, %eax
	testb	%al, %al
	je	.L95
	movq	%rdx, %rdi
	call	__asan_report_load4@PLT
.L95:
	movq	-584(%rbp), %rax
	movl	24(%rax), %eax
	cltq
	.loc 2 11 94
	salq	$3, %rax
	addq	%rcx, %rax
	.loc 2 11 23
	movq	%rax, %rdx
	movq	%rdx, %rcx
	shrq	$3, %rcx
	addq	$2147450880, %rcx
	movzbl	(%rcx), %ecx
	testb	%cl, %cl
	je	.L96
	movq	%rdx, %rdi
	call	__asan_report_load8@PLT
.L96:
	movq	(%rax), %rdx
	leaq	-432(%rbx), %rax
	leaq	.LC56(%rip), %rcx
	movq	%rcx, %rsi
	movq	%rax, %rdi
	movl	$0, %eax
	call	sprintf@PLT
	.loc 2 11 98
	jmp	.L81
.L68:
	.loc 2 12 75
	movq	-584(%rbp), %rax
	addq	$24, %rax
	movq	%rax, %rdx
	shrq	$3, %rdx
	addq	$2147450880, %rdx
	movzbl	(%rdx), %edx
	testb	%dl, %dl
	je	.L97
	movq	%rax, %rdi
	call	__asan_report_load8@PLT
.L97:
	movq	-584(%rbp), %rax
	movq	24(%rax), %rdx
	.loc 2 12 23
	leaq	-432(%rbx), %rax
	movq	%rdx, %xmm0
	leaq	.LC57(%rip), %rdx
	movq	%rdx, %rsi
	movq	%rax, %rdi
	movl	$1, %eax
	call	sprintf@PLT
	.loc 2 12 88
	jmp	.L81
.L67:
	.loc 2 13 74
	movq	-584(%rbp), %rax
	addq	$24, %rax
	movq	%rax, %rdx
	movq	%rdx, %rax
	shrq	$3, %rax
	addq	$2147450880, %rax
	movzbl	(%rax), %eax
	testb	%al, %al
	setne	%cl
	testb	%al, %al
	setle	%al
	andl	%ecx, %eax
	testb	%al, %al
	je	.L98
	movq	%rdx, %rdi
	call	__asan_report_load1@PLT
.L98:
	movq	-584(%rbp), %rax
	movzbl	24(%rax), %eax
	.loc 2 13 23
	cmpb	$123, %al
	je	.L99
	.loc 2 13 112 discriminator 1
	movq	-584(%rbp), %rax
	movzbl	24(%rax), %eax
	.loc 2 13 92 discriminator 1
	cmpb	$125, %al
	je	.L100
	.loc 2 13 150 discriminator 3
	movq	-584(%rbp), %rax
	movzbl	24(%rax), %eax
	.loc 2 13 92 discriminator 3
	movsbl	%al, %eax
	jmp	.L102
.L100:
	.loc 2 13 92 is_stmt 0 discriminator 4
	movl	$93, %eax
	jmp	.L102
.L99:
	.loc 2 13 23 is_stmt 1 discriminator 2
	movl	$91, %eax
.L102:
	.loc 2 13 23 is_stmt 0 discriminator 8
	leaq	-432(%rbx), %rcx
	movl	%eax, %edx
	leaq	.LC58(%rip), %rax
	movq	%rax, %rsi
	movq	%rcx, %rdi
	movl	$0, %eax
	call	sprintf@PLT
	.loc 2 13 163 is_stmt 1 discriminator 8
	jmp	.L81
.L66:
	.loc 2 14 66
	movq	-584(%rbp), %rax
	addq	$24, %rax
	movq	%rax, %rdx
	movq	%rdx, %rax
	shrq	$3, %rax
	addq	$2147450880, %rax
	movzbl	(%rax), %eax
	testb	%al, %al
	setne	%cl
	testb	%al, %al
	setle	%al
	andl	%ecx, %eax
	testb	%al, %al
	je	.L103
	movq	%rdx, %rdi
	call	__asan_report_load1@PLT
.L103:
	movq	-584(%rbp), %rax
	movzbl	24(%rax), %eax
	.loc 2 14 19
	movsbl	%al, %edx
	leaq	-432(%rbx), %rax
	leaq	.LC59(%rip), %rcx
	movq	%rcx, %rsi
	movq	%rax, %rdi
	movl	$0, %eax
	call	sprintf@PLT
	.loc 2 14 79
	jmp	.L81
.L65:
	.loc 2 15 105
	movq	-584(%rbp), %rax
	addq	$24, %rax
	movq	%rax, %rdx
	movq	%rdx, %rax
	shrq	$3, %rax
	addq	$2147450880, %rax
	movzbl	(%rax), %eax
	testb	%al, %al
	setne	%cl
	cmpb	$3, %al
	setle	%al
	andl	%ecx, %eax
	testb	%al, %al
	je	.L104
	movq	%rdx, %rdi
	call	__asan_report_load4@PLT
.L104:
	movq	-584(%rbp), %rax
	movl	24(%rax), %eax
	.loc 2 15 124
	movslq	%eax, %rdx
	movq	%rdx, %rcx
	salq	$4, %rcx
	leaq	_ZL16NATIVE_FUNCTIONS(%rip), %rdx
	addq	%rcx, %rdx
	movq	%rdx, %rcx
	shrq	$3, %rcx
	addq	$2147450880, %rcx
	movzbl	(%rcx), %ecx
	testb	%cl, %cl
	je	.L105
	movq	%rdx, %rdi
	call	__asan_report_load8@PLT
.L105:
	cltq
	salq	$4, %rax
	movq	%rax, %rdx
	leaq	_ZL16NATIVE_FUNCTIONS(%rip), %rax
	movq	(%rdx,%rax), %rdx
	.loc 2 15 30
	leaq	-432(%rbx), %rax
	leaq	.LC60(%rip), %rcx
	movq	%rcx, %rsi
	movq	%rax, %rdi
	movl	$0, %eax
	call	sprintf@PLT
	.loc 2 15 130
	jmp	.L81
.L64:
	.loc 2 16 74
	movq	-584(%rbp), %rax
	addq	$24, %rax
	movq	%rax, %rdx
	movq	%rdx, %rax
	shrq	$3, %rax
	addq	$2147450880, %rax
	movzbl	(%rax), %eax
	testb	%al, %al
	setne	%cl
	testb	%al, %al
	setle	%al
	andl	%ecx, %eax
	testb	%al, %al
	je	.L106
	movq	%rdx, %rdi
	call	__asan_report_load1@PLT
.L106:
	movq	-584(%rbp), %rax
	movzbl	24(%rax), %eax
	.loc 2 16 23
	cmpb	$123, %al
	je	.L107
	.loc 2 16 112 discriminator 1
	movq	-584(%rbp), %rax
	movzbl	24(%rax), %eax
	.loc 2 16 92 discriminator 1
	cmpb	$125, %al
	je	.L108
	.loc 2 16 150 discriminator 3
	movq	-584(%rbp), %rax
	movzbl	24(%rax), %eax
	.loc 2 16 92 discriminator 3
	movsbl	%al, %eax
	jmp	.L110
.L108:
	.loc 2 16 92 is_stmt 0 discriminator 4
	movl	$93, %eax
	jmp	.L110
.L107:
	.loc 2 16 23 is_stmt 1 discriminator 2
	movl	$91, %eax
.L110:
	.loc 2 16 23 is_stmt 0 discriminator 8
	leaq	-432(%rbx), %rcx
	movl	%eax, %edx
	leaq	.LC61(%rip), %rax
	movq	%rax, %rsi
	movq	%rcx, %rdi
	movl	$0, %eax
	call	sprintf@PLT
	.loc 2 16 163 is_stmt 1 discriminator 8
	jmp	.L81
.L59:
	.loc 2 18 76
	movq	-584(%rbp), %rax
	addq	$24, %rax
	movq	%rax, %rdx
	movq	%rdx, %rax
	shrq	$3, %rax
	addq	$2147450880, %rax
	movzbl	(%rax), %eax
	testb	%al, %al
	setne	%cl
	testb	%al, %al
	setle	%al
	andl	%ecx, %eax
	testb	%al, %al
	je	.L111
	movq	%rdx, %rdi
	call	__asan_report_load1@PLT
.L111:
	movq	-584(%rbp), %rax
	movzbl	24(%rax), %eax
	.loc 2 18 24
	movsbl	%al, %edx
	leaq	-432(%rbx), %rax
	leaq	.LC62(%rip), %rcx
	movq	%rcx, %rsi
	movq	%rax, %rdi
	movl	$0, %eax
	call	sprintf@PLT
	.loc 2 18 89
	jmp	.L81
.L61:
	.loc 2 19 76
	movq	-584(%rbp), %rax
	addq	$24, %rax
	movq	%rax, %rdx
	movq	%rdx, %rax
	shrq	$3, %rax
	addq	$2147450880, %rax
	movzbl	(%rax), %eax
	testb	%al, %al
	setne	%cl
	testb	%al, %al
	setle	%al
	andl	%ecx, %eax
	testb	%al, %al
	je	.L112
	movq	%rdx, %rdi
	call	__asan_report_load1@PLT
.L112:
	movq	-584(%rbp), %rax
	movzbl	24(%rax), %eax
	.loc 2 19 24
	movsbl	%al, %edx
	leaq	-432(%rbx), %rax
	leaq	.LC63(%rip), %rcx
	movq	%rcx, %rsi
	movq	%rax, %rdi
	movl	$0, %eax
	call	sprintf@PLT
	.loc 2 19 89
	jmp	.L81
.L58:
	.loc 2 20 100
	movq	-584(%rbp), %rax
	addq	$24, %rax
	movq	%rax, %rdx
	movq	%rdx, %rax
	shrq	$3, %rax
	addq	$2147450880, %rax
	movzbl	(%rax), %eax
	testb	%al, %al
	setne	%cl
	testb	%al, %al
	setle	%al
	andl	%ecx, %eax
	testb	%al, %al
	je	.L113
	movq	%rdx, %rdi
	call	__asan_report_load1@PLT
.L113:
	movq	-584(%rbp), %rax
	movzbl	24(%rax), %eax
	.loc 2 20 36
	movsbl	%al, %edx
	leaq	-432(%rbx), %rax
	leaq	.LC64(%rip), %rcx
	movq	%rcx, %rsi
	movq	%rax, %rdi
	movl	$0, %eax
	call	sprintf@PLT
	.loc 2 20 113
	jmp	.L81
.L56:
	.loc 2 21 100
	movq	-584(%rbp), %rax
	addq	$24, %rax
	movq	%rax, %rdx
	movq	%rdx, %rax
	shrq	$3, %rax
	addq	$2147450880, %rax
	movzbl	(%rax), %eax
	testb	%al, %al
	setne	%cl
	testb	%al, %al
	setle	%al
	andl	%ecx, %eax
	testb	%al, %al
	je	.L114
	movq	%rdx, %rdi
	call	__asan_report_load1@PLT
.L114:
	movq	-584(%rbp), %rax
	movzbl	24(%rax), %eax
	.loc 2 21 36
	movsbl	%al, %edx
	leaq	-432(%rbx), %rax
	leaq	.LC65(%rip), %rcx
	movq	%rcx, %rsi
	movq	%rax, %rdi
	movl	$0, %eax
	call	sprintf@PLT
	.loc 2 21 113
	jmp	.L81
.L63:
	.loc 2 22 110
	movq	-584(%rbp), %rax
	addq	$24, %rax
	movq	%rax, %rdx
	movq	%rdx, %rax
	shrq	$3, %rax
	addq	$2147450880, %rax
	movzbl	(%rax), %eax
	testb	%al, %al
	setne	%cl
	testb	%al, %al
	setle	%al
	andl	%ecx, %eax
	testb	%al, %al
	je	.L115
	movq	%rdx, %rdi
	call	__asan_report_load1@PLT
.L115:
	movq	-584(%rbp), %rax
	movzbl	24(%rax), %eax
	.loc 2 22 41
	movsbl	%al, %edx
	leaq	-432(%rbx), %rax
	leaq	.LC66(%rip), %rcx
	movq	%rcx, %rsi
	movq	%rax, %rdi
	movl	$0, %eax
	call	sprintf@PLT
	.loc 2 22 123
	jmp	.L81
.L62:
	.loc 2 23 110
	movq	-584(%rbp), %rax
	addq	$24, %rax
	movq	%rax, %rdx
	movq	%rdx, %rax
	shrq	$3, %rax
	addq	$2147450880, %rax
	movzbl	(%rax), %eax
	testb	%al, %al
	setne	%cl
	testb	%al, %al
	setle	%al
	andl	%ecx, %eax
	testb	%al, %al
	je	.L116
	movq	%rdx, %rdi
	call	__asan_report_load1@PLT
.L116:
	movq	-584(%rbp), %rax
	movzbl	24(%rax), %eax
	.loc 2 23 41
	movsbl	%al, %edx
	leaq	-432(%rbx), %rax
	leaq	.LC67(%rip), %rcx
	movq	%rcx, %rsi
	movq	%rax, %rdi
	movl	$0, %eax
	call	sprintf@PLT
	.loc 2 23 123
	jmp	.L81
.L60:
	.loc 2 24 90
	movq	-584(%rbp), %rax
	addq	$24, %rax
	movq	%rax, %rdx
	movq	%rdx, %rax
	shrq	$3, %rax
	addq	$2147450880, %rax
	movzbl	(%rax), %eax
	testb	%al, %al
	setne	%cl
	testb	%al, %al
	setle	%al
	andl	%ecx, %eax
	testb	%al, %al
	je	.L117
	movq	%rdx, %rdi
	call	__asan_report_load1@PLT
.L117:
	movq	-584(%rbp), %rax
	movzbl	24(%rax), %eax
	.loc 2 24 31
	movsbl	%al, %edx
	leaq	-432(%rbx), %rax
	leaq	.LC68(%rip), %rcx
	movq	%rcx, %rsi
	movq	%rax, %rdi
	movl	$0, %eax
	call	sprintf@PLT
	.loc 2 24 103
	jmp	.L81
.L55:
	.loc 1 209 25
	leaq	-432(%rbx), %rax
	leaq	.LC69(%rip), %rdx
	movq	%rdx, %rsi
	movq	%rax, %rdi
	movl	$0, %eax
	call	sprintf@PLT
	.loc 1 210 18
	nop
.L81:
	.loc 1 213 142
	movq	-584(%rbp), %rax
	addq	$16, %rax
	movq	%rax, %rdx
	movq	%rdx, %rax
	shrq	$3, %rax
	addq	$2147450880, %rax
	movzbl	(%rax), %eax
	testb	%al, %al
	setne	%cl
	cmpb	$3, %al
	setle	%al
	andl	%ecx, %eax
	testb	%al, %al
	je	.L118
	movq	%rdx, %rdi
	call	__asan_report_load4@PLT
.L118:
	movq	-584(%rbp), %rax
	movl	16(%rax), %eax
	.loc 1 213 147
	movl	NUMBER_OF_GRAPVIS_COLORS(%rip), %ecx
	cltd
	idivl	%ecx
	movl	%edx, %ecx
	.loc 1 213 173
	movslq	%ecx, %rax
	leaq	0(,%rax,4), %rdx
	leaq	_ZL16GRAPH_VIS_COLORS(%rip), %rax
	addq	%rdx, %rax
	movq	%rax, %rdx
	shrq	$3, %rdx
	addq	$2147450880, %rdx
	movzbl	(%rdx), %edx
	testb	%dl, %dl
	setne	%dil
	movq	%rax, %rsi
	andl	$7, %esi
	addl	$3, %esi
	cmpb	%dl, %sil
	setge	%dl
	andl	%edi, %edx
	testb	%dl, %dl
	je	.L119
	movq	%rax, %rdi
	call	__asan_report_load4@PLT
.L119:
	movslq	%ecx, %rax
	leaq	0(,%rax,4), %rdx
	leaq	_ZL16GRAPH_VIS_COLORS(%rip), %rax
	movl	(%rdx,%rax), %edx
	.loc 1 213 14
	leaq	-432(%rbx), %rcx
	movq	-584(%rbp), %rax
	movq	%rax, %rsi
	leaq	.LC70(%rip), %rax
	movq	%rax, %rdi
	movl	$0, %eax
	call	_ZL8DotPrintPKcz
.LEHE4:
	.loc 1 216 5
	nop
	.loc 1 217 5
	leaq	-496(%rbx), %rax
	movq	%rax, %rdi
	call	_ZN14FunctionLoggerD1Ev@PLT
	.loc 1 216 5
	nop
	.loc 1 189 5
	cmpq	%r13, %r14
	je	.L49
	jmp	.L124
.L123:
	endbr64
	.loc 1 217 5
	movq	%rax, %r12
	leaq	-496(%rbx), %rax
	movq	%rax, %rdi
	call	_ZN14FunctionLoggerD1Ev@PLT
	movq	%r12, %rbx
	call	__asan_handle_no_return@PLT
	movq	%rbx, %rdi
.LEHB5:
	call	_Unwind_Resume@PLT
.LEHE5:
.L124:
	.loc 1 189 5
	movq	$1172321806, 0(%r13)
	movabsq	$-723401728380766731, %rax
	movabsq	$-723401728380766731, %rdx
	movq	%rax, 2147450880(%r12)
	movq	%rdx, 2147450888(%r12)
	movq	%rax, 2147450896(%r12)
	movq	%rdx, 2147450904(%r12)
	movq	%rax, 2147450912(%r12)
	movq	%rdx, 2147450920(%r12)
	movq	%rax, 2147450928(%r12)
	movq	%rdx, 2147450936(%r12)
	movq	504(%r13), %rax
	movb	$0, (%rax)
	jmp	.L50
.L49:
	movq	$0, 2147450880(%r12)
	movq	$0, 2147450888(%r12)
	movq	$0, 2147450932(%r12)
	movl	$0, 2147450940(%r12)
.L50:
	.loc 1 217 5
	movq	-40(%rbp), %rax
	subq	%fs:40, %rax
	je	.L122
	call	__stack_chk_fail@PLT
.L122:
	addq	$560, %rsp
	popq	%rbx
	popq	%r12
	popq	%r13
	popq	%r14
	popq	%rbp
	.cfi_def_cfa 7, 8
	ret
	.cfi_endproc
.LFE2277:
	.section	.gcc_except_table
.LLSDA2277:
	.byte	0xff
	.byte	0xff
	.byte	0x1
	.uleb128 .LLSDACSE2277-.LLSDACSB2277
.LLSDACSB2277:
	.uleb128 .LEHB3-.LFB2277
	.uleb128 .LEHE3-.LEHB3
	.uleb128 0
	.uleb128 0
	.uleb128 .LEHB4-.LFB2277
	.uleb128 .LEHE4-.LEHB4
	.uleb128 .L123-.LFB2277
	.uleb128 0
	.uleb128 .LEHB5-.LFB2277
	.uleb128 .LEHE5-.LEHB5
	.uleb128 0
	.uleb128 0
.LLSDACSE2277:
	.text
	.size	_ZL9PrintNodePK5Token, .-_ZL9PrintNodePK5Token
	.type	_Z41__static_initialization_and_destruction_0ii, @function
_Z41__static_initialization_and_destruction_0ii:
.LASANPC2944:
.LFB2944:
	.loc 1 217 5
	.cfi_startproc
	endbr64
	pushq	%rbp
	.cfi_def_cfa_offset 16
	.cfi_offset 6, -16
	movq	%rsp, %rbp
	.cfi_def_cfa_register 6
	subq	$16, %rsp
	movl	%edi, -4(%rbp)
	movl	%esi, -8(%rbp)
	.loc 1 217 5
	cmpl	$1, -4(%rbp)
	jne	.L128
	.loc 1 217 5 is_stmt 0 discriminator 1
	leaq	.LC23(%rip), %rax
	movq	%rax, %rdi
	call	__asan_before_dynamic_init@PLT
	cmpl	$65535, -8(%rbp)
	jne	.L127
	.file 3 "/usr/include/c++/11/iostream"
	.loc 3 74 25 is_stmt 1
	leaq	_ZStL8__ioinit(%rip), %rax
	movq	%rax, %rdi
	call	_ZNSt8ios_base4InitC1Ev@PLT
	leaq	__dso_handle(%rip), %rax
	movq	%rax, %rdx
	leaq	_ZStL8__ioinit(%rip), %rax
	movq	%rax, %rsi
	movq	_ZNSt8ios_base4InitD1Ev@GOTPCREL(%rip), %rax
	movq	%rax, %rdi
	call	__cxa_atexit@PLT
.L127:
	.loc 3 74 25 is_stmt 0 discriminator 1
	call	__asan_after_dynamic_init@PLT
.L128:
	.loc 1 217 5 is_stmt 1
	nop
	leave
	.cfi_def_cfa 7, 8
	ret
	.cfi_endproc
.LFE2944:
	.size	_Z41__static_initialization_and_destruction_0ii, .-_Z41__static_initialization_and_destruction_0ii
	.type	_GLOBAL__sub_I_NUMBER_OF_GRAPVIS_COLORS, @function
_GLOBAL__sub_I_NUMBER_OF_GRAPVIS_COLORS:
.LASANPC2945:
.LFB2945:
	.loc 1 217 5
	.cfi_startproc
	endbr64
	pushq	%rbp
	.cfi_def_cfa_offset 16
	.cfi_offset 6, -16
	movq	%rsp, %rbp
	.cfi_def_cfa_register 6
	.loc 1 217 5
	movl	$65535, %esi
	movl	$1, %edi
	call	_Z41__static_initialization_and_destruction_0ii
	popq	%rbp
	.cfi_def_cfa 7, 8
	ret
	.cfi_endproc
.LFE2945:
	.size	_GLOBAL__sub_I_NUMBER_OF_GRAPVIS_COLORS, .-_GLOBAL__sub_I_NUMBER_OF_GRAPVIS_COLORS
	.section	.init_array,"aw"
	.align 8
	.quad	_GLOBAL__sub_I_NUMBER_OF_GRAPVIS_COLORS
	.section	.data.rel.local,"aw"
	.align 16
	.type	.LASANLOC1, @object
	.size	.LASANLOC1, 16
.LASANLOC1:
	.quad	.LC23
	.long	66
	.long	17
	.align 16
	.type	.LASANLOC2, @object
	.size	.LASANLOC2, 16
.LASANLOC2:
	.quad	.LC23
	.long	20
	.long	21
	.align 16
	.type	.LASANLOC3, @object
	.size	.LASANLOC3, 16
.LASANLOC3:
	.quad	.LC23
	.long	19
	.long	14
	.align 16
	.type	.LASANLOC4, @object
	.size	.LASANLOC4, 16
.LASANLOC4:
	.quad	.LC23
	.long	17
	.long	11
	.globl	__odr_asan.NUMBER_OF_GRAPVIS_COLORS
	.bss
	.type	__odr_asan.NUMBER_OF_GRAPVIS_COLORS, @object
	.size	__odr_asan.NUMBER_OF_GRAPVIS_COLORS, 1
__odr_asan.NUMBER_OF_GRAPVIS_COLORS:
	.zero	1
	.section	.data.rel.local
	.align 16
	.type	.LASANLOC5, @object
	.size	.LASANLOC5, 16
.LASANLOC5:
	.quad	.LC23
	.long	14
	.long	5
	.section	.rodata
.LC71:
	.string	"../ATC/Buffer/my_buffer.h"
	.section	.data.rel.local
	.align 16
	.type	.LASANLOC6, @object
	.size	.LASANLOC6, 16
.LASANLOC6:
	.quad	.LC71
	.long	32
	.long	11
	.section	.rodata
	.align 8
.LC72:
	.string	"../ATC/RandomStuff/CommonEnums.h"
	.section	.data.rel.local
	.align 16
	.type	.LASANLOC7, @object
	.size	.LASANLOC7, 16
.LASANLOC7:
	.quad	.LC72
	.long	3
	.long	11
	.section	.rodata
.LC73:
	.string	"../ATC/Logger/LogConfig.h"
	.section	.data.rel.local
	.align 16
	.type	.LASANLOC8, @object
	.size	.LASANLOC8, 16
.LASANLOC8:
	.quad	.LC73
	.long	3
	.long	12
	.section	.rodata
.LC74:
	.string	"/usr/include/c++/11/iostream"
	.section	.data.rel.local
	.align 16
	.type	.LASANLOC9, @object
	.size	.LASANLOC9, 16
.LASANLOC9:
	.quad	.LC74
	.long	74
	.long	25
	.section	.rodata
.LC75:
	.string	"../Common/Grammar.h"
	.section	.data.rel.local
	.align 16
	.type	.LASANLOC10, @object
	.size	.LASANLOC10, 16
.LASANLOC10:
	.quad	.LC75
	.long	80
	.long	11
	.align 16
	.type	.LASANLOC11, @object
	.size	.LASANLOC11, 16
.LASANLOC11:
	.quad	.LC75
	.long	79
	.long	11
	.align 16
	.type	.LASANLOC12, @object
	.size	.LASANLOC12, 16
.LASANLOC12:
	.quad	.LC75
	.long	77
	.long	19
	.align 16
	.type	.LASANLOC13, @object
	.size	.LASANLOC13, 16
.LASANLOC13:
	.quad	.LC75
	.long	75
	.long	12
	.align 16
	.type	.LASANLOC14, @object
	.size	.LASANLOC14, 16
.LASANLOC14:
	.quad	.LC75
	.long	60
	.long	12
	.align 16
	.type	.LASANLOC15, @object
	.size	.LASANLOC15, 16
.LASANLOC15:
	.quad	.LC75
	.long	58
	.long	19
	.align 16
	.type	.LASANLOC16, @object
	.size	.LASANLOC16, 16
.LASANLOC16:
	.quad	.LC75
	.long	54
	.long	19
	.align 16
	.type	.LASANLOC17, @object
	.size	.LASANLOC17, 16
.LASANLOC17:
	.quad	.LC75
	.long	48
	.long	11
	.align 16
	.type	.LASANLOC18, @object
	.size	.LASANLOC18, 16
.LASANLOC18:
	.quad	.LC75
	.long	40
	.long	28
	.align 16
	.type	.LASANLOC19, @object
	.size	.LASANLOC19, 16
.LASANLOC19:
	.quad	.LC75
	.long	15
	.long	19
	.section	.rodata
.LC76:
	.string	"../ATC/GraphVis/GVConfig.h"
	.section	.data.rel.local
	.align 16
	.type	.LASANLOC20, @object
	.size	.LASANLOC20, 16
.LASANLOC20:
	.quad	.LC76
	.long	13
	.long	11
	.align 16
	.type	.LASANLOC21, @object
	.size	.LASANLOC21, 16
.LASANLOC21:
	.quad	.LC76
	.long	11
	.long	12
	.align 16
	.type	.LASANLOC22, @object
	.size	.LASANLOC22, 16
.LASANLOC22:
	.quad	.LC76
	.long	9
	.long	12
	.align 16
	.type	.LASANLOC23, @object
	.size	.LASANLOC23, 16
.LASANLOC23:
	.quad	.LC76
	.long	8
	.long	12
	.align 16
	.type	.LASANLOC24, @object
	.size	.LASANLOC24, 16
.LASANLOC24:
	.quad	.LC76
	.long	7
	.long	12
	.align 16
	.type	.LASANLOC25, @object
	.size	.LASANLOC25, 16
.LASANLOC25:
	.quad	.LC76
	.long	4
	.long	11
	.align 16
	.type	.LASANLOC26, @object
	.size	.LASANLOC26, 16
.LASANLOC26:
	.quad	.LC76
	.long	3
	.long	11
	.section	.rodata
	.align 8
.LC77:
	.string	"../Common/Structures/Tabels/Tabels.h"
	.section	.data.rel.local
	.align 16
	.type	.LASANLOC27, @object
	.size	.LASANLOC27, 16
.LASANLOC27:
	.quad	.LC77
	.long	8
	.long	11
	.align 16
	.type	.LASANLOC28, @object
	.size	.LASANLOC28, 16
.LASANLOC28:
	.quad	.LC77
	.long	7
	.long	11
	.section	.rodata
.LC78:
	.string	"full_img_name"
.LC79:
	.string	"STRING_ARR"
.LC80:
	.string	"Dot"
.LC81:
	.string	"GRAPH_VIS_COLORS"
.LC82:
	.string	"NUMBER_OF_GRAPVIS_COLORS"
.LC83:
	.string	"INDENT_SIZE"
.LC84:
	.string	"CRINGE"
.LC85:
	.string	"STD_LOG_NAME"
.LC86:
	.string	"__ioinit"
.LC87:
	.string	"MAX_WORD_LENGTH"
.LC88:
	.string	"MAX_FUNCTION_NAME_LENGTH"
.LC89:
	.string	"MAIN_NAME"
.LC90:
	.string	"COMMENT"
.LC91:
	.string	"OPERATORS"
.LC92:
	.string	"FUNCTION_RET_TYPES"
.LC93:
	.string	"INITIALIZATORS"
	.align 8
.LC94:
	.string	"NUMBER_OF_NATIVE_FUNCTIONS_STRUCT"
.LC95:
	.string	"NATIVE_FUNCTIONS"
.LC96:
	.string	"INSTRUCTIONS"
.LC97:
	.string	"SYSTEM_COMMAND_LENGTH"
.LC98:
	.string	"RANKDIR"
.LC99:
	.string	"EXTENSION"
.LC100:
	.string	"PATH_FOR_IMG"
.LC101:
	.string	"PATH_FOR_DOT"
.LC102:
	.string	"IMAGE_NAME_LENGTH"
.LC103:
	.string	"MAX_GRAPH_NAME_LENGTH"
.LC104:
	.string	"NOT_A_LABEL"
.LC105:
	.string	"NOT_DECLARED"
.LC106:
	.string	"*.LC41"
.LC107:
	.string	"*.LC29"
.LC108:
	.string	"*.LC42"
.LC109:
	.string	"*.LC28"
.LC110:
	.string	"*.LC59"
.LC111:
	.string	"*.LC50"
.LC112:
	.string	"*.LC27"
.LC113:
	.string	"*.LC30"
.LC114:
	.string	"*.LC49"
.LC115:
	.string	"*.LC37"
.LC116:
	.string	"*.LC26"
.LC117:
	.string	"*.LC66"
.LC118:
	.string	"*.LC5"
.LC119:
	.string	"*.LC2"
.LC120:
	.string	"*.LC70"
.LC121:
	.string	"*.LC13"
.LC122:
	.string	"*.LC32"
.LC123:
	.string	"*.LC67"
.LC124:
	.string	"*.LC65"
.LC125:
	.string	"*.LC38"
.LC126:
	.string	"*.LC39"
.LC127:
	.string	"*.LC69"
.LC128:
	.string	"*.LC44"
.LC129:
	.string	"*.LC56"
.LC130:
	.string	"*.LC43"
.LC131:
	.string	"*.LC48"
.LC132:
	.string	"*.LC4"
.LC133:
	.string	"*.LC58"
.LC134:
	.string	"*.LC62"
.LC135:
	.string	"*.LC23"
.LC136:
	.string	"*.LC0"
.LC137:
	.string	"*.LC25"
.LC138:
	.string	"*.LC10"
.LC139:
	.string	"*.LC54"
.LC140:
	.string	"*.LC24"
.LC141:
	.string	"*.LC57"
.LC142:
	.string	"*.LC21"
.LC143:
	.string	"*.LC51"
.LC144:
	.string	"*.LC8"
.LC145:
	.string	"*.LC6"
.LC146:
	.string	"*.LC9"
.LC147:
	.string	"*.LC31"
.LC148:
	.string	"*.LC68"
.LC149:
	.string	"*.LC20"
.LC150:
	.string	"*.LC55"
.LC151:
	.string	"*.LC63"
.LC152:
	.string	"*.LC3"
.LC153:
	.string	"*.LC1"
.LC154:
	.string	"*.LC61"
.LC155:
	.string	"*.LC16"
.LC156:
	.string	"*.LC19"
.LC157:
	.string	"*.LC64"
.LC158:
	.string	"*.LC60"
.LC159:
	.string	"*.LC46"
.LC160:
	.string	"*.LC35"
.LC161:
	.string	"*.LC11"
.LC162:
	.string	"*.LC7"
.LC163:
	.string	"*.LC53"
.LC164:
	.string	"*.LC36"
.LC165:
	.string	"*.LC18"
.LC166:
	.string	"*.LC15"
.LC167:
	.string	"*.LC45"
.LC168:
	.string	"*.LC12"
.LC169:
	.string	"*.LC40"
.LC170:
	.string	"*.LC17"
.LC171:
	.string	"*.LC34"
.LC172:
	.string	"*.LC52"
.LC173:
	.string	"*.LC22"
	.section	.data.rel.local
	.align 32
	.type	.LASAN0, @object
	.size	.LASAN0, 6144
.LASAN0:
	.quad	_ZZ7MakeImgPKcPK7ProgramE13full_img_name
	.quad	144
	.quad	192
	.quad	.LC78
	.quad	.LC23
	.quad	0
	.quad	.LASANLOC1
	.quad	0
	.quad	_ZL10STRING_ARR
	.quad	8
	.quad	64
	.quad	.LC79
	.quad	.LC23
	.quad	0
	.quad	.LASANLOC2
	.quad	0
	.quad	_ZL3Dot
	.quad	8
	.quad	64
	.quad	.LC80
	.quad	.LC23
	.quad	0
	.quad	.LASANLOC3
	.quad	0
	.quad	_ZL16GRAPH_VIS_COLORS
	.quad	48
	.quad	96
	.quad	.LC81
	.quad	.LC23
	.quad	0
	.quad	.LASANLOC4
	.quad	0
	.quad	NUMBER_OF_GRAPVIS_COLORS
	.quad	4
	.quad	64
	.quad	.LC82
	.quad	.LC23
	.quad	0
	.quad	.LASANLOC5
	.quad	__odr_asan.NUMBER_OF_GRAPVIS_COLORS
	.quad	_ZL11INDENT_SIZE
	.quad	4
	.quad	64
	.quad	.LC83
	.quad	.LC23
	.quad	0
	.quad	.LASANLOC6
	.quad	0
	.quad	_ZL6CRINGE
	.quad	4
	.quad	64
	.quad	.LC84
	.quad	.LC23
	.quad	0
	.quad	.LASANLOC7
	.quad	0
	.quad	_ZL12STD_LOG_NAME
	.quad	18
	.quad	64
	.quad	.LC85
	.quad	.LC23
	.quad	0
	.quad	.LASANLOC8
	.quad	0
	.quad	_ZStL8__ioinit
	.quad	1
	.quad	64
	.quad	.LC86
	.quad	.LC23
	.quad	1
	.quad	.LASANLOC9
	.quad	0
	.quad	_ZL15MAX_WORD_LENGTH
	.quad	4
	.quad	64
	.quad	.LC87
	.quad	.LC23
	.quad	0
	.quad	.LASANLOC10
	.quad	0
	.quad	_ZL24MAX_FUNCTION_NAME_LENGTH
	.quad	4
	.quad	64
	.quad	.LC88
	.quad	.LC23
	.quad	0
	.quad	.LASANLOC11
	.quad	0
	.quad	_ZL9MAIN_NAME
	.quad	8
	.quad	64
	.quad	.LC89
	.quad	.LC23
	.quad	0
	.quad	.LASANLOC12
	.quad	0
	.quad	_ZL7COMMENT
	.quad	1
	.quad	64
	.quad	.LC90
	.quad	.LC23
	.quad	0
	.quad	.LASANLOC13
	.quad	0
	.quad	_ZL9OPERATORS
	.quad	9
	.quad	64
	.quad	.LC91
	.quad	.LC23
	.quad	0
	.quad	.LASANLOC14
	.quad	0
	.quad	_ZL18FUNCTION_RET_TYPES
	.quad	16
	.quad	64
	.quad	.LC92
	.quad	.LC23
	.quad	0
	.quad	.LASANLOC15
	.quad	0
	.quad	_ZL14INITIALIZATORS
	.quad	16
	.quad	64
	.quad	.LC93
	.quad	.LC23
	.quad	0
	.quad	.LASANLOC16
	.quad	0
	.quad	_ZL33NUMBER_OF_NATIVE_FUNCTIONS_STRUCT
	.quad	4
	.quad	64
	.quad	.LC94
	.quad	.LC23
	.quad	0
	.quad	.LASANLOC17
	.quad	0
	.quad	_ZL16NATIVE_FUNCTIONS
	.quad	80
	.quad	128
	.quad	.LC95
	.quad	.LC23
	.quad	0
	.quad	.LASANLOC18
	.quad	0
	.quad	_ZL12INSTRUCTIONS
	.quad	32
	.quad	64
	.quad	.LC96
	.quad	.LC23
	.quad	0
	.quad	.LASANLOC19
	.quad	0
	.quad	_ZL21SYSTEM_COMMAND_LENGTH
	.quad	4
	.quad	64
	.quad	.LC97
	.quad	.LC23
	.quad	0
	.quad	.LASANLOC20
	.quad	0
	.quad	_ZL7RANKDIR
	.quad	3
	.quad	64
	.quad	.LC98
	.quad	.LC23
	.quad	0
	.quad	.LASANLOC21
	.quad	0
	.quad	_ZL9EXTENSION
	.quad	4
	.quad	64
	.quad	.LC99
	.quad	.LC23
	.quad	0
	.quad	.LASANLOC22
	.quad	0
	.quad	_ZL12PATH_FOR_IMG
	.quad	12
	.quad	64
	.quad	.LC100
	.quad	.LC23
	.quad	0
	.quad	.LASANLOC23
	.quad	0
	.quad	_ZL12PATH_FOR_DOT
	.quad	16
	.quad	64
	.quad	.LC101
	.quad	.LC23
	.quad	0
	.quad	.LASANLOC24
	.quad	0
	.quad	_ZL17IMAGE_NAME_LENGTH
	.quad	4
	.quad	64
	.quad	.LC102
	.quad	.LC23
	.quad	0
	.quad	.LASANLOC25
	.quad	0
	.quad	_ZL21MAX_GRAPH_NAME_LENGTH
	.quad	4
	.quad	64
	.quad	.LC103
	.quad	.LC23
	.quad	0
	.quad	.LASANLOC26
	.quad	0
	.quad	_ZL11NOT_A_LABEL
	.quad	4
	.quad	64
	.quad	.LC104
	.quad	.LC23
	.quad	0
	.quad	.LASANLOC27
	.quad	0
	.quad	_ZL12NOT_DECLARED
	.quad	4
	.quad	64
	.quad	.LC105
	.quad	.LC23
	.quad	0
	.quad	.LASANLOC28
	.quad	0
	.quad	.LC41
	.quad	36
	.quad	96
	.quad	.LC106
	.quad	.LC23
	.quad	0
	.quad	0
	.quad	0
	.quad	.LC29
	.quad	12
	.quad	64
	.quad	.LC107
	.quad	.LC23
	.quad	0
	.quad	0
	.quad	0
	.quad	.LC42
	.quad	14
	.quad	64
	.quad	.LC108
	.quad	.LC23
	.quad	0
	.quad	0
	.quad	0
	.quad	.LC28
	.quad	64
	.quad	96
	.quad	.LC109
	.quad	.LC23
	.quad	0
	.quad	0
	.quad	0
	.quad	.LC59
	.quad	12
	.quad	64
	.quad	.LC110
	.quad	.LC23
	.quad	0
	.quad	0
	.quad	0
	.quad	.LC50
	.quad	17
	.quad	64
	.quad	.LC111
	.quad	.LC23
	.quad	0
	.quad	0
	.quad	0
	.quad	.LC27
	.quad	7
	.quad	64
	.quad	.LC112
	.quad	.LC23
	.quad	0
	.quad	0
	.quad	0
	.quad	.LC30
	.quad	24
	.quad	64
	.quad	.LC113
	.quad	.LC23
	.quad	0
	.quad	0
	.quad	0
	.quad	.LC49
	.quad	29
	.quad	64
	.quad	.LC114
	.quad	.LC23
	.quad	0
	.quad	0
	.quad	0
	.quad	.LC37
	.quad	37
	.quad	96
	.quad	.LC115
	.quad	.LC23
	.quad	0
	.quad	0
	.quad	0
	.quad	.LC26
	.quad	19
	.quad	64
	.quad	.LC116
	.quad	.LC23
	.quad	0
	.quad	0
	.quad	0
	.quad	.LC66
	.quad	34
	.quad	96
	.quad	.LC117
	.quad	.LC23
	.quad	0
	.quad	0
	.quad	0
	.quad	.LC5
	.quad	4
	.quad	64
	.quad	.LC118
	.quad	.LC23
	.quad	0
	.quad	0
	.quad	0
	.quad	.LC2
	.quad	6
	.quad	64
	.quad	.LC119
	.quad	.LC23
	.quad	0
	.quad	0
	.quad	0
	.quad	.LC70
	.quad	80
	.quad	128
	.quad	.LC120
	.quad	.LC23
	.quad	0
	.quad	0
	.quad	0
	.quad	.LC13
	.quad	5
	.quad	64
	.quad	.LC121
	.quad	.LC23
	.quad	0
	.quad	0
	.quad	0
	.quad	.LC32
	.quad	3
	.quad	64
	.quad	.LC122
	.quad	.LC23
	.quad	0
	.quad	0
	.quad	0
	.quad	.LC67
	.quad	34
	.quad	96
	.quad	.LC123
	.quad	.LC23
	.quad	0
	.quad	0
	.quad	0
	.quad	.LC65
	.quad	29
	.quad	64
	.quad	.LC124
	.quad	.LC23
	.quad	0
	.quad	0
	.quad	0
	.quad	.LC38
	.quad	64
	.quad	96
	.quad	.LC125
	.quad	.LC23
	.quad	0
	.quad	0
	.quad	0
	.quad	.LC39
	.quad	33
	.quad	96
	.quad	.LC126
	.quad	.LC23
	.quad	0
	.quad	0
	.quad	0
	.quad	.LC69
	.quad	14
	.quad	64
	.quad	.LC127
	.quad	.LC23
	.quad	0
	.quad	0
	.quad	0
	.quad	.LC44
	.quad	10
	.quad	64
	.quad	.LC128
	.quad	.LC23
	.quad	0
	.quad	0
	.quad	0
	.quad	.LC56
	.quad	16
	.quad	64
	.quad	.LC129
	.quad	.LC23
	.quad	0
	.quad	0
	.quad	0
	.quad	.LC43
	.quad	33
	.quad	96
	.quad	.LC130
	.quad	.LC23
	.quad	0
	.quad	0
	.quad	0
	.quad	.LC48
	.quad	10
	.quad	64
	.quad	.LC131
	.quad	.LC23
	.quad	0
	.quad	0
	.quad	0
	.quad	.LC4
	.quad	5
	.quad	64
	.quad	.LC132
	.quad	.LC23
	.quad	0
	.quad	0
	.quad	0
	.quad	.LC58
	.quad	16
	.quad	64
	.quad	.LC133
	.quad	.LC23
	.quad	0
	.quad	0
	.quad	0
	.quad	.LC62
	.quad	17
	.quad	64
	.quad	.LC134
	.quad	.LC23
	.quad	0
	.quad	0
	.quad	0
	.quad	.LC23
	.quad	29
	.quad	64
	.quad	.LC135
	.quad	.LC23
	.quad	0
	.quad	0
	.quad	0
	.quad	.LC0
	.quad	3
	.quad	64
	.quad	.LC136
	.quad	.LC23
	.quad	0
	.quad	0
	.quad	0
	.quad	.LC25
	.quad	8
	.quad	64
	.quad	.LC137
	.quad	.LC23
	.quad	0
	.quad	0
	.quad	0
	.quad	.LC10
	.quad	4
	.quad	64
	.quad	.LC138
	.quad	.LC23
	.quad	0
	.quad	0
	.quad	0
	.quad	.LC54
	.quad	16
	.quad	64
	.quad	.LC139
	.quad	.LC23
	.quad	0
	.quad	0
	.quad	0
	.quad	.LC24
	.quad	10
	.quad	64
	.quad	.LC140
	.quad	.LC23
	.quad	0
	.quad	0
	.quad	0
	.quad	.LC57
	.quad	17
	.quad	64
	.quad	.LC141
	.quad	.LC23
	.quad	0
	.quad	0
	.quad	0
	.quad	.LC21
	.quad	6
	.quad	64
	.quad	.LC142
	.quad	.LC23
	.quad	0
	.quad	0
	.quad	0
	.quad	.LC51
	.quad	19
	.quad	64
	.quad	.LC143
	.quad	.LC23
	.quad	0
	.quad	0
	.quad	0
	.quad	.LC8
	.quad	4
	.quad	64
	.quad	.LC144
	.quad	.LC23
	.quad	0
	.quad	0
	.quad	0
	.quad	.LC6
	.quad	4
	.quad	64
	.quad	.LC145
	.quad	.LC23
	.quad	0
	.quad	0
	.quad	0
	.quad	.LC9
	.quad	7
	.quad	64
	.quad	.LC146
	.quad	.LC23
	.quad	0
	.quad	0
	.quad	0
	.quad	.LC31
	.quad	10
	.quad	64
	.quad	.LC147
	.quad	.LC23
	.quad	0
	.quad	0
	.quad	0
	.quad	.LC68
	.quad	24
	.quad	64
	.quad	.LC148
	.quad	.LC23
	.quad	0
	.quad	0
	.quad	0
	.quad	.LC20
	.quad	6
	.quad	64
	.quad	.LC149
	.quad	.LC23
	.quad	0
	.quad	0
	.quad	0
	.quad	.LC55
	.quad	12
	.quad	64
	.quad	.LC150
	.quad	.LC23
	.quad	0
	.quad	0
	.quad	0
	.quad	.LC63
	.quad	17
	.quad	64
	.quad	.LC151
	.quad	.LC23
	.quad	0
	.quad	0
	.quad	0
	.quad	.LC3
	.quad	7
	.quad	64
	.quad	.LC152
	.quad	.LC23
	.quad	0
	.quad	0
	.quad	0
	.quad	.LC1
	.quad	5
	.quad	64
	.quad	.LC153
	.quad	.LC23
	.quad	0
	.quad	0
	.quad	0
	.quad	.LC61
	.quad	16
	.quad	64
	.quad	.LC154
	.quad	.LC23
	.quad	0
	.quad	0
	.quad	0
	.quad	.LC16
	.quad	9
	.quad	64
	.quad	.LC155
	.quad	.LC23
	.quad	0
	.quad	0
	.quad	0
	.quad	.LC19
	.quad	9
	.quad	64
	.quad	.LC156
	.quad	.LC23
	.quad	0
	.quad	0
	.quad	0
	.quad	.LC64
	.quad	29
	.quad	64
	.quad	.LC157
	.quad	.LC23
	.quad	0
	.quad	0
	.quad	0
	.quad	.LC60
	.quad	23
	.quad	64
	.quad	.LC158
	.quad	.LC23
	.quad	0
	.quad	0
	.quad	0
	.quad	.LC46
	.quad	40
	.quad	96
	.quad	.LC159
	.quad	.LC23
	.quad	0
	.quad	0
	.quad	0
	.quad	.LC35
	.quad	23
	.quad	64
	.quad	.LC160
	.quad	.LC23
	.quad	0
	.quad	0
	.quad	0
	.quad	.LC11
	.quad	7
	.quad	64
	.quad	.LC161
	.quad	.LC23
	.quad	0
	.quad	0
	.quad	0
	.quad	.LC7
	.quad	4
	.quad	64
	.quad	.LC162
	.quad	.LC23
	.quad	0
	.quad	0
	.quad	0
	.quad	.LC53
	.quad	25
	.quad	64
	.quad	.LC163
	.quad	.LC23
	.quad	0
	.quad	0
	.quad	0
	.quad	.LC36
	.quad	5
	.quad	64
	.quad	.LC164
	.quad	.LC23
	.quad	0
	.quad	0
	.quad	0
	.quad	.LC18
	.quad	8
	.quad	64
	.quad	.LC165
	.quad	.LC23
	.quad	0
	.quad	0
	.quad	0
	.quad	.LC15
	.quad	8
	.quad	64
	.quad	.LC166
	.quad	.LC23
	.quad	0
	.quad	0
	.quad	0
	.quad	.LC45
	.quad	39
	.quad	96
	.quad	.LC167
	.quad	.LC23
	.quad	0
	.quad	0
	.quad	0
	.quad	.LC12
	.quad	5
	.quad	64
	.quad	.LC168
	.quad	.LC23
	.quad	0
	.quad	0
	.quad	0
	.quad	.LC40
	.quad	22
	.quad	64
	.quad	.LC169
	.quad	.LC23
	.quad	0
	.quad	0
	.quad	0
	.quad	.LC17
	.quad	70
	.quad	128
	.quad	.LC170
	.quad	.LC23
	.quad	0
	.quad	0
	.quad	0
	.quad	.LC34
	.quad	3
	.quad	64
	.quad	.LC171
	.quad	.LC23
	.quad	0
	.quad	0
	.quad	0
	.quad	.LC52
	.quad	21
	.quad	64
	.quad	.LC172
	.quad	.LC23
	.quad	0
	.quad	0
	.quad	0
	.quad	.LC22
	.quad	25
	.quad	64
	.quad	.LC173
	.quad	.LC23
	.quad	0
	.quad	0
	.quad	0
	.text
	.type	_sub_D_00099_0, @function
_sub_D_00099_0:
.LFB2946:
	.cfi_startproc
	endbr64
	pushq	%rbp
	.cfi_def_cfa_offset 16
	.cfi_offset 6, -16
	movq	%rsp, %rbp
	.cfi_def_cfa_register 6
	movl	$96, %esi
	leaq	.LASAN0(%rip), %rax
	movq	%rax, %rdi
	call	__asan_unregister_globals@PLT
	popq	%rbp
	.cfi_def_cfa 7, 8
	ret
	.cfi_endproc
.LFE2946:
	.size	_sub_D_00099_0, .-_sub_D_00099_0
	.section	.fini_array.00099,"aw"
	.align 8
	.quad	_sub_D_00099_0
	.text
	.type	_sub_I_00099_1, @function
_sub_I_00099_1:
.LFB2947:
	.cfi_startproc
	endbr64
	pushq	%rbp
	.cfi_def_cfa_offset 16
	.cfi_offset 6, -16
	movq	%rsp, %rbp
	.cfi_def_cfa_register 6
	call	__asan_init@PLT
	call	__asan_version_mismatch_check_v8@PLT
	movl	$96, %esi
	leaq	.LASAN0(%rip), %rax
	movq	%rax, %rdi
	call	__asan_register_globals@PLT
	popq	%rbp
	.cfi_def_cfa 7, 8
	ret
	.cfi_endproc
.LFE2947:
	.size	_sub_I_00099_1, .-_sub_I_00099_1
	.section	.init_array.00099,"aw"
	.align 8
	.quad	_sub_I_00099_1
	.text
.Letext0:
	.file 4 "/usr/lib/gcc/x86_64-linux-gnu/11/include/stddef.h"
	.file 5 "/usr/include/stdlib.h"
	.file 6 "/usr/include/x86_64-linux-gnu/bits/types.h"
	.file 7 "/usr/include/x86_64-linux-gnu/bits/stdint-intn.h"
	.file 8 "/usr/include/c++/11/cstdlib"
	.file 9 "/usr/include/c++/11/bits/std_abs.h"
	.file 10 "/usr/include/c++/11/cwchar"
	.file 11 "/usr/include/c++/11/type_traits"
	.file 12 "/usr/include/c++/11/bits/exception_ptr.h"
	.file 13 "/usr/include/x86_64-linux-gnu/c++/11/bits/c++config.h"
	.file 14 "/usr/include/c++/11/concepts"
	.file 15 "/usr/include/c++/11/bits/iterator_concepts.h"
	.file 16 "/usr/include/c++/11/bits/ranges_cmp.h"
	.file 17 "/usr/include/c++/11/compare"
	.file 18 "/usr/include/c++/11/debug/debug.h"
	.file 19 "/usr/include/c++/11/cstdint"
	.file 20 "/usr/include/c++/11/clocale"
	.file 21 "/usr/include/c++/11/numbers"
	.file 22 "/usr/include/c++/11/cstdio"
	.file 23 "/usr/include/c++/11/bits/ios_base.h"
	.file 24 "/usr/include/c++/11/cwctype"
	.file 25 "/usr/include/c++/11/bits/predefined_ops.h"
	.file 26 "/usr/include/c++/11/stdlib.h"
	.file 27 "/usr/lib/gcc/x86_64-linux-gnu/11/include/stdarg.h"
	.file 28 "<built-in>"
	.file 29 "/usr/include/x86_64-linux-gnu/bits/types/__mbstate_t.h"
	.file 30 "/usr/include/x86_64-linux-gnu/bits/types/__fpos_t.h"
	.file 31 "/usr/include/x86_64-linux-gnu/bits/types/__FILE.h"
	.file 32 "/usr/include/x86_64-linux-gnu/bits/types/struct_FILE.h"
	.file 33 "/usr/include/x86_64-linux-gnu/bits/types/FILE.h"
	.file 34 "/usr/include/stdio.h"
	.file 35 "../Common/Structures/Tabels/NameTable.h"
	.file 36 "../Common/Structures/Token/Token.h"
	.file 37 "../Common/Structures/Tabels/Tabels.h"
	.file 38 "../Common/Structures/Program/Program.h"
	.file 39 "../ATC/GraphVis/GVConfig.h"
	.file 40 "../Common/Grammar.h"
	.file 41 "/usr/include/x86_64-linux-gnu/bits/types/wint_t.h"
	.file 42 "/usr/include/x86_64-linux-gnu/bits/types/mbstate_t.h"
	.file 43 "/usr/include/wchar.h"
	.file 44 "/usr/include/x86_64-linux-gnu/bits/types/struct_tm.h"
	.file 45 "/usr/include/c++/11/bits/ptr_traits.h"
	.file 46 "/usr/include/x86_64-linux-gnu/bits/stdint-uintn.h"
	.file 47 "/usr/include/stdint.h"
	.file 48 "/usr/include/locale.h"
	.file 49 "/usr/include/x86_64-linux-gnu/bits/wctype-wchar.h"
	.file 50 "/usr/include/wctype.h"
	.file 51 "../ATC/Logger/LogConfig.h"
	.file 52 "../ATC/Logger/FunctionLogger.h"
	.file 53 "../ATC/RandomStuff/CommonEnums.h"
	.file 54 "../ATC/Buffer/my_buffer.h"
	.file 55 "../Common/Utils/LangUtils.h"
	.file 56 "/usr/include/string.h"
	.file 57 "/usr/include/c++/11/bits/algorithmfwd.h"
	.file 58 "../ATC/Logger/Logger.h"
	.section	.data.rel.local.DW.ref.__gxx_personality_v0,"awG",@progbits,DW.ref.__gxx_personality_v0,comdat
	.align 8
	.type	DW.ref.__gxx_personality_v0, @object
	.size	DW.ref.__gxx_personality_v0, 8
DW.ref.__gxx_personality_v0:
	.quad	__gxx_personality_v0
	.hidden	__dso_handle
	.ident	"GCC: (Ubuntu 11.3.0-1ubuntu1~22.04) 11.3.0"
	.section	.note.GNU-stack,"",@progbits
	.section	.note.gnu.property,"a"
	.align 8
	.long	1f - 0f
	.long	4f - 1f
	.long	5
0:
	.string	"GNU"
1:
	.align 8
	.long	0xc0000002
	.long	3f - 2f
2:
	.long	0x3
3:
	.align 8
4:
