	.file	"LexicalCtx.cpp"
	.text
.Ltext0:
	.file 0 "/home/arsenyfucker/Cprojects/Lang/Translator/BackEnd" "../Common/LexicalCtx/LexicalCtx.cpp"
	.section	.rodata
	.align 32
	.type	_ZL11INDENT_SIZE, @object
	.size	_ZL11INDENT_SIZE, 4
_ZL11INDENT_SIZE:
	.long	2
	.zero	60
	.align 32
	.type	_ZL10NOT_A_NAME, @object
	.size	_ZL10NOT_A_NAME, 4
_ZL10NOT_A_NAME:
	.long	-555
	.zero	60
	.align 32
	.type	_ZL17NOT_A_INSTRUCTION, @object
	.size	_ZL17NOT_A_INSTRUCTION, 4
_ZL17NOT_A_INSTRUCTION:
	.long	-666
	.zero	60
	.align 32
	.type	_ZL19NOT_A_INITIALIZATOR, @object
	.size	_ZL19NOT_A_INITIALIZATOR, 4
_ZL19NOT_A_INITIALIZATOR:
	.long	-111
	.zero	60
	.align 32
	.type	_ZL14NOT_A_RET_TYPE, @object
	.size	_ZL14NOT_A_RET_TYPE, 4
_ZL14NOT_A_RET_TYPE:
	.long	-333
	.zero	60
	.align 32
	.type	_ZL21NOT_A_NATIVE_FUNCTION, @object
	.size	_ZL21NOT_A_NATIVE_FUNCTION, 4
_ZL21NOT_A_NATIVE_FUNCTION:
	.long	-222
	.zero	60
	.align 32
	.type	_ZL22START_NUMBER_OF_TOKENS, @object
	.size	_ZL22START_NUMBER_OF_TOKENS, 4
_ZL22START_NUMBER_OF_TOKENS:
	.long	20
	.zero	60
	.align 32
	.type	_ZL23START_NUMBER_OF_STRINGS, @object
	.size	_ZL23START_NUMBER_OF_STRINGS, 4
_ZL23START_NUMBER_OF_STRINGS:
	.long	16
	.zero	60
	.bss
	.align 32
	.type	_ZStL8__ioinit, @object
	.size	_ZStL8__ioinit, 1
_ZStL8__ioinit:
	.zero	64
	.section	.rodata
	.align 32
	.type	_ZL12STD_LOG_NAME, @object
	.size	_ZL12STD_LOG_NAME, 18
_ZL12STD_LOG_NAME:
	.string	"./logs/stdlog.ars"
	.zero	46
	.align 32
	.type	_ZL6CRINGE, @object
	.size	_ZL6CRINGE, 4
_ZL6CRINGE:
	.long	3565
	.zero	60
	.align 32
	.type	_ZL12NOT_DECLARED, @object
	.size	_ZL12NOT_DECLARED, 4
_ZL12NOT_DECLARED:
	.long	-111
	.zero	60
	.align 32
	.type	_ZL11NOT_A_LABEL, @object
	.size	_ZL11NOT_A_LABEL, 4
_ZL11NOT_A_LABEL:
	.long	-9
	.zero	60
	.align 32
.LC0:
	.string	"ctx"
	.zero	60
	.align 32
.LC1:
	.string	"ASSERTLOG:: Condition (%s) is false\n"
	.zero	59
	.align 32
.LC2:
	.string	"\033[93mASSERTLOG:: \033[0mCondition\033[95m (%s) \033[0mis \033[91mfalse\n\033[0m"
	.zero	32
	.align 32
.LC3:
	.string	"int LexicalCtxCtor(LexicalCtx*, const char*, int, size_t)"
	.zero	38
	.align 32
.LC4:
	.string	"../Common/LexicalCtx/LexicalCtx.cpp"
	.zero	60
	.align 32
.LC5:
	.string	"\t%s:%d, function: %s\n"
	.zero	42
	.align 32
.LC6:
	.string	"It matches to error: (code %d) %s\n\n"
	.zero	60
	.align 32
.LC7:
	.string	"LexicalCtxCtor"
	.zero	49
	.align 32
.LC8:
	.string	"Shutting down the system (%s:%d)"
	.zero	63
	.align 32
.LC9:
	.string	"echo LOX\n"
	.zero	54
	.align 32
.LC10:
	.string	"buffer"
	.zero	57
	.align 32
.LC11:
	.string	"%s:%d::CHECK: BufferCtor(ctx->buf, buffer) == SUCCESS is false\n"
	.zero	32
	.text
	.globl	_Z14LexicalCtxCtorP10LexicalCtxPKcim
	.type	_Z14LexicalCtxCtorP10LexicalCtxPKcim, @function
_Z14LexicalCtxCtorP10LexicalCtxPKcim:
.LASANPC2270:
.LFB2270:
	.file 1 "../Common/LexicalCtx/LexicalCtx.cpp"
	.loc 1 10 5
	.cfi_startproc
	endbr64
	pushq	%rbp
	.cfi_def_cfa_offset 16
	.cfi_offset 6, -16
	movq	%rsp, %rbp
	.cfi_def_cfa_register 6
	pushq	%rbx
	subq	$56, %rsp
	.cfi_offset 3, -24
	movq	%rdi, -40(%rbp)
	movq	%rsi, -48(%rbp)
	movl	%edx, -52(%rbp)
	movq	%rcx, -64(%rbp)
	.loc 1 11 10
	cmpq	$0, -40(%rbp)
	jne	.L2
	.loc 1 11 43 discriminator 1
	call	_ZN6Logger11getInstanceEv@PLT
	movq	%rax, %rcx
	.loc 1 11 49 discriminator 1
	leaq	.LC0(%rip), %rax
	movq	%rax, %rdx
	leaq	.LC1(%rip), %rax
	movq	%rax, %rsi
	movq	%rcx, %rdi
	movl	$0, %eax
	call	_ZN6Logger3logEPKcz@PLT
	.loc 1 11 105 discriminator 1
	leaq	.LC0(%rip), %rax
	movq	%rax, %rsi
	leaq	.LC2(%rip), %rax
	movq	%rax, %rdi
	movl	$0, %eax
	call	printf@PLT
	.loc 1 11 249 discriminator 1
	call	_ZN6Logger11getInstanceEv@PLT
	movq	%rax, %rdi
	.loc 1 11 255 discriminator 1
	leaq	.LC3(%rip), %r8
	movl	$11, %ecx
	leaq	.LC4(%rip), %rax
	movq	%rax, %rdx
	leaq	.LC5(%rip), %rax
	movq	%rax, %rsi
	movl	$0, %eax
	call	_ZN6Logger3logEPKcz@PLT
	.loc 1 11 354 discriminator 1
	leaq	.LC3(%rip), %rax
	movq	%rax, %rcx
	movl	$11, %edx
	leaq	.LC4(%rip), %rax
	movq	%rax, %rsi
	leaq	.LC5(%rip), %rax
	movq	%rax, %rdi
	movl	$0, %eax
	call	printf@PLT
	.loc 1 11 466 discriminator 1
	call	_ZN6Logger11getInstanceEv@PLT
	movq	%rax, %rbx
	.loc 1 11 472 discriminator 1
	movl	$14, %edi
	call	strerror@PLT
	movq	%rax, %rcx
	movl	$14, %edx
	leaq	.LC6(%rip), %rax
	movq	%rax, %rsi
	movq	%rbx, %rdi
	movl	$0, %eax
	call	_ZN6Logger3logEPKcz@PLT
	.loc 1 11 27 discriminator 1
	call	_ZN6Logger11getInstanceEv@PLT
	movq	%rax, %rdi
	.loc 1 11 33 discriminator 1
	movl	$11, %ecx
	leaq	.LC7(%rip), %rax
	movq	%rax, %rdx
	leaq	.LC8(%rip), %rax
	movq	%rax, %rsi
	movl	$0, %eax
	call	_ZN6Logger3logEPKcz@PLT
	.loc 1 11 91 discriminator 1
	leaq	.LC9(%rip), %rax
	movq	%rax, %rdi
	call	system@PLT
	.loc 1 11 114 discriminator 1
	movl	$-2, %eax
	jmp	.L3
.L2:
	.loc 1 12 10
	cmpq	$0, -48(%rbp)
	jne	.L4
	.loc 1 12 46 discriminator 1
	call	_ZN6Logger11getInstanceEv@PLT
	movq	%rax, %rcx
	.loc 1 12 52 discriminator 1
	leaq	.LC10(%rip), %rax
	movq	%rax, %rdx
	leaq	.LC1(%rip), %rax
	movq	%rax, %rsi
	movq	%rcx, %rdi
	movl	$0, %eax
	call	_ZN6Logger3logEPKcz@PLT
	.loc 1 12 111 discriminator 1
	leaq	.LC10(%rip), %rax
	movq	%rax, %rsi
	leaq	.LC2(%rip), %rax
	movq	%rax, %rdi
	movl	$0, %eax
	call	printf@PLT
	.loc 1 12 258 discriminator 1
	call	_ZN6Logger11getInstanceEv@PLT
	movq	%rax, %rdi
	.loc 1 12 264 discriminator 1
	leaq	.LC3(%rip), %r8
	movl	$12, %ecx
	leaq	.LC4(%rip), %rax
	movq	%rax, %rdx
	leaq	.LC5(%rip), %rax
	movq	%rax, %rsi
	movl	$0, %eax
	call	_ZN6Logger3logEPKcz@PLT
	.loc 1 12 363 discriminator 1
	leaq	.LC3(%rip), %rax
	movq	%rax, %rcx
	movl	$12, %edx
	leaq	.LC4(%rip), %rax
	movq	%rax, %rsi
	leaq	.LC5(%rip), %rax
	movq	%rax, %rdi
	movl	$0, %eax
	call	printf@PLT
	.loc 1 12 475 discriminator 1
	call	_ZN6Logger11getInstanceEv@PLT
	movq	%rax, %rbx
	.loc 1 12 481 discriminator 1
	movl	$14, %edi
	call	strerror@PLT
	movq	%rax, %rcx
	movl	$14, %edx
	leaq	.LC6(%rip), %rax
	movq	%rax, %rsi
	movq	%rbx, %rdi
	movl	$0, %eax
	call	_ZN6Logger3logEPKcz@PLT
	.loc 1 12 27 discriminator 1
	call	_ZN6Logger11getInstanceEv@PLT
	movq	%rax, %rdi
	.loc 1 12 33 discriminator 1
	movl	$12, %ecx
	leaq	.LC7(%rip), %rax
	movq	%rax, %rdx
	leaq	.LC8(%rip), %rax
	movq	%rax, %rsi
	movl	$0, %eax
	call	_ZN6Logger3logEPKcz@PLT
	.loc 1 12 91 discriminator 1
	leaq	.LC9(%rip), %rax
	movq	%rax, %rdi
	call	system@PLT
	.loc 1 12 114 discriminator 1
	movl	$-2, %eax
	jmp	.L3
.L4:
	.loc 1 14 25
	movq	-40(%rbp), %rax
	addq	$16, %rax
	movq	%rax, %rdx
	shrq	$3, %rdx
	addq	$2147450880, %rdx
	movzbl	(%rdx), %edx
	testb	%dl, %dl
	je	.L5
	movq	%rax, %rdi
	call	__asan_report_store8@PLT
.L5:
	movq	-40(%rbp), %rax
	movq	-64(%rbp), %rdx
	movq	%rdx, 16(%rax)
	.loc 1 17 46
	call	_ZN6Logger11getInstanceEv@PLT
	movq	%rax, %rdi
	.loc 1 17 57
	movq	-40(%rbp), %rax
	addq	$16, %rax
	movq	%rax, %rdx
	shrq	$3, %rdx
	addq	$2147450880, %rdx
	movzbl	(%rdx), %edx
	testb	%dl, %dl
	je	.L6
	movq	%rax, %rdi
	call	__asan_report_load8@PLT
.L6:
	movq	-40(%rbp), %rax
	movq	16(%rax), %rax
	movl	$17, %r9d
	leaq	.LC7(%rip), %r8
	leaq	.LC4(%rip), %rdx
	movq	%rdx, %rcx
	movl	$56, %edx
	movq	%rax, %rsi
	call	_ZN6Logger7CAL_LOGEmmPKcS1_i@PLT
	movq	%rax, -32(%rbp)
	.loc 1 18 5
	cmpq	$0, -32(%rbp)
	jne	.L7
	.loc 1 19 16
	movl	$-1, %eax
	jmp	.L3
.L7:
	.loc 1 21 26
	movq	-40(%rbp), %rax
	addq	$40, %rax
	movq	%rax, %rdx
	shrq	$3, %rdx
	addq	$2147450880, %rdx
	movzbl	(%rdx), %edx
	testb	%dl, %dl
	je	.L8
	movq	%rax, %rdi
	call	__asan_report_store8@PLT
.L8:
	movq	-40(%rbp), %rax
	movq	-64(%rbp), %rdx
	movq	%rdx, 40(%rax)
	.loc 1 23 65
	call	_ZN6Logger11getInstanceEv@PLT
	movq	%rax, %rdi
	.loc 1 23 76
	movq	-40(%rbp), %rax
	addq	$40, %rax
	movq	%rax, %rdx
	shrq	$3, %rdx
	addq	$2147450880, %rdx
	movzbl	(%rdx), %edx
	testb	%dl, %dl
	je	.L9
	movq	%rax, %rdi
	call	__asan_report_load8@PLT
.L9:
	movq	-40(%rbp), %rax
	movq	40(%rax), %rax
	movl	$23, %r9d
	leaq	.LC7(%rip), %r8
	leaq	.LC4(%rip), %rdx
	movq	%rdx, %rcx
	movl	$8, %edx
	movq	%rax, %rsi
	call	_ZN6Logger7CAL_LOGEmmPKcS1_i@PLT
	movq	%rax, -24(%rbp)
	.loc 1 24 5
	cmpq	$0, -24(%rbp)
	je	.L26
	.loc 1 28 45
	call	_ZN6Logger11getInstanceEv@PLT
	movq	%rax, %rdi
	.loc 1 28 56
	movl	$28, %r9d
	leaq	.LC7(%rip), %r8
	leaq	.LC4(%rip), %rax
	movq	%rax, %rcx
	movl	$24, %edx
	movl	$1, %esi
	call	_ZN6Logger7CAL_LOGEmmPKcS1_i@PLT
	.loc 1 28 14
	movq	-40(%rbp), %rdx
	movq	%rdx, %rcx
	shrq	$3, %rcx
	addq	$2147450880, %rcx
	movzbl	(%rcx), %ecx
	testb	%cl, %cl
	je	.L12
	movq	%rdx, %rdi
	call	__asan_report_store8@PLT
.L12:
	movq	-40(%rbp), %rdx
	movq	%rax, (%rdx)
	.loc 1 29 15
	movq	-40(%rbp), %rax
	movq	(%rax), %rax
	.loc 1 29 5
	testq	%rax, %rax
	je	.L27
	.loc 1 32 25
	movq	-40(%rbp), %rax
	movq	%rax, %rdx
	shrq	$3, %rdx
	addq	$2147450880, %rdx
	movzbl	(%rdx), %edx
	testb	%dl, %dl
	je	.L14
	movq	%rax, %rdi
	call	__asan_report_load8@PLT
.L14:
	movq	-40(%rbp), %rax
	movq	(%rax), %rax
	movq	-48(%rbp), %rdx
	movq	%rdx, %rsi
	movq	%rax, %rdi
	call	_Z10BufferCtorP6BufferPKc@PLT
	.loc 1 32 44
	testl	%eax, %eax
	setne	%al
	.loc 1 32 10
	testb	%al, %al
	je	.L15
	.loc 1 32 77 discriminator 1
	call	_ZN6Logger11getInstanceEv@PLT
	movq	%rax, %rdi
	.loc 1 32 83 discriminator 1
	movl	$32, %ecx
	leaq	.LC7(%rip), %rax
	movq	%rax, %rdx
	leaq	.LC11(%rip), %rax
	movq	%rax, %rsi
	movl	$0, %eax
	call	_ZN6Logger3logEPKcz@PLT
	.loc 1 32 179 discriminator 1
	jmp	.L11
.L15:
	.loc 1 34 27
	movq	-40(%rbp), %rax
	addq	$24, %rax
	movq	%rax, %rdx
	shrq	$3, %rdx
	addq	$2147450880, %rdx
	movzbl	(%rdx), %edx
	testb	%dl, %dl
	je	.L16
	movq	%rax, %rdi
	call	__asan_report_store8@PLT
.L16:
	movq	-40(%rbp), %rax
	movq	$0, 24(%rax)
	.loc 1 35 28
	movq	-40(%rbp), %rax
	addq	$48, %rax
	movq	%rax, %rdx
	shrq	$3, %rdx
	addq	$2147450880, %rdx
	movzbl	(%rdx), %edx
	testb	%dl, %dl
	je	.L17
	movq	%rax, %rdi
	call	__asan_report_store8@PLT
.L17:
	movq	-40(%rbp), %rax
	movq	$0, 48(%rax)
	.loc 1 37 20
	movq	-40(%rbp), %rax
	addq	$8, %rax
	movq	%rax, %rdx
	shrq	$3, %rdx
	addq	$2147450880, %rdx
	movzbl	(%rdx), %edx
	testb	%dl, %dl
	je	.L18
	movq	%rax, %rdi
	call	__asan_report_store8@PLT
.L18:
	movq	-40(%rbp), %rax
	movq	-32(%rbp), %rdx
	movq	%rdx, 8(%rax)
	.loc 1 38 27
	movq	-40(%rbp), %rax
	movq	$0, 24(%rax)
	.loc 1 40 21
	movq	-40(%rbp), %rax
	addq	$32, %rax
	movq	%rax, %rdx
	shrq	$3, %rdx
	addq	$2147450880, %rdx
	movzbl	(%rdx), %edx
	testb	%dl, %dl
	je	.L19
	movq	%rax, %rdi
	call	__asan_report_store8@PLT
.L19:
	movq	-40(%rbp), %rax
	movq	-24(%rbp), %rdx
	movq	%rdx, 32(%rax)
	.loc 1 41 28
	movq	-40(%rbp), %rax
	movq	$0, 48(%rax)
	.loc 1 43 25
	movq	-40(%rbp), %rax
	addq	$56, %rax
	movq	%rax, %rdx
	movq	%rdx, %rax
	shrq	$3, %rax
	addq	$2147450880, %rax
	movzbl	(%rax), %eax
	testb	%al, %al
	setne	%cl
	cmpb	$3, %al
	setle	%al
	andl	%ecx, %eax
	testb	%al, %al
	je	.L20
	movq	%rdx, %rdi
	call	__asan_report_store4@PLT
.L20:
	movq	-40(%rbp), %rax
	movl	-52(%rbp), %edx
	movl	%edx, 56(%rax)
	.loc 1 46 12
	movl	$0, %eax
	jmp	.L3
.L26:
	.loc 1 25 14
	nop
	jmp	.L11
.L27:
	.loc 1 30 14
	nop
.L11:
	.loc 1 50 6
	cmpq	$0, -32(%rbp)
	je	.L21
	.loc 1 51 28
	call	_ZN6Logger11getInstanceEv@PLT
	movq	%rax, %rdi
	.loc 1 51 40
	movq	-32(%rbp), %rax
	movl	$51, %r8d
	leaq	.LC7(%rip), %rdx
	movq	%rdx, %rcx
	leaq	.LC4(%rip), %rdx
	movq	%rax, %rsi
	call	_ZN6Logger8FREE_LOGEPvPKcS2_i@PLT
.L21:
	.loc 1 53 5
	cmpq	$0, -24(%rbp)
	je	.L22
	.loc 1 54 28
	call	_ZN6Logger11getInstanceEv@PLT
	movq	%rax, %rdi
	.loc 1 54 40
	movq	-24(%rbp), %rax
	movl	$54, %r8d
	leaq	.LC7(%rip), %rdx
	movq	%rdx, %rcx
	leaq	.LC4(%rip), %rdx
	movq	%rax, %rsi
	call	_ZN6Logger8FREE_LOGEPvPKcS2_i@PLT
.L22:
	.loc 1 56 14
	movq	-40(%rbp), %rax
	movq	%rax, %rdx
	shrq	$3, %rdx
	addq	$2147450880, %rdx
	movzbl	(%rdx), %edx
	testb	%dl, %dl
	je	.L23
	movq	%rax, %rdi
	call	__asan_report_load8@PLT
.L23:
	movq	-40(%rbp), %rax
	movq	(%rax), %rax
	.loc 1 56 5
	testq	%rax, %rax
	je	.L24
	.loc 1 57 28
	call	_ZN6Logger11getInstanceEv@PLT
	movq	%rax, %rdi
	.loc 1 57 46
	movq	-40(%rbp), %rax
	movq	%rax, %rdx
	shrq	$3, %rdx
	addq	$2147450880, %rdx
	movzbl	(%rdx), %edx
	testb	%dl, %dl
	je	.L25
	movq	%rax, %rdi
	call	__asan_report_load8@PLT
.L25:
	movq	-40(%rbp), %rax
	movq	(%rax), %rax
	.loc 1 57 40
	movl	$57, %r8d
	leaq	.LC7(%rip), %rdx
	movq	%rdx, %rcx
	leaq	.LC4(%rip), %rdx
	movq	%rax, %rsi
	call	_ZN6Logger8FREE_LOGEPvPKcS2_i@PLT
.L24:
	.loc 1 59 12
	movl	$-1, %eax
.L3:
	.loc 1 60 5
	movq	-8(%rbp), %rbx
	leave
	.cfi_def_cfa 7, 8
	ret
	.cfi_endproc
.LFE2270:
	.size	_Z14LexicalCtxCtorP10LexicalCtxPKcim, .-_Z14LexicalCtxCtorP10LexicalCtxPKcim
	.section	.rodata
	.align 32
.LC12:
	.string	"int LexicalCtxFailDtor(LexicalCtx*)"
	.zero	60
	.align 32
.LC13:
	.string	"LexicalCtxFailDtor"
	.zero	45
	.text
	.globl	_Z18LexicalCtxFailDtorP10LexicalCtx
	.type	_Z18LexicalCtxFailDtorP10LexicalCtx, @function
_Z18LexicalCtxFailDtorP10LexicalCtx:
.LASANPC2271:
.LFB2271:
	.loc 1 63 5
	.cfi_startproc
	endbr64
	pushq	%rbp
	.cfi_def_cfa_offset 16
	.cfi_offset 6, -16
	movq	%rsp, %rbp
	.cfi_def_cfa_register 6
	pushq	%rbx
	subq	$24, %rsp
	.cfi_offset 3, -24
	movq	%rdi, -24(%rbp)
	.loc 1 64 10
	cmpq	$0, -24(%rbp)
	jne	.L29
	.loc 1 64 43 discriminator 1
	call	_ZN6Logger11getInstanceEv@PLT
	movq	%rax, %rcx
	.loc 1 64 49 discriminator 1
	leaq	.LC0(%rip), %rax
	movq	%rax, %rdx
	leaq	.LC1(%rip), %rax
	movq	%rax, %rsi
	movq	%rcx, %rdi
	movl	$0, %eax
	call	_ZN6Logger3logEPKcz@PLT
	.loc 1 64 105 discriminator 1
	leaq	.LC0(%rip), %rax
	movq	%rax, %rsi
	leaq	.LC2(%rip), %rax
	movq	%rax, %rdi
	movl	$0, %eax
	call	printf@PLT
	.loc 1 64 249 discriminator 1
	call	_ZN6Logger11getInstanceEv@PLT
	movq	%rax, %rdi
	.loc 1 64 255 discriminator 1
	leaq	.LC12(%rip), %r8
	movl	$64, %ecx
	leaq	.LC4(%rip), %rax
	movq	%rax, %rdx
	leaq	.LC5(%rip), %rax
	movq	%rax, %rsi
	movl	$0, %eax
	call	_ZN6Logger3logEPKcz@PLT
	.loc 1 64 354 discriminator 1
	leaq	.LC12(%rip), %rax
	movq	%rax, %rcx
	movl	$64, %edx
	leaq	.LC4(%rip), %rax
	movq	%rax, %rsi
	leaq	.LC5(%rip), %rax
	movq	%rax, %rdi
	movl	$0, %eax
	call	printf@PLT
	.loc 1 64 466 discriminator 1
	call	_ZN6Logger11getInstanceEv@PLT
	movq	%rax, %rbx
	.loc 1 64 472 discriminator 1
	movl	$14, %edi
	call	strerror@PLT
	movq	%rax, %rcx
	movl	$14, %edx
	leaq	.LC6(%rip), %rax
	movq	%rax, %rsi
	movq	%rbx, %rdi
	movl	$0, %eax
	call	_ZN6Logger3logEPKcz@PLT
	.loc 1 64 27 discriminator 1
	call	_ZN6Logger11getInstanceEv@PLT
	movq	%rax, %rdi
	.loc 1 64 33 discriminator 1
	movl	$64, %ecx
	leaq	.LC13(%rip), %rax
	movq	%rax, %rdx
	leaq	.LC8(%rip), %rax
	movq	%rax, %rsi
	movl	$0, %eax
	call	_ZN6Logger3logEPKcz@PLT
	.loc 1 64 91 discriminator 1
	leaq	.LC9(%rip), %rax
	movq	%rax, %rdi
	call	system@PLT
	.loc 1 64 114 discriminator 1
	movl	$-2, %eax
	jmp	.L30
.L29:
	.loc 1 66 14
	movq	-24(%rbp), %rax
	addq	$8, %rax
	movq	%rax, %rdx
	shrq	$3, %rdx
	addq	$2147450880, %rdx
	movzbl	(%rdx), %edx
	testb	%dl, %dl
	je	.L31
	movq	%rax, %rdi
	call	__asan_report_load8@PLT
.L31:
	movq	-24(%rbp), %rax
	movq	8(%rax), %rax
	.loc 1 66 5
	testq	%rax, %rax
	je	.L32
	.loc 1 67 28
	call	_ZN6Logger11getInstanceEv@PLT
	movq	%rax, %rdi
	.loc 1 67 46
	movq	-24(%rbp), %rax
	addq	$8, %rax
	movq	%rax, %rdx
	shrq	$3, %rdx
	addq	$2147450880, %rdx
	movzbl	(%rdx), %edx
	testb	%dl, %dl
	je	.L33
	movq	%rax, %rdi
	call	__asan_report_load8@PLT
.L33:
	movq	-24(%rbp), %rax
	movq	8(%rax), %rax
	.loc 1 67 40
	movl	$67, %r8d
	leaq	.LC13(%rip), %rdx
	movq	%rdx, %rcx
	leaq	.LC4(%rip), %rdx
	movq	%rax, %rsi
	call	_ZN6Logger8FREE_LOGEPvPKcS2_i@PLT
.L32:
	.loc 1 69 14
	movq	-24(%rbp), %rax
	addq	$32, %rax
	movq	%rax, %rdx
	shrq	$3, %rdx
	addq	$2147450880, %rdx
	movzbl	(%rdx), %edx
	testb	%dl, %dl
	je	.L34
	movq	%rax, %rdi
	call	__asan_report_load8@PLT
.L34:
	movq	-24(%rbp), %rax
	movq	32(%rax), %rax
	.loc 1 69 5
	testq	%rax, %rax
	je	.L35
	.loc 1 71 52
	movq	-24(%rbp), %rax
	addq	$48, %rax
	movq	%rax, %rdx
	shrq	$3, %rdx
	addq	$2147450880, %rdx
	movzbl	(%rdx), %edx
	testb	%dl, %dl
	je	.L36
	movq	%rax, %rdi
	call	__asan_report_load8@PLT
.L36:
	movq	-24(%rbp), %rax
	movq	48(%rax), %rax
	.loc 1 71 23
	movl	%eax, %edx
	movq	-24(%rbp), %rax
	movq	32(%rax), %rax
	movl	%edx, %esi
	movq	%rax, %rdi
	call	_Z14CleanStringArrPPKci@PLT
	.loc 1 72 28
	call	_ZN6Logger11getInstanceEv@PLT
	movq	%rax, %rdi
	.loc 1 72 46
	movq	-24(%rbp), %rax
	addq	$32, %rax
	movq	%rax, %rdx
	shrq	$3, %rdx
	addq	$2147450880, %rdx
	movzbl	(%rdx), %edx
	testb	%dl, %dl
	je	.L37
	movq	%rax, %rdi
	call	__asan_report_load8@PLT
.L37:
	movq	-24(%rbp), %rax
	movq	32(%rax), %rax
	.loc 1 72 40
	movl	$72, %r8d
	leaq	.LC13(%rip), %rdx
	movq	%rdx, %rcx
	leaq	.LC4(%rip), %rdx
	movq	%rax, %rsi
	call	_ZN6Logger8FREE_LOGEPvPKcS2_i@PLT
.L35:
	.loc 1 75 14
	movq	-24(%rbp), %rax
	movq	%rax, %rdx
	shrq	$3, %rdx
	addq	$2147450880, %rdx
	movzbl	(%rdx), %edx
	testb	%dl, %dl
	je	.L38
	movq	%rax, %rdi
	call	__asan_report_load8@PLT
.L38:
	movq	-24(%rbp), %rax
	movq	(%rax), %rax
	.loc 1 75 5
	testq	%rax, %rax
	je	.L39
	.loc 1 76 28
	call	_ZN6Logger11getInstanceEv@PLT
	movq	%rax, %rdi
	.loc 1 76 46
	movq	-24(%rbp), %rax
	movq	%rax, %rdx
	shrq	$3, %rdx
	addq	$2147450880, %rdx
	movzbl	(%rdx), %edx
	testb	%dl, %dl
	je	.L40
	movq	%rax, %rdi
	call	__asan_report_load8@PLT
.L40:
	movq	-24(%rbp), %rax
	movq	(%rax), %rax
	.loc 1 76 40
	movl	$76, %r8d
	leaq	.LC13(%rip), %rdx
	movq	%rdx, %rcx
	leaq	.LC4(%rip), %rdx
	movq	%rax, %rsi
	call	_ZN6Logger8FREE_LOGEPvPKcS2_i@PLT
.L39:
	.loc 1 78 12
	movl	$0, %eax
.L30:
	.loc 1 79 5
	movq	-8(%rbp), %rbx
	leave
	.cfi_def_cfa 7, 8
	ret
	.cfi_endproc
.LFE2271:
	.size	_Z18LexicalCtxFailDtorP10LexicalCtx, .-_Z18LexicalCtxFailDtorP10LexicalCtx
	.section	.rodata
	.align 32
.LC14:
	.string	"int LexicalCtxRealloc(LexicalCtx*)"
	.zero	61
	.align 32
.LC15:
	.string	"LexicalCtxRealloc"
	.zero	46
	.align 32
.LC16:
	.string	"\t%s: "
	.zero	58
	.align 32
.LC17:
	.string	"Recalloc not allowed for LexicalCtx %p\n"
	.zero	56
	.align 32
.LC18:
	.string	" (%s:%d)\n"
	.zero	54
	.align 32
.LC19:
	.string	"ctx->number_of_strings"
	.zero	41
	.align 32
.LC20:
	.string	"\t%s: %zu\n"
	.zero	54
	.align 32
.LC21:
	.string	"Warnig: 0 number of strings!!!"
	.zero	33
	.text
	.globl	_Z17LexicalCtxReallocP10LexicalCtx
	.type	_Z17LexicalCtxReallocP10LexicalCtx, @function
_Z17LexicalCtxReallocP10LexicalCtx:
.LASANPC2272:
.LFB2272:
	.loc 1 82 5
	.cfi_startproc
	endbr64
	pushq	%rbp
	.cfi_def_cfa_offset 16
	.cfi_offset 6, -16
	movq	%rsp, %rbp
	.cfi_def_cfa_register 6
	pushq	%rbx
	subq	$40, %rsp
	.cfi_offset 3, -24
	movq	%rdi, -40(%rbp)
	.loc 1 83 10
	cmpq	$0, -40(%rbp)
	jne	.L42
	.loc 1 83 43 discriminator 1
	call	_ZN6Logger11getInstanceEv@PLT
	movq	%rax, %rcx
	.loc 1 83 49 discriminator 1
	leaq	.LC0(%rip), %rax
	movq	%rax, %rdx
	leaq	.LC1(%rip), %rax
	movq	%rax, %rsi
	movq	%rcx, %rdi
	movl	$0, %eax
	call	_ZN6Logger3logEPKcz@PLT
	.loc 1 83 105 discriminator 1
	leaq	.LC0(%rip), %rax
	movq	%rax, %rsi
	leaq	.LC2(%rip), %rax
	movq	%rax, %rdi
	movl	$0, %eax
	call	printf@PLT
	.loc 1 83 249 discriminator 1
	call	_ZN6Logger11getInstanceEv@PLT
	movq	%rax, %rdi
	.loc 1 83 255 discriminator 1
	leaq	.LC14(%rip), %r8
	movl	$83, %ecx
	leaq	.LC4(%rip), %rax
	movq	%rax, %rdx
	leaq	.LC5(%rip), %rax
	movq	%rax, %rsi
	movl	$0, %eax
	call	_ZN6Logger3logEPKcz@PLT
	.loc 1 83 354 discriminator 1
	leaq	.LC14(%rip), %rax
	movq	%rax, %rcx
	movl	$83, %edx
	leaq	.LC4(%rip), %rax
	movq	%rax, %rsi
	leaq	.LC5(%rip), %rax
	movq	%rax, %rdi
	movl	$0, %eax
	call	printf@PLT
	.loc 1 83 466 discriminator 1
	call	_ZN6Logger11getInstanceEv@PLT
	movq	%rax, %rbx
	.loc 1 83 472 discriminator 1
	movl	$14, %edi
	call	strerror@PLT
	movq	%rax, %rcx
	movl	$14, %edx
	leaq	.LC6(%rip), %rax
	movq	%rax, %rsi
	movq	%rbx, %rdi
	movl	$0, %eax
	call	_ZN6Logger3logEPKcz@PLT
	.loc 1 83 27 discriminator 1
	call	_ZN6Logger11getInstanceEv@PLT
	movq	%rax, %rdi
	.loc 1 83 33 discriminator 1
	movl	$83, %ecx
	leaq	.LC15(%rip), %rax
	movq	%rax, %rdx
	leaq	.LC8(%rip), %rax
	movq	%rax, %rsi
	movl	$0, %eax
	call	_ZN6Logger3logEPKcz@PLT
	.loc 1 83 91 discriminator 1
	leaq	.LC9(%rip), %rax
	movq	%rax, %rdi
	call	system@PLT
	.loc 1 83 114 discriminator 1
	movl	$-2, %eax
	jmp	.L43
.L42:
	.loc 1 85 14
	movq	-40(%rbp), %rax
	addq	$56, %rax
	movq	%rax, %rdx
	movq	%rdx, %rax
	shrq	$3, %rax
	addq	$2147450880, %rax
	movzbl	(%rax), %eax
	testb	%al, %al
	setne	%cl
	cmpb	$3, %al
	setle	%al
	andl	%ecx, %eax
	testb	%al, %al
	je	.L44
	movq	%rdx, %rdi
	call	__asan_report_load4@PLT
.L44:
	movq	-40(%rbp), %rax
	movl	56(%rax), %eax
	.loc 1 85 5
	cmpl	$1, %eax
	je	.L45
	.loc 1 87 17
	leaq	.LC15(%rip), %rax
	movq	%rax, %rsi
	leaq	.LC16(%rip), %rax
	movq	%rax, %rdi
	movl	$0, %eax
	call	printf@PLT
	.loc 1 87 45
	movq	-40(%rbp), %rax
	movq	%rax, %rsi
	leaq	.LC17(%rip), %rax
	movq	%rax, %rdi
	movl	$0, %eax
	call	printf@PLT
	.loc 1 87 102
	movl	$87, %edx
	leaq	.LC4(%rip), %rax
	movq	%rax, %rsi
	leaq	.LC18(%rip), %rax
	movq	%rax, %rdi
	movl	$0, %eax
	call	printf@PLT
	.loc 1 88 16
	movl	$-1, %eax
	jmp	.L43
.L45:
	.loc 1 91 52
	call	_ZN6Logger11getInstanceEv@PLT
	movq	%rax, %rdi
	.loc 1 91 87
	movq	-40(%rbp), %rax
	addq	$24, %rax
	movq	%rax, %rdx
	shrq	$3, %rdx
	addq	$2147450880, %rdx
	movzbl	(%rdx), %edx
	testb	%dl, %dl
	je	.L46
	movq	%rax, %rdi
	call	__asan_report_load8@PLT
.L46:
	movq	-40(%rbp), %rax
	movq	24(%rax), %rdx
	.loc 1 91 65
	movq	%rdx, %rax
	salq	$3, %rax
	subq	%rdx, %rax
	salq	$3, %rax
	movq	%rax, %rsi
	.loc 1 91 71
	movq	-40(%rbp), %rax
	addq	$8, %rax
	movq	%rax, %rdx
	shrq	$3, %rdx
	addq	$2147450880, %rdx
	movzbl	(%rdx), %edx
	testb	%dl, %dl
	je	.L47
	movq	%rax, %rdi
	call	__asan_report_load8@PLT
.L47:
	movq	-40(%rbp), %rax
	movq	8(%rax), %rax
	.loc 1 91 65
	movl	$91, %r9d
	leaq	.LC15(%rip), %r8
	leaq	.LC4(%rip), %rdx
	movq	%rdx, %rcx
	movq	%rsi, %rdx
	movq	%rax, %rsi
	call	_ZN6Logger9RECAL_LOGEPvmPKcS2_i@PLT
	movq	%rax, -32(%rbp)
	.loc 1 92 5
	cmpq	$0, -32(%rbp)
	jne	.L48
	.loc 1 93 16
	movl	$-1, %eax
	jmp	.L43
.L48:
	.loc 1 95 20
	movq	-40(%rbp), %rax
	addq	$8, %rax
	movq	%rax, %rdx
	shrq	$3, %rdx
	addq	$2147450880, %rdx
	movzbl	(%rdx), %edx
	testb	%dl, %dl
	je	.L49
	movq	%rax, %rdi
	call	__asan_report_store8@PLT
.L49:
	movq	-40(%rbp), %rax
	movq	-32(%rbp), %rdx
	movq	%rdx, 8(%rax)
	.loc 1 97 29
	call	_ZN6Logger11getInstanceEv@PLT
	movq	%rax, %rdi
	.loc 1 97 35
	movq	-40(%rbp), %rax
	addq	$48, %rax
	movq	%rax, %rdx
	shrq	$3, %rdx
	addq	$2147450880, %rdx
	movzbl	(%rdx), %edx
	testb	%dl, %dl
	je	.L50
	movq	%rax, %rdi
	call	__asan_report_load8@PLT
.L50:
	movq	-40(%rbp), %rax
	movq	48(%rax), %rax
	movq	%rax, %rcx
	leaq	.LC19(%rip), %rax
	movq	%rax, %rdx
	leaq	.LC20(%rip), %rax
	movq	%rax, %rsi
	movl	$0, %eax
	call	_ZN6Logger3logEPKcz@PLT
	.loc 1 99 15
	movq	-40(%rbp), %rax
	addq	$48, %rax
	movq	%rax, %rdx
	shrq	$3, %rdx
	addq	$2147450880, %rdx
	movzbl	(%rdx), %edx
	testb	%dl, %dl
	je	.L51
	movq	%rax, %rdi
	call	__asan_report_load8@PLT
.L51:
	movq	-40(%rbp), %rax
	movq	48(%rax), %rax
	.loc 1 99 5
	testq	%rax, %rax
	jne	.L52
	.loc 1 101 15
	leaq	.LC21(%rip), %rax
	movq	%rax, %rdi
	call	puts@PLT
	.loc 1 103 16
	movl	$0, %eax
	jmp	.L43
.L52:
	.loc 1 106 65
	call	_ZN6Logger11getInstanceEv@PLT
	movq	%rax, %rdi
	.loc 1 106 101
	movq	-40(%rbp), %rax
	addq	$48, %rax
	movq	%rax, %rdx
	shrq	$3, %rdx
	addq	$2147450880, %rdx
	movzbl	(%rdx), %edx
	testb	%dl, %dl
	je	.L53
	movq	%rax, %rdi
	call	__asan_report_load8@PLT
.L53:
	movq	-40(%rbp), %rax
	movq	48(%rax), %rax
	.loc 1 106 78
	leaq	0(,%rax,8), %rdx
	.loc 1 106 84
	movq	-40(%rbp), %rax
	addq	$32, %rax
	movq	%rax, %rcx
	shrq	$3, %rcx
	addq	$2147450880, %rcx
	movzbl	(%rcx), %ecx
	testb	%cl, %cl
	je	.L54
	movq	%rax, %rdi
	call	__asan_report_load8@PLT
.L54:
	movq	-40(%rbp), %rax
	movq	32(%rax), %rax
	.loc 1 106 78
	movl	$106, %r9d
	leaq	.LC15(%rip), %r8
	leaq	.LC4(%rip), %rcx
	movq	%rax, %rsi
	call	_ZN6Logger9RECAL_LOGEPvmPKcS2_i@PLT
	movq	%rax, -24(%rbp)
	.loc 1 107 5
	cmpq	$0, -24(%rbp)
	jne	.L55
	.loc 1 108 16
	movl	$-1, %eax
	jmp	.L43
.L55:
	.loc 1 110 21
	movq	-40(%rbp), %rax
	addq	$32, %rax
	movq	%rax, %rdx
	shrq	$3, %rdx
	addq	$2147450880, %rdx
	movzbl	(%rdx), %edx
	testb	%dl, %dl
	je	.L56
	movq	%rax, %rdi
	call	__asan_report_store8@PLT
.L56:
	movq	-40(%rbp), %rax
	movq	-24(%rbp), %rdx
	movq	%rdx, 32(%rax)
	.loc 1 112 12
	movl	$0, %eax
.L43:
	.loc 1 113 5
	movq	-8(%rbp), %rbx
	leave
	.cfi_def_cfa 7, 8
	ret
	.cfi_endproc
.LFE2272:
	.size	_Z17LexicalCtxReallocP10LexicalCtx, .-_Z17LexicalCtxReallocP10LexicalCtx
	.section	.rodata
	.align 32
.LC22:
	.string	"Token* GetToken(LexicalCtx*)"
	.zero	35
	.align 32
.LC23:
	.string	"GetToken"
	.zero	55
	.align 32
.LC24:
	.string	"No free tokens, realloc isn't allowed (number of tokens = %zu)\n"
	.zero	32
	.text
	.globl	_Z8GetTokenP10LexicalCtx
	.type	_Z8GetTokenP10LexicalCtx, @function
_Z8GetTokenP10LexicalCtx:
.LASANPC2273:
.LFB2273:
	.loc 1 116 5
	.cfi_startproc
	endbr64
	pushq	%rbp
	.cfi_def_cfa_offset 16
	.cfi_offset 6, -16
	movq	%rsp, %rbp
	.cfi_def_cfa_register 6
	pushq	%rbx
	subq	$40, %rsp
	.cfi_offset 3, -24
	movq	%rdi, -40(%rbp)
	.loc 1 117 10
	cmpq	$0, -40(%rbp)
	jne	.L58
	.loc 1 117 43 discriminator 1
	call	_ZN6Logger11getInstanceEv@PLT
	movq	%rax, %rcx
	.loc 1 117 49 discriminator 1
	leaq	.LC0(%rip), %rax
	movq	%rax, %rdx
	leaq	.LC1(%rip), %rax
	movq	%rax, %rsi
	movq	%rcx, %rdi
	movl	$0, %eax
	call	_ZN6Logger3logEPKcz@PLT
	.loc 1 117 105 discriminator 1
	leaq	.LC0(%rip), %rax
	movq	%rax, %rsi
	leaq	.LC2(%rip), %rax
	movq	%rax, %rdi
	movl	$0, %eax
	call	printf@PLT
	.loc 1 117 249 discriminator 1
	call	_ZN6Logger11getInstanceEv@PLT
	movq	%rax, %rdi
	.loc 1 117 255 discriminator 1
	leaq	.LC22(%rip), %r8
	movl	$117, %ecx
	leaq	.LC4(%rip), %rax
	movq	%rax, %rdx
	leaq	.LC5(%rip), %rax
	movq	%rax, %rsi
	movl	$0, %eax
	call	_ZN6Logger3logEPKcz@PLT
	.loc 1 117 355 discriminator 1
	leaq	.LC22(%rip), %rax
	movq	%rax, %rcx
	movl	$117, %edx
	leaq	.LC4(%rip), %rax
	movq	%rax, %rsi
	leaq	.LC5(%rip), %rax
	movq	%rax, %rdi
	movl	$0, %eax
	call	printf@PLT
	.loc 1 117 468 discriminator 1
	call	_ZN6Logger11getInstanceEv@PLT
	movq	%rax, %rbx
	.loc 1 117 474 discriminator 1
	movl	$14, %edi
	call	strerror@PLT
	movq	%rax, %rcx
	movl	$14, %edx
	leaq	.LC6(%rip), %rax
	movq	%rax, %rsi
	movq	%rbx, %rdi
	movl	$0, %eax
	call	_ZN6Logger3logEPKcz@PLT
	.loc 1 117 27 discriminator 1
	call	_ZN6Logger11getInstanceEv@PLT
	movq	%rax, %rdi
	.loc 1 117 33 discriminator 1
	movl	$117, %ecx
	leaq	.LC23(%rip), %rax
	movq	%rax, %rdx
	leaq	.LC8(%rip), %rax
	movq	%rax, %rsi
	movl	$0, %eax
	call	_ZN6Logger3logEPKcz@PLT
	.loc 1 117 92 discriminator 1
	leaq	.LC9(%rip), %rax
	movq	%rax, %rdi
	call	system@PLT
	.loc 1 117 4 discriminator 1
	movl	$0, %eax
	jmp	.L59
.L58:
.LBB2:
	.loc 1 120 14
	movq	-40(%rbp), %rax
	addq	$24, %rax
	movq	%rax, %rdx
	shrq	$3, %rdx
	addq	$2147450880, %rdx
	movzbl	(%rdx), %edx
	testb	%dl, %dl
	je	.L60
	movq	%rax, %rdi
	call	__asan_report_load8@PLT
.L60:
	movq	-40(%rbp), %rax
	movq	24(%rax), %rcx
	.loc 1 120 39
	movq	-40(%rbp), %rax
	addq	$16, %rax
	movq	%rax, %rdx
	shrq	$3, %rdx
	addq	$2147450880, %rdx
	movzbl	(%rdx), %edx
	testb	%dl, %dl
	je	.L61
	movq	%rax, %rdi
	call	__asan_report_load8@PLT
.L61:
	movq	-40(%rbp), %rax
	movq	16(%rax), %rax
	.loc 1 120 5
	cmpq	%rax, %rcx
	jne	.L62
.LBB3:
	.loc 1 123 18
	movq	-40(%rbp), %rax
	addq	$56, %rax
	movq	%rax, %rdx
	movq	%rdx, %rax
	shrq	$3, %rax
	addq	$2147450880, %rax
	movzbl	(%rax), %eax
	testb	%al, %al
	setne	%cl
	cmpb	$3, %al
	setle	%al
	andl	%ecx, %eax
	testb	%al, %al
	je	.L63
	movq	%rdx, %rdi
	call	__asan_report_load4@PLT
.L63:
	movq	-40(%rbp), %rax
	movl	56(%rax), %eax
	.loc 1 123 9
	cmpl	$1, %eax
	je	.L64
	.loc 1 125 21
	leaq	.LC23(%rip), %rax
	movq	%rax, %rsi
	leaq	.LC16(%rip), %rax
	movq	%rax, %rdi
	movl	$0, %eax
	call	printf@PLT
	.loc 1 125 49
	movq	-40(%rbp), %rax
	addq	$24, %rax
	movq	%rax, %rdx
	shrq	$3, %rdx
	addq	$2147450880, %rdx
	movzbl	(%rdx), %edx
	testb	%dl, %dl
	je	.L65
	movq	%rax, %rdi
	call	__asan_report_load8@PLT
.L65:
	movq	-40(%rbp), %rax
	movq	24(%rax), %rax
	movq	%rax, %rsi
	leaq	.LC24(%rip), %rax
	movq	%rax, %rdi
	movl	$0, %eax
	call	printf@PLT
	.loc 1 125 148
	movl	$125, %edx
	leaq	.LC4(%rip), %rax
	movq	%rax, %rsi
	leaq	.LC18(%rip), %rax
	movq	%rax, %rdi
	movl	$0, %eax
	call	printf@PLT
	.loc 1 126 19
	movl	$0, %eax
	jmp	.L59
.L64:
	.loc 1 129 29
	movq	-40(%rbp), %rax
	addq	$16, %rax
	movq	%rax, %rdx
	shrq	$3, %rdx
	addq	$2147450880, %rdx
	movzbl	(%rdx), %edx
	testb	%dl, %dl
	je	.L66
	movq	%rax, %rdi
	call	__asan_report_load8@PLT
.L66:
	movq	-40(%rbp), %rax
	movq	16(%rax), %rax
	leaq	(%rax,%rax), %rdx
	movq	-40(%rbp), %rax
	movq	%rdx, 16(%rax)
	.loc 1 130 51
	call	_ZN6Logger11getInstanceEv@PLT
	movq	%rax, %rdi
	.loc 1 130 86
	movq	-40(%rbp), %rax
	addq	$16, %rax
	movq	%rax, %rdx
	shrq	$3, %rdx
	addq	$2147450880, %rdx
	movzbl	(%rdx), %edx
	testb	%dl, %dl
	je	.L67
	movq	%rax, %rdi
	call	__asan_report_load8@PLT
.L67:
	movq	-40(%rbp), %rax
	movq	16(%rax), %rdx
	.loc 1 130 64
	movq	%rdx, %rax
	salq	$3, %rax
	subq	%rdx, %rax
	salq	$3, %rax
	movq	%rax, %rsi
	.loc 1 130 70
	movq	-40(%rbp), %rax
	addq	$8, %rax
	movq	%rax, %rdx
	shrq	$3, %rdx
	addq	$2147450880, %rdx
	movzbl	(%rdx), %edx
	testb	%dl, %dl
	je	.L68
	movq	%rax, %rdi
	call	__asan_report_load8@PLT
.L68:
	movq	-40(%rbp), %rax
	movq	8(%rax), %rax
	.loc 1 130 64
	movl	$130, %r9d
	leaq	.LC23(%rip), %r8
	leaq	.LC4(%rip), %rdx
	movq	%rdx, %rcx
	movq	%rsi, %rdx
	movq	%rax, %rsi
	call	_ZN6Logger9RECAL_LOGEPvmPKcS2_i@PLT
	movq	%rax, -24(%rbp)
	.loc 1 131 9
	cmpq	$0, -24(%rbp)
	jne	.L69
	.loc 1 132 19
	movl	$0, %eax
	jmp	.L59
.L69:
	.loc 1 134 24
	movq	-40(%rbp), %rax
	addq	$8, %rax
	movq	%rax, %rdx
	shrq	$3, %rdx
	addq	$2147450880, %rdx
	movzbl	(%rdx), %edx
	testb	%dl, %dl
	je	.L70
	movq	%rax, %rdi
	call	__asan_report_store8@PLT
.L70:
	movq	-40(%rbp), %rax
	movq	-24(%rbp), %rdx
	movq	%rdx, 8(%rax)
.L62:
.LBE3:
.LBE2:
	.loc 1 137 17
	movq	-40(%rbp), %rax
	addq	$8, %rax
	movq	%rax, %rdx
	shrq	$3, %rdx
	addq	$2147450880, %rdx
	movzbl	(%rdx), %edx
	testb	%dl, %dl
	je	.L71
	movq	%rax, %rdi
	call	__asan_report_load8@PLT
.L71:
	movq	-40(%rbp), %rax
	movq	8(%rax), %rsi
	.loc 1 137 34
	movq	-40(%rbp), %rax
	addq	$24, %rax
	movq	%rax, %rdx
	shrq	$3, %rdx
	addq	$2147450880, %rdx
	movzbl	(%rdx), %edx
	testb	%dl, %dl
	je	.L72
	movq	%rax, %rdi
	call	__asan_report_load8@PLT
.L72:
	movq	-40(%rbp), %rax
	movq	24(%rax), %rdx
	.loc 1 137 50
	leaq	1(%rdx), %rcx
	movq	-40(%rbp), %rax
	movq	%rcx, 24(%rax)
	.loc 1 137 27
	movq	%rdx, %rax
	salq	$3, %rax
	subq	%rdx, %rax
	salq	$3, %rax
	.loc 1 137 50
	addq	%rsi, %rax
.L59:
	.loc 1 138 5
	movq	-8(%rbp), %rbx
	leave
	.cfi_def_cfa 7, 8
	ret
	.cfi_endproc
.LFE2273:
	.size	_Z8GetTokenP10LexicalCtx, .-_Z8GetTokenP10LexicalCtx
	.section	.rodata
	.align 32
.LC25:
	.string	"int UnGetToken(LexicalCtx*)"
	.zero	36
	.align 32
.LC26:
	.string	"UnGetToken"
	.zero	53
	.text
	.globl	_Z10UnGetTokenP10LexicalCtx
	.type	_Z10UnGetTokenP10LexicalCtx, @function
_Z10UnGetTokenP10LexicalCtx:
.LASANPC2274:
.LFB2274:
	.loc 1 141 5
	.cfi_startproc
	endbr64
	pushq	%rbp
	.cfi_def_cfa_offset 16
	.cfi_offset 6, -16
	movq	%rsp, %rbp
	.cfi_def_cfa_register 6
	pushq	%rbx
	subq	$24, %rsp
	.cfi_offset 3, -24
	movq	%rdi, -24(%rbp)
	.loc 1 142 10
	cmpq	$0, -24(%rbp)
	jne	.L74
	.loc 1 142 43 discriminator 1
	call	_ZN6Logger11getInstanceEv@PLT
	movq	%rax, %rcx
	.loc 1 142 49 discriminator 1
	leaq	.LC0(%rip), %rax
	movq	%rax, %rdx
	leaq	.LC1(%rip), %rax
	movq	%rax, %rsi
	movq	%rcx, %rdi
	movl	$0, %eax
	call	_ZN6Logger3logEPKcz@PLT
	.loc 1 142 105 discriminator 1
	leaq	.LC0(%rip), %rax
	movq	%rax, %rsi
	leaq	.LC2(%rip), %rax
	movq	%rax, %rdi
	movl	$0, %eax
	call	printf@PLT
	.loc 1 142 249 discriminator 1
	call	_ZN6Logger11getInstanceEv@PLT
	movq	%rax, %rdi
	.loc 1 142 255 discriminator 1
	leaq	.LC25(%rip), %r8
	movl	$142, %ecx
	leaq	.LC4(%rip), %rax
	movq	%rax, %rdx
	leaq	.LC5(%rip), %rax
	movq	%rax, %rsi
	movl	$0, %eax
	call	_ZN6Logger3logEPKcz@PLT
	.loc 1 142 355 discriminator 1
	leaq	.LC25(%rip), %rax
	movq	%rax, %rcx
	movl	$142, %edx
	leaq	.LC4(%rip), %rax
	movq	%rax, %rsi
	leaq	.LC5(%rip), %rax
	movq	%rax, %rdi
	movl	$0, %eax
	call	printf@PLT
	.loc 1 142 468 discriminator 1
	call	_ZN6Logger11getInstanceEv@PLT
	movq	%rax, %rbx
	.loc 1 142 474 discriminator 1
	movl	$14, %edi
	call	strerror@PLT
	movq	%rax, %rcx
	movl	$14, %edx
	leaq	.LC6(%rip), %rax
	movq	%rax, %rsi
	movq	%rbx, %rdi
	movl	$0, %eax
	call	_ZN6Logger3logEPKcz@PLT
	.loc 1 142 27 discriminator 1
	call	_ZN6Logger11getInstanceEv@PLT
	movq	%rax, %rdi
	.loc 1 142 33 discriminator 1
	movl	$142, %ecx
	leaq	.LC26(%rip), %rax
	movq	%rax, %rdx
	leaq	.LC8(%rip), %rax
	movq	%rax, %rsi
	movl	$0, %eax
	call	_ZN6Logger3logEPKcz@PLT
	.loc 1 142 92 discriminator 1
	leaq	.LC9(%rip), %rax
	movq	%rax, %rdi
	call	system@PLT
	.loc 1 142 115 discriminator 1
	movl	$-2, %eax
	jmp	.L75
.L74:
	.loc 1 144 14
	movq	-24(%rbp), %rax
	addq	$24, %rax
	movq	%rax, %rdx
	shrq	$3, %rdx
	addq	$2147450880, %rdx
	movzbl	(%rdx), %edx
	testb	%dl, %dl
	je	.L76
	movq	%rax, %rdi
	call	__asan_report_load8@PLT
.L76:
	movq	-24(%rbp), %rax
	movq	24(%rax), %rax
	.loc 1 144 5
	cmpq	$1, %rax
	jbe	.L77
	.loc 1 145 14
	movq	-24(%rbp), %rax
	movq	24(%rax), %rax
	.loc 1 145 30
	leaq	-1(%rax), %rdx
	movq	-24(%rbp), %rax
	movq	%rdx, 24(%rax)
	.loc 1 149 12
	movl	$0, %eax
	jmp	.L75
.L77:
	.loc 1 147 16
	movl	$-1, %eax
.L75:
	.loc 1 150 5
	movq	-8(%rbp), %rbx
	leave
	.cfi_def_cfa 7, 8
	ret
	.cfi_endproc
.LFE2274:
	.size	_Z10UnGetTokenP10LexicalCtx, .-_Z10UnGetTokenP10LexicalCtx
	.section	.rodata
	.align 32
.LC27:
	.string	"str"
	.zero	60
	.align 32
.LC28:
	.string	"int IsName(const char*, LexicalCtx*)"
	.zero	59
	.align 32
.LC29:
	.string	"IsName"
	.zero	57
	.text
	.globl	_Z6IsNamePKcP10LexicalCtx
	.type	_Z6IsNamePKcP10LexicalCtx, @function
_Z6IsNamePKcP10LexicalCtx:
.LASANPC2275:
.LFB2275:
	.loc 1 153 5
	.cfi_startproc
	endbr64
	pushq	%rbp
	.cfi_def_cfa_offset 16
	.cfi_offset 6, -16
	movq	%rsp, %rbp
	.cfi_def_cfa_register 6
	pushq	%rbx
	subq	$40, %rsp
	.cfi_offset 3, -24
	movq	%rdi, -40(%rbp)
	movq	%rsi, -48(%rbp)
	.loc 1 154 10
	cmpq	$0, -40(%rbp)
	jne	.L80
	.loc 1 154 43 discriminator 1
	call	_ZN6Logger11getInstanceEv@PLT
	movq	%rax, %rcx
	.loc 1 154 49 discriminator 1
	leaq	.LC27(%rip), %rax
	movq	%rax, %rdx
	leaq	.LC1(%rip), %rax
	movq	%rax, %rsi
	movq	%rcx, %rdi
	movl	$0, %eax
	call	_ZN6Logger3logEPKcz@PLT
	.loc 1 154 105 discriminator 1
	leaq	.LC27(%rip), %rax
	movq	%rax, %rsi
	leaq	.LC2(%rip), %rax
	movq	%rax, %rdi
	movl	$0, %eax
	call	printf@PLT
	.loc 1 154 249 discriminator 1
	call	_ZN6Logger11getInstanceEv@PLT
	movq	%rax, %rdi
	.loc 1 154 255 discriminator 1
	leaq	.LC28(%rip), %r8
	movl	$154, %ecx
	leaq	.LC4(%rip), %rax
	movq	%rax, %rdx
	leaq	.LC5(%rip), %rax
	movq	%rax, %rsi
	movl	$0, %eax
	call	_ZN6Logger3logEPKcz@PLT
	.loc 1 154 355 discriminator 1
	leaq	.LC28(%rip), %rax
	movq	%rax, %rcx
	movl	$154, %edx
	leaq	.LC4(%rip), %rax
	movq	%rax, %rsi
	leaq	.LC5(%rip), %rax
	movq	%rax, %rdi
	movl	$0, %eax
	call	printf@PLT
	.loc 1 154 468 discriminator 1
	call	_ZN6Logger11getInstanceEv@PLT
	movq	%rax, %rbx
	.loc 1 154 474 discriminator 1
	movl	$14, %edi
	call	strerror@PLT
	movq	%rax, %rcx
	movl	$14, %edx
	leaq	.LC6(%rip), %rax
	movq	%rax, %rsi
	movq	%rbx, %rdi
	movl	$0, %eax
	call	_ZN6Logger3logEPKcz@PLT
	.loc 1 154 27 discriminator 1
	call	_ZN6Logger11getInstanceEv@PLT
	movq	%rax, %rdi
	.loc 1 154 33 discriminator 1
	movl	$154, %ecx
	leaq	.LC29(%rip), %rax
	movq	%rax, %rdx
	leaq	.LC8(%rip), %rax
	movq	%rax, %rsi
	movl	$0, %eax
	call	_ZN6Logger3logEPKcz@PLT
	.loc 1 154 92 discriminator 1
	leaq	.LC9(%rip), %rax
	movq	%rax, %rdi
	call	system@PLT
	.loc 1 154 115 discriminator 1
	movl	$-555, %eax
	jmp	.L81
.L80:
	.loc 1 155 10
	cmpq	$0, -48(%rbp)
	jne	.L82
	.loc 1 155 43 discriminator 1
	call	_ZN6Logger11getInstanceEv@PLT
	movq	%rax, %rcx
	.loc 1 155 49 discriminator 1
	leaq	.LC0(%rip), %rax
	movq	%rax, %rdx
	leaq	.LC1(%rip), %rax
	movq	%rax, %rsi
	movq	%rcx, %rdi
	movl	$0, %eax
	call	_ZN6Logger3logEPKcz@PLT
	.loc 1 155 105 discriminator 1
	leaq	.LC0(%rip), %rax
	movq	%rax, %rsi
	leaq	.LC2(%rip), %rax
	movq	%rax, %rdi
	movl	$0, %eax
	call	printf@PLT
	.loc 1 155 249 discriminator 1
	call	_ZN6Logger11getInstanceEv@PLT
	movq	%rax, %rdi
	.loc 1 155 255 discriminator 1
	leaq	.LC28(%rip), %r8
	movl	$155, %ecx
	leaq	.LC4(%rip), %rax
	movq	%rax, %rdx
	leaq	.LC5(%rip), %rax
	movq	%rax, %rsi
	movl	$0, %eax
	call	_ZN6Logger3logEPKcz@PLT
	.loc 1 155 355 discriminator 1
	leaq	.LC28(%rip), %rax
	movq	%rax, %rcx
	movl	$155, %edx
	leaq	.LC4(%rip), %rax
	movq	%rax, %rsi
	leaq	.LC5(%rip), %rax
	movq	%rax, %rdi
	movl	$0, %eax
	call	printf@PLT
	.loc 1 155 468 discriminator 1
	call	_ZN6Logger11getInstanceEv@PLT
	movq	%rax, %rbx
	.loc 1 155 474 discriminator 1
	movl	$14, %edi
	call	strerror@PLT
	movq	%rax, %rcx
	movl	$14, %edx
	leaq	.LC6(%rip), %rax
	movq	%rax, %rsi
	movq	%rbx, %rdi
	movl	$0, %eax
	call	_ZN6Logger3logEPKcz@PLT
	.loc 1 155 27 discriminator 1
	call	_ZN6Logger11getInstanceEv@PLT
	movq	%rax, %rdi
	.loc 1 155 33 discriminator 1
	movl	$155, %ecx
	leaq	.LC29(%rip), %rax
	movq	%rax, %rdx
	leaq	.LC8(%rip), %rax
	movq	%rax, %rsi
	movl	$0, %eax
	call	_ZN6Logger3logEPKcz@PLT
	.loc 1 155 92 discriminator 1
	leaq	.LC9(%rip), %rax
	movq	%rax, %rdi
	call	system@PLT
	.loc 1 155 115 discriminator 1
	movl	$-555, %eax
	jmp	.L81
.L82:
.LBB4:
	.loc 1 157 17
	movq	$0, -24(%rbp)
	.loc 1 157 5
	jmp	.L83
.L88:
	.loc 1 158 33
	movq	-48(%rbp), %rax
	addq	$32, %rax
	movq	%rax, %rdx
	shrq	$3, %rdx
	addq	$2147450880, %rdx
	movzbl	(%rdx), %edx
	testb	%dl, %dl
	je	.L84
	movq	%rax, %rdi
	call	__asan_report_load8@PLT
.L84:
	movq	-48(%rbp), %rax
	movq	32(%rax), %rdx
	.loc 1 158 44
	movq	-24(%rbp), %rax
	salq	$3, %rax
	addq	%rdx, %rax
	.loc 1 158 20
	movq	%rax, %rdx
	movq	%rdx, %rcx
	shrq	$3, %rcx
	addq	$2147450880, %rcx
	movzbl	(%rcx), %ecx
	testb	%cl, %cl
	je	.L85
	movq	%rdx, %rdi
	call	__asan_report_load8@PLT
.L85:
	movq	(%rax), %rdx
	movq	-40(%rbp), %rax
	movq	%rdx, %rsi
	movq	%rax, %rdi
	call	strcmp@PLT
	.loc 1 158 9
	testl	%eax, %eax
	jne	.L86
	.loc 1 159 26
	movq	-24(%rbp), %rax
	jmp	.L81
.L86:
	.loc 1 157 5 discriminator 2
	addq	$1, -24(%rbp)
.L83:
	.loc 1 157 33 discriminator 1
	movq	-48(%rbp), %rax
	addq	$48, %rax
	movq	%rax, %rdx
	shrq	$3, %rdx
	addq	$2147450880, %rdx
	movzbl	(%rdx), %edx
	testb	%dl, %dl
	je	.L87
	.loc 1 157 33 is_stmt 0
	movq	%rax, %rdi
	call	__asan_report_load8@PLT
.L87:
	.loc 1 157 33 discriminator 1
	movq	-48(%rbp), %rax
	movq	48(%rax), %rax
	.loc 1 157 26 is_stmt 1 discriminator 1
	cmpq	%rax, -24(%rbp)
	jb	.L88
.LBE4:
	.loc 1 161 12
	movl	$-555, %eax
.L81:
	.loc 1 162 5
	movq	-8(%rbp), %rbx
	leave
	.cfi_def_cfa 7, 8
	ret
	.cfi_endproc
.LFE2275:
	.size	_Z6IsNamePKcP10LexicalCtx, .-_Z6IsNamePKcP10LexicalCtx
	.section	.rodata
	.align 32
.LC30:
	.string	"int AddString(LexicalCtx*, Token*)"
	.zero	61
	.align 32
.LC31:
	.string	"AddString"
	.zero	54
	.text
	.globl	_Z9AddStringP10LexicalCtxP5Token
	.type	_Z9AddStringP10LexicalCtxP5Token, @function
_Z9AddStringP10LexicalCtxP5Token:
.LASANPC2276:
.LFB2276:
	.loc 1 165 5
	.cfi_startproc
	endbr64
	pushq	%rbp
	.cfi_def_cfa_offset 16
	.cfi_offset 6, -16
	movq	%rsp, %rbp
	.cfi_def_cfa_register 6
	pushq	%rbx
	subq	$40, %rsp
	.cfi_offset 3, -24
	movq	%rdi, -40(%rbp)
	movq	%rsi, -48(%rbp)
	.loc 1 166 10
	cmpq	$0, -40(%rbp)
	jne	.L90
	.loc 1 166 43 discriminator 1
	call	_ZN6Logger11getInstanceEv@PLT
	movq	%rax, %rcx
	.loc 1 166 49 discriminator 1
	leaq	.LC0(%rip), %rax
	movq	%rax, %rdx
	leaq	.LC1(%rip), %rax
	movq	%rax, %rsi
	movq	%rcx, %rdi
	movl	$0, %eax
	call	_ZN6Logger3logEPKcz@PLT
	.loc 1 166 105 discriminator 1
	leaq	.LC0(%rip), %rax
	movq	%rax, %rsi
	leaq	.LC2(%rip), %rax
	movq	%rax, %rdi
	movl	$0, %eax
	call	printf@PLT
	.loc 1 166 249 discriminator 1
	call	_ZN6Logger11getInstanceEv@PLT
	movq	%rax, %rdi
	.loc 1 166 255 discriminator 1
	leaq	.LC30(%rip), %r8
	movl	$166, %ecx
	leaq	.LC4(%rip), %rax
	movq	%rax, %rdx
	leaq	.LC5(%rip), %rax
	movq	%rax, %rsi
	movl	$0, %eax
	call	_ZN6Logger3logEPKcz@PLT
	.loc 1 166 355 discriminator 1
	leaq	.LC30(%rip), %rax
	movq	%rax, %rcx
	movl	$166, %edx
	leaq	.LC4(%rip), %rax
	movq	%rax, %rsi
	leaq	.LC5(%rip), %rax
	movq	%rax, %rdi
	movl	$0, %eax
	call	printf@PLT
	.loc 1 166 468 discriminator 1
	call	_ZN6Logger11getInstanceEv@PLT
	movq	%rax, %rbx
	.loc 1 166 474 discriminator 1
	movl	$14, %edi
	call	strerror@PLT
	movq	%rax, %rcx
	movl	$14, %edx
	leaq	.LC6(%rip), %rax
	movq	%rax, %rsi
	movq	%rbx, %rdi
	movl	$0, %eax
	call	_ZN6Logger3logEPKcz@PLT
	.loc 1 166 27 discriminator 1
	call	_ZN6Logger11getInstanceEv@PLT
	movq	%rax, %rdi
	.loc 1 166 33 discriminator 1
	movl	$166, %ecx
	leaq	.LC31(%rip), %rax
	movq	%rax, %rdx
	leaq	.LC8(%rip), %rax
	movq	%rax, %rsi
	movl	$0, %eax
	call	_ZN6Logger3logEPKcz@PLT
	.loc 1 166 92 discriminator 1
	leaq	.LC9(%rip), %rax
	movq	%rax, %rdi
	call	system@PLT
	.loc 1 166 115 discriminator 1
	movl	$-2, %eax
	jmp	.L91
.L90:
	.loc 1 167 10
	cmpq	$0, -40(%rbp)
	jne	.L92
	.loc 1 167 43 discriminator 1
	call	_ZN6Logger11getInstanceEv@PLT
	movq	%rax, %rcx
	.loc 1 167 49 discriminator 1
	leaq	.LC0(%rip), %rax
	movq	%rax, %rdx
	leaq	.LC1(%rip), %rax
	movq	%rax, %rsi
	movq	%rcx, %rdi
	movl	$0, %eax
	call	_ZN6Logger3logEPKcz@PLT
	.loc 1 167 105 discriminator 1
	leaq	.LC0(%rip), %rax
	movq	%rax, %rsi
	leaq	.LC2(%rip), %rax
	movq	%rax, %rdi
	movl	$0, %eax
	call	printf@PLT
	.loc 1 167 249 discriminator 1
	call	_ZN6Logger11getInstanceEv@PLT
	movq	%rax, %rdi
	.loc 1 167 255 discriminator 1
	leaq	.LC30(%rip), %r8
	movl	$167, %ecx
	leaq	.LC4(%rip), %rax
	movq	%rax, %rdx
	leaq	.LC5(%rip), %rax
	movq	%rax, %rsi
	movl	$0, %eax
	call	_ZN6Logger3logEPKcz@PLT
	.loc 1 167 355 discriminator 1
	leaq	.LC30(%rip), %rax
	movq	%rax, %rcx
	movl	$167, %edx
	leaq	.LC4(%rip), %rax
	movq	%rax, %rsi
	leaq	.LC5(%rip), %rax
	movq	%rax, %rdi
	movl	$0, %eax
	call	printf@PLT
	.loc 1 167 468 discriminator 1
	call	_ZN6Logger11getInstanceEv@PLT
	movq	%rax, %rbx
	.loc 1 167 474 discriminator 1
	movl	$14, %edi
	call	strerror@PLT
	movq	%rax, %rcx
	movl	$14, %edx
	leaq	.LC6(%rip), %rax
	movq	%rax, %rsi
	movq	%rbx, %rdi
	movl	$0, %eax
	call	_ZN6Logger3logEPKcz@PLT
	.loc 1 167 27 discriminator 1
	call	_ZN6Logger11getInstanceEv@PLT
	movq	%rax, %rdi
	.loc 1 167 33 discriminator 1
	movl	$167, %ecx
	leaq	.LC31(%rip), %rax
	movq	%rax, %rdx
	leaq	.LC8(%rip), %rax
	movq	%rax, %rsi
	movl	$0, %eax
	call	_ZN6Logger3logEPKcz@PLT
	.loc 1 167 92 discriminator 1
	leaq	.LC9(%rip), %rax
	movq	%rax, %rdi
	call	system@PLT
	.loc 1 167 115 discriminator 1
	movl	$-2, %eax
	jmp	.L91
.L92:
.LBB5:
	.loc 1 169 14
	movq	-40(%rbp), %rax
	addq	$48, %rax
	movq	%rax, %rdx
	shrq	$3, %rdx
	addq	$2147450880, %rdx
	movzbl	(%rdx), %edx
	testb	%dl, %dl
	je	.L93
	movq	%rax, %rdi
	call	__asan_report_load8@PLT
.L93:
	movq	-40(%rbp), %rax
	movq	48(%rax), %rcx
	.loc 1 169 40
	movq	-40(%rbp), %rax
	addq	$40, %rax
	movq	%rax, %rdx
	shrq	$3, %rdx
	addq	$2147450880, %rdx
	movzbl	(%rdx), %edx
	testb	%dl, %dl
	je	.L94
	movq	%rax, %rdi
	call	__asan_report_load8@PLT
.L94:
	movq	-40(%rbp), %rax
	movq	40(%rax), %rax
	.loc 1 169 5
	cmpq	%rax, %rcx
	jne	.L95
.LBB6:
	.loc 1 171 30
	movq	-40(%rbp), %rax
	movq	40(%rax), %rax
	leaq	(%rax,%rax), %rdx
	movq	-40(%rbp), %rax
	movq	%rdx, 40(%rax)
	.loc 1 172 62
	call	_ZN6Logger11getInstanceEv@PLT
	movq	%rax, %rdi
	.loc 1 172 98
	movq	-40(%rbp), %rax
	addq	$40, %rax
	movq	%rax, %rdx
	shrq	$3, %rdx
	addq	$2147450880, %rdx
	movzbl	(%rdx), %edx
	testb	%dl, %dl
	je	.L96
	movq	%rax, %rdi
	call	__asan_report_load8@PLT
.L96:
	movq	-40(%rbp), %rax
	movq	40(%rax), %rax
	.loc 1 172 75
	leaq	0(,%rax,8), %rdx
	.loc 1 172 81
	movq	-40(%rbp), %rax
	addq	$32, %rax
	movq	%rax, %rcx
	shrq	$3, %rcx
	addq	$2147450880, %rcx
	movzbl	(%rcx), %ecx
	testb	%cl, %cl
	je	.L97
	movq	%rax, %rdi
	call	__asan_report_load8@PLT
.L97:
	movq	-40(%rbp), %rax
	movq	32(%rax), %rax
	.loc 1 172 75
	movl	$172, %r9d
	leaq	.LC31(%rip), %r8
	leaq	.LC4(%rip), %rcx
	movq	%rax, %rsi
	call	_ZN6Logger9RECAL_LOGEPvmPKcS2_i@PLT
	movq	%rax, -24(%rbp)
	.loc 1 173 9
	cmpq	$0, -24(%rbp)
	jne	.L98
	.loc 1 174 20
	movl	$-1, %eax
	jmp	.L91
.L98:
	.loc 1 176 25
	movq	-40(%rbp), %rax
	addq	$32, %rax
	movq	%rax, %rdx
	shrq	$3, %rdx
	addq	$2147450880, %rdx
	movzbl	(%rdx), %edx
	testb	%dl, %dl
	je	.L99
	movq	%rax, %rdi
	call	__asan_report_store8@PLT
.L99:
	movq	-40(%rbp), %rax
	movq	-24(%rbp), %rdx
	movq	%rdx, 32(%rax)
.L95:
.LBE6:
.LBE5:
	.loc 1 180 71
	movq	-48(%rbp), %rax
	addq	$24, %rax
	movq	%rax, %rdx
	shrq	$3, %rdx
	addq	$2147450880, %rdx
	movzbl	(%rdx), %edx
	testb	%dl, %dl
	je	.L100
	movq	%rax, %rdi
	call	__asan_report_load8@PLT
.L100:
	movq	-48(%rbp), %rax
	movq	24(%rax), %rax
	.loc 1 180 12
	movq	-40(%rbp), %rdx
	addq	$32, %rdx
	movq	%rdx, %rcx
	shrq	$3, %rcx
	addq	$2147450880, %rcx
	movzbl	(%rcx), %ecx
	testb	%cl, %cl
	je	.L101
	movq	%rdx, %rdi
	call	__asan_report_load8@PLT
.L101:
	movq	-40(%rbp), %rdx
	movq	32(%rdx), %rsi
	.loc 1 180 30
	movq	-40(%rbp), %rdx
	addq	$48, %rdx
	movq	%rdx, %rcx
	shrq	$3, %rcx
	addq	$2147450880, %rcx
	movzbl	(%rcx), %ecx
	testb	%cl, %cl
	je	.L102
	movq	%rdx, %rdi
	call	__asan_report_load8@PLT
.L102:
	movq	-40(%rbp), %rdx
	movq	48(%rdx), %rdx
	.loc 1 180 23
	salq	$3, %rdx
	leaq	(%rsi,%rdx), %rbx
	.loc 1 180 57
	movq	%rax, %rdi
	call	strdup@PLT
	movq	%rax, %rcx
	.loc 1 180 49
	movq	%rbx, %rax
	movq	%rax, %rdx
	shrq	$3, %rdx
	addq	$2147450880, %rdx
	movzbl	(%rdx), %edx
	testb	%dl, %dl
	je	.L103
	movq	%rax, %rdi
	call	__asan_report_store8@PLT
.L103:
	movq	%rcx, (%rbx)
	.loc 1 184 29
	call	_ZN6Logger11getInstanceEv@PLT
	movq	%rax, %rdi
	.loc 1 184 35
	movq	-40(%rbp), %rax
	addq	$48, %rax
	movq	%rax, %rdx
	shrq	$3, %rdx
	addq	$2147450880, %rdx
	movzbl	(%rdx), %edx
	testb	%dl, %dl
	je	.L104
	movq	%rax, %rdi
	call	__asan_report_load8@PLT
.L104:
	movq	-40(%rbp), %rax
	movq	48(%rax), %rax
	movq	%rax, %rcx
	leaq	.LC19(%rip), %rax
	movq	%rax, %rdx
	leaq	.LC20(%rip), %rax
	movq	%rax, %rsi
	movl	$0, %eax
	call	_ZN6Logger3logEPKcz@PLT
	.loc 1 186 41
	movq	-40(%rbp), %rax
	addq	$48, %rax
	movq	%rax, %rdx
	shrq	$3, %rdx
	addq	$2147450880, %rdx
	movzbl	(%rdx), %edx
	testb	%dl, %dl
	je	.L105
	movq	%rax, %rdi
	call	__asan_report_load8@PLT
.L105:
	movq	-40(%rbp), %rax
	movq	48(%rax), %rax
	.loc 1 186 58
	leaq	1(%rax), %rcx
	movq	-40(%rbp), %rdx
	movq	%rcx, 48(%rdx)
	.loc 1 186 28
	movl	%eax, %ecx
	movq	-48(%rbp), %rax
	addq	$24, %rax
	movq	%rax, %rdx
	movq	%rdx, %rax
	shrq	$3, %rax
	addq	$2147450880, %rax
	movzbl	(%rax), %eax
	testb	%al, %al
	setne	%sil
	cmpb	$3, %al
	setle	%al
	andl	%esi, %eax
	testb	%al, %al
	je	.L106
	movq	%rdx, %rdi
	call	__asan_report_store4@PLT
.L106:
	movq	-48(%rbp), %rax
	movl	%ecx, 24(%rax)
	.loc 1 188 12
	movl	$0, %eax
.L91:
	.loc 1 189 5
	movq	-8(%rbp), %rbx
	leave
	.cfi_def_cfa 7, 8
	ret
	.cfi_endproc
.LFE2276:
	.size	_Z9AddStringP10LexicalCtxP5Token, .-_Z9AddStringP10LexicalCtxP5Token
	.type	_Z41__static_initialization_and_destruction_0ii, @function
_Z41__static_initialization_and_destruction_0ii:
.LASANPC2943:
.LFB2943:
	.loc 1 189 5
	.cfi_startproc
	endbr64
	pushq	%rbp
	.cfi_def_cfa_offset 16
	.cfi_offset 6, -16
	movq	%rsp, %rbp
	.cfi_def_cfa_register 6
	subq	$16, %rsp
	movl	%edi, -4(%rbp)
	movl	%esi, -8(%rbp)
	.loc 1 189 5
	cmpl	$1, -4(%rbp)
	jne	.L110
	.loc 1 189 5 is_stmt 0 discriminator 1
	leaq	.LC4(%rip), %rax
	movq	%rax, %rdi
	call	__asan_before_dynamic_init@PLT
	cmpl	$65535, -8(%rbp)
	jne	.L109
	.file 2 "/usr/include/c++/11/iostream"
	.loc 2 74 25 is_stmt 1
	leaq	_ZStL8__ioinit(%rip), %rax
	movq	%rax, %rdi
	call	_ZNSt8ios_base4InitC1Ev@PLT
	leaq	__dso_handle(%rip), %rax
	movq	%rax, %rdx
	leaq	_ZStL8__ioinit(%rip), %rax
	movq	%rax, %rsi
	movq	_ZNSt8ios_base4InitD1Ev@GOTPCREL(%rip), %rax
	movq	%rax, %rdi
	call	__cxa_atexit@PLT
.L109:
	.loc 2 74 25 is_stmt 0 discriminator 1
	call	__asan_after_dynamic_init@PLT
.L110:
	.loc 1 189 5 is_stmt 1
	nop
	leave
	.cfi_def_cfa 7, 8
	ret
	.cfi_endproc
.LFE2943:
	.size	_Z41__static_initialization_and_destruction_0ii, .-_Z41__static_initialization_and_destruction_0ii
	.type	_GLOBAL__sub_I__Z14LexicalCtxCtorP10LexicalCtxPKcim, @function
_GLOBAL__sub_I__Z14LexicalCtxCtorP10LexicalCtxPKcim:
.LASANPC2944:
.LFB2944:
	.loc 1 189 5
	.cfi_startproc
	endbr64
	pushq	%rbp
	.cfi_def_cfa_offset 16
	.cfi_offset 6, -16
	movq	%rsp, %rbp
	.cfi_def_cfa_register 6
	.loc 1 189 5
	movl	$65535, %esi
	movl	$1, %edi
	call	_Z41__static_initialization_and_destruction_0ii
	popq	%rbp
	.cfi_def_cfa 7, 8
	ret
	.cfi_endproc
.LFE2944:
	.size	_GLOBAL__sub_I__Z14LexicalCtxCtorP10LexicalCtxPKcim, .-_GLOBAL__sub_I__Z14LexicalCtxCtorP10LexicalCtxPKcim
	.section	.init_array,"aw"
	.align 8
	.quad	_GLOBAL__sub_I__Z14LexicalCtxCtorP10LexicalCtxPKcim
	.section	.rodata
	.align 8
.LC32:
	.string	"../Common/Structures/Tabels/Tabels.h"
	.section	.data.rel.local,"aw"
	.align 16
	.type	.LASANLOC1, @object
	.size	.LASANLOC1, 16
.LASANLOC1:
	.quad	.LC32
	.long	8
	.long	11
	.align 16
	.type	.LASANLOC2, @object
	.size	.LASANLOC2, 16
.LASANLOC2:
	.quad	.LC32
	.long	7
	.long	11
	.section	.rodata
	.align 8
.LC33:
	.string	"../ATC/RandomStuff/CommonEnums.h"
	.section	.data.rel.local
	.align 16
	.type	.LASANLOC3, @object
	.size	.LASANLOC3, 16
.LASANLOC3:
	.quad	.LC33
	.long	3
	.long	11
	.section	.rodata
.LC34:
	.string	"../ATC/Logger/LogConfig.h"
	.section	.data.rel.local
	.align 16
	.type	.LASANLOC4, @object
	.size	.LASANLOC4, 16
.LASANLOC4:
	.quad	.LC34
	.long	3
	.long	12
	.section	.rodata
.LC35:
	.string	"/usr/include/c++/11/iostream"
	.section	.data.rel.local
	.align 16
	.type	.LASANLOC5, @object
	.size	.LASANLOC5, 16
.LASANLOC5:
	.quad	.LC35
	.long	74
	.long	25
	.section	.rodata
	.align 8
.LC36:
	.string	"../Common/LexicalCtx/LexicalCtx.h"
	.section	.data.rel.local
	.align 16
	.type	.LASANLOC6, @object
	.size	.LASANLOC6, 16
.LASANLOC6:
	.quad	.LC36
	.long	30
	.long	11
	.align 16
	.type	.LASANLOC7, @object
	.size	.LASANLOC7, 16
.LASANLOC7:
	.quad	.LC36
	.long	29
	.long	11
	.align 16
	.type	.LASANLOC8, @object
	.size	.LASANLOC8, 16
.LASANLOC8:
	.quad	.LC36
	.long	27
	.long	11
	.align 16
	.type	.LASANLOC9, @object
	.size	.LASANLOC9, 16
.LASANLOC9:
	.quad	.LC36
	.long	26
	.long	11
	.align 16
	.type	.LASANLOC10, @object
	.size	.LASANLOC10, 16
.LASANLOC10:
	.quad	.LC36
	.long	25
	.long	11
	.align 16
	.type	.LASANLOC11, @object
	.size	.LASANLOC11, 16
.LASANLOC11:
	.quad	.LC36
	.long	24
	.long	11
	.align 16
	.type	.LASANLOC12, @object
	.size	.LASANLOC12, 16
.LASANLOC12:
	.quad	.LC36
	.long	23
	.long	11
	.section	.rodata
.LC37:
	.string	"../ATC/Buffer/my_buffer.h"
	.section	.data.rel.local
	.align 16
	.type	.LASANLOC13, @object
	.size	.LASANLOC13, 16
.LASANLOC13:
	.quad	.LC37
	.long	32
	.long	11
	.section	.rodata
.LC38:
	.string	"NOT_A_LABEL"
.LC39:
	.string	"NOT_DECLARED"
.LC40:
	.string	"CRINGE"
.LC41:
	.string	"STD_LOG_NAME"
.LC42:
	.string	"__ioinit"
.LC43:
	.string	"START_NUMBER_OF_STRINGS"
.LC44:
	.string	"START_NUMBER_OF_TOKENS"
.LC45:
	.string	"NOT_A_NATIVE_FUNCTION"
.LC46:
	.string	"NOT_A_RET_TYPE"
.LC47:
	.string	"NOT_A_INITIALIZATOR"
.LC48:
	.string	"NOT_A_INSTRUCTION"
.LC49:
	.string	"NOT_A_NAME"
.LC50:
	.string	"INDENT_SIZE"
.LC51:
	.string	"*.LC30"
.LC52:
	.string	"*.LC5"
.LC53:
	.string	"*.LC16"
.LC54:
	.string	"*.LC23"
.LC55:
	.string	"*.LC19"
.LC56:
	.string	"*.LC4"
.LC57:
	.string	"*.LC24"
.LC58:
	.string	"*.LC3"
.LC59:
	.string	"*.LC1"
.LC60:
	.string	"*.LC15"
.LC61:
	.string	"*.LC18"
.LC62:
	.string	"*.LC11"
.LC63:
	.string	"*.LC14"
.LC64:
	.string	"*.LC13"
.LC65:
	.string	"*.LC29"
.LC66:
	.string	"*.LC17"
.LC67:
	.string	"*.LC27"
.LC68:
	.string	"*.LC22"
.LC69:
	.string	"*.LC9"
.LC70:
	.string	"*.LC26"
.LC71:
	.string	"*.LC6"
.LC72:
	.string	"*.LC12"
.LC73:
	.string	"*.LC7"
.LC74:
	.string	"*.LC21"
.LC75:
	.string	"*.LC2"
.LC76:
	.string	"*.LC10"
.LC77:
	.string	"*.LC25"
.LC78:
	.string	"*.LC8"
.LC79:
	.string	"*.LC0"
.LC80:
	.string	"*.LC28"
.LC81:
	.string	"*.LC31"
.LC82:
	.string	"*.LC20"
	.section	.data.rel.local
	.align 32
	.type	.LASAN0, @object
	.size	.LASAN0, 2880
.LASAN0:
	.quad	_ZL11NOT_A_LABEL
	.quad	4
	.quad	64
	.quad	.LC38
	.quad	.LC4
	.quad	0
	.quad	.LASANLOC1
	.quad	0
	.quad	_ZL12NOT_DECLARED
	.quad	4
	.quad	64
	.quad	.LC39
	.quad	.LC4
	.quad	0
	.quad	.LASANLOC2
	.quad	0
	.quad	_ZL6CRINGE
	.quad	4
	.quad	64
	.quad	.LC40
	.quad	.LC4
	.quad	0
	.quad	.LASANLOC3
	.quad	0
	.quad	_ZL12STD_LOG_NAME
	.quad	18
	.quad	64
	.quad	.LC41
	.quad	.LC4
	.quad	0
	.quad	.LASANLOC4
	.quad	0
	.quad	_ZStL8__ioinit
	.quad	1
	.quad	64
	.quad	.LC42
	.quad	.LC4
	.quad	1
	.quad	.LASANLOC5
	.quad	0
	.quad	_ZL23START_NUMBER_OF_STRINGS
	.quad	4
	.quad	64
	.quad	.LC43
	.quad	.LC4
	.quad	0
	.quad	.LASANLOC6
	.quad	0
	.quad	_ZL22START_NUMBER_OF_TOKENS
	.quad	4
	.quad	64
	.quad	.LC44
	.quad	.LC4
	.quad	0
	.quad	.LASANLOC7
	.quad	0
	.quad	_ZL21NOT_A_NATIVE_FUNCTION
	.quad	4
	.quad	64
	.quad	.LC45
	.quad	.LC4
	.quad	0
	.quad	.LASANLOC8
	.quad	0
	.quad	_ZL14NOT_A_RET_TYPE
	.quad	4
	.quad	64
	.quad	.LC46
	.quad	.LC4
	.quad	0
	.quad	.LASANLOC9
	.quad	0
	.quad	_ZL19NOT_A_INITIALIZATOR
	.quad	4
	.quad	64
	.quad	.LC47
	.quad	.LC4
	.quad	0
	.quad	.LASANLOC10
	.quad	0
	.quad	_ZL17NOT_A_INSTRUCTION
	.quad	4
	.quad	64
	.quad	.LC48
	.quad	.LC4
	.quad	0
	.quad	.LASANLOC11
	.quad	0
	.quad	_ZL10NOT_A_NAME
	.quad	4
	.quad	64
	.quad	.LC49
	.quad	.LC4
	.quad	0
	.quad	.LASANLOC12
	.quad	0
	.quad	_ZL11INDENT_SIZE
	.quad	4
	.quad	64
	.quad	.LC50
	.quad	.LC4
	.quad	0
	.quad	.LASANLOC13
	.quad	0
	.quad	.LC30
	.quad	35
	.quad	96
	.quad	.LC51
	.quad	.LC4
	.quad	0
	.quad	0
	.quad	0
	.quad	.LC5
	.quad	22
	.quad	64
	.quad	.LC52
	.quad	.LC4
	.quad	0
	.quad	0
	.quad	0
	.quad	.LC16
	.quad	6
	.quad	64
	.quad	.LC53
	.quad	.LC4
	.quad	0
	.quad	0
	.quad	0
	.quad	.LC23
	.quad	9
	.quad	64
	.quad	.LC54
	.quad	.LC4
	.quad	0
	.quad	0
	.quad	0
	.quad	.LC19
	.quad	23
	.quad	64
	.quad	.LC55
	.quad	.LC4
	.quad	0
	.quad	0
	.quad	0
	.quad	.LC4
	.quad	36
	.quad	96
	.quad	.LC56
	.quad	.LC4
	.quad	0
	.quad	0
	.quad	0
	.quad	.LC24
	.quad	64
	.quad	96
	.quad	.LC57
	.quad	.LC4
	.quad	0
	.quad	0
	.quad	0
	.quad	.LC3
	.quad	58
	.quad	96
	.quad	.LC58
	.quad	.LC4
	.quad	0
	.quad	0
	.quad	0
	.quad	.LC1
	.quad	37
	.quad	96
	.quad	.LC59
	.quad	.LC4
	.quad	0
	.quad	0
	.quad	0
	.quad	.LC15
	.quad	18
	.quad	64
	.quad	.LC60
	.quad	.LC4
	.quad	0
	.quad	0
	.quad	0
	.quad	.LC18
	.quad	10
	.quad	64
	.quad	.LC61
	.quad	.LC4
	.quad	0
	.quad	0
	.quad	0
	.quad	.LC11
	.quad	64
	.quad	96
	.quad	.LC62
	.quad	.LC4
	.quad	0
	.quad	0
	.quad	0
	.quad	.LC14
	.quad	35
	.quad	96
	.quad	.LC63
	.quad	.LC4
	.quad	0
	.quad	0
	.quad	0
	.quad	.LC13
	.quad	19
	.quad	64
	.quad	.LC64
	.quad	.LC4
	.quad	0
	.quad	0
	.quad	0
	.quad	.LC29
	.quad	7
	.quad	64
	.quad	.LC65
	.quad	.LC4
	.quad	0
	.quad	0
	.quad	0
	.quad	.LC17
	.quad	40
	.quad	96
	.quad	.LC66
	.quad	.LC4
	.quad	0
	.quad	0
	.quad	0
	.quad	.LC27
	.quad	4
	.quad	64
	.quad	.LC67
	.quad	.LC4
	.quad	0
	.quad	0
	.quad	0
	.quad	.LC22
	.quad	29
	.quad	64
	.quad	.LC68
	.quad	.LC4
	.quad	0
	.quad	0
	.quad	0
	.quad	.LC9
	.quad	10
	.quad	64
	.quad	.LC69
	.quad	.LC4
	.quad	0
	.quad	0
	.quad	0
	.quad	.LC26
	.quad	11
	.quad	64
	.quad	.LC70
	.quad	.LC4
	.quad	0
	.quad	0
	.quad	0
	.quad	.LC6
	.quad	36
	.quad	96
	.quad	.LC71
	.quad	.LC4
	.quad	0
	.quad	0
	.quad	0
	.quad	.LC12
	.quad	36
	.quad	96
	.quad	.LC72
	.quad	.LC4
	.quad	0
	.quad	0
	.quad	0
	.quad	.LC7
	.quad	15
	.quad	64
	.quad	.LC73
	.quad	.LC4
	.quad	0
	.quad	0
	.quad	0
	.quad	.LC21
	.quad	31
	.quad	64
	.quad	.LC74
	.quad	.LC4
	.quad	0
	.quad	0
	.quad	0
	.quad	.LC2
	.quad	64
	.quad	96
	.quad	.LC75
	.quad	.LC4
	.quad	0
	.quad	0
	.quad	0
	.quad	.LC10
	.quad	7
	.quad	64
	.quad	.LC76
	.quad	.LC4
	.quad	0
	.quad	0
	.quad	0
	.quad	.LC25
	.quad	28
	.quad	64
	.quad	.LC77
	.quad	.LC4
	.quad	0
	.quad	0
	.quad	0
	.quad	.LC8
	.quad	33
	.quad	96
	.quad	.LC78
	.quad	.LC4
	.quad	0
	.quad	0
	.quad	0
	.quad	.LC0
	.quad	4
	.quad	64
	.quad	.LC79
	.quad	.LC4
	.quad	0
	.quad	0
	.quad	0
	.quad	.LC28
	.quad	37
	.quad	96
	.quad	.LC80
	.quad	.LC4
	.quad	0
	.quad	0
	.quad	0
	.quad	.LC31
	.quad	10
	.quad	64
	.quad	.LC81
	.quad	.LC4
	.quad	0
	.quad	0
	.quad	0
	.quad	.LC20
	.quad	10
	.quad	64
	.quad	.LC82
	.quad	.LC4
	.quad	0
	.quad	0
	.quad	0
	.text
	.type	_sub_D_00099_0, @function
_sub_D_00099_0:
.LFB2945:
	.cfi_startproc
	endbr64
	pushq	%rbp
	.cfi_def_cfa_offset 16
	.cfi_offset 6, -16
	movq	%rsp, %rbp
	.cfi_def_cfa_register 6
	movl	$45, %esi
	leaq	.LASAN0(%rip), %rax
	movq	%rax, %rdi
	call	__asan_unregister_globals@PLT
	popq	%rbp
	.cfi_def_cfa 7, 8
	ret
	.cfi_endproc
.LFE2945:
	.size	_sub_D_00099_0, .-_sub_D_00099_0
	.section	.fini_array.00099,"aw"
	.align 8
	.quad	_sub_D_00099_0
	.text
	.type	_sub_I_00099_1, @function
_sub_I_00099_1:
.LFB2946:
	.cfi_startproc
	endbr64
	pushq	%rbp
	.cfi_def_cfa_offset 16
	.cfi_offset 6, -16
	movq	%rsp, %rbp
	.cfi_def_cfa_register 6
	call	__asan_init@PLT
	call	__asan_version_mismatch_check_v8@PLT
	movl	$45, %esi
	leaq	.LASAN0(%rip), %rax
	movq	%rax, %rdi
	call	__asan_register_globals@PLT
	popq	%rbp
	.cfi_def_cfa 7, 8
	ret
	.cfi_endproc
.LFE2946:
	.size	_sub_I_00099_1, .-_sub_I_00099_1
	.section	.init_array.00099,"aw"
	.align 8
	.quad	_sub_I_00099_1
	.text
.Letext0:
	.file 3 "../Common/Structures/Tabels/NameTable.h"
	.file 4 "../Common/Structures/Token/Token.h"
	.file 5 "/usr/include/stdlib.h"
	.file 6 "/usr/lib/gcc/x86_64-linux-gnu/11/include/stddef.h"
	.file 7 "/usr/include/x86_64-linux-gnu/bits/types.h"
	.file 8 "/usr/include/x86_64-linux-gnu/bits/stdint-intn.h"
	.file 9 "/usr/include/c++/11/cstdlib"
	.file 10 "/usr/include/c++/11/bits/std_abs.h"
	.file 11 "/usr/include/c++/11/cwchar"
	.file 12 "/usr/include/c++/11/type_traits"
	.file 13 "/usr/include/c++/11/bits/exception_ptr.h"
	.file 14 "/usr/include/x86_64-linux-gnu/c++/11/bits/c++config.h"
	.file 15 "/usr/include/c++/11/concepts"
	.file 16 "/usr/include/c++/11/bits/iterator_concepts.h"
	.file 17 "/usr/include/c++/11/bits/ranges_cmp.h"
	.file 18 "/usr/include/c++/11/compare"
	.file 19 "/usr/include/c++/11/debug/debug.h"
	.file 20 "/usr/include/c++/11/cstdint"
	.file 21 "/usr/include/c++/11/clocale"
	.file 22 "/usr/include/c++/11/numbers"
	.file 23 "/usr/include/c++/11/cstdio"
	.file 24 "/usr/include/c++/11/bits/ios_base.h"
	.file 25 "/usr/include/c++/11/cwctype"
	.file 26 "/usr/include/c++/11/bits/predefined_ops.h"
	.file 27 "/usr/include/c++/11/stdlib.h"
	.file 28 "<built-in>"
	.file 29 "/usr/include/x86_64-linux-gnu/bits/types/__mbstate_t.h"
	.file 30 "/usr/include/x86_64-linux-gnu/bits/types/__fpos_t.h"
	.file 31 "/usr/include/x86_64-linux-gnu/bits/types/__FILE.h"
	.file 32 "/usr/include/x86_64-linux-gnu/bits/types/struct_FILE.h"
	.file 33 "/usr/include/x86_64-linux-gnu/bits/types/FILE.h"
	.file 34 "/usr/include/stdio.h"
	.file 35 "../ATC/Buffer/my_buffer.h"
	.file 36 "../Common/LexicalCtx/LexicalCtx.h"
	.file 37 "/usr/include/x86_64-linux-gnu/bits/types/wint_t.h"
	.file 38 "/usr/include/x86_64-linux-gnu/bits/types/mbstate_t.h"
	.file 39 "/usr/include/wchar.h"
	.file 40 "/usr/include/x86_64-linux-gnu/bits/types/struct_tm.h"
	.file 41 "/usr/include/c++/11/bits/ptr_traits.h"
	.file 42 "/usr/include/x86_64-linux-gnu/bits/stdint-uintn.h"
	.file 43 "/usr/include/stdint.h"
	.file 44 "/usr/include/locale.h"
	.file 45 "/usr/include/x86_64-linux-gnu/bits/wctype-wchar.h"
	.file 46 "/usr/include/wctype.h"
	.file 47 "../ATC/Logger/LogConfig.h"
	.file 48 "../ATC/RandomStuff/CommonEnums.h"
	.file 49 "../Common/Structures/Tabels/Tabels.h"
	.file 50 "/usr/include/string.h"
	.file 51 "../ATC/Logger/Logger.h"
	.file 52 "../Common/Structures/Program/Program.h"
	.file 53 "/usr/include/c++/11/bits/algorithmfwd.h"
	.section	.note.GNU-stack,"",@progbits
	.section	.note.gnu.property,"a"
	.align 8
	.long	1f - 0f
	.long	4f - 1f
	.long	5
0:
	.string	"GNU"
1:
	.align 8
	.long	0xc0000002
	.long	3f - 2f
2:
	.long	0x3
3:
	.align 8
4:
