	.file	"Logger.cpp"
	.text
.Ltext0:
	.file 0 "/home/arsenyfucker/Cprojects/Lang/Translator/BackEnd" "../ATC/Logger/Logger.cpp"
	.bss
	.align 32
	.type	_ZStL8__ioinit, @object
	.size	_ZStL8__ioinit, 1
_ZStL8__ioinit:
	.zero	64
	.section	.rodata
	.align 32
	.type	_ZL12STD_LOG_NAME, @object
	.size	_ZL12STD_LOG_NAME, 18
_ZL12STD_LOG_NAME:
	.string	"./logs/stdlog.ars"
	.zero	46
	.align 32
	.type	_ZL11INDENT_SIZE, @object
	.size	_ZL11INDENT_SIZE, 4
_ZL11INDENT_SIZE:
	.long	2
	.zero	60
	.globl	__asan_stack_malloc_0
.LC0:
	.string	"1 32 8 11 NewYorkTime"
	.align 32
.LC1:
	.string	"w"
	.zero	62
	.align 32
.LC2:
	.string	"Ebat, lox, You can't even open logfile\n"
	.zero	56
	.align 32
.LC3:
	.string	"%s\n"
	.zero	60
	.text
	.align 2
	.globl	_ZN6LoggerC2EPKc
	.type	_ZN6LoggerC2EPKc, @function
_ZN6LoggerC2EPKc:
.LASANPC2271:
.LFB2271:
	.file 1 "../ATC/Logger/Logger.cpp"
	.loc 1 18 1
	.cfi_startproc
	.cfi_personality 0x9b,DW.ref.__gxx_personality_v0
	.cfi_lsda 0x1b,.LLSDA2271
	endbr64
	pushq	%rbp
	.cfi_def_cfa_offset 16
	.cfi_offset 6, -16
	movq	%rsp, %rbp
	.cfi_def_cfa_register 6
	pushq	%r15
	pushq	%r14
	pushq	%r13
	pushq	%r12
	pushq	%rbx
	subq	$120, %rsp
	.cfi_offset 15, -24
	.cfi_offset 14, -32
	.cfi_offset 13, -40
	.cfi_offset 12, -48
	.cfi_offset 3, -56
	movq	%rdi, -136(%rbp)
	movq	%rsi, -144(%rbp)
	movq	%rdx, -152(%rbp)
	leaq	-112(%rbp), %rbx
	movq	%rbx, %r15
	cmpl	$0, __asan_option_detect_stack_use_after_return(%rip)
	je	.L1
	movl	$64, %edi
	call	__asan_stack_malloc_0@PLT
	testq	%rax, %rax
	je	.L1
	movq	%rax, %rbx
.L1:
	leaq	64(%rbx), %rax
	movq	%rax, %r13
	movq	$1102416563, (%rbx)
	leaq	.LC0(%rip), %rax
	movq	%rax, 8(%rbx)
	leaq	.LASANPC2271(%rip), %rax
	movq	%rax, 16(%rbx)
	movq	%rbx, %r12
	shrq	$3, %r12
	movl	$-235802127, 2147450880(%r12)
	movl	$-202116352, 2147450884(%r12)
.LBB2:
	.loc 1 18 91
	movq	-136(%rbp), %rax
	movq	-144(%rbp), %rdx
	addq	$8, %rdx
	movq	%rdx, %rsi
	movq	%rax, %rdi
.LEHB0:
	call	_ZNSoC2Ev@PLT
.LEHE0:
	movq	-144(%rbp), %rax
	movq	%rax, %rdx
	shrq	$3, %rdx
	addq	$2147450880, %rdx
	movzbl	(%rdx), %edx
	testb	%dl, %dl
	je	.L5
	movq	%rax, %rdi
	call	__asan_report_load8@PLT
.L5:
	movq	-144(%rbp), %rax
	movq	(%rax), %rdx
	movq	-136(%rbp), %rax
	movq	%rax, %rcx
	shrq	$3, %rcx
	addq	$2147450880, %rcx
	movzbl	(%rcx), %ecx
	testb	%cl, %cl
	je	.L6
	movq	%rax, %rdi
	call	__asan_report_store8@PLT
.L6:
	movq	-136(%rbp), %rax
	movq	%rdx, (%rax)
	movq	-136(%rbp), %rax
	movq	(%rax), %rax
	subq	$24, %rax
	movq	%rax, %rdx
	movq	%rdx, %rcx
	shrq	$3, %rcx
	addq	$2147450880, %rcx
	movzbl	(%rcx), %ecx
	testb	%cl, %cl
	je	.L7
	movq	%rdx, %rdi
	call	__asan_report_load8@PLT
.L7:
	movq	(%rax), %rax
	movq	%rax, %rdx
	movq	-136(%rbp), %rax
	addq	%rdx, %rax
	movq	-144(%rbp), %rdx
	addq	$24, %rdx
	movq	%rdx, %rcx
	shrq	$3, %rcx
	addq	$2147450880, %rcx
	movzbl	(%rcx), %ecx
	testb	%cl, %cl
	je	.L8
	movq	%rdx, %rdi
	call	__asan_report_load8@PLT
.L8:
	movq	-144(%rbp), %rdx
	movq	24(%rdx), %rcx
	movq	%rax, %rdx
	movq	%rdx, %rsi
	shrq	$3, %rsi
	addq	$2147450880, %rsi
	movzbl	(%rsi), %esi
	testb	%sil, %sil
	je	.L9
	movq	%rdx, %rdi
	call	__asan_report_store8@PLT
.L9:
	movq	%rcx, (%rax)
	.loc 1 18 41
	movq	-136(%rbp), %rax
	addq	$8, %rax
	movq	%rax, %rdx
	shrq	$3, %rdx
	addq	$2147450880, %rdx
	movzbl	(%rdx), %edx
	testb	%dl, %dl
	je	.L10
	movq	%rax, %rdi
	call	__asan_report_store8@PLT
.L10:
	movq	-136(%rbp), %rax
	movq	$0, 8(%rax)
	.loc 1 18 54
	movq	-136(%rbp), %rax
	addq	$16, %rax
	movq	%rax, %rdx
	movq	%rdx, %rax
	shrq	$3, %rax
	addq	$2147450880, %rax
	movzbl	(%rax), %eax
	testb	%al, %al
	setne	%cl
	cmpb	$3, %al
	setle	%al
	andl	%ecx, %eax
	testb	%al, %al
	je	.L11
	movq	%rdx, %rdi
	call	__asan_report_store4@PLT
.L11:
	movq	-136(%rbp), %rax
	movl	$0, 16(%rax)
	.loc 1 18 64
	movq	-136(%rbp), %rax
	addq	$20, %rax
	movq	%rax, %rdx
	shrq	$3, %rdx
	addq	$2147450880, %rdx
	movzbl	(%rdx), %edx
	testb	%dl, %dl
	setne	%sil
	movq	%rax, %rcx
	andl	$7, %ecx
	addl	$3, %ecx
	cmpb	%dl, %cl
	setge	%dl
	andl	%esi, %edx
	testb	%dl, %dl
	je	.L12
	movq	%rax, %rdi
	call	__asan_report_store4@PLT
.L12:
	movq	-136(%rbp), %rax
	movl	$0, 20(%rax)
	.loc 1 18 75
	movq	-136(%rbp), %rax
	addq	$24, %rax
	movq	%rax, %rdx
	shrq	$3, %rdx
	addq	$2147450880, %rdx
	movzbl	(%rdx), %edx
	testb	%dl, %dl
	je	.L13
	movq	%rax, %rdi
	call	__asan_report_store8@PLT
.L13:
	movq	-136(%rbp), %rax
	movq	-152(%rbp), %rdx
	movq	%rdx, 24(%rax)
.LBB3:
.LBB4:
	.loc 1 22 31
	movq	-136(%rbp), %rax
	movq	24(%rax), %rax
	leaq	.LC1(%rip), %rdx
	movq	%rdx, %rsi
	movq	%rax, %rdi
.LEHB1:
	call	fopen@PLT
	movq	%rax, %rcx
	.loc 1 22 23
	movq	-136(%rbp), %rax
	addq	$8, %rax
	movq	%rax, %rdx
	shrq	$3, %rdx
	addq	$2147450880, %rdx
	movzbl	(%rdx), %edx
	testb	%dl, %dl
	je	.L14
	movq	%rax, %rdi
	call	__asan_report_store8@PLT
.L14:
	.loc 1 22 23 is_stmt 0 discriminator 1
	movq	-136(%rbp), %rax
	movq	%rcx, 8(%rax)
	.loc 1 24 21 is_stmt 1 discriminator 1
	movq	-136(%rbp), %rax
	movq	8(%rax), %rax
	.loc 1 24 16 discriminator 1
	testq	%rax, %rax
	jne	.L15
	.loc 1 25 27
	movl	$8, %edi
	call	__cxa_allocate_exception@PLT
	movq	%rax, %r14
	.loc 1 25 21
	movq	%r14, %rax
	movq	%rax, %rdx
	shrq	$3, %rdx
	addq	$2147450880, %rdx
	movzbl	(%rdx), %edx
	testb	%dl, %dl
	je	.L16
	movq	%rax, %rdi
	call	__asan_report_store8@PLT
.L16:
	leaq	.LC2(%rip), %rax
	movq	%rax, (%r14)
	.loc 1 25 27
	call	__asan_handle_no_return@PLT
	movl	$0, %edx
	leaq	_ZTIPKc(%rip), %rax
	movq	%rax, %rsi
	movq	%r14, %rdi
	call	__cxa_throw@PLT
.L15:
	.loc 1 27 23
	movq	-136(%rbp), %rax
	addq	$8, %rax
	movq	%rax, %rdx
	shrq	$3, %rdx
	addq	$2147450880, %rdx
	movzbl	(%rdx), %edx
	testb	%dl, %dl
	je	.L17
	movq	%rax, %rdi
	call	__asan_report_load8@PLT
.L17:
	movq	-136(%rbp), %rax
	movq	8(%rax), %rax
	movl	$0, %ecx
	movl	$2, %edx
	movl	$0, %esi
	movq	%rax, %rdi
	call	setvbuf@PLT
	.loc 1 29 41
	movl	$0, %edi
	call	time@PLT
	.loc 1 29 45
	leaq	-32(%r13), %rdx
	movq	%rdx, %rcx
	shrq	$3, %rcx
	addq	$2147450880, %rcx
	movzbl	(%rcx), %ecx
	testb	%cl, %cl
	je	.L18
	movq	%rdx, %rdi
	call	__asan_report_store8@PLT
.L18:
	movq	%rax, -32(%r13)
	.loc 1 30 24
	leaq	-32(%r13), %rax
	movq	%rax, %rdi
	call	ctime@PLT
	movq	%rax, %rcx
	movq	-136(%rbp), %rax
	addq	$8, %rax
	movq	%rax, %rdx
	shrq	$3, %rdx
	addq	$2147450880, %rdx
	movzbl	(%rdx), %edx
	testb	%dl, %dl
	je	.L19
	movq	%rax, %rdi
	call	__asan_report_load8@PLT
.L19:
	movq	-136(%rbp), %rax
	movq	8(%rax), %rax
	movq	%rcx, %rdx
	leaq	.LC3(%rip), %rcx
	movq	%rcx, %rsi
	movq	%rax, %rdi
	movl	$0, %eax
	call	fprintf@PLT
.LEHE1:
.LBE4:
.LBE3:
.LBE2:
	.loc 1 36 13
	jmp	.L4
.L25:
	endbr64
.LBB11:
.LBB8:
.LBB5:
	movq	%rax, %rcx
	movq	%rdx, %rax
	leaq	-32(%r13), %rdx
	shrq	$3, %rdx
	addq	$2147450880, %rdx
	movb	$-8, (%rdx)
	movq	%rcx, %rdx
.LBE5:
.LBE8:
.LBE11:
	.loc 1 32 13
	cmpq	$1, %rax
	je	.L21
	movq	%rdx, %rbx
	jmp	.L22
.L21:
.LBB12:
.LBB9:
.LBB6:
	.loc 1 32 31 discriminator 1
	movq	%rdx, %rax
	movq	%rax, %rdi
	call	__cxa_begin_catch@PLT
	movq	%rax, -120(%rbp)
	.loc 1 34 23 discriminator 1
	movq	-120(%rbp), %rax
	movq	%rax, %rdi
.LEHB2:
	call	perror@PLT
.LEHE2:
	.loc 1 35 16
	call	__cxa_end_catch@PLT
.LBE6:
.LBE9:
.LBE12:
	.loc 1 36 13
	jmp	.L4
.L26:
	endbr64
.LBB13:
.LBB10:
.LBB7:
	.loc 1 35 16
	movq	%rax, %rbx
	call	__cxa_end_catch@PLT
.L22:
.LBE7:
.LBE10:
	.loc 1 36 13
	movq	-136(%rbp), %rax
	movq	-144(%rbp), %rdx
	addq	$8, %rdx
	movq	%rdx, %rsi
	movq	%rax, %rdi
	call	_ZNSoD2Ev@PLT
	call	__asan_handle_no_return@PLT
	movq	%rbx, %rdi
.LEHB3:
	call	_Unwind_Resume@PLT
.LEHE3:
.L4:
.LBE13:
	.loc 1 18 1
	cmpq	%rbx, %r15
	je	.L2
	movq	$1172321806, (%rbx)
	movabsq	$-723401728380766731, %rax
	movq	%rax, 2147450880(%r12)
	movq	56(%rbx), %rax
	movb	$0, (%rax)
	jmp	.L3
.L2:
	movq	$0, 2147450880(%r12)
.L3:
	.loc 1 36 13
	addq	$120, %rsp
	popq	%rbx
	popq	%r12
	popq	%r13
	popq	%r14
	popq	%r15
	popq	%rbp
	.cfi_def_cfa 7, 8
	ret
	.cfi_endproc
.LFE2271:
	.globl	__gxx_personality_v0
	.section	.gcc_except_table,"a",@progbits
	.align 4
.LLSDA2271:
	.byte	0xff
	.byte	0x9b
	.uleb128 .LLSDATT2271-.LLSDATTD2271
.LLSDATTD2271:
	.byte	0x1
	.uleb128 .LLSDACSE2271-.LLSDACSB2271
.LLSDACSB2271:
	.uleb128 .LEHB0-.LFB2271
	.uleb128 .LEHE0-.LEHB0
	.uleb128 0
	.uleb128 0
	.uleb128 .LEHB1-.LFB2271
	.uleb128 .LEHE1-.LEHB1
	.uleb128 .L25-.LFB2271
	.uleb128 0x3
	.uleb128 .LEHB2-.LFB2271
	.uleb128 .LEHE2-.LEHB2
	.uleb128 .L26-.LFB2271
	.uleb128 0
	.uleb128 .LEHB3-.LFB2271
	.uleb128 .LEHE3-.LEHB3
	.uleb128 0
	.uleb128 0
.LLSDACSE2271:
	.byte	0
	.byte	0
	.byte	0x1
	.byte	0x7d
	.align 4
	.long	DW.ref._ZTIPKc-.
.LLSDATT2271:
	.text
	.size	_ZN6LoggerC2EPKc, .-_ZN6LoggerC2EPKc
	.align 2
	.globl	_ZN6LoggerC1EPKc
	.type	_ZN6LoggerC1EPKc, @function
_ZN6LoggerC1EPKc:
.LASANPC2272:
.LFB2272:
	.loc 1 18 1
	.cfi_startproc
	.cfi_personality 0x9b,DW.ref.__gxx_personality_v0
	.cfi_lsda 0x1b,.LLSDA2272
	endbr64
	pushq	%rbp
	.cfi_def_cfa_offset 16
	.cfi_offset 6, -16
	movq	%rsp, %rbp
	.cfi_def_cfa_register 6
	pushq	%r15
	pushq	%r14
	pushq	%r13
	pushq	%r12
	pushq	%rbx
	subq	$104, %rsp
	.cfi_offset 15, -24
	.cfi_offset 14, -32
	.cfi_offset 13, -40
	.cfi_offset 12, -48
	.cfi_offset 3, -56
	movq	%rdi, -136(%rbp)
	movq	%rsi, -144(%rbp)
	leaq	-112(%rbp), %rbx
	movq	%rbx, %r15
	cmpl	$0, __asan_option_detect_stack_use_after_return(%rip)
	je	.L27
	movl	$64, %edi
	call	__asan_stack_malloc_0@PLT
	testq	%rax, %rax
	je	.L27
	movq	%rax, %rbx
.L27:
	leaq	64(%rbx), %rax
	movq	%rax, %r13
	movq	$1102416563, (%rbx)
	leaq	.LC0(%rip), %rax
	movq	%rax, 8(%rbx)
	leaq	.LASANPC2272(%rip), %rax
	movq	%rax, 16(%rbx)
	movq	%rbx, %r12
	shrq	$3, %r12
	movl	$-235802127, 2147450880(%r12)
	movl	$-202116352, 2147450884(%r12)
.LBB14:
	.loc 1 18 91
	movq	-136(%rbp), %rax
	addq	$32, %rax
	movq	%rax, %rdi
.LEHB4:
	call	_ZNSt9basic_iosIcSt11char_traitsIcEEC2Ev@PLT
.LEHE4:
	movq	-136(%rbp), %rax
	leaq	8+_ZTT6Logger(%rip), %rdx
	movq	%rdx, %rsi
	movq	%rax, %rdi
.LEHB5:
	call	_ZNSoC2Ev@PLT
.LEHE5:
	.loc 1 18 91 is_stmt 0 discriminator 1
	leaq	24+_ZTV6Logger(%rip), %rcx
	movq	-136(%rbp), %rax
	movq	%rax, %rdx
	shrq	$3, %rdx
	addq	$2147450880, %rdx
	movzbl	(%rdx), %edx
	testb	%dl, %dl
	je	.L31
	.loc 1 18 91
	movq	%rax, %rdi
	call	__asan_report_store8@PLT
.L31:
	.loc 1 18 91 discriminator 1
	movq	-136(%rbp), %rax
	movq	%rcx, (%rax)
	movq	-136(%rbp), %rax
	addq	$32, %rax
	leaq	64+_ZTV6Logger(%rip), %rsi
	movq	%rax, %rdx
	movq	%rdx, %rcx
	shrq	$3, %rcx
	addq	$2147450880, %rcx
	movzbl	(%rcx), %ecx
	testb	%cl, %cl
	je	.L32
	.loc 1 18 91
	movq	%rdx, %rdi
	call	__asan_report_store8@PLT
.L32:
	.loc 1 18 91 discriminator 1
	movq	%rsi, (%rax)
	.loc 1 18 41 is_stmt 1 discriminator 1
	movq	-136(%rbp), %rax
	addq	$8, %rax
	movq	%rax, %rdx
	shrq	$3, %rdx
	addq	$2147450880, %rdx
	movzbl	(%rdx), %edx
	testb	%dl, %dl
	je	.L33
	.loc 1 18 41 is_stmt 0
	movq	%rax, %rdi
	call	__asan_report_store8@PLT
.L33:
	.loc 1 18 41 discriminator 1
	movq	-136(%rbp), %rax
	movq	$0, 8(%rax)
	.loc 1 18 54 is_stmt 1 discriminator 1
	movq	-136(%rbp), %rax
	addq	$16, %rax
	movq	%rax, %rdx
	movq	%rdx, %rax
	shrq	$3, %rax
	addq	$2147450880, %rax
	movzbl	(%rax), %eax
	testb	%al, %al
	setne	%cl
	cmpb	$3, %al
	setle	%al
	andl	%ecx, %eax
	testb	%al, %al
	je	.L34
	.loc 1 18 54 is_stmt 0
	movq	%rdx, %rdi
	call	__asan_report_store4@PLT
.L34:
	.loc 1 18 54 discriminator 1
	movq	-136(%rbp), %rax
	movl	$0, 16(%rax)
	.loc 1 18 64 is_stmt 1 discriminator 1
	movq	-136(%rbp), %rax
	addq	$20, %rax
	movq	%rax, %rdx
	shrq	$3, %rdx
	addq	$2147450880, %rdx
	movzbl	(%rdx), %edx
	testb	%dl, %dl
	setne	%sil
	movq	%rax, %rcx
	andl	$7, %ecx
	addl	$3, %ecx
	cmpb	%dl, %cl
	setge	%dl
	andl	%esi, %edx
	testb	%dl, %dl
	je	.L35
	.loc 1 18 64 is_stmt 0
	movq	%rax, %rdi
	call	__asan_report_store4@PLT
.L35:
	.loc 1 18 64 discriminator 1
	movq	-136(%rbp), %rax
	movl	$0, 20(%rax)
	.loc 1 18 75 is_stmt 1 discriminator 1
	movq	-136(%rbp), %rax
	addq	$24, %rax
	movq	%rax, %rdx
	shrq	$3, %rdx
	addq	$2147450880, %rdx
	movzbl	(%rdx), %edx
	testb	%dl, %dl
	je	.L36
	.loc 1 18 75 is_stmt 0
	movq	%rax, %rdi
	call	__asan_report_store8@PLT
.L36:
	.loc 1 18 75 discriminator 1
	movq	-136(%rbp), %rax
	movq	-144(%rbp), %rdx
	movq	%rdx, 24(%rax)
.LBB15:
.LBB16:
	.loc 1 22 31 is_stmt 1 discriminator 1
	movq	-136(%rbp), %rax
	movq	24(%rax), %rax
	leaq	.LC1(%rip), %rdx
	movq	%rdx, %rsi
	movq	%rax, %rdi
.LEHB6:
	call	fopen@PLT
	movq	%rax, %rcx
	.loc 1 22 23 discriminator 1
	movq	-136(%rbp), %rax
	addq	$8, %rax
	movq	%rax, %rdx
	shrq	$3, %rdx
	addq	$2147450880, %rdx
	movzbl	(%rdx), %edx
	testb	%dl, %dl
	je	.L37
	.loc 1 22 23 is_stmt 0
	movq	%rax, %rdi
	call	__asan_report_store8@PLT
.L37:
	.loc 1 22 23 discriminator 1
	movq	-136(%rbp), %rax
	movq	%rcx, 8(%rax)
	.loc 1 24 21 is_stmt 1 discriminator 1
	movq	-136(%rbp), %rax
	movq	8(%rax), %rax
	.loc 1 24 16 discriminator 1
	testq	%rax, %rax
	jne	.L38
	.loc 1 25 27
	movl	$8, %edi
	call	__cxa_allocate_exception@PLT
	movq	%rax, %r14
	.loc 1 25 21
	movq	%r14, %rax
	movq	%rax, %rdx
	shrq	$3, %rdx
	addq	$2147450880, %rdx
	movzbl	(%rdx), %edx
	testb	%dl, %dl
	je	.L39
	movq	%rax, %rdi
	call	__asan_report_store8@PLT
.L39:
	leaq	.LC2(%rip), %rax
	movq	%rax, (%r14)
	.loc 1 25 27
	call	__asan_handle_no_return@PLT
	movl	$0, %edx
	leaq	_ZTIPKc(%rip), %rax
	movq	%rax, %rsi
	movq	%r14, %rdi
	call	__cxa_throw@PLT
.L38:
	.loc 1 27 23
	movq	-136(%rbp), %rax
	addq	$8, %rax
	movq	%rax, %rdx
	shrq	$3, %rdx
	addq	$2147450880, %rdx
	movzbl	(%rdx), %edx
	testb	%dl, %dl
	je	.L40
	movq	%rax, %rdi
	call	__asan_report_load8@PLT
.L40:
	movq	-136(%rbp), %rax
	movq	8(%rax), %rax
	movl	$0, %ecx
	movl	$2, %edx
	movl	$0, %esi
	movq	%rax, %rdi
	call	setvbuf@PLT
	.loc 1 29 41
	movl	$0, %edi
	call	time@PLT
	.loc 1 29 45
	leaq	-32(%r13), %rdx
	movq	%rdx, %rcx
	shrq	$3, %rcx
	addq	$2147450880, %rcx
	movzbl	(%rcx), %ecx
	testb	%cl, %cl
	je	.L41
	movq	%rdx, %rdi
	call	__asan_report_store8@PLT
.L41:
	movq	%rax, -32(%r13)
	.loc 1 30 24
	leaq	-32(%r13), %rax
	movq	%rax, %rdi
	call	ctime@PLT
	movq	%rax, %rcx
	movq	-136(%rbp), %rax
	addq	$8, %rax
	movq	%rax, %rdx
	shrq	$3, %rdx
	addq	$2147450880, %rdx
	movzbl	(%rdx), %edx
	testb	%dl, %dl
	je	.L42
	movq	%rax, %rdi
	call	__asan_report_load8@PLT
.L42:
	movq	-136(%rbp), %rax
	movq	8(%rax), %rax
	movq	%rcx, %rdx
	leaq	.LC3(%rip), %rcx
	movq	%rcx, %rsi
	movq	%rax, %rdi
	movl	$0, %eax
	call	fprintf@PLT
.LEHE6:
.LBE16:
.LBE15:
.LBE14:
	.loc 1 36 13
	jmp	.L30
.L50:
	endbr64
.LBB23:
.LBB20:
.LBB17:
	movq	%rax, %rcx
	movq	%rdx, %rax
	leaq	-32(%r13), %rdx
	shrq	$3, %rdx
	addq	$2147450880, %rdx
	movb	$-8, (%rdx)
	movq	%rcx, %rdx
.LBE17:
.LBE20:
.LBE23:
	.loc 1 32 13
	cmpq	$1, %rax
	je	.L44
	movq	%rdx, %rbx
	jmp	.L45
.L44:
.LBB24:
.LBB21:
.LBB18:
	.loc 1 32 31 discriminator 1
	movq	%rdx, %rax
	movq	%rax, %rdi
	call	__cxa_begin_catch@PLT
	movq	%rax, -120(%rbp)
	.loc 1 34 23 discriminator 1
	movq	-120(%rbp), %rax
	movq	%rax, %rdi
.LEHB7:
	call	perror@PLT
.LEHE7:
	.loc 1 35 16
	call	__cxa_end_catch@PLT
.LBE18:
.LBE21:
.LBE24:
	.loc 1 36 13
	jmp	.L30
.L51:
	endbr64
.LBB25:
.LBB22:
.LBB19:
	.loc 1 35 16
	movq	%rax, %rbx
	call	__cxa_end_catch@PLT
.L45:
.LBE19:
.LBE22:
	.loc 1 36 13
	movq	-136(%rbp), %rax
	leaq	8+_ZTT6Logger(%rip), %rdx
	movq	%rdx, %rsi
	movq	%rax, %rdi
	call	_ZNSoD2Ev@PLT
	jmp	.L48
.L49:
	endbr64
	movq	%rax, %rbx
.L48:
	movq	-136(%rbp), %rax
	addq	$32, %rax
	movq	%rax, %rdi
	call	_ZNSt9basic_iosIcSt11char_traitsIcEED2Ev@PLT
	call	__asan_handle_no_return@PLT
	movq	%rbx, %rdi
.LEHB8:
	call	_Unwind_Resume@PLT
.LEHE8:
.L30:
.LBE25:
	.loc 1 18 1
	cmpq	%rbx, %r15
	je	.L28
	movq	$1172321806, (%rbx)
	movabsq	$-723401728380766731, %rax
	movq	%rax, 2147450880(%r12)
	movq	56(%rbx), %rax
	movb	$0, (%rax)
	jmp	.L29
.L28:
	movq	$0, 2147450880(%r12)
.L29:
	.loc 1 36 13
	addq	$104, %rsp
	popq	%rbx
	popq	%r12
	popq	%r13
	popq	%r14
	popq	%r15
	popq	%rbp
	.cfi_def_cfa 7, 8
	ret
	.cfi_endproc
.LFE2272:
	.section	.gcc_except_table
	.align 4
.LLSDA2272:
	.byte	0xff
	.byte	0x9b
	.uleb128 .LLSDATT2272-.LLSDATTD2272
.LLSDATTD2272:
	.byte	0x1
	.uleb128 .LLSDACSE2272-.LLSDACSB2272
.LLSDACSB2272:
	.uleb128 .LEHB4-.LFB2272
	.uleb128 .LEHE4-.LEHB4
	.uleb128 0
	.uleb128 0
	.uleb128 .LEHB5-.LFB2272
	.uleb128 .LEHE5-.LEHB5
	.uleb128 .L49-.LFB2272
	.uleb128 0
	.uleb128 .LEHB6-.LFB2272
	.uleb128 .LEHE6-.LEHB6
	.uleb128 .L50-.LFB2272
	.uleb128 0x3
	.uleb128 .LEHB7-.LFB2272
	.uleb128 .LEHE7-.LEHB7
	.uleb128 .L51-.LFB2272
	.uleb128 0
	.uleb128 .LEHB8-.LFB2272
	.uleb128 .LEHE8-.LEHB8
	.uleb128 0
	.uleb128 0
.LLSDACSE2272:
	.byte	0
	.byte	0
	.byte	0x1
	.byte	0x7d
	.align 4
	.long	DW.ref._ZTIPKc-.
.LLSDATT2272:
	.text
	.size	_ZN6LoggerC1EPKc, .-_ZN6LoggerC1EPKc
	.bss
	.align 32
	.type	_ZZN6Logger11getInstanceEvE6logger, @object
	.size	_ZZN6Logger11getInstanceEvE6logger, 296
_ZZN6Logger11getInstanceEvE6logger:
	.zero	352
	.align 32
	.type	_ZGVZN6Logger11getInstanceEvE6logger, @object
	.size	_ZGVZN6Logger11getInstanceEvE6logger, 8
_ZGVZN6Logger11getInstanceEvE6logger:
	.zero	64
	.text
	.align 2
	.globl	_ZN6Logger11getInstanceEv
	.type	_ZN6Logger11getInstanceEv, @function
_ZN6Logger11getInstanceEv:
.LASANPC2273:
.LFB2273:
	.loc 1 39 13
	.cfi_startproc
	.cfi_personality 0x9b,DW.ref.__gxx_personality_v0
	.cfi_lsda 0x1b,.LLSDA2273
	endbr64
	pushq	%rbp
	.cfi_def_cfa_offset 16
	.cfi_offset 6, -16
	movq	%rsp, %rbp
	.cfi_def_cfa_register 6
	pushq	%r12
	pushq	%rbx
	.cfi_offset 12, -24
	.cfi_offset 3, -32
	.loc 1 40 46
	movzbl	_ZGVZN6Logger11getInstanceEvE6logger(%rip), %eax
	testb	%al, %al
	sete	%al
	testb	%al, %al
	je	.L53
	.loc 1 40 46 is_stmt 0 discriminator 1
	leaq	_ZGVZN6Logger11getInstanceEvE6logger(%rip), %rax
	movq	%rax, %rdi
	call	__cxa_guard_acquire@PLT
	testl	%eax, %eax
	setne	%al
	testb	%al, %al
	je	.L53
	.loc 1 40 46 discriminator 2
	movl	$0, %r12d
	leaq	_ZL12STD_LOG_NAME(%rip), %rax
	movq	%rax, %rsi
	leaq	_ZZN6Logger11getInstanceEvE6logger(%rip), %rax
	movq	%rax, %rdi
.LEHB9:
	call	_ZN6LoggerC1EPKc
.LEHE9:
	.loc 1 40 46 discriminator 4
	leaq	__dso_handle(%rip), %rax
	movq	%rax, %rdx
	leaq	_ZZN6Logger11getInstanceEvE6logger(%rip), %rax
	movq	%rax, %rsi
	leaq	_ZN6LoggerD1Ev(%rip), %rax
	movq	%rax, %rdi
	call	__cxa_atexit@PLT
	leaq	_ZGVZN6Logger11getInstanceEvE6logger(%rip), %rax
	movq	%rax, %rdi
	call	__cxa_guard_release@PLT
.L53:
	.loc 1 42 20 is_stmt 1
	leaq	_ZZN6Logger11getInstanceEvE6logger(%rip), %rax
	jmp	.L58
.L57:
	endbr64
	.loc 1 40 46
	movq	%rax, %rbx
	testb	%r12b, %r12b
	jne	.L56
	.loc 1 40 46 is_stmt 0 discriminator 5
	leaq	_ZGVZN6Logger11getInstanceEvE6logger(%rip), %rax
	movq	%rax, %rdi
	call	__cxa_guard_abort@PLT
.L56:
	call	__asan_handle_no_return@PLT
	movq	%rbx, %rdi
.LEHB10:
	call	_Unwind_Resume@PLT
.LEHE10:
.L58:
	.loc 1 43 13 is_stmt 1
	popq	%rbx
	popq	%r12
	popq	%rbp
	.cfi_def_cfa 7, 8
	ret
	.cfi_endproc
.LFE2273:
	.section	.gcc_except_table
.LLSDA2273:
	.byte	0xff
	.byte	0xff
	.byte	0x1
	.uleb128 .LLSDACSE2273-.LLSDACSB2273
.LLSDACSB2273:
	.uleb128 .LEHB9-.LFB2273
	.uleb128 .LEHE9-.LEHB9
	.uleb128 .L57-.LFB2273
	.uleb128 0
	.uleb128 .LEHB10-.LFB2273
	.uleb128 .LEHE10-.LEHB10
	.uleb128 0
	.uleb128 0
.LLSDACSE2273:
	.text
	.size	_ZN6Logger11getInstanceEv, .-_ZN6Logger11getInstanceEv
	.section	.rodata
.LC4:
	.string	"1 32 8 14 NewYorkTime:47"
	.align 32
.LC5:
	.string	"*********************************************************************\n"
	.zero	57
	.align 32
.LC6:
	.string	"\t\tLog Successfuly ended, on %s"
	.zero	33
	.align 32
.LC7:
	.string	"\033[96mLog closed\n\033[0m"
	.zero	43
	.text
	.align 2
	.globl	_ZN6LoggerD2Ev
	.type	_ZN6LoggerD2Ev, @function
_ZN6LoggerD2Ev:
.LASANPC2275:
.LFB2275:
	.loc 1 45 1
	.cfi_startproc
	.cfi_personality 0x9b,DW.ref.__gxx_personality_v0
	.cfi_lsda 0x1b,.LLSDA2275
	endbr64
	pushq	%rbp
	.cfi_def_cfa_offset 16
	.cfi_offset 6, -16
	movq	%rsp, %rbp
	.cfi_def_cfa_register 6
	pushq	%r14
	pushq	%r13
	pushq	%r12
	pushq	%rbx
	subq	$80, %rsp
	.cfi_offset 14, -24
	.cfi_offset 13, -32
	.cfi_offset 12, -40
	.cfi_offset 3, -48
	movq	%rdi, -104(%rbp)
	movq	%rsi, -112(%rbp)
	leaq	-96(%rbp), %rbx
	movq	%rbx, %r14
	cmpl	$0, __asan_option_detect_stack_use_after_return(%rip)
	je	.L59
	movl	$64, %edi
	call	__asan_stack_malloc_0@PLT
	testq	%rax, %rax
	je	.L59
	movq	%rax, %rbx
.L59:
	leaq	64(%rbx), %rax
	movq	%rax, %r13
	movq	$1102416563, (%rbx)
	leaq	.LC4(%rip), %rax
	movq	%rax, 8(%rbx)
	leaq	.LASANPC2275(%rip), %rax
	movq	%rax, 16(%rbx)
	movq	%rbx, %r12
	shrq	$3, %r12
	movl	$-235802127, 2147450880(%r12)
	movl	$-202116352, 2147450884(%r12)
.LBB26:
	.loc 1 45 18
	movq	-112(%rbp), %rax
	movq	%rax, %rdx
	shrq	$3, %rdx
	addq	$2147450880, %rdx
	movzbl	(%rdx), %edx
	testb	%dl, %dl
	je	.L63
	movq	%rax, %rdi
	call	__asan_report_load8@PLT
.L63:
	movq	-112(%rbp), %rax
	movq	(%rax), %rdx
	movq	-104(%rbp), %rax
	movq	%rax, %rcx
	shrq	$3, %rcx
	addq	$2147450880, %rcx
	movzbl	(%rcx), %ecx
	testb	%cl, %cl
	je	.L64
	movq	%rax, %rdi
	call	__asan_report_store8@PLT
.L64:
	movq	-104(%rbp), %rax
	movq	%rdx, (%rax)
	movq	-104(%rbp), %rax
	movq	(%rax), %rax
	subq	$24, %rax
	movq	%rax, %rdx
	movq	%rdx, %rcx
	shrq	$3, %rcx
	addq	$2147450880, %rcx
	movzbl	(%rcx), %ecx
	testb	%cl, %cl
	je	.L65
	movq	%rdx, %rdi
	call	__asan_report_load8@PLT
.L65:
	movq	(%rax), %rax
	movq	%rax, %rdx
	movq	-104(%rbp), %rax
	addq	%rdx, %rax
	movq	-112(%rbp), %rdx
	addq	$24, %rdx
	movq	%rdx, %rcx
	shrq	$3, %rcx
	addq	$2147450880, %rcx
	movzbl	(%rcx), %ecx
	testb	%cl, %cl
	je	.L66
	movq	%rdx, %rdi
	call	__asan_report_load8@PLT
.L66:
	movq	-112(%rbp), %rdx
	movq	24(%rdx), %rcx
	movq	%rax, %rdx
	movq	%rdx, %rsi
	shrq	$3, %rsi
	addq	$2147450880, %rsi
	movzbl	(%rsi), %esi
	testb	%sil, %sil
	je	.L67
	movq	%rdx, %rdi
	call	__asan_report_store8@PLT
.L67:
	movq	%rcx, (%rax)
.LBB27:
	.loc 1 47 30
	movl	$0, %edi
	call	time@PLT
	.loc 1 47 34
	leaq	-32(%r13), %rdx
	movq	%rdx, %rcx
	shrq	$3, %rcx
	addq	$2147450880, %rcx
	movzbl	(%rcx), %ecx
	testb	%cl, %cl
	je	.L68
	movq	%rdx, %rdi
	call	__asan_report_store8@PLT
.L68:
	movq	%rax, -32(%r13)
	.loc 1 49 8
	movq	-104(%rbp), %rax
	leaq	.LC5(%rip), %rdx
	movq	%rdx, %rsi
	movq	%rax, %rdi
	movl	$0, %eax
	call	_ZN6Logger3logEPKcz
	.loc 1 50 8
	leaq	-32(%r13), %rax
	movq	%rax, %rdi
	call	ctime@PLT
	movq	%rax, %rdx
	movq	-104(%rbp), %rax
	leaq	.LC6(%rip), %rcx
	movq	%rcx, %rsi
	movq	%rax, %rdi
	movl	$0, %eax
	call	_ZN6Logger3logEPKcz
	.loc 1 51 8
	movq	-104(%rbp), %rax
	leaq	.LC5(%rip), %rdx
	movq	%rdx, %rsi
	movq	%rax, %rdi
	movl	$0, %eax
	call	_ZN6Logger3logEPKcz
	.loc 1 53 11
	movq	-104(%rbp), %rax
	addq	$8, %rax
	movq	%rax, %rdx
	shrq	$3, %rdx
	addq	$2147450880, %rdx
	movzbl	(%rdx), %edx
	testb	%dl, %dl
	je	.L69
	movq	%rax, %rdi
	call	__asan_report_load8@PLT
.L69:
	movq	-104(%rbp), %rax
	movq	8(%rax), %rax
	movq	%rax, %rdi
	call	fclose@PLT
	.loc 1 54 12
	movq	-104(%rbp), %rax
	addq	$8, %rax
	movq	%rax, %rdx
	shrq	$3, %rdx
	addq	$2147450880, %rdx
	movzbl	(%rdx), %edx
	testb	%dl, %dl
	je	.L70
	movq	%rax, %rdi
	call	__asan_report_store8@PLT
.L70:
	movq	-104(%rbp), %rax
	movq	$0, 8(%rax)
	.loc 1 56 12
	leaq	.LC7(%rip), %rax
	movq	%rax, %rdi
	movl	$0, %eax
	call	printf@PLT
	leaq	-32(%r13), %rax
	shrq	$3, %rax
	addq	$2147450880, %rax
	movb	$-8, (%rax)
.LBE27:
	.loc 1 58 5
	movq	-104(%rbp), %rax
	movq	-112(%rbp), %rdx
	addq	$8, %rdx
	movq	%rdx, %rsi
	movq	%rax, %rdi
	call	_ZNSoD2Ev@PLT
.LBE26:
	nop
	.loc 1 45 1
	cmpq	%rbx, %r14
	je	.L60
	movq	$1172321806, (%rbx)
	movabsq	$-723401728380766731, %rax
	movq	%rax, 2147450880(%r12)
	movq	56(%rbx), %rax
	movb	$0, (%rax)
	jmp	.L61
.L60:
	movq	$0, 2147450880(%r12)
.L61:
	.loc 1 58 5
	addq	$80, %rsp
	popq	%rbx
	popq	%r12
	popq	%r13
	popq	%r14
	popq	%rbp
	.cfi_def_cfa 7, 8
	ret
	.cfi_endproc
.LFE2275:
	.section	.gcc_except_table
.LLSDA2275:
	.byte	0xff
	.byte	0xff
	.byte	0x1
	.uleb128 .LLSDACSE2275-.LLSDACSB2275
.LLSDACSB2275:
.LLSDACSE2275:
	.text
	.size	_ZN6LoggerD2Ev, .-_ZN6LoggerD2Ev
	.align 2
	.globl	_ZN6LoggerD1Ev
	.type	_ZN6LoggerD1Ev, @function
_ZN6LoggerD1Ev:
.LASANPC2276:
.LFB2276:
	.loc 1 45 1
	.cfi_startproc
	.cfi_personality 0x9b,DW.ref.__gxx_personality_v0
	.cfi_lsda 0x1b,.LLSDA2276
	endbr64
	pushq	%rbp
	.cfi_def_cfa_offset 16
	.cfi_offset 6, -16
	movq	%rsp, %rbp
	.cfi_def_cfa_register 6
	pushq	%r14
	pushq	%r13
	pushq	%r12
	pushq	%rbx
	subq	$80, %rsp
	.cfi_offset 14, -24
	.cfi_offset 13, -32
	.cfi_offset 12, -40
	.cfi_offset 3, -48
	movq	%rdi, -104(%rbp)
	leaq	-96(%rbp), %rbx
	movq	%rbx, %r14
	cmpl	$0, __asan_option_detect_stack_use_after_return(%rip)
	je	.L71
	movl	$64, %edi
	call	__asan_stack_malloc_0@PLT
	testq	%rax, %rax
	je	.L71
	movq	%rax, %rbx
.L71:
	leaq	64(%rbx), %rax
	movq	%rax, %r13
	movq	$1102416563, (%rbx)
	leaq	.LC4(%rip), %rax
	movq	%rax, 8(%rbx)
	leaq	.LASANPC2276(%rip), %rax
	movq	%rax, 16(%rbx)
	movq	%rbx, %r12
	shrq	$3, %r12
	movl	$-235802127, 2147450880(%r12)
	movl	$-202116352, 2147450884(%r12)
.LBB28:
	.loc 1 45 18
	leaq	24+_ZTV6Logger(%rip), %rcx
	movq	-104(%rbp), %rax
	movq	%rax, %rdx
	shrq	$3, %rdx
	addq	$2147450880, %rdx
	movzbl	(%rdx), %edx
	testb	%dl, %dl
	je	.L75
	movq	%rax, %rdi
	call	__asan_report_store8@PLT
.L75:
	movq	-104(%rbp), %rax
	movq	%rcx, (%rax)
	movq	-104(%rbp), %rax
	addq	$32, %rax
	leaq	64+_ZTV6Logger(%rip), %rsi
	movq	%rax, %rdx
	movq	%rdx, %rcx
	shrq	$3, %rcx
	addq	$2147450880, %rcx
	movzbl	(%rcx), %ecx
	testb	%cl, %cl
	je	.L76
	movq	%rdx, %rdi
	call	__asan_report_store8@PLT
.L76:
	movq	%rsi, (%rax)
.LBB29:
	.loc 1 47 30
	movl	$0, %edi
	call	time@PLT
	.loc 1 47 34
	leaq	-32(%r13), %rdx
	movq	%rdx, %rcx
	shrq	$3, %rcx
	addq	$2147450880, %rcx
	movzbl	(%rcx), %ecx
	testb	%cl, %cl
	je	.L77
	movq	%rdx, %rdi
	call	__asan_report_store8@PLT
.L77:
	movq	%rax, -32(%r13)
	.loc 1 49 8
	movq	-104(%rbp), %rax
	leaq	.LC5(%rip), %rdx
	movq	%rdx, %rsi
	movq	%rax, %rdi
	movl	$0, %eax
	call	_ZN6Logger3logEPKcz
	.loc 1 50 8
	leaq	-32(%r13), %rax
	movq	%rax, %rdi
	call	ctime@PLT
	movq	%rax, %rdx
	movq	-104(%rbp), %rax
	leaq	.LC6(%rip), %rcx
	movq	%rcx, %rsi
	movq	%rax, %rdi
	movl	$0, %eax
	call	_ZN6Logger3logEPKcz
	.loc 1 51 8
	movq	-104(%rbp), %rax
	leaq	.LC5(%rip), %rdx
	movq	%rdx, %rsi
	movq	%rax, %rdi
	movl	$0, %eax
	call	_ZN6Logger3logEPKcz
	.loc 1 53 11
	movq	-104(%rbp), %rax
	addq	$8, %rax
	movq	%rax, %rdx
	shrq	$3, %rdx
	addq	$2147450880, %rdx
	movzbl	(%rdx), %edx
	testb	%dl, %dl
	je	.L78
	movq	%rax, %rdi
	call	__asan_report_load8@PLT
.L78:
	movq	-104(%rbp), %rax
	movq	8(%rax), %rax
	movq	%rax, %rdi
	call	fclose@PLT
	.loc 1 54 12
	movq	-104(%rbp), %rax
	addq	$8, %rax
	movq	%rax, %rdx
	shrq	$3, %rdx
	addq	$2147450880, %rdx
	movzbl	(%rdx), %edx
	testb	%dl, %dl
	je	.L79
	movq	%rax, %rdi
	call	__asan_report_store8@PLT
.L79:
	movq	-104(%rbp), %rax
	movq	$0, 8(%rax)
	.loc 1 56 12
	leaq	.LC7(%rip), %rax
	movq	%rax, %rdi
	movl	$0, %eax
	call	printf@PLT
	leaq	-32(%r13), %rax
	shrq	$3, %rax
	addq	$2147450880, %rax
	movb	$-8, (%rax)
.LBE29:
	.loc 1 58 5
	movq	-104(%rbp), %rax
	leaq	8+_ZTT6Logger(%rip), %rdx
	movq	%rdx, %rsi
	movq	%rax, %rdi
	call	_ZNSoD2Ev@PLT
	movq	-104(%rbp), %rax
	addq	$32, %rax
	movq	%rax, %rdi
	call	_ZNSt9basic_iosIcSt11char_traitsIcEED2Ev@PLT
.LBE28:
	nop
	.loc 1 45 1
	cmpq	%rbx, %r14
	je	.L72
	movq	$1172321806, (%rbx)
	movabsq	$-723401728380766731, %rax
	movq	%rax, 2147450880(%r12)
	movq	56(%rbx), %rax
	movb	$0, (%rax)
	jmp	.L73
.L72:
	movq	$0, 2147450880(%r12)
.L73:
	.loc 1 58 5
	addq	$80, %rsp
	popq	%rbx
	popq	%r12
	popq	%r13
	popq	%r14
	popq	%rbp
	.cfi_def_cfa 7, 8
	ret
	.cfi_endproc
.LFE2276:
	.section	.gcc_except_table
.LLSDA2276:
	.byte	0xff
	.byte	0xff
	.byte	0x1
	.uleb128 .LLSDACSE2276-.LLSDACSB2276
.LLSDACSB2276:
.LLSDACSE2276:
	.text
	.size	_ZN6LoggerD1Ev, .-_ZN6LoggerD1Ev
	.set	.LTHUNK0,_ZN6LoggerD1Ev
	.globl	_ZTv0_n24_N6LoggerD1Ev
	.type	_ZTv0_n24_N6LoggerD1Ev, @function
_ZTv0_n24_N6LoggerD1Ev:
.LASANPC2979:
.LFB2979:
	.file 2 "../ATC/Logger/Logger.h"
	.loc 2 26 9
	.cfi_startproc
	endbr64
	movq	(%rdi), %r10
	addq	-24(%r10), %rdi
	jmp	.LTHUNK0
	.cfi_endproc
.LFE2979:
	.size	_ZTv0_n24_N6LoggerD1Ev, .-_ZTv0_n24_N6LoggerD1Ev
	.align 2
	.globl	_ZN6LoggerD0Ev
	.type	_ZN6LoggerD0Ev, @function
_ZN6LoggerD0Ev:
.LASANPC2277:
.LFB2277:
	.loc 1 45 1
	.cfi_startproc
	endbr64
	pushq	%rbp
	.cfi_def_cfa_offset 16
	.cfi_offset 6, -16
	movq	%rsp, %rbp
	.cfi_def_cfa_register 6
	subq	$16, %rsp
	movq	%rdi, -8(%rbp)
	.loc 1 58 5
	movq	-8(%rbp), %rax
	movq	%rax, %rdi
	call	_ZN6LoggerD1Ev
	movq	-8(%rbp), %rax
	movl	$296, %esi
	movq	%rax, %rdi
	call	_ZdlPvm@PLT
	leave
	.cfi_def_cfa 7, 8
	ret
	.cfi_endproc
.LFE2277:
	.size	_ZN6LoggerD0Ev, .-_ZN6LoggerD0Ev
	.set	.LTHUNK1,_ZN6LoggerD0Ev
	.globl	_ZTv0_n24_N6LoggerD0Ev
	.type	_ZTv0_n24_N6LoggerD0Ev, @function
_ZTv0_n24_N6LoggerD0Ev:
.LASANPC2980:
.LFB2980:
	.loc 2 26 9
	.cfi_startproc
	endbr64
	movq	(%rdi), %r10
	addq	-24(%r10), %rdi
	jmp	.LTHUNK1
	.cfi_endproc
.LFE2980:
	.size	_ZTv0_n24_N6LoggerD0Ev, .-_ZTv0_n24_N6LoggerD0Ev
	.align 2
	.globl	_ZN6Logger8getlevelEv
	.type	_ZN6Logger8getlevelEv, @function
_ZN6Logger8getlevelEv:
.LASANPC2278:
.LFB2278:
	.loc 1 62 5
	.cfi_startproc
	endbr64
	pushq	%rbp
	.cfi_def_cfa_offset 16
	.cfi_offset 6, -16
	movq	%rsp, %rbp
	.cfi_def_cfa_register 6
	subq	$16, %rsp
	movq	%rdi, -8(%rbp)
	.loc 1 62 14
	movq	-8(%rbp), %rax
	addq	$16, %rax
	movq	%rax, %rdx
	movq	%rdx, %rax
	shrq	$3, %rax
	addq	$2147450880, %rax
	movzbl	(%rax), %eax
	testb	%al, %al
	setne	%cl
	cmpb	$3, %al
	setle	%al
	andl	%ecx, %eax
	testb	%al, %al
	je	.L82
	movq	%rdx, %rdi
	call	__asan_report_load4@PLT
.L82:
	movq	-8(%rbp), %rax
	movl	16(%rax), %eax
	.loc 1 62 20
	leave
	.cfi_def_cfa 7, 8
	ret
	.cfi_endproc
.LFE2278:
	.size	_ZN6Logger8getlevelEv, .-_ZN6Logger8getlevelEv
	.align 2
	.globl	_ZN6Logger6getlogEv
	.type	_ZN6Logger6getlogEv, @function
_ZN6Logger6getlogEv:
.LASANPC2279:
.LFB2279:
	.loc 1 65 5
	.cfi_startproc
	endbr64
	pushq	%rbp
	.cfi_def_cfa_offset 16
	.cfi_offset 6, -16
	movq	%rsp, %rbp
	.cfi_def_cfa_register 6
	subq	$16, %rsp
	movq	%rdi, -8(%rbp)
	.loc 1 65 14
	movq	-8(%rbp), %rax
	addq	$8, %rax
	movq	%rax, %rdx
	shrq	$3, %rdx
	addq	$2147450880, %rdx
	movzbl	(%rdx), %edx
	testb	%dl, %dl
	je	.L85
	movq	%rax, %rdi
	call	__asan_report_load8@PLT
.L85:
	movq	-8(%rbp), %rax
	movq	8(%rax), %rax
	.loc 1 65 22
	leave
	.cfi_def_cfa 7, 8
	ret
	.cfi_endproc
.LFE2279:
	.size	_ZN6Logger6getlogEv, .-_ZN6Logger6getlogEv
	.align 2
	.globl	_ZN6Logger9getindentEv
	.type	_ZN6Logger9getindentEv, @function
_ZN6Logger9getindentEv:
.LASANPC2280:
.LFB2280:
	.loc 1 68 5
	.cfi_startproc
	endbr64
	pushq	%rbp
	.cfi_def_cfa_offset 16
	.cfi_offset 6, -16
	movq	%rsp, %rbp
	.cfi_def_cfa_register 6
	subq	$16, %rsp
	movq	%rdi, -8(%rbp)
	.loc 1 68 14
	movq	-8(%rbp), %rax
	addq	$20, %rax
	movq	%rax, %rdx
	shrq	$3, %rdx
	addq	$2147450880, %rdx
	movzbl	(%rdx), %edx
	testb	%dl, %dl
	setne	%sil
	movq	%rax, %rcx
	andl	$7, %ecx
	addl	$3, %ecx
	cmpb	%dl, %cl
	setge	%dl
	andl	%esi, %edx
	testb	%dl, %dl
	je	.L88
	movq	%rax, %rdi
	call	__asan_report_load4@PLT
.L88:
	movq	-8(%rbp), %rax
	movl	20(%rax), %eax
	.loc 1 68 22
	leave
	.cfi_def_cfa 7, 8
	ret
	.cfi_endproc
.LFE2280:
	.size	_ZN6Logger9getindentEv, .-_ZN6Logger9getindentEv
	.align 2
	.globl	_ZN6Logger8setlevelEi
	.type	_ZN6Logger8setlevelEi, @function
_ZN6Logger8setlevelEi:
.LASANPC2281:
.LFB2281:
	.loc 1 71 5
	.cfi_startproc
	endbr64
	pushq	%rbp
	.cfi_def_cfa_offset 16
	.cfi_offset 6, -16
	movq	%rsp, %rbp
	.cfi_def_cfa_register 6
	subq	$16, %rsp
	movq	%rdi, -8(%rbp)
	movl	%esi, -12(%rbp)
	.loc 1 72 5
	cmpl	$0, -12(%rbp)
	js	.L91
	.loc 1 73 15
	movq	-8(%rbp), %rax
	addq	$16, %rax
	movq	%rax, %rdx
	movq	%rdx, %rax
	shrq	$3, %rax
	addq	$2147450880, %rax
	movzbl	(%rax), %eax
	testb	%al, %al
	setne	%cl
	cmpb	$3, %al
	setle	%al
	andl	%ecx, %eax
	testb	%al, %al
	je	.L92
	movq	%rdx, %rdi
	call	__asan_report_store4@PLT
.L92:
	movq	-8(%rbp), %rax
	movl	-12(%rbp), %edx
	movl	%edx, 16(%rax)
.L91:
	.loc 1 75 12
	movq	-8(%rbp), %rax
	addq	$16, %rax
	movq	%rax, %rdx
	movq	%rdx, %rax
	shrq	$3, %rax
	addq	$2147450880, %rax
	movzbl	(%rax), %eax
	testb	%al, %al
	setne	%cl
	cmpb	$3, %al
	setle	%al
	andl	%ecx, %eax
	testb	%al, %al
	je	.L93
	movq	%rdx, %rdi
	call	__asan_report_load4@PLT
.L93:
	movq	-8(%rbp), %rax
	movl	16(%rax), %eax
	.loc 1 76 5
	leave
	.cfi_def_cfa 7, 8
	ret
	.cfi_endproc
.LFE2281:
	.size	_ZN6Logger8setlevelEi, .-_ZN6Logger8setlevelEi
	.align 2
	.globl	_ZN6Logger9setindentEi
	.type	_ZN6Logger9setindentEi, @function
_ZN6Logger9setindentEi:
.LASANPC2282:
.LFB2282:
	.loc 1 79 5
	.cfi_startproc
	endbr64
	pushq	%rbp
	.cfi_def_cfa_offset 16
	.cfi_offset 6, -16
	movq	%rsp, %rbp
	.cfi_def_cfa_register 6
	subq	$16, %rsp
	movq	%rdi, -8(%rbp)
	movl	%esi, -12(%rbp)
	.loc 1 80 5
	cmpl	$0, -12(%rbp)
	js	.L96
	.loc 1 81 16
	movq	-8(%rbp), %rax
	addq	$20, %rax
	movq	%rax, %rdx
	shrq	$3, %rdx
	addq	$2147450880, %rdx
	movzbl	(%rdx), %edx
	testb	%dl, %dl
	setne	%sil
	movq	%rax, %rcx
	andl	$7, %ecx
	addl	$3, %ecx
	cmpb	%dl, %cl
	setge	%dl
	andl	%esi, %edx
	testb	%dl, %dl
	je	.L97
	movq	%rax, %rdi
	call	__asan_report_store4@PLT
.L97:
	movq	-8(%rbp), %rax
	movl	-12(%rbp), %edx
	movl	%edx, 20(%rax)
.L96:
	.loc 1 83 12
	movq	-8(%rbp), %rax
	addq	$20, %rax
	movq	%rax, %rdx
	shrq	$3, %rdx
	addq	$2147450880, %rdx
	movzbl	(%rdx), %edx
	testb	%dl, %dl
	setne	%sil
	movq	%rax, %rcx
	andl	$7, %ecx
	addl	$3, %ecx
	cmpb	%dl, %cl
	setge	%dl
	andl	%esi, %edx
	testb	%dl, %dl
	je	.L98
	movq	%rax, %rdi
	call	__asan_report_load4@PLT
.L98:
	movq	-8(%rbp), %rax
	movl	20(%rax), %eax
	.loc 1 84 5
	leave
	.cfi_def_cfa 7, 8
	ret
	.cfi_endproc
.LFE2282:
	.size	_ZN6Logger9setindentEi, .-_ZN6Logger9setindentEi
	.globl	__asan_stack_malloc_1
	.section	.rodata
.LC8:
	.string	"1 32 24 6 ptr:93"
	.text
	.align 2
	.globl	_ZN6Logger3logEPKcz
	.type	_ZN6Logger3logEPKcz, @function
_ZN6Logger3logEPKcz:
.LASANPC2283:
.LFB2283:
	.loc 1 89 5
	.cfi_startproc
	endbr64
	pushq	%rbp
	.cfi_def_cfa_offset 16
	.cfi_offset 6, -16
	movq	%rsp, %rbp
	.cfi_def_cfa_register 6
	pushq	%r14
	pushq	%r13
	pushq	%r12
	pushq	%rbx
	subq	$288, %rsp
	.cfi_offset 14, -24
	.cfi_offset 13, -32
	.cfi_offset 12, -40
	.cfi_offset 3, -48
	movq	%rdi, -312(%rbp)
	movq	%rsi, -320(%rbp)
	movq	%rdx, -192(%rbp)
	movq	%rcx, -184(%rbp)
	movq	%r8, -176(%rbp)
	movq	%r9, -168(%rbp)
	testb	%al, %al
	je	.L104
	movaps	%xmm0, -160(%rbp)
	movaps	%xmm1, -144(%rbp)
	movaps	%xmm2, -128(%rbp)
	movaps	%xmm3, -112(%rbp)
	movaps	%xmm4, -96(%rbp)
	movaps	%xmm5, -80(%rbp)
	movaps	%xmm6, -64(%rbp)
	movaps	%xmm7, -48(%rbp)
.L104:
	leaq	-304(%rbp), %rbx
	movq	%rbx, %r14
	cmpl	$0, __asan_option_detect_stack_use_after_return(%rip)
	je	.L100
	movl	$96, %edi
	call	__asan_stack_malloc_1@PLT
	testq	%rax, %rax
	je	.L100
	movq	%rax, %rbx
.L100:
	leaq	96(%rbx), %rax
	movq	%rax, %r13
	movq	$1102416563, (%rbx)
	leaq	.LC8(%rip), %rax
	movq	%rax, 8(%rbx)
	leaq	.LASANPC2283(%rip), %rax
	movq	%rax, 16(%rbx)
	movq	%rbx, %r12
	shrq	$3, %r12
	movl	$-235802127, 2147450880(%r12)
	movl	$-218103808, 2147450884(%r12)
	movl	$-202116109, 2147450888(%r12)
	.loc 1 90 9
	movq	-312(%rbp), %rax
	addq	$16, %rax
	movq	%rax, %rdx
	movq	%rdx, %rax
	shrq	$3, %rax
	addq	$2147450880, %rax
	movzbl	(%rax), %eax
	testb	%al, %al
	setne	%cl
	cmpb	$3, %al
	setle	%al
	andl	%ecx, %eax
	testb	%al, %al
	je	.L105
	movq	%rdx, %rdi
	call	__asan_report_load4@PLT
.L105:
	movq	-312(%rbp), %rax
	movl	16(%rax), %eax
	.loc 1 90 5
	testl	%eax, %eax
	js	.L112
	.loc 1 94 22
	movl	$16, -64(%r13)
	movl	$48, -60(%r13)
	leaq	16(%rbp), %rax
	movq	%rax, -56(%r13)
	leaq	-208(%rbp), %rax
	movq	%rax, -48(%r13)
	.loc 1 96 16
	movq	-312(%rbp), %rax
	addq	$20, %rax
	movq	%rax, %rdx
	shrq	$3, %rdx
	addq	$2147450880, %rdx
	movzbl	(%rdx), %edx
	testb	%dl, %dl
	setne	%sil
	movq	%rax, %rcx
	andl	$7, %ecx
	addl	$3, %ecx
	cmpb	%dl, %cl
	setge	%dl
	andl	%esi, %edx
	testb	%dl, %dl
	je	.L108
	movq	%rax, %rdi
	call	__asan_report_load4@PLT
.L108:
	movq	-312(%rbp), %rax
	movl	20(%rax), %edx
	movq	-312(%rbp), %rax
	addq	$8, %rax
	movq	%rax, %rcx
	shrq	$3, %rcx
	addq	$2147450880, %rcx
	movzbl	(%rcx), %ecx
	testb	%cl, %cl
	je	.L109
	movq	%rax, %rdi
	call	__asan_report_load8@PLT
.L109:
	movq	-312(%rbp), %rax
	movq	8(%rax), %rax
	movl	%edx, %esi
	movq	%rax, %rdi
	call	_Z10fsetindentP8_IO_FILEi@PLT
	.loc 1 97 14
	movq	-312(%rbp), %rax
	addq	$8, %rax
	movq	%rax, %rdx
	shrq	$3, %rdx
	addq	$2147450880, %rdx
	movzbl	(%rdx), %edx
	testb	%dl, %dl
	je	.L110
	movq	%rax, %rdi
	call	__asan_report_load8@PLT
.L110:
	movq	-312(%rbp), %rax
	movq	8(%rax), %rax
	leaq	-64(%r13), %rdx
	movq	-320(%rbp), %rcx
	movq	%rcx, %rsi
	movq	%rax, %rdi
	call	vfprintf@PLT
	.loc 1 103 5
	jmp	.L103
.L112:
	.loc 1 91 9
	nop
.L103:
	.loc 1 89 5
	cmpq	%rbx, %r14
	je	.L101
	movq	$1172321806, (%rbx)
	movabsq	$-723401728380766731, %rax
	movq	%rax, 2147450880(%r12)
	movl	$-168430091, 2147450888(%r12)
	movq	120(%rbx), %rax
	movb	$0, (%rax)
	jmp	.L102
.L101:
	movq	$0, 2147450880(%r12)
	movl	$0, 2147450888(%r12)
.L102:
	.loc 1 104 5
	addq	$288, %rsp
	popq	%rbx
	popq	%r12
	popq	%r13
	popq	%r14
	popq	%rbp
	.cfi_def_cfa 7, 8
	ret
	.cfi_endproc
.LFE2283:
	.size	_ZN6Logger3logEPKcz, .-_ZN6Logger3logEPKcz
	.section	.rodata
.LC9:
	.string	"1 32 24 7 ptr:108"
	.text
	.align 2
	.globl	_ZN6Logger9log_nolvlEPKcz
	.type	_ZN6Logger9log_nolvlEPKcz, @function
_ZN6Logger9log_nolvlEPKcz:
.LASANPC2284:
.LFB2284:
	.loc 1 107 5
	.cfi_startproc
	endbr64
	pushq	%rbp
	.cfi_def_cfa_offset 16
	.cfi_offset 6, -16
	movq	%rsp, %rbp
	.cfi_def_cfa_register 6
	pushq	%r14
	pushq	%r13
	pushq	%r12
	pushq	%rbx
	subq	$288, %rsp
	.cfi_offset 14, -24
	.cfi_offset 13, -32
	.cfi_offset 12, -40
	.cfi_offset 3, -48
	movq	%rdi, -312(%rbp)
	movq	%rsi, -320(%rbp)
	movq	%rdx, -192(%rbp)
	movq	%rcx, -184(%rbp)
	movq	%r8, -176(%rbp)
	movq	%r9, -168(%rbp)
	testb	%al, %al
	je	.L117
	movaps	%xmm0, -160(%rbp)
	movaps	%xmm1, -144(%rbp)
	movaps	%xmm2, -128(%rbp)
	movaps	%xmm3, -112(%rbp)
	movaps	%xmm4, -96(%rbp)
	movaps	%xmm5, -80(%rbp)
	movaps	%xmm6, -64(%rbp)
	movaps	%xmm7, -48(%rbp)
.L117:
	leaq	-304(%rbp), %rbx
	movq	%rbx, %r14
	cmpl	$0, __asan_option_detect_stack_use_after_return(%rip)
	je	.L113
	movl	$96, %edi
	call	__asan_stack_malloc_1@PLT
	testq	%rax, %rax
	je	.L113
	movq	%rax, %rbx
.L113:
	leaq	96(%rbx), %rax
	movq	%rax, %r13
	movq	$1102416563, (%rbx)
	leaq	.LC9(%rip), %rax
	movq	%rax, 8(%rbx)
	leaq	.LASANPC2284(%rip), %rax
	movq	%rax, 16(%rbx)
	movq	%rbx, %r12
	shrq	$3, %r12
	movl	$-235802127, 2147450880(%r12)
	movl	$-218103808, 2147450884(%r12)
	movl	$-202116109, 2147450888(%r12)
	.loc 1 109 22
	movl	$16, -64(%r13)
	movl	$48, -60(%r13)
	leaq	16(%rbp), %rax
	movq	%rax, -56(%r13)
	leaq	-208(%rbp), %rax
	movq	%rax, -48(%r13)
	.loc 1 111 16
	movq	-312(%rbp), %rax
	addq	$20, %rax
	movq	%rax, %rdx
	shrq	$3, %rdx
	addq	$2147450880, %rdx
	movzbl	(%rdx), %edx
	testb	%dl, %dl
	setne	%sil
	movq	%rax, %rcx
	andl	$7, %ecx
	addl	$3, %ecx
	cmpb	%dl, %cl
	setge	%dl
	andl	%esi, %edx
	testb	%dl, %dl
	je	.L118
	movq	%rax, %rdi
	call	__asan_report_load4@PLT
.L118:
	movq	-312(%rbp), %rax
	movl	20(%rax), %edx
	movq	-312(%rbp), %rax
	addq	$8, %rax
	movq	%rax, %rcx
	shrq	$3, %rcx
	addq	$2147450880, %rcx
	movzbl	(%rcx), %ecx
	testb	%cl, %cl
	je	.L119
	movq	%rax, %rdi
	call	__asan_report_load8@PLT
.L119:
	movq	-312(%rbp), %rax
	movq	8(%rax), %rax
	movl	%edx, %esi
	movq	%rax, %rdi
	call	_Z10fsetindentP8_IO_FILEi@PLT
	.loc 1 112 14
	movq	-312(%rbp), %rax
	addq	$8, %rax
	movq	%rax, %rdx
	shrq	$3, %rdx
	addq	$2147450880, %rdx
	movzbl	(%rdx), %edx
	testb	%dl, %dl
	je	.L120
	movq	%rax, %rdi
	call	__asan_report_load8@PLT
.L120:
	movq	-312(%rbp), %rax
	movq	8(%rax), %rax
	leaq	-64(%r13), %rdx
	movq	-320(%rbp), %rcx
	movq	%rcx, %rsi
	movq	%rax, %rdi
	call	vfprintf@PLT
	.loc 1 118 5
	nop
	.loc 1 107 5
	cmpq	%rbx, %r14
	je	.L114
	movq	$1172321806, (%rbx)
	movabsq	$-723401728380766731, %rax
	movq	%rax, 2147450880(%r12)
	movl	$-168430091, 2147450888(%r12)
	movq	120(%rbx), %rax
	movb	$0, (%rax)
	jmp	.L115
.L114:
	movq	$0, 2147450880(%r12)
	movl	$0, 2147450888(%r12)
.L115:
	.loc 1 119 5
	addq	$288, %rsp
	popq	%rbx
	popq	%r12
	popq	%r13
	popq	%r14
	popq	%rbp
	.cfi_def_cfa 7, 8
	ret
	.cfi_endproc
.LFE2284:
	.size	_ZN6Logger9log_nolvlEPKcz, .-_ZN6Logger9log_nolvlEPKcz
	.section	.rodata
.LC10:
	.string	"1 32 24 7 ptr:126"
	.text
	.align 2
	.globl	_ZN6Logger13log_no_indentEPKcz
	.type	_ZN6Logger13log_no_indentEPKcz, @function
_ZN6Logger13log_no_indentEPKcz:
.LASANPC2285:
.LFB2285:
	.loc 1 122 5
	.cfi_startproc
	endbr64
	pushq	%rbp
	.cfi_def_cfa_offset 16
	.cfi_offset 6, -16
	movq	%rsp, %rbp
	.cfi_def_cfa_register 6
	pushq	%r13
	pushq	%r12
	pushq	%rbx
	subq	$296, %rsp
	.cfi_offset 13, -24
	.cfi_offset 12, -32
	.cfi_offset 3, -40
	movq	%rdi, -312(%rbp)
	movq	%rsi, -320(%rbp)
	movq	%rdx, -192(%rbp)
	movq	%rcx, -184(%rbp)
	movq	%r8, -176(%rbp)
	movq	%r9, -168(%rbp)
	testb	%al, %al
	je	.L126
	movaps	%xmm0, -160(%rbp)
	movaps	%xmm1, -144(%rbp)
	movaps	%xmm2, -128(%rbp)
	movaps	%xmm3, -112(%rbp)
	movaps	%xmm4, -96(%rbp)
	movaps	%xmm5, -80(%rbp)
	movaps	%xmm6, -64(%rbp)
	movaps	%xmm7, -48(%rbp)
.L126:
	leaq	-304(%rbp), %rbx
	movq	%rbx, %r13
	cmpl	$0, __asan_option_detect_stack_use_after_return(%rip)
	je	.L122
	movl	$96, %edi
	call	__asan_stack_malloc_1@PLT
	testq	%rax, %rax
	je	.L122
	movq	%rax, %rbx
.L122:
	leaq	96(%rbx), %rax
	movq	$1102416563, (%rbx)
	leaq	.LC10(%rip), %rdx
	movq	%rdx, 8(%rbx)
	leaq	.LASANPC2285(%rip), %rdx
	movq	%rdx, 16(%rbx)
	movq	%rbx, %r12
	shrq	$3, %r12
	movl	$-235802127, 2147450880(%r12)
	movl	$-218103808, 2147450884(%r12)
	movl	$-202116109, 2147450888(%r12)
	.loc 1 123 9
	movq	-312(%rbp), %rdx
	addq	$16, %rdx
	movq	%rdx, %rcx
	movq	%rcx, %rdx
	shrq	$3, %rdx
	addq	$2147450880, %rdx
	movzbl	(%rdx), %edx
	testb	%dl, %dl
	setne	%sil
	cmpb	$3, %dl
	setle	%dl
	andl	%esi, %edx
	testb	%dl, %dl
	je	.L127
	movq	%rcx, %rdi
	call	__asan_report_load4@PLT
.L127:
	movq	-312(%rbp), %rdx
	movl	16(%rdx), %edx
	.loc 1 123 5
	testl	%edx, %edx
	js	.L132
	.loc 1 127 22
	movl	$16, -64(%rax)
	movl	$48, -60(%rax)
	leaq	16(%rbp), %rsi
	movq	%rsi, -56(%rax)
	leaq	-208(%rbp), %rdi
	movq	%rdi, -48(%rax)
	.loc 1 130 14
	movq	-312(%rbp), %rdx
	addq	$8, %rdx
	movq	%rdx, %rcx
	shrq	$3, %rcx
	addq	$2147450880, %rcx
	movzbl	(%rcx), %ecx
	testb	%cl, %cl
	je	.L130
	movq	%rdx, %rdi
	call	__asan_report_load8@PLT
.L130:
	movq	-312(%rbp), %rdx
	movq	8(%rdx), %rcx
	leaq	-64(%rax), %rdx
	movq	-320(%rbp), %rax
	movq	%rax, %rsi
	movq	%rcx, %rdi
	call	vfprintf@PLT
	.loc 1 136 5
	jmp	.L125
.L132:
	.loc 1 124 9
	nop
.L125:
	.loc 1 122 5
	cmpq	%rbx, %r13
	je	.L123
	movq	$1172321806, (%rbx)
	movabsq	$-723401728380766731, %rax
	movq	%rax, 2147450880(%r12)
	movl	$-168430091, 2147450888(%r12)
	movq	120(%rbx), %rax
	movb	$0, (%rax)
	jmp	.L124
.L123:
	movq	$0, 2147450880(%r12)
	movl	$0, 2147450888(%r12)
.L124:
	.loc 1 137 5
	addq	$296, %rsp
	popq	%rbx
	popq	%r12
	popq	%r13
	popq	%rbp
	.cfi_def_cfa 7, 8
	ret
	.cfi_endproc
.LFE2285:
	.size	_ZN6Logger13log_no_indentEPKcz, .-_ZN6Logger13log_no_indentEPKcz
	.globl	__asan_stack_malloc_2
	.section	.rodata
	.align 8
.LC11:
	.string	"2 32 24 11 for_log:142 96 24 15 for_console:143"
	.text
	.align 2
	.globl	_ZN6Logger15log_dup_consoleEPKcz
	.type	_ZN6Logger15log_dup_consoleEPKcz, @function
_ZN6Logger15log_dup_consoleEPKcz:
.LASANPC2286:
.LFB2286:
	.loc 1 140 5
	.cfi_startproc
	endbr64
	pushq	%rbp
	.cfi_def_cfa_offset 16
	.cfi_offset 6, -16
	movq	%rsp, %rbp
	.cfi_def_cfa_register 6
	pushq	%r14
	pushq	%r13
	pushq	%r12
	pushq	%rbx
	subq	$352, %rsp
	.cfi_offset 14, -24
	.cfi_offset 13, -32
	.cfi_offset 12, -40
	.cfi_offset 3, -48
	movq	%rdi, -376(%rbp)
	movq	%rsi, -384(%rbp)
	movq	%rdx, -192(%rbp)
	movq	%rcx, -184(%rbp)
	movq	%r8, -176(%rbp)
	movq	%r9, -168(%rbp)
	testb	%al, %al
	je	.L137
	movaps	%xmm0, -160(%rbp)
	movaps	%xmm1, -144(%rbp)
	movaps	%xmm2, -128(%rbp)
	movaps	%xmm3, -112(%rbp)
	movaps	%xmm4, -96(%rbp)
	movaps	%xmm5, -80(%rbp)
	movaps	%xmm6, -64(%rbp)
	movaps	%xmm7, -48(%rbp)
.L137:
	leaq	-368(%rbp), %rbx
	movq	%rbx, %r14
	cmpl	$0, __asan_option_detect_stack_use_after_return(%rip)
	je	.L133
	movl	$160, %edi
	call	__asan_stack_malloc_2@PLT
	testq	%rax, %rax
	je	.L133
	movq	%rax, %rbx
.L133:
	leaq	160(%rbx), %rax
	movq	%rax, %r13
	movq	$1102416563, (%rbx)
	leaq	.LC11(%rip), %rax
	movq	%rax, 8(%rbx)
	leaq	.LASANPC2286(%rip), %rax
	movq	%rax, 16(%rbx)
	movq	%rbx, %r12
	shrq	$3, %r12
	movl	$-235802127, 2147450880(%r12)
	movl	$-234881024, 2147450884(%r12)
	movl	$-218959118, 2147450888(%r12)
	movl	$-218103808, 2147450892(%r12)
	movl	$-202116109, 2147450896(%r12)
	.loc 1 145 22
	movl	$16, -128(%r13)
	movl	$48, -124(%r13)
	leaq	16(%rbp), %rax
	movq	%rax, -120(%r13)
	leaq	-208(%rbp), %rax
	movq	%rax, -112(%r13)
	.loc 1 146 22
	movl	$16, -64(%r13)
	movl	$48, -60(%r13)
	leaq	16(%rbp), %rax
	movq	%rax, -56(%r13)
	leaq	-208(%rbp), %rax
	movq	%rax, -48(%r13)
	.loc 1 148 14
	movq	-376(%rbp), %rax
	addq	$8, %rax
	movq	%rax, %rdx
	shrq	$3, %rdx
	addq	$2147450880, %rdx
	movzbl	(%rdx), %edx
	testb	%dl, %dl
	je	.L138
	movq	%rax, %rdi
	call	__asan_report_load8@PLT
.L138:
	movq	-376(%rbp), %rax
	movq	8(%rax), %rax
	leaq	-128(%r13), %rdx
	movq	-384(%rbp), %rcx
	movq	%rcx, %rsi
	movq	%rax, %rdi
	call	vfprintf@PLT
	.loc 1 149 14
	leaq	-64(%r13), %rdx
	movq	-384(%rbp), %rax
	movq	%rdx, %rsi
	movq	%rax, %rdi
	call	vprintf@PLT
	.loc 1 154 5
	nop
	.loc 1 140 5
	cmpq	%rbx, %r14
	je	.L134
	movq	$1172321806, (%rbx)
	movabsq	$-723401728380766731, %rax
	movabsq	$-723401728380766731, %rdx
	movq	%rax, 2147450880(%r12)
	movq	%rdx, 2147450888(%r12)
	movl	$-168430091, 2147450896(%r12)
	movq	248(%rbx), %rax
	movb	$0, (%rax)
	jmp	.L135
.L134:
	movq	$0, 2147450880(%r12)
	movq	$0, 2147450888(%r12)
	movl	$0, 2147450896(%r12)
.L135:
	.loc 1 155 5
	addq	$352, %rsp
	popq	%rbx
	popq	%r12
	popq	%r13
	popq	%r14
	popq	%rbp
	.cfi_def_cfa 7, 8
	ret
	.cfi_endproc
.LFE2286:
	.size	_ZN6Logger15log_dup_consoleEPKcz, .-_ZN6Logger15log_dup_consoleEPKcz
	.section	.rodata
	.align 32
.LC12:
	.string	"void Logger::logmsg(char*)"
	.zero	37
	.align 32
.LC13:
	.string	"../ATC/Logger/Logger.cpp"
	.zero	39
	.align 32
.LC14:
	.string	"message"
	.zero	56
	.text
	.align 2
	.globl	_ZN6Logger6logmsgEPc
	.type	_ZN6Logger6logmsgEPc, @function
_ZN6Logger6logmsgEPc:
.LASANPC2287:
.LFB2287:
	.loc 1 158 5
	.cfi_startproc
	endbr64
	pushq	%rbp
	.cfi_def_cfa_offset 16
	.cfi_offset 6, -16
	movq	%rsp, %rbp
	.cfi_def_cfa_register 6
	subq	$16, %rsp
	movq	%rdi, -8(%rbp)
	movq	%rsi, -16(%rbp)
	.loc 1 159 6
	cmpq	$0, -16(%rbp)
	jne	.L141
	.loc 1 159 33 discriminator 1
	call	__asan_handle_no_return@PLT
	leaq	.LC12(%rip), %rax
	movq	%rax, %rcx
	movl	$159, %edx
	leaq	.LC13(%rip), %rax
	movq	%rax, %rsi
	leaq	.LC14(%rip), %rax
	movq	%rax, %rdi
	call	__assert_fail@PLT
.L141:
	.loc 1 161 13
	movq	-8(%rbp), %rax
	addq	$8, %rax
	movq	%rax, %rdx
	shrq	$3, %rdx
	addq	$2147450880, %rdx
	movzbl	(%rdx), %edx
	testb	%dl, %dl
	je	.L142
	movq	%rax, %rdi
	call	__asan_report_load8@PLT
.L142:
	movq	-8(%rbp), %rax
	movq	8(%rax), %rax
	movq	-16(%rbp), %rdx
	leaq	.LC3(%rip), %rcx
	movq	%rcx, %rsi
	movq	%rax, %rdi
	movl	$0, %eax
	call	fprintf@PLT
	.loc 1 163 5
	nop
	.loc 1 164 5
	leave
	.cfi_def_cfa 7, 8
	ret
	.cfi_endproc
.LFE2287:
	.size	_ZN6Logger6logmsgEPc, .-_ZN6Logger6logmsgEPc
	.section	.rodata
	.align 32
.LC15:
	.string	"LOG CALLOC:     {%p} = calloc (%zu, %zu = %zu) from %s:%d, at %s:%d\n"
	.zero	59
	.align 32
.LC16:
	.string	"LOG CALLOC: Couldn't allocate memory\n"
	.zero	58
	.align 32
.LC17:
	.string	"LOG CALLOC: Couldn't allocate memory of size %zu (%zu*%zu) at %s:%d, %s:%d\n"
	.zero	52
	.text
	.align 2
	.globl	_ZN6Logger7CAL_LOGEmmPKcS1_i
	.type	_ZN6Logger7CAL_LOGEmmPKcS1_i, @function
_ZN6Logger7CAL_LOGEmmPKcS1_i:
.LASANPC2288:
.LFB2288:
	.loc 1 167 5
	.cfi_startproc
	endbr64
	pushq	%rbp
	.cfi_def_cfa_offset 16
	.cfi_offset 6, -16
	movq	%rsp, %rbp
	.cfi_def_cfa_register 6
	subq	$64, %rsp
	movq	%rdi, -24(%rbp)
	movq	%rsi, -32(%rbp)
	movq	%rdx, -40(%rbp)
	movq	%rcx, -48(%rbp)
	movq	%r8, -56(%rbp)
	movl	%r9d, -60(%rbp)
	.loc 1 168 24
	movq	-40(%rbp), %rdx
	movq	-32(%rbp), %rax
	movq	%rdx, %rsi
	movq	%rax, %rdi
	call	calloc@PLT
	movq	%rax, -8(%rbp)
	.loc 1 170 24
	call	_ZN6Logger11getInstanceEv
	movq	%rax, %rdi
	.loc 1 170 37
	movq	-32(%rbp), %rax
	imulq	-40(%rbp), %rax
	movq	%rax, %r8
	movq	-40(%rbp), %rsi
	movq	-32(%rbp), %rdx
	movq	-8(%rbp), %rax
	movl	-60(%rbp), %ecx
	pushq	%rcx
	pushq	-48(%rbp)
	movl	-60(%rbp), %ecx
	pushq	%rcx
	pushq	-56(%rbp)
	movq	%r8, %r9
	movq	%rsi, %r8
	movq	%rdx, %rcx
	movq	%rax, %rdx
	leaq	.LC15(%rip), %rax
	movq	%rax, %rsi
	movl	$0, %eax
	call	_ZN6Logger9log_nolvlEPKcz
	addq	$32, %rsp
	.loc 1 173 5
	cmpq	$0, -8(%rbp)
	jne	.L145
	.loc 1 175 28
	call	_ZN6Logger11getInstanceEv
	movq	%rax, %rdx
	.loc 1 175 40
	leaq	.LC16(%rip), %rax
	movq	%rax, %rsi
	movq	%rdx, %rdi
	movl	$0, %eax
	call	_ZN6Logger9log_nolvlEPKcz
	.loc 1 176 15
	movq	-32(%rbp), %rax
	imulq	-40(%rbp), %rax
	movl	-60(%rbp), %r8d
	movq	-56(%rbp), %rdi
	movq	-40(%rbp), %rcx
	movq	-32(%rbp), %rdx
	movl	-60(%rbp), %esi
	pushq	%rsi
	pushq	-48(%rbp)
	movl	%r8d, %r9d
	movq	%rdi, %r8
	movq	%rax, %rsi
	leaq	.LC17(%rip), %rax
	movq	%rax, %rdi
	movl	$0, %eax
	call	printf@PLT
	addq	$16, %rsp
.L145:
	.loc 1 180 12
	movq	-8(%rbp), %rax
	.loc 1 181 5
	leave
	.cfi_def_cfa 7, 8
	ret
	.cfi_endproc
.LFE2288:
	.size	_ZN6Logger7CAL_LOGEmmPKcS1_i, .-_ZN6Logger7CAL_LOGEmmPKcS1_i
	.section	.rodata
	.align 32
.LC18:
	.string	"LOG FREE (kill): Atempt to free null pointer from: %s:%d, at %s:%d\n"
	.zero	60
	.align 32
.LC19:
	.string	"LOG FREE (kiLL): Atempt to free null pointer from: %s:%d, at %s:%d\n"
	.zero	60
	.align 32
.LC20:
	.string	"LOG FREE(kill): {%p} - will be freed from %s:%d, at %s:%d\n"
	.zero	37
	.text
	.align 2
	.globl	_ZN6Logger8FREE_LOGEPvPKcS2_i
	.type	_ZN6Logger8FREE_LOGEPvPKcS2_i, @function
_ZN6Logger8FREE_LOGEPvPKcS2_i:
.LASANPC2289:
.LFB2289:
	.loc 1 184 5
	.cfi_startproc
	endbr64
	pushq	%rbp
	.cfi_def_cfa_offset 16
	.cfi_offset 6, -16
	movq	%rsp, %rbp
	.cfi_def_cfa_register 6
	subq	$48, %rsp
	movq	%rdi, -8(%rbp)
	movq	%rsi, -16(%rbp)
	movq	%rdx, -24(%rbp)
	movq	%rcx, -32(%rbp)
	movl	%r8d, -36(%rbp)
	.loc 1 185 5
	cmpq	$0, -16(%rbp)
	jne	.L148
	.loc 1 187 28
	call	_ZN6Logger11getInstanceEv
	movq	%rax, %rdi
	.loc 1 187 40
	movl	-36(%rbp), %esi
	movq	-24(%rbp), %rcx
	movl	-36(%rbp), %edx
	movq	-32(%rbp), %rax
	movl	%esi, %r9d
	movq	%rcx, %r8
	movl	%edx, %ecx
	movq	%rax, %rdx
	leaq	.LC18(%rip), %rax
	movq	%rax, %rsi
	movl	$0, %eax
	call	_ZN6Logger9log_nolvlEPKcz
	.loc 1 188 40
	movl	-36(%rbp), %esi
	movq	-24(%rbp), %rcx
	movl	-36(%rbp), %edx
	movq	-32(%rbp), %rax
	movl	%esi, %r8d
	movq	%rax, %rsi
	leaq	.LC19(%rip), %rax
	movq	%rax, %rdi
	movl	$0, %eax
	call	printf@PLT
	.loc 1 190 9
	jmp	.L147
.L148:
	.loc 1 193 24
	call	_ZN6Logger11getInstanceEv
	movq	%rax, %rdi
	.loc 1 193 36
	movq	-24(%rbp), %r8
	movl	-36(%rbp), %esi
	movq	-32(%rbp), %rdx
	movq	-16(%rbp), %rax
	subq	$8, %rsp
	movl	-36(%rbp), %ecx
	pushq	%rcx
	movq	%r8, %r9
	movl	%esi, %r8d
	movq	%rdx, %rcx
	movq	%rax, %rdx
	leaq	.LC20(%rip), %rax
	movq	%rax, %rsi
	movl	$0, %eax
	call	_ZN6Logger9log_nolvlEPKcz
	addq	$16, %rsp
	.loc 1 195 9
	movq	-16(%rbp), %rax
	movq	%rax, %rdi
	call	free@PLT
	.loc 1 197 5
	nop
.L147:
	.loc 1 198 5
	leave
	.cfi_def_cfa 7, 8
	ret
	.cfi_endproc
.LFE2289:
	.size	_ZN6Logger8FREE_LOGEPvPKcS2_i, .-_ZN6Logger8FREE_LOGEPvPKcS2_i
	.section	.rodata
	.align 32
.LC21:
	.string	"Null pointer from RECALLOC from: %s:%d, at %s:%d\n"
	.zero	46
	.align 32
.LC22:
	.string	"Ebat, you are trying to REACALLOG of 0 size\n"
	.zero	51
	.align 32
.LC23:
	.string	"Null bloc size at %p, from %s:%d, at %s:%d\n"
	.zero	52
	.align 32
.LC24:
	.string	"LOG REALLOC:     {%p} -> {%p} = realloc (new size %zu, old size %zu) from %s:%d, at %s:%d\n"
	.zero	37
	.align 32
.LC25:
	.string	"LOG REALLOC: Couldn't allocate memory\n"
	.zero	57
	.align 32
.LC26:
	.string	"LOG REALLOC: Couldn't allocate memory of size %zu for {%p} at %s:%d, %s:%d\n"
	.zero	52
	.text
	.align 2
	.globl	_ZN6Logger9RECAL_LOGEPvmPKcS2_i
	.type	_ZN6Logger9RECAL_LOGEPvmPKcS2_i, @function
_ZN6Logger9RECAL_LOGEPvmPKcS2_i:
.LASANPC2290:
.LFB2290:
	.loc 1 202 5
	.cfi_startproc
	endbr64
	pushq	%rbp
	.cfi_def_cfa_offset 16
	.cfi_offset 6, -16
	movq	%rsp, %rbp
	.cfi_def_cfa_register 6
	subq	$64, %rsp
	movq	%rdi, -24(%rbp)
	movq	%rsi, -32(%rbp)
	movq	%rdx, -40(%rbp)
	movq	%rcx, -48(%rbp)
	movq	%r8, -56(%rbp)
	movl	%r9d, -60(%rbp)
	.loc 1 203 5
	cmpq	$0, -32(%rbp)
	jne	.L151
	.loc 1 205 28
	call	_ZN6Logger11getInstanceEv
	movq	%rax, %rdi
	.loc 1 205 40
	movl	-60(%rbp), %esi
	movq	-48(%rbp), %rcx
	movl	-60(%rbp), %edx
	movq	-56(%rbp), %rax
	movl	%esi, %r9d
	movq	%rcx, %r8
	movl	%edx, %ecx
	movq	%rax, %rdx
	leaq	.LC21(%rip), %rax
	movq	%rax, %rsi
	movl	$0, %eax
	call	_ZN6Logger9log_nolvlEPKcz
	.loc 1 207 15
	movl	$0, %eax
	jmp	.L152
.L151:
	.loc 1 210 5
	cmpq	$0, -40(%rbp)
	jne	.L153
	.loc 1 212 28
	call	_ZN6Logger11getInstanceEv
	movq	%rax, %rdx
	.loc 1 212 46
	leaq	.LC22(%rip), %rax
	movq	%rax, %rsi
	movq	%rdx, %rdi
	movl	$0, %eax
	call	_ZN6Logger15log_dup_consoleEPKcz
	.loc 1 214 15
	movl	$0, %eax
	jmp	.L152
.L153:
	.loc 1 217 42
	movq	-32(%rbp), %rax
	movq	%rax, %rdi
	call	malloc_usable_size@PLT
	movq	%rax, -16(%rbp)
	.loc 1 218 5
	cmpq	$0, -16(%rbp)
	jne	.L154
	.loc 1 220 28
	call	_ZN6Logger11getInstanceEv
	movq	%rax, %rdi
	.loc 1 220 40
	movq	-48(%rbp), %r8
	movl	-60(%rbp), %esi
	movq	-56(%rbp), %rdx
	movq	-32(%rbp), %rax
	subq	$8, %rsp
	movl	-60(%rbp), %ecx
	pushq	%rcx
	movq	%r8, %r9
	movl	%esi, %r8d
	movq	%rdx, %rcx
	movq	%rax, %rdx
	leaq	.LC23(%rip), %rax
	movq	%rax, %rsi
	movl	$0, %eax
	call	_ZN6Logger9log_nolvlEPKcz
	addq	$16, %rsp
	.loc 1 222 15
	movl	$0, %eax
	jmp	.L152
.L154:
	.loc 1 225 28
	movq	-40(%rbp), %rdx
	movq	-32(%rbp), %rax
	movq	%rdx, %rsi
	movq	%rax, %rdi
	call	realloc@PLT
	movq	%rax, -8(%rbp)
	.loc 1 227 24
	call	_ZN6Logger11getInstanceEv
	movq	%rax, %rdi
	.loc 1 227 37
	movq	-16(%rbp), %r8
	movq	-40(%rbp), %rsi
	movq	-8(%rbp), %rdx
	movq	-32(%rbp), %rax
	movl	-60(%rbp), %ecx
	pushq	%rcx
	pushq	-48(%rbp)
	movl	-60(%rbp), %ecx
	pushq	%rcx
	pushq	-56(%rbp)
	movq	%r8, %r9
	movq	%rsi, %r8
	movq	%rdx, %rcx
	movq	%rax, %rdx
	leaq	.LC24(%rip), %rax
	movq	%rax, %rsi
	movl	$0, %eax
	call	_ZN6Logger9log_nolvlEPKcz
	addq	$32, %rsp
	.loc 1 230 5
	cmpq	$0, -8(%rbp)
	jne	.L155
	.loc 1 232 28
	call	_ZN6Logger11getInstanceEv
	movq	%rax, %rdx
	.loc 1 232 40
	leaq	.LC25(%rip), %rax
	movq	%rax, %rsi
	movq	%rdx, %rdi
	movl	$0, %eax
	call	_ZN6Logger9log_nolvlEPKcz
	.loc 1 233 15
	movq	-48(%rbp), %r8
	movl	-60(%rbp), %edi
	movq	-56(%rbp), %rcx
	movq	-32(%rbp), %rdx
	movq	-40(%rbp), %rax
	subq	$8, %rsp
	movl	-60(%rbp), %esi
	pushq	%rsi
	movq	%r8, %r9
	movl	%edi, %r8d
	movq	%rax, %rsi
	leaq	.LC26(%rip), %rax
	movq	%rax, %rdi
	movl	$0, %eax
	call	printf@PLT
	addq	$16, %rsp
.L155:
	.loc 1 237 5
	movq	-40(%rbp), %rax
	cmpq	-16(%rbp), %rax
	jbe	.L156
	.loc 1 238 15
	movq	-40(%rbp), %rax
	subq	-16(%rbp), %rax
	movq	-8(%rbp), %rcx
	movq	-16(%rbp), %rdx
	addq	%rdx, %rcx
	movq	%rax, %rdx
	movl	$0, %esi
	movq	%rcx, %rdi
	call	memset@PLT
.L156:
	.loc 1 240 12
	movq	-8(%rbp), %rax
.L152:
	.loc 1 241 5
	leave
	.cfi_def_cfa 7, 8
	ret
	.cfi_endproc
.LFE2290:
	.size	_ZN6Logger9RECAL_LOGEPvmPKcS2_i, .-_ZN6Logger9RECAL_LOGEPvmPKcS2_i
	.section	.rodata
.LC27:
	.string	"1 32 24 7 ptr:252"
	.align 32
.LC28:
	.string	"(return %d;)"
	.zero	51
	.text
	.align 2
	.globl	_ZN6Logger9LogMsgRetEiPKcz
	.type	_ZN6Logger9LogMsgRetEiPKcz, @function
_ZN6Logger9LogMsgRetEiPKcz:
.LASANPC2291:
.LFB2291:
	.loc 1 245 5
	.cfi_startproc
	endbr64
	pushq	%rbp
	.cfi_def_cfa_offset 16
	.cfi_offset 6, -16
	movq	%rsp, %rbp
	.cfi_def_cfa_register 6
	pushq	%r14
	pushq	%r13
	pushq	%r12
	pushq	%rbx
	subq	$304, %rsp
	.cfi_offset 14, -24
	.cfi_offset 13, -32
	.cfi_offset 12, -40
	.cfi_offset 3, -48
	movq	%rdi, -312(%rbp)
	movl	%esi, -316(%rbp)
	movq	%rdx, -328(%rbp)
	movq	%rcx, -184(%rbp)
	movq	%r8, -176(%rbp)
	movq	%r9, -168(%rbp)
	testb	%al, %al
	je	.L161
	movaps	%xmm0, -160(%rbp)
	movaps	%xmm1, -144(%rbp)
	movaps	%xmm2, -128(%rbp)
	movaps	%xmm3, -112(%rbp)
	movaps	%xmm4, -96(%rbp)
	movaps	%xmm5, -80(%rbp)
	movaps	%xmm6, -64(%rbp)
	movaps	%xmm7, -48(%rbp)
.L161:
	leaq	-304(%rbp), %rbx
	movq	%rbx, %r14
	cmpl	$0, __asan_option_detect_stack_use_after_return(%rip)
	je	.L157
	movl	$96, %edi
	call	__asan_stack_malloc_1@PLT
	testq	%rax, %rax
	je	.L157
	movq	%rax, %rbx
.L157:
	leaq	96(%rbx), %rax
	movq	%rax, %r13
	movq	$1102416563, (%rbx)
	leaq	.LC27(%rip), %rax
	movq	%rax, 8(%rbx)
	leaq	.LASANPC2291(%rip), %rax
	movq	%rax, 16(%rbx)
	movq	%rbx, %r12
	shrq	$3, %r12
	movl	$-235802127, 2147450880(%r12)
	movl	$-218103808, 2147450884(%r12)
	movl	$-202116109, 2147450888(%r12)
	.loc 1 253 22
	movl	$24, -64(%r13)
	movl	$48, -60(%r13)
	leaq	16(%rbp), %rax
	movq	%rax, -56(%r13)
	leaq	-208(%rbp), %rax
	movq	%rax, -48(%r13)
	.loc 1 255 13
	movq	-312(%rbp), %rax
	addq	$8, %rax
	movq	%rax, %rdx
	shrq	$3, %rdx
	addq	$2147450880, %rdx
	movzbl	(%rdx), %edx
	testb	%dl, %dl
	je	.L162
	movq	%rax, %rdi
	call	__asan_report_load8@PLT
.L162:
	movq	-312(%rbp), %rax
	movq	8(%rax), %rax
	movq	%rax, %rsi
	movl	$10, %edi
	call	fputc@PLT
	.loc 1 256 16
	movq	-312(%rbp), %rax
	addq	$20, %rax
	movq	%rax, %rdx
	shrq	$3, %rdx
	addq	$2147450880, %rdx
	movzbl	(%rdx), %edx
	testb	%dl, %dl
	setne	%sil
	movq	%rax, %rcx
	andl	$7, %ecx
	addl	$3, %ecx
	cmpb	%dl, %cl
	setge	%dl
	andl	%esi, %edx
	testb	%dl, %dl
	je	.L163
	movq	%rax, %rdi
	call	__asan_report_load4@PLT
.L163:
	movq	-312(%rbp), %rax
	movl	20(%rax), %edx
	movq	-312(%rbp), %rax
	addq	$8, %rax
	movq	%rax, %rcx
	shrq	$3, %rcx
	addq	$2147450880, %rcx
	movzbl	(%rcx), %ecx
	testb	%cl, %cl
	je	.L164
	movq	%rax, %rdi
	call	__asan_report_load8@PLT
.L164:
	movq	-312(%rbp), %rax
	movq	8(%rax), %rax
	movl	%edx, %esi
	movq	%rax, %rdi
	call	_Z10fsetindentP8_IO_FILEi@PLT
	.loc 1 258 14
	movq	-312(%rbp), %rax
	addq	$8, %rax
	movq	%rax, %rdx
	shrq	$3, %rdx
	addq	$2147450880, %rdx
	movzbl	(%rdx), %edx
	testb	%dl, %dl
	je	.L165
	movq	%rax, %rdi
	call	__asan_report_load8@PLT
.L165:
	movq	-312(%rbp), %rax
	movq	8(%rax), %rax
	leaq	-64(%r13), %rdx
	movq	-328(%rbp), %rcx
	movq	%rcx, %rsi
	movq	%rax, %rdi
	call	vfprintf@PLT
	.loc 1 259 13
	movq	-312(%rbp), %rax
	addq	$8, %rax
	movq	%rax, %rdx
	shrq	$3, %rdx
	addq	$2147450880, %rdx
	movzbl	(%rdx), %edx
	testb	%dl, %dl
	je	.L166
	movq	%rax, %rdi
	call	__asan_report_load8@PLT
.L166:
	movq	-312(%rbp), %rax
	movq	8(%rax), %rax
	movl	-316(%rbp), %edx
	leaq	.LC28(%rip), %rcx
	movq	%rcx, %rsi
	movq	%rax, %rdi
	movl	$0, %eax
	call	fprintf@PLT
	.loc 1 261 13
	movq	-312(%rbp), %rax
	addq	$8, %rax
	movq	%rax, %rdx
	shrq	$3, %rdx
	addq	$2147450880, %rdx
	movzbl	(%rdx), %edx
	testb	%dl, %dl
	je	.L167
	movq	%rax, %rdi
	call	__asan_report_load8@PLT
.L167:
	movq	-312(%rbp), %rax
	movq	8(%rax), %rax
	movq	%rax, %rsi
	movl	$10, %edi
	call	fputc@PLT
	.loc 1 267 12
	movl	-316(%rbp), %eax
	movl	%eax, %edx
	.loc 1 245 5
	cmpq	%rbx, %r14
	je	.L158
	movq	$1172321806, (%rbx)
	movabsq	$-723401728380766731, %rax
	movq	%rax, 2147450880(%r12)
	movl	$-168430091, 2147450888(%r12)
	movq	120(%rbx), %rax
	movb	$0, (%rax)
	jmp	.L159
.L158:
	movq	$0, 2147450880(%r12)
	movl	$0, 2147450888(%r12)
.L159:
	.loc 1 268 5
	movl	%edx, %eax
	addq	$304, %rsp
	popq	%rbx
	popq	%r12
	popq	%r13
	popq	%r14
	popq	%rbp
	.cfi_def_cfa 7, 8
	ret
	.cfi_endproc
.LFE2291:
	.size	_ZN6Logger9LogMsgRetEiPKcz, .-_ZN6Logger9LogMsgRetEiPKcz
	.section	.rodata
.LC29:
	.string	"1 32 24 7 ptr:272"
	.align 32
.LC30:
	.string	"return; "
	.zero	55
	.text
	.align 2
	.globl	_ZN6Logger11LogMsgNoRetEPKcz
	.type	_ZN6Logger11LogMsgNoRetEPKcz, @function
_ZN6Logger11LogMsgNoRetEPKcz:
.LASANPC2292:
.LFB2292:
	.loc 1 271 5
	.cfi_startproc
	endbr64
	pushq	%rbp
	.cfi_def_cfa_offset 16
	.cfi_offset 6, -16
	movq	%rsp, %rbp
	.cfi_def_cfa_register 6
	pushq	%r14
	pushq	%r13
	pushq	%r12
	pushq	%rbx
	subq	$288, %rsp
	.cfi_offset 14, -24
	.cfi_offset 13, -32
	.cfi_offset 12, -40
	.cfi_offset 3, -48
	movq	%rdi, -312(%rbp)
	movq	%rsi, -320(%rbp)
	movq	%rdx, -192(%rbp)
	movq	%rcx, -184(%rbp)
	movq	%r8, -176(%rbp)
	movq	%r9, -168(%rbp)
	testb	%al, %al
	je	.L173
	movaps	%xmm0, -160(%rbp)
	movaps	%xmm1, -144(%rbp)
	movaps	%xmm2, -128(%rbp)
	movaps	%xmm3, -112(%rbp)
	movaps	%xmm4, -96(%rbp)
	movaps	%xmm5, -80(%rbp)
	movaps	%xmm6, -64(%rbp)
	movaps	%xmm7, -48(%rbp)
.L173:
	leaq	-304(%rbp), %rbx
	movq	%rbx, %r14
	cmpl	$0, __asan_option_detect_stack_use_after_return(%rip)
	je	.L169
	movl	$96, %edi
	call	__asan_stack_malloc_1@PLT
	testq	%rax, %rax
	je	.L169
	movq	%rax, %rbx
.L169:
	leaq	96(%rbx), %rax
	movq	%rax, %r13
	movq	$1102416563, (%rbx)
	leaq	.LC29(%rip), %rax
	movq	%rax, 8(%rbx)
	leaq	.LASANPC2292(%rip), %rax
	movq	%rax, 16(%rbx)
	movq	%rbx, %r12
	shrq	$3, %r12
	movl	$-235802127, 2147450880(%r12)
	movl	$-218103808, 2147450884(%r12)
	movl	$-202116109, 2147450888(%r12)
	.loc 1 273 22
	movl	$16, -64(%r13)
	movl	$48, -60(%r13)
	leaq	16(%rbp), %rax
	movq	%rax, -56(%r13)
	leaq	-208(%rbp), %rax
	movq	%rax, -48(%r13)
	.loc 1 275 13
	movq	-312(%rbp), %rax
	addq	$8, %rax
	movq	%rax, %rdx
	shrq	$3, %rdx
	addq	$2147450880, %rdx
	movzbl	(%rdx), %edx
	testb	%dl, %dl
	je	.L174
	movq	%rax, %rdi
	call	__asan_report_load8@PLT
.L174:
	movq	-312(%rbp), %rax
	movq	8(%rax), %rax
	movq	%rax, %rsi
	movl	$10, %edi
	call	fputc@PLT
	.loc 1 276 16
	movq	-312(%rbp), %rax
	addq	$20, %rax
	movq	%rax, %rdx
	shrq	$3, %rdx
	addq	$2147450880, %rdx
	movzbl	(%rdx), %edx
	testb	%dl, %dl
	setne	%sil
	movq	%rax, %rcx
	andl	$7, %ecx
	addl	$3, %ecx
	cmpb	%dl, %cl
	setge	%dl
	andl	%esi, %edx
	testb	%dl, %dl
	je	.L175
	movq	%rax, %rdi
	call	__asan_report_load4@PLT
.L175:
	movq	-312(%rbp), %rax
	movl	20(%rax), %edx
	movq	-312(%rbp), %rax
	addq	$8, %rax
	movq	%rax, %rcx
	shrq	$3, %rcx
	addq	$2147450880, %rcx
	movzbl	(%rcx), %ecx
	testb	%cl, %cl
	je	.L176
	movq	%rax, %rdi
	call	__asan_report_load8@PLT
.L176:
	movq	-312(%rbp), %rax
	movq	8(%rax), %rax
	movl	%edx, %esi
	movq	%rax, %rdi
	call	_Z10fsetindentP8_IO_FILEi@PLT
	.loc 1 278 13
	movq	-312(%rbp), %rax
	addq	$8, %rax
	movq	%rax, %rdx
	shrq	$3, %rdx
	addq	$2147450880, %rdx
	movzbl	(%rdx), %edx
	testb	%dl, %dl
	je	.L177
	movq	%rax, %rdi
	call	__asan_report_load8@PLT
.L177:
	movq	-312(%rbp), %rax
	movq	8(%rax), %rax
	movq	%rax, %rcx
	movl	$8, %edx
	movl	$1, %esi
	leaq	.LC30(%rip), %rax
	movq	%rax, %rdi
	call	fwrite@PLT
	.loc 1 279 14
	movq	-312(%rbp), %rax
	addq	$8, %rax
	movq	%rax, %rdx
	shrq	$3, %rdx
	addq	$2147450880, %rdx
	movzbl	(%rdx), %edx
	testb	%dl, %dl
	je	.L178
	movq	%rax, %rdi
	call	__asan_report_load8@PLT
.L178:
	movq	-312(%rbp), %rax
	movq	8(%rax), %rax
	leaq	-64(%r13), %rdx
	movq	-320(%rbp), %rcx
	movq	%rcx, %rsi
	movq	%rax, %rdi
	call	vfprintf@PLT
	.loc 1 280 13
	movq	-312(%rbp), %rax
	addq	$8, %rax
	movq	%rax, %rdx
	shrq	$3, %rdx
	addq	$2147450880, %rdx
	movzbl	(%rdx), %edx
	testb	%dl, %dl
	je	.L179
	movq	%rax, %rdi
	call	__asan_report_load8@PLT
.L179:
	movq	-312(%rbp), %rax
	movq	8(%rax), %rax
	movq	%rax, %rsi
	movl	$10, %edi
	call	fputc@PLT
	.loc 1 286 5
	nop
	.loc 1 271 5
	cmpq	%rbx, %r14
	je	.L170
	movq	$1172321806, (%rbx)
	movabsq	$-723401728380766731, %rax
	movq	%rax, 2147450880(%r12)
	movl	$-168430091, 2147450888(%r12)
	movq	120(%rbx), %rax
	movb	$0, (%rax)
	jmp	.L171
.L170:
	movq	$0, 2147450880(%r12)
	movl	$0, 2147450888(%r12)
.L171:
	.loc 1 287 5
	addq	$288, %rsp
	popq	%rbx
	popq	%r12
	popq	%r13
	popq	%r14
	popq	%rbp
	.cfi_def_cfa 7, 8
	ret
	.cfi_endproc
.LFE2292:
	.size	_ZN6Logger11LogMsgNoRetEPKcz, .-_ZN6Logger11LogMsgNoRetEPKcz
	.section	.rodata
.LC31:
	.string	"1 32 24 3 ptr"
	.align 32
.LC32:
	.string	"std::nullptr_t Logger::LogMsgNullRet(const char*, ...)"
	.zero	41
	.align 32
.LC33:
	.string	"format"
	.zero	57
	.align 32
.LC34:
	.string	"return Null ptr;"
	.zero	47
	.text
	.align 2
	.globl	_ZN6Logger13LogMsgNullRetEPKcz
	.type	_ZN6Logger13LogMsgNullRetEPKcz, @function
_ZN6Logger13LogMsgNullRetEPKcz:
.LASANPC2293:
.LFB2293:
	.loc 1 290 5
	.cfi_startproc
	endbr64
	pushq	%rbp
	.cfi_def_cfa_offset 16
	.cfi_offset 6, -16
	movq	%rsp, %rbp
	.cfi_def_cfa_register 6
	pushq	%r14
	pushq	%r13
	pushq	%r12
	pushq	%rbx
	subq	$288, %rsp
	.cfi_offset 14, -24
	.cfi_offset 13, -32
	.cfi_offset 12, -40
	.cfi_offset 3, -48
	movq	%rdi, -312(%rbp)
	movq	%rsi, -320(%rbp)
	movq	%rdx, -192(%rbp)
	movq	%rcx, -184(%rbp)
	movq	%r8, -176(%rbp)
	movq	%r9, -168(%rbp)
	testb	%al, %al
	je	.L185
	movaps	%xmm0, -160(%rbp)
	movaps	%xmm1, -144(%rbp)
	movaps	%xmm2, -128(%rbp)
	movaps	%xmm3, -112(%rbp)
	movaps	%xmm4, -96(%rbp)
	movaps	%xmm5, -80(%rbp)
	movaps	%xmm6, -64(%rbp)
	movaps	%xmm7, -48(%rbp)
.L185:
	leaq	-304(%rbp), %rbx
	movq	%rbx, %r14
	cmpl	$0, __asan_option_detect_stack_use_after_return(%rip)
	je	.L181
	movl	$96, %edi
	call	__asan_stack_malloc_1@PLT
	testq	%rax, %rax
	je	.L181
	movq	%rax, %rbx
.L181:
	leaq	96(%rbx), %rax
	movq	%rax, %r13
	movq	$1102416563, (%rbx)
	leaq	.LC31(%rip), %rax
	movq	%rax, 8(%rbx)
	leaq	.LASANPC2293(%rip), %rax
	movq	%rax, 16(%rbx)
	movq	%rbx, %r12
	shrq	$3, %r12
	movl	$-235802127, 2147450880(%r12)
	movl	$-218103808, 2147450884(%r12)
	movl	$-202116109, 2147450888(%r12)
	.loc 1 291 6
	cmpq	$0, -320(%rbp)
	jne	.L186
	.loc 1 291 33 discriminator 1
	call	__asan_handle_no_return@PLT
	leaq	.LC32(%rip), %rax
	movq	%rax, %rcx
	movl	$291, %edx
	leaq	.LC13(%rip), %rax
	movq	%rax, %rsi
	leaq	.LC33(%rip), %rax
	movq	%rax, %rdi
	call	__assert_fail@PLT
.L186:
	.loc 1 294 22
	movl	$16, -64(%r13)
	movl	$48, -60(%r13)
	leaq	16(%rbp), %rax
	movq	%rax, -56(%r13)
	leaq	-208(%rbp), %rax
	movq	%rax, -48(%r13)
	.loc 1 296 13
	movq	-312(%rbp), %rax
	addq	$8, %rax
	movq	%rax, %rdx
	shrq	$3, %rdx
	addq	$2147450880, %rdx
	movzbl	(%rdx), %edx
	testb	%dl, %dl
	je	.L187
	movq	%rax, %rdi
	call	__asan_report_load8@PLT
.L187:
	movq	-312(%rbp), %rax
	movq	8(%rax), %rax
	movq	%rax, %rsi
	movl	$10, %edi
	call	fputc@PLT
	.loc 1 297 16
	movq	-312(%rbp), %rax
	addq	$20, %rax
	movq	%rax, %rdx
	shrq	$3, %rdx
	addq	$2147450880, %rdx
	movzbl	(%rdx), %edx
	testb	%dl, %dl
	setne	%sil
	movq	%rax, %rcx
	andl	$7, %ecx
	addl	$3, %ecx
	cmpb	%dl, %cl
	setge	%dl
	andl	%esi, %edx
	testb	%dl, %dl
	je	.L188
	movq	%rax, %rdi
	call	__asan_report_load4@PLT
.L188:
	movq	-312(%rbp), %rax
	movl	20(%rax), %edx
	movq	-312(%rbp), %rax
	addq	$8, %rax
	movq	%rax, %rcx
	shrq	$3, %rcx
	addq	$2147450880, %rcx
	movzbl	(%rcx), %ecx
	testb	%cl, %cl
	je	.L189
	movq	%rax, %rdi
	call	__asan_report_load8@PLT
.L189:
	movq	-312(%rbp), %rax
	movq	8(%rax), %rax
	movl	%edx, %esi
	movq	%rax, %rdi
	call	_Z10fsetindentP8_IO_FILEi@PLT
	.loc 1 299 13
	movq	-312(%rbp), %rax
	addq	$8, %rax
	movq	%rax, %rdx
	shrq	$3, %rdx
	addq	$2147450880, %rdx
	movzbl	(%rdx), %edx
	testb	%dl, %dl
	je	.L190
	movq	%rax, %rdi
	call	__asan_report_load8@PLT
.L190:
	movq	-312(%rbp), %rax
	movq	8(%rax), %rax
	movq	%rax, %rcx
	movl	$16, %edx
	movl	$1, %esi
	leaq	.LC34(%rip), %rax
	movq	%rax, %rdi
	call	fwrite@PLT
	.loc 1 300 14
	movq	-312(%rbp), %rax
	addq	$8, %rax
	movq	%rax, %rdx
	shrq	$3, %rdx
	addq	$2147450880, %rdx
	movzbl	(%rdx), %edx
	testb	%dl, %dl
	je	.L191
	movq	%rax, %rdi
	call	__asan_report_load8@PLT
.L191:
	movq	-312(%rbp), %rax
	movq	8(%rax), %rax
	leaq	-64(%r13), %rdx
	movq	-320(%rbp), %rcx
	movq	%rcx, %rsi
	movq	%rax, %rdi
	call	vfprintf@PLT
	.loc 1 301 13
	movq	-312(%rbp), %rax
	addq	$8, %rax
	movq	%rax, %rdx
	shrq	$3, %rdx
	addq	$2147450880, %rdx
	movzbl	(%rdx), %edx
	testb	%dl, %dl
	je	.L192
	movq	%rax, %rdi
	call	__asan_report_load8@PLT
.L192:
	movq	-312(%rbp), %rax
	movq	8(%rax), %rax
	movq	%rax, %rsi
	movl	$10, %edi
	call	fputc@PLT
	.loc 1 306 12
	movl	$0, %eax
	movq	%rax, %rdx
	.loc 1 290 5
	cmpq	%rbx, %r14
	je	.L182
	movq	$1172321806, (%rbx)
	movabsq	$-723401728380766731, %rax
	movq	%rax, 2147450880(%r12)
	movl	$-168430091, 2147450888(%r12)
	movq	120(%rbx), %rax
	movb	$0, (%rax)
	jmp	.L183
.L182:
	movq	$0, 2147450880(%r12)
	movl	$0, 2147450888(%r12)
.L183:
	.loc 1 307 5
	movq	%rdx, %rax
	addq	$288, %rsp
	popq	%rbx
	popq	%r12
	popq	%r13
	popq	%r14
	popq	%rbp
	.cfi_def_cfa 7, 8
	ret
	.cfi_endproc
.LFE2293:
	.size	_ZN6Logger13LogMsgNullRetEPKcz, .-_ZN6Logger13LogMsgNullRetEPKcz
	.section	.rodata
.LC35:
	.string	"1 32 24 7 ptr:312"
	.align 32
.LC36:
	.string	"\n\terror: (code %d) %s\n\n"
	.zero	40
	.text
	.align 2
	.globl	_ZN6Logger8logerrorEiPKcz
	.type	_ZN6Logger8logerrorEiPKcz, @function
_ZN6Logger8logerrorEiPKcz:
.LASANPC2294:
.LFB2294:
	.loc 1 311 5
	.cfi_startproc
	endbr64
	pushq	%rbp
	.cfi_def_cfa_offset 16
	.cfi_offset 6, -16
	movq	%rsp, %rbp
	.cfi_def_cfa_register 6
	pushq	%r13
	pushq	%r12
	pushq	%rbx
	subq	$312, %rsp
	.cfi_offset 13, -24
	.cfi_offset 12, -32
	.cfi_offset 3, -40
	movq	%rdi, -312(%rbp)
	movl	%esi, -316(%rbp)
	movq	%rdx, -328(%rbp)
	movq	%rcx, -184(%rbp)
	movq	%r8, -176(%rbp)
	movq	%r9, -168(%rbp)
	testb	%al, %al
	je	.L198
	movaps	%xmm0, -160(%rbp)
	movaps	%xmm1, -144(%rbp)
	movaps	%xmm2, -128(%rbp)
	movaps	%xmm3, -112(%rbp)
	movaps	%xmm4, -96(%rbp)
	movaps	%xmm5, -80(%rbp)
	movaps	%xmm6, -64(%rbp)
	movaps	%xmm7, -48(%rbp)
.L198:
	leaq	-304(%rbp), %rbx
	movq	%rbx, %r13
	cmpl	$0, __asan_option_detect_stack_use_after_return(%rip)
	je	.L194
	movl	$96, %edi
	call	__asan_stack_malloc_1@PLT
	testq	%rax, %rax
	je	.L194
	movq	%rax, %rbx
.L194:
	leaq	96(%rbx), %rax
	movq	$1102416563, (%rbx)
	leaq	.LC35(%rip), %rdx
	movq	%rdx, 8(%rbx)
	leaq	.LASANPC2294(%rip), %rdx
	movq	%rdx, 16(%rbx)
	movq	%rbx, %r12
	shrq	$3, %r12
	movl	$-235802127, 2147450880(%r12)
	movl	$-218103808, 2147450884(%r12)
	movl	$-202116109, 2147450888(%r12)
	.loc 1 313 22
	movl	$24, -64(%rax)
	movl	$48, -60(%rax)
	leaq	16(%rbp), %rsi
	movq	%rsi, -56(%rax)
	leaq	-208(%rbp), %rdi
	movq	%rdi, -48(%rax)
	.loc 1 315 14
	movq	-312(%rbp), %rdx
	addq	$8, %rdx
	movq	%rdx, %rcx
	shrq	$3, %rcx
	addq	$2147450880, %rcx
	movzbl	(%rcx), %ecx
	testb	%cl, %cl
	je	.L199
	movq	%rdx, %rdi
	call	__asan_report_load8@PLT
.L199:
	movq	-312(%rbp), %rdx
	movq	8(%rdx), %rcx
	leaq	-64(%rax), %rdx
	movq	-328(%rbp), %rax
	movq	%rax, %rsi
	movq	%rcx, %rdi
	call	vfprintf@PLT
	.loc 1 317 8
	movl	-316(%rbp), %eax
	movl	%eax, %edi
	call	strerror@PLT
	movq	%rax, %rcx
	movl	-316(%rbp), %edx
	movq	-312(%rbp), %rax
	leaq	.LC36(%rip), %rsi
	movq	%rax, %rdi
	movl	$0, %eax
	call	_ZN6Logger3logEPKcz
	.loc 1 323 5
	nop
	.loc 1 311 5
	cmpq	%rbx, %r13
	je	.L195
	movq	$1172321806, (%rbx)
	movabsq	$-723401728380766731, %rax
	movq	%rax, 2147450880(%r12)
	movl	$-168430091, 2147450888(%r12)
	movq	120(%rbx), %rax
	movb	$0, (%rax)
	jmp	.L196
.L195:
	movq	$0, 2147450880(%r12)
	movl	$0, 2147450888(%r12)
.L196:
	.loc 1 324 5
	addq	$312, %rsp
	popq	%rbx
	popq	%r12
	popq	%r13
	popq	%rbp
	.cfi_def_cfa 7, 8
	ret
	.cfi_endproc
.LFE2294:
	.size	_ZN6Logger8logerrorEiPKcz, .-_ZN6Logger8logerrorEiPKcz
	.section	.rodata
.LC37:
	.string	"1 32 24 7 ptr:328"
	.text
	.align 2
	.globl	_ZN6Logger8logerrnoEPKcz
	.type	_ZN6Logger8logerrnoEPKcz, @function
_ZN6Logger8logerrnoEPKcz:
.LASANPC2295:
.LFB2295:
	.loc 1 327 5
	.cfi_startproc
	endbr64
	pushq	%rbp
	.cfi_def_cfa_offset 16
	.cfi_offset 6, -16
	movq	%rsp, %rbp
	.cfi_def_cfa_register 6
	pushq	%r14
	pushq	%r13
	pushq	%r12
	pushq	%rbx
	subq	$288, %rsp
	.cfi_offset 14, -24
	.cfi_offset 13, -32
	.cfi_offset 12, -40
	.cfi_offset 3, -48
	movq	%rdi, -312(%rbp)
	movq	%rsi, -320(%rbp)
	movq	%rdx, -192(%rbp)
	movq	%rcx, -184(%rbp)
	movq	%r8, -176(%rbp)
	movq	%r9, -168(%rbp)
	testb	%al, %al
	je	.L205
	movaps	%xmm0, -160(%rbp)
	movaps	%xmm1, -144(%rbp)
	movaps	%xmm2, -128(%rbp)
	movaps	%xmm3, -112(%rbp)
	movaps	%xmm4, -96(%rbp)
	movaps	%xmm5, -80(%rbp)
	movaps	%xmm6, -64(%rbp)
	movaps	%xmm7, -48(%rbp)
.L205:
	leaq	-304(%rbp), %rbx
	movq	%rbx, %r14
	cmpl	$0, __asan_option_detect_stack_use_after_return(%rip)
	je	.L201
	movl	$96, %edi
	call	__asan_stack_malloc_1@PLT
	testq	%rax, %rax
	je	.L201
	movq	%rax, %rbx
.L201:
	leaq	96(%rbx), %rax
	movq	$1102416563, (%rbx)
	leaq	.LC37(%rip), %rdx
	movq	%rdx, 8(%rbx)
	leaq	.LASANPC2295(%rip), %rdx
	movq	%rdx, 16(%rbx)
	movq	%rbx, %r12
	shrq	$3, %r12
	movl	$-235802127, 2147450880(%r12)
	movl	$-218103808, 2147450884(%r12)
	movl	$-202116109, 2147450888(%r12)
	.loc 1 329 22
	movl	$16, -64(%rax)
	movl	$48, -60(%rax)
	leaq	16(%rbp), %rdi
	movq	%rdi, -56(%rax)
	leaq	-208(%rbp), %rdi
	movq	%rdi, -48(%rax)
	.loc 1 331 14
	movq	-312(%rbp), %rdx
	addq	$8, %rdx
	movq	%rdx, %rcx
	shrq	$3, %rcx
	addq	$2147450880, %rcx
	movzbl	(%rcx), %ecx
	testb	%cl, %cl
	je	.L206
	movq	%rdx, %rdi
	call	__asan_report_load8@PLT
.L206:
	movq	-312(%rbp), %rdx
	movq	8(%rdx), %rcx
	leaq	-64(%rax), %rdx
	movq	-320(%rbp), %rax
	movq	%rax, %rsi
	movq	%rcx, %rdi
	call	vfprintf@PLT
	.loc 1 333 74
	call	__errno_location@PLT
	movq	%rax, %rdx
	.loc 1 333 8
	movq	%rdx, %rax
	movq	%rax, %rcx
	shrq	$3, %rcx
	addq	$2147450880, %rcx
	movzbl	(%rcx), %ecx
	testb	%cl, %cl
	setne	%dil
	movq	%rax, %rsi
	andl	$7, %esi
	addl	$3, %esi
	cmpb	%cl, %sil
	setge	%cl
	andl	%edi, %ecx
	testb	%cl, %cl
	je	.L207
	movq	%rax, %rdi
	call	__asan_report_load4@PLT
.L207:
	movl	(%rdx), %eax
	movl	%eax, %edi
	call	strerror@PLT
	movq	%rax, %r13
	.loc 1 333 58
	call	__errno_location@PLT
	movq	%rax, %rdx
	.loc 1 333 8
	movq	%rdx, %rax
	movq	%rax, %rcx
	shrq	$3, %rcx
	addq	$2147450880, %rcx
	movzbl	(%rcx), %ecx
	testb	%cl, %cl
	setne	%dil
	movq	%rax, %rsi
	andl	$7, %esi
	addl	$3, %esi
	cmpb	%cl, %sil
	setge	%cl
	andl	%edi, %ecx
	testb	%cl, %cl
	je	.L208
	movq	%rax, %rdi
	call	__asan_report_load4@PLT
.L208:
	movl	(%rdx), %edx
	movq	-312(%rbp), %rax
	movq	%r13, %rcx
	leaq	.LC36(%rip), %rsi
	movq	%rax, %rdi
	movl	$0, %eax
	call	_ZN6Logger3logEPKcz
	.loc 1 338 5
	nop
	.loc 1 327 5
	cmpq	%rbx, %r14
	je	.L202
	movq	$1172321806, (%rbx)
	movabsq	$-723401728380766731, %rax
	movq	%rax, 2147450880(%r12)
	movl	$-168430091, 2147450888(%r12)
	movq	120(%rbx), %rax
	movb	$0, (%rax)
	jmp	.L203
.L202:
	movq	$0, 2147450880(%r12)
	movl	$0, 2147450888(%r12)
.L203:
	.loc 1 339 5
	addq	$288, %rsp
	popq	%rbx
	popq	%r12
	popq	%r13
	popq	%r14
	popq	%rbp
	.cfi_def_cfa 7, 8
	ret
	.cfi_endproc
.LFE2295:
	.size	_ZN6Logger8logerrnoEPKcz, .-_ZN6Logger8logerrnoEPKcz
	.section	.rodata
	.align 32
.LC38:
	.string	"Everything fine\n\n"
	.zero	46
	.text
	.align 2
	.globl	_ZN6Logger10checkerrnoEPKcz
	.type	_ZN6Logger10checkerrnoEPKcz, @function
_ZN6Logger10checkerrnoEPKcz:
.LASANPC2296:
.LFB2296:
	.loc 1 342 5
	.cfi_startproc
	endbr64
	pushq	%rbp
	.cfi_def_cfa_offset 16
	.cfi_offset 6, -16
	movq	%rsp, %rbp
	.cfi_def_cfa_register 6
	pushq	%r14
	pushq	%r13
	pushq	%r12
	pushq	%rbx
	subq	$288, %rsp
	.cfi_offset 14, -24
	.cfi_offset 13, -32
	.cfi_offset 12, -40
	.cfi_offset 3, -48
	movq	%rdi, -312(%rbp)
	movq	%rsi, -320(%rbp)
	movq	%rdx, -192(%rbp)
	movq	%rcx, -184(%rbp)
	movq	%r8, -176(%rbp)
	movq	%r9, -168(%rbp)
	testb	%al, %al
	je	.L214
	movaps	%xmm0, -160(%rbp)
	movaps	%xmm1, -144(%rbp)
	movaps	%xmm2, -128(%rbp)
	movaps	%xmm3, -112(%rbp)
	movaps	%xmm4, -96(%rbp)
	movaps	%xmm5, -80(%rbp)
	movaps	%xmm6, -64(%rbp)
	movaps	%xmm7, -48(%rbp)
.L214:
	leaq	-304(%rbp), %rbx
	movq	%rbx, %r14
	cmpl	$0, __asan_option_detect_stack_use_after_return(%rip)
	je	.L210
	movl	$96, %edi
	call	__asan_stack_malloc_1@PLT
	testq	%rax, %rax
	je	.L210
	movq	%rax, %rbx
.L210:
	leaq	96(%rbx), %rax
	movq	%rax, %r13
	movq	$1102416563, (%rbx)
	leaq	.LC31(%rip), %rax
	movq	%rax, 8(%rbx)
	leaq	.LASANPC2296(%rip), %rax
	movq	%rax, 16(%rbx)
	movq	%rbx, %r12
	shrq	$3, %r12
	movl	$-235802127, 2147450880(%r12)
	movl	$-218103808, 2147450884(%r12)
	movl	$-202116109, 2147450888(%r12)
.LBB30:
	.loc 1 343 27
	call	__errno_location@PLT
	movq	%rax, %rdx
	.loc 1 343 9
	movq	%rdx, %rax
	movq	%rax, %rcx
	shrq	$3, %rcx
	addq	$2147450880, %rcx
	movzbl	(%rcx), %ecx
	testb	%cl, %cl
	setne	%dil
	movq	%rax, %rsi
	andl	$7, %esi
	addl	$3, %esi
	cmpb	%cl, %sil
	setge	%cl
	andl	%edi, %ecx
	testb	%cl, %cl
	je	.L215
	movq	%rax, %rdi
	call	__asan_report_load4@PLT
.L215:
	movl	(%rdx), %eax
	.loc 1 343 5
	testl	%eax, %eax
	je	.L216
.LBB31:
	.loc 1 346 26
	movl	$16, -64(%r13)
	movl	$48, -60(%r13)
	leaq	16(%rbp), %rax
	movq	%rax, -56(%r13)
	leaq	-208(%rbp), %rax
	movq	%rax, -48(%r13)
	.loc 1 348 18
	movq	-312(%rbp), %rax
	addq	$8, %rax
	movq	%rax, %rdx
	shrq	$3, %rdx
	addq	$2147450880, %rdx
	movzbl	(%rdx), %edx
	testb	%dl, %dl
	je	.L217
	movq	%rax, %rdi
	call	__asan_report_load8@PLT
.L217:
	movq	-312(%rbp), %rax
	movq	8(%rax), %rax
	leaq	-64(%r13), %rdx
	movq	-320(%rbp), %rcx
	movq	%rcx, %rsi
	movq	%rax, %rdi
	call	vfprintf@PLT
	.loc 1 350 78
	call	__errno_location@PLT
	movq	%rax, %rdx
	.loc 1 350 12
	movq	%rdx, %rax
	movq	%rax, %rcx
	shrq	$3, %rcx
	addq	$2147450880, %rcx
	movzbl	(%rcx), %ecx
	testb	%cl, %cl
	setne	%dil
	movq	%rax, %rsi
	andl	$7, %esi
	addl	$3, %esi
	cmpb	%cl, %sil
	setge	%cl
	andl	%edi, %ecx
	testb	%cl, %cl
	je	.L218
	movq	%rax, %rdi
	call	__asan_report_load4@PLT
.L218:
	movl	(%rdx), %eax
	movl	%eax, %edi
	call	strerror@PLT
	movq	%rax, %r13
	.loc 1 350 62
	call	__errno_location@PLT
	movq	%rax, %rdx
	.loc 1 350 12
	movq	%rdx, %rax
	movq	%rax, %rcx
	shrq	$3, %rcx
	addq	$2147450880, %rcx
	movzbl	(%rcx), %ecx
	testb	%cl, %cl
	setne	%dil
	movq	%rax, %rsi
	andl	$7, %esi
	addl	$3, %esi
	cmpb	%cl, %sil
	setge	%cl
	andl	%edi, %ecx
	testb	%cl, %cl
	je	.L219
	movq	%rax, %rdi
	call	__asan_report_load4@PLT
.L219:
	movl	(%rdx), %edx
	movq	-312(%rbp), %rax
	movq	%r13, %rcx
	leaq	.LC36(%rip), %rsi
	movq	%rax, %rdi
	movl	$0, %eax
	call	_ZN6Logger3logEPKcz
.LBE31:
.LBE30:
	.loc 1 357 5
	jmp	.L213
.L216:
.LBB32:
	.loc 1 354 12
	movq	-312(%rbp), %rax
	leaq	.LC38(%rip), %rdx
	movq	%rdx, %rsi
	movq	%rax, %rdi
	movl	$0, %eax
	call	_ZN6Logger3logEPKcz
.LBE32:
	.loc 1 357 5
	nop
.L213:
	.loc 1 342 5
	cmpq	%rbx, %r14
	je	.L211
	movq	$1172321806, (%rbx)
	movabsq	$-723401728380766731, %rax
	movq	%rax, 2147450880(%r12)
	movl	$-168430091, 2147450888(%r12)
	movq	120(%rbx), %rax
	movb	$0, (%rax)
	jmp	.L212
.L211:
	movq	$0, 2147450880(%r12)
	movl	$0, 2147450888(%r12)
.L212:
	.loc 1 358 5
	addq	$288, %rsp
	popq	%rbx
	popq	%r12
	popq	%r13
	popq	%r14
	popq	%rbp
	.cfi_def_cfa 7, 8
	ret
	.cfi_endproc
.LFE2296:
	.size	_ZN6Logger10checkerrnoEPKcz, .-_ZN6Logger10checkerrnoEPKcz
	.weak	_ZTV6Logger
	.section	.data.rel.ro.local._ZTV6Logger,"awG",@progbits,_ZTV6Logger,comdat
	.align 8
	.type	_ZTV6Logger, @object
	.size	_ZTV6Logger, 80
_ZTV6Logger:
	.quad	32
	.quad	0
	.quad	_ZTI6Logger
	.quad	_ZN6LoggerD1Ev
	.quad	_ZN6LoggerD0Ev
	.quad	-32
	.quad	-32
	.quad	_ZTI6Logger
	.quad	_ZTv0_n24_N6LoggerD1Ev
	.quad	_ZTv0_n24_N6LoggerD0Ev
	.weak	_ZTT6Logger
	.section	.data.rel.ro.local._ZTT6Logger,"awG",@progbits,_ZTV6Logger,comdat
	.align 8
	.type	_ZTT6Logger, @object
	.size	_ZTT6Logger, 32
_ZTT6Logger:
	.quad	_ZTV6Logger+24
	.quad	_ZTC6Logger0_So+24
	.quad	_ZTC6Logger0_So+64
	.quad	_ZTV6Logger+64
	.hidden	_ZTC6Logger0_So
	.weak	_ZTC6Logger0_So
	.section	.data.rel.ro._ZTC6Logger0_So,"awG",@progbits,_ZTV6Logger,comdat
	.align 8
	.type	_ZTC6Logger0_So, @object
	.size	_ZTC6Logger0_So, 80
_ZTC6Logger0_So:
	.quad	32
	.quad	0
	.quad	_ZTISo
	.quad	0
	.quad	0
	.quad	-32
	.quad	-32
	.quad	_ZTISo
	.quad	0
	.quad	0
	.weak	_ZTI6Logger
	.section	.data.rel.ro._ZTI6Logger,"awG",@progbits,_ZTI6Logger,comdat
	.align 8
	.type	_ZTI6Logger, @object
	.size	_ZTI6Logger, 24
_ZTI6Logger:
	.quad	_ZTVN10__cxxabiv120__si_class_type_infoE+16
	.quad	_ZTS6Logger
	.quad	_ZTISo
	.weak	_ZTS6Logger
	.section	.rodata._ZTS6Logger,"aG",@progbits,_ZTS6Logger,comdat
	.align 8
	.type	_ZTS6Logger, @object
	.size	_ZTS6Logger, 8
_ZTS6Logger:
	.string	"6Logger"
	.text
	.type	_Z41__static_initialization_and_destruction_0ii, @function
_Z41__static_initialization_and_destruction_0ii:
.LASANPC2977:
.LFB2977:
	.loc 1 358 5
	.cfi_startproc
	endbr64
	pushq	%rbp
	.cfi_def_cfa_offset 16
	.cfi_offset 6, -16
	movq	%rsp, %rbp
	.cfi_def_cfa_register 6
	subq	$16, %rsp
	movl	%edi, -4(%rbp)
	movl	%esi, -8(%rbp)
	.loc 1 358 5
	cmpl	$1, -4(%rbp)
	jne	.L225
	.loc 1 358 5 is_stmt 0 discriminator 1
	leaq	.LC13(%rip), %rax
	movq	%rax, %rdi
	call	__asan_before_dynamic_init@PLT
	cmpl	$65535, -8(%rbp)
	jne	.L224
	.file 3 "/usr/include/c++/11/iostream"
	.loc 3 74 25 is_stmt 1
	leaq	_ZStL8__ioinit(%rip), %rax
	movq	%rax, %rdi
	call	_ZNSt8ios_base4InitC1Ev@PLT
	leaq	__dso_handle(%rip), %rax
	movq	%rax, %rdx
	leaq	_ZStL8__ioinit(%rip), %rax
	movq	%rax, %rsi
	movq	_ZNSt8ios_base4InitD1Ev@GOTPCREL(%rip), %rax
	movq	%rax, %rdi
	call	__cxa_atexit@PLT
.L224:
	.loc 3 74 25 is_stmt 0 discriminator 1
	call	__asan_after_dynamic_init@PLT
.L225:
	.loc 1 358 5 is_stmt 1
	nop
	leave
	.cfi_def_cfa 7, 8
	ret
	.cfi_endproc
.LFE2977:
	.size	_Z41__static_initialization_and_destruction_0ii, .-_Z41__static_initialization_and_destruction_0ii
	.type	_GLOBAL__sub_I__ZN6LoggerC2EPKc, @function
_GLOBAL__sub_I__ZN6LoggerC2EPKc:
.LASANPC2978:
.LFB2978:
	.loc 1 358 5
	.cfi_startproc
	endbr64
	pushq	%rbp
	.cfi_def_cfa_offset 16
	.cfi_offset 6, -16
	movq	%rsp, %rbp
	.cfi_def_cfa_register 6
	.loc 1 358 5
	movl	$65535, %esi
	movl	$1, %edi
	call	_Z41__static_initialization_and_destruction_0ii
	popq	%rbp
	.cfi_def_cfa 7, 8
	ret
	.cfi_endproc
.LFE2978:
	.size	_GLOBAL__sub_I__ZN6LoggerC2EPKc, .-_GLOBAL__sub_I__ZN6LoggerC2EPKc
	.section	.init_array,"aw"
	.align 8
	.quad	_GLOBAL__sub_I__ZN6LoggerC2EPKc
	.section	.data.rel.local,"aw"
	.align 16
	.type	.LASANLOC1, @object
	.size	.LASANLOC1, 16
.LASANLOC1:
	.quad	.LC13
	.long	40
	.long	27
	.align 16
	.type	.LASANLOC2, @object
	.size	.LASANLOC2, 16
.LASANLOC2:
	.quad	.LC13
	.long	40
	.long	27
	.section	.rodata
.LC39:
	.string	"../ATC/Buffer/my_buffer.h"
	.section	.data.rel.local
	.align 16
	.type	.LASANLOC3, @object
	.size	.LASANLOC3, 16
.LASANLOC3:
	.quad	.LC39
	.long	32
	.long	11
	.section	.rodata
.LC40:
	.string	"../ATC/Logger/LogConfig.h"
	.section	.data.rel.local
	.align 16
	.type	.LASANLOC4, @object
	.size	.LASANLOC4, 16
.LASANLOC4:
	.quad	.LC40
	.long	3
	.long	12
	.section	.rodata
.LC41:
	.string	"/usr/include/c++/11/iostream"
	.section	.data.rel.local
	.align 16
	.type	.LASANLOC5, @object
	.size	.LASANLOC5, 16
.LASANLOC5:
	.quad	.LC41
	.long	74
	.long	25
	.section	.rodata
	.align 8
.LC42:
	.string	"_ZGVZN6Logger11getInstanceEvE6logger"
.LC43:
	.string	"logger"
.LC44:
	.string	"INDENT_SIZE"
.LC45:
	.string	"STD_LOG_NAME"
.LC46:
	.string	"__ioinit"
.LC47:
	.string	"*.LC1"
.LC48:
	.string	"*.LC26"
.LC49:
	.string	"*.LC14"
.LC50:
	.string	"*.LC17"
.LC51:
	.string	"*.LC2"
.LC52:
	.string	"*.LC19"
.LC53:
	.string	"*.LC24"
.LC54:
	.string	"*.LC13"
.LC55:
	.string	"*.LC16"
.LC56:
	.string	"*.LC36"
.LC57:
	.string	"*.LC5"
.LC58:
	.string	"*.LC21"
.LC59:
	.string	"*.LC33"
.LC60:
	.string	"*.LC22"
.LC61:
	.string	"*.LC28"
.LC62:
	.string	"*.LC23"
.LC63:
	.string	"*.LC38"
.LC64:
	.string	"*.LC12"
.LC65:
	.string	"*.LC18"
.LC66:
	.string	"*.LC34"
.LC67:
	.string	"*.LC7"
.LC68:
	.string	"*.LC30"
.LC69:
	.string	"*.LC3"
.LC70:
	.string	"*.LC20"
.LC71:
	.string	"*.LC32"
.LC72:
	.string	"*.LC15"
.LC73:
	.string	"*.LC25"
.LC74:
	.string	"*.LC6"
	.section	.data.rel.local
	.align 32
	.type	.LASAN0, @object
	.size	.LASAN0, 2112
.LASAN0:
	.quad	_ZGVZN6Logger11getInstanceEvE6logger
	.quad	8
	.quad	64
	.quad	.LC42
	.quad	.LC13
	.quad	0
	.quad	.LASANLOC1
	.quad	0
	.quad	_ZZN6Logger11getInstanceEvE6logger
	.quad	296
	.quad	352
	.quad	.LC43
	.quad	.LC13
	.quad	0
	.quad	.LASANLOC2
	.quad	0
	.quad	_ZL11INDENT_SIZE
	.quad	4
	.quad	64
	.quad	.LC44
	.quad	.LC13
	.quad	0
	.quad	.LASANLOC3
	.quad	0
	.quad	_ZL12STD_LOG_NAME
	.quad	18
	.quad	64
	.quad	.LC45
	.quad	.LC13
	.quad	0
	.quad	.LASANLOC4
	.quad	0
	.quad	_ZStL8__ioinit
	.quad	1
	.quad	64
	.quad	.LC46
	.quad	.LC13
	.quad	1
	.quad	.LASANLOC5
	.quad	0
	.quad	.LC1
	.quad	2
	.quad	64
	.quad	.LC47
	.quad	.LC13
	.quad	0
	.quad	0
	.quad	0
	.quad	.LC26
	.quad	76
	.quad	128
	.quad	.LC48
	.quad	.LC13
	.quad	0
	.quad	0
	.quad	0
	.quad	.LC14
	.quad	8
	.quad	64
	.quad	.LC49
	.quad	.LC13
	.quad	0
	.quad	0
	.quad	0
	.quad	.LC17
	.quad	76
	.quad	128
	.quad	.LC50
	.quad	.LC13
	.quad	0
	.quad	0
	.quad	0
	.quad	.LC2
	.quad	40
	.quad	96
	.quad	.LC51
	.quad	.LC13
	.quad	0
	.quad	0
	.quad	0
	.quad	.LC19
	.quad	68
	.quad	128
	.quad	.LC52
	.quad	.LC13
	.quad	0
	.quad	0
	.quad	0
	.quad	.LC24
	.quad	91
	.quad	128
	.quad	.LC53
	.quad	.LC13
	.quad	0
	.quad	0
	.quad	0
	.quad	.LC13
	.quad	25
	.quad	64
	.quad	.LC54
	.quad	.LC13
	.quad	0
	.quad	0
	.quad	0
	.quad	.LC16
	.quad	38
	.quad	96
	.quad	.LC55
	.quad	.LC13
	.quad	0
	.quad	0
	.quad	0
	.quad	.LC36
	.quad	24
	.quad	64
	.quad	.LC56
	.quad	.LC13
	.quad	0
	.quad	0
	.quad	0
	.quad	.LC5
	.quad	71
	.quad	128
	.quad	.LC57
	.quad	.LC13
	.quad	0
	.quad	0
	.quad	0
	.quad	.LC21
	.quad	50
	.quad	96
	.quad	.LC58
	.quad	.LC13
	.quad	0
	.quad	0
	.quad	0
	.quad	.LC33
	.quad	7
	.quad	64
	.quad	.LC59
	.quad	.LC13
	.quad	0
	.quad	0
	.quad	0
	.quad	.LC22
	.quad	45
	.quad	96
	.quad	.LC60
	.quad	.LC13
	.quad	0
	.quad	0
	.quad	0
	.quad	.LC28
	.quad	13
	.quad	64
	.quad	.LC61
	.quad	.LC13
	.quad	0
	.quad	0
	.quad	0
	.quad	.LC23
	.quad	44
	.quad	96
	.quad	.LC62
	.quad	.LC13
	.quad	0
	.quad	0
	.quad	0
	.quad	.LC38
	.quad	18
	.quad	64
	.quad	.LC63
	.quad	.LC13
	.quad	0
	.quad	0
	.quad	0
	.quad	.LC12
	.quad	27
	.quad	64
	.quad	.LC64
	.quad	.LC13
	.quad	0
	.quad	0
	.quad	0
	.quad	.LC18
	.quad	68
	.quad	128
	.quad	.LC65
	.quad	.LC13
	.quad	0
	.quad	0
	.quad	0
	.quad	.LC34
	.quad	17
	.quad	64
	.quad	.LC66
	.quad	.LC13
	.quad	0
	.quad	0
	.quad	0
	.quad	.LC7
	.quad	21
	.quad	64
	.quad	.LC67
	.quad	.LC13
	.quad	0
	.quad	0
	.quad	0
	.quad	.LC30
	.quad	9
	.quad	64
	.quad	.LC68
	.quad	.LC13
	.quad	0
	.quad	0
	.quad	0
	.quad	.LC3
	.quad	4
	.quad	64
	.quad	.LC69
	.quad	.LC13
	.quad	0
	.quad	0
	.quad	0
	.quad	.LC20
	.quad	59
	.quad	96
	.quad	.LC70
	.quad	.LC13
	.quad	0
	.quad	0
	.quad	0
	.quad	.LC32
	.quad	55
	.quad	96
	.quad	.LC71
	.quad	.LC13
	.quad	0
	.quad	0
	.quad	0
	.quad	.LC15
	.quad	69
	.quad	128
	.quad	.LC72
	.quad	.LC13
	.quad	0
	.quad	0
	.quad	0
	.quad	.LC25
	.quad	39
	.quad	96
	.quad	.LC73
	.quad	.LC13
	.quad	0
	.quad	0
	.quad	0
	.quad	.LC6
	.quad	31
	.quad	64
	.quad	.LC74
	.quad	.LC13
	.quad	0
	.quad	0
	.quad	0
	.text
	.type	_sub_D_00099_0, @function
_sub_D_00099_0:
.LFB2981:
	.cfi_startproc
	endbr64
	pushq	%rbp
	.cfi_def_cfa_offset 16
	.cfi_offset 6, -16
	movq	%rsp, %rbp
	.cfi_def_cfa_register 6
	movl	$33, %esi
	leaq	.LASAN0(%rip), %rax
	movq	%rax, %rdi
	call	__asan_unregister_globals@PLT
	popq	%rbp
	.cfi_def_cfa 7, 8
	ret
	.cfi_endproc
.LFE2981:
	.size	_sub_D_00099_0, .-_sub_D_00099_0
	.section	.fini_array.00099,"aw"
	.align 8
	.quad	_sub_D_00099_0
	.text
	.type	_sub_I_00099_1, @function
_sub_I_00099_1:
.LFB2982:
	.cfi_startproc
	endbr64
	pushq	%rbp
	.cfi_def_cfa_offset 16
	.cfi_offset 6, -16
	movq	%rsp, %rbp
	.cfi_def_cfa_register 6
	call	__asan_init@PLT
	call	__asan_version_mismatch_check_v8@PLT
	movl	$33, %esi
	leaq	.LASAN0(%rip), %rax
	movq	%rax, %rdi
	call	__asan_register_globals@PLT
	popq	%rbp
	.cfi_def_cfa 7, 8
	ret
	.cfi_endproc
.LFE2982:
	.size	_sub_I_00099_1, .-_sub_I_00099_1
	.section	.init_array.00099,"aw"
	.align 8
	.quad	_sub_I_00099_1
	.text
.Letext0:
	.file 4 "/usr/lib/gcc/x86_64-linux-gnu/11/include/stddef.h"
	.file 5 "/usr/lib/gcc/x86_64-linux-gnu/11/include/stdarg.h"
	.file 6 "<built-in>"
	.file 7 "/usr/include/x86_64-linux-gnu/bits/types/wint_t.h"
	.file 8 "/usr/include/x86_64-linux-gnu/bits/types/__mbstate_t.h"
	.file 9 "/usr/include/x86_64-linux-gnu/bits/types/mbstate_t.h"
	.file 10 "/usr/include/x86_64-linux-gnu/bits/types/__FILE.h"
	.file 11 "/usr/include/x86_64-linux-gnu/bits/types/struct_FILE.h"
	.file 12 "/usr/include/x86_64-linux-gnu/bits/types/FILE.h"
	.file 13 "/usr/include/c++/11/cwchar"
	.file 14 "/usr/include/x86_64-linux-gnu/c++/11/bits/c++config.h"
	.file 15 "/usr/include/c++/11/type_traits"
	.file 16 "/usr/include/c++/11/bits/exception_ptr.h"
	.file 17 "/usr/include/c++/11/concepts"
	.file 18 "/usr/include/c++/11/bits/iterator_concepts.h"
	.file 19 "/usr/include/c++/11/bits/ranges_cmp.h"
	.file 20 "/usr/include/c++/11/compare"
	.file 21 "/usr/include/c++/11/debug/debug.h"
	.file 22 "/usr/include/c++/11/bits/char_traits.h"
	.file 23 "/usr/include/c++/11/cstdint"
	.file 24 "/usr/include/c++/11/clocale"
	.file 25 "/usr/include/c++/11/cstdlib"
	.file 26 "/usr/include/c++/11/numbers"
	.file 27 "/usr/include/c++/11/cstdio"
	.file 28 "/usr/include/c++/11/bits/ios_base.h"
	.file 29 "/usr/include/c++/11/cwctype"
	.file 30 "/usr/include/c++/11/ostream"
	.file 31 "/usr/include/c++/11/bits/std_abs.h"
	.file 32 "/usr/include/c++/11/bits/basic_ios.h"
	.file 33 "/usr/include/wchar.h"
	.file 34 "/usr/include/x86_64-linux-gnu/bits/types/struct_tm.h"
	.file 35 "/usr/include/c++/11/bits/predefined_ops.h"
	.file 36 "/usr/include/c++/11/bits/ptr_traits.h"
	.file 37 "/usr/include/x86_64-linux-gnu/bits/types.h"
	.file 38 "/usr/include/x86_64-linux-gnu/bits/stdint-intn.h"
	.file 39 "/usr/include/x86_64-linux-gnu/bits/stdint-uintn.h"
	.file 40 "/usr/include/stdint.h"
	.file 41 "/usr/include/locale.h"
	.file 42 "/usr/include/x86_64-linux-gnu/bits/types/time_t.h"
	.file 43 "/usr/include/stdlib.h"
	.file 44 "/usr/include/x86_64-linux-gnu/bits/types/__fpos_t.h"
	.file 45 "/usr/include/stdio.h"
	.file 46 "/usr/include/x86_64-linux-gnu/bits/wctype-wchar.h"
	.file 47 "/usr/include/wctype.h"
	.file 48 "../ATC/Logger/LogConfig.h"
	.file 49 "/usr/include/c++/11/stdlib.h"
	.file 50 "../ATC/Buffer/my_buffer.h"
	.file 51 "/usr/include/errno.h"
	.file 52 "/usr/include/string.h"
	.file 53 "/usr/include/malloc.h"
	.file 54 "/usr/include/assert.h"
	.file 55 "/usr/include/c++/11/new"
	.file 56 "/usr/include/time.h"
	.file 57 "/usr/include/c++/11/bits/algorithmfwd.h"
	.section	.data.rel.local.DW.ref._ZTIPKc,"awG",@progbits,DW.ref._ZTIPKc,comdat
	.align 8
	.type	DW.ref._ZTIPKc, @object
	.size	DW.ref._ZTIPKc, 8
DW.ref._ZTIPKc:
	.quad	_ZTIPKc
	.hidden	DW.ref.__gxx_personality_v0
	.weak	DW.ref.__gxx_personality_v0
	.section	.data.rel.local.DW.ref.__gxx_personality_v0,"awG",@progbits,DW.ref.__gxx_personality_v0,comdat
	.align 8
	.type	DW.ref.__gxx_personality_v0, @object
	.size	DW.ref.__gxx_personality_v0, 8
DW.ref.__gxx_personality_v0:
	.quad	__gxx_personality_v0
	.hidden	__dso_handle
	.ident	"GCC: (Ubuntu 11.3.0-1ubuntu1~22.04) 11.3.0"
	.section	.note.GNU-stack,"",@progbits
	.section	.note.gnu.property,"a"
	.align 8
	.long	1f - 0f
	.long	4f - 1f
	.long	5
0:
	.string	"GNU"
1:
	.align 8
	.long	0xc0000002
	.long	3f - 2f
2:
	.long	0x3
3:
	.align 8
4:
