	.file	"main.cpp"
	.text
.Ltext0:
	.file 0 "/home/arsenyfucker/Cprojects/Lang/Translator/BackEnd" "./src/main.cpp"
	.section	.rodata
	.align 32
	.type	_ZL12NOT_DECLARED, @object
	.size	_ZL12NOT_DECLARED, 4
_ZL12NOT_DECLARED:
	.long	-111
	.zero	60
	.align 32
	.type	_ZL11NOT_A_LABEL, @object
	.size	_ZL11NOT_A_LABEL, 4
_ZL11NOT_A_LABEL:
	.long	-9
	.zero	60
	.align 32
	.type	_ZL17START_RAM_ADDRESS, @object
	.size	_ZL17START_RAM_ADDRESS, 4
_ZL17START_RAM_ADDRESS:
	.zero	4
	.zero	60
	.align 32
	.type	_ZL33START_RAM_ADDRESS_FOR_GLOBAL_VARS, @object
	.size	_ZL33START_RAM_ADDRESS_FOR_GLOBAL_VARS, 4
_ZL33START_RAM_ADDRESS_FOR_GLOBAL_VARS:
	.zero	4
	.zero	60
	.align 32
	.type	_ZL21VARIABLES_ADDRESS_REG, @object
	.size	_ZL21VARIABLES_ADDRESS_REG, 4
_ZL21VARIABLES_ADDRESS_REG:
	.long	2
	.zero	60
	.align 32
	.type	_ZL16RETURN_VALUE_REG, @object
	.size	_ZL16RETURN_VALUE_REG, 4
_ZL16RETURN_VALUE_REG:
	.long	3
	.zero	60
	.align 32
	.type	_ZL18SOFT_CPU_PRECISION, @object
	.size	_ZL18SOFT_CPU_PRECISION, 4
_ZL18SOFT_CPU_PRECISION:
	.long	100
	.zero	60
	.align 32
	.type	_ZL27START_NUMBER_OF_NAME_TABLES, @object
	.size	_ZL27START_NUMBER_OF_NAME_TABLES, 4
_ZL27START_NUMBER_OF_NAME_TABLES:
	.long	5
	.zero	60
	.align 32
	.type	_ZL21MAX_GRAPH_NAME_LENGTH, @object
	.size	_ZL21MAX_GRAPH_NAME_LENGTH, 4
_ZL21MAX_GRAPH_NAME_LENGTH:
	.long	128
	.zero	60
	.align 32
	.type	_ZL17IMAGE_NAME_LENGTH, @object
	.size	_ZL17IMAGE_NAME_LENGTH, 4
_ZL17IMAGE_NAME_LENGTH:
	.long	128
	.zero	60
	.align 32
	.type	_ZL12PATH_FOR_DOT, @object
	.size	_ZL12PATH_FOR_DOT, 16
_ZL12PATH_FOR_DOT:
	.string	"./graphics/dot/"
	.zero	48
	.align 32
	.type	_ZL12PATH_FOR_IMG, @object
	.size	_ZL12PATH_FOR_IMG, 12
_ZL12PATH_FOR_IMG:
	.string	"./graphics/"
	.zero	52
	.align 32
	.type	_ZL9EXTENSION, @object
	.size	_ZL9EXTENSION, 4
_ZL9EXTENSION:
	.string	"png"
	.zero	60
	.align 32
	.type	_ZL7RANKDIR, @object
	.size	_ZL7RANKDIR, 3
_ZL7RANKDIR:
	.string	"TB"
	.zero	61
	.align 32
	.type	_ZL21SYSTEM_COMMAND_LENGTH, @object
	.size	_ZL21SYSTEM_COMMAND_LENGTH, 4
_ZL21SYSTEM_COMMAND_LENGTH:
	.long	512
	.zero	60
	.align 32
	.type	_ZL11INDENT_SIZE, @object
	.size	_ZL11INDENT_SIZE, 4
_ZL11INDENT_SIZE:
	.long	2
	.zero	60
	.bss
	.align 32
	.type	_ZStL8__ioinit, @object
	.size	_ZStL8__ioinit, 1
_ZStL8__ioinit:
	.zero	64
	.section	.rodata
	.align 32
	.type	_ZL12STD_LOG_NAME, @object
	.size	_ZL12STD_LOG_NAME, 18
_ZL12STD_LOG_NAME:
	.string	"./logs/stdlog.ars"
	.zero	46
	.align 32
	.type	_ZL6CRINGE, @object
	.size	_ZL6CRINGE, 4
_ZL6CRINGE:
	.long	3565
	.zero	60
	.globl	__asan_stack_malloc_2
	.align 8
.LC0:
	.string	"2 32 24 10 func_22:22 96 64 10 program:34"
	.align 32
.LC1:
	.string	"main"
	.zero	59
	.align 32
.LC2:
	.string	"Ebat, enter AWP file to compile, and output file"
	.zero	47
	.align 32
.LC3:
	.string	"kek_back_End"
	.zero	51
	.text
	.globl	main
	.type	main, @function
main:
.LASANPC2270:
.LFB2270:
	.file 1 "./src/main.cpp"
	.loc 1 21 3
	.cfi_startproc
	.cfi_personality 0x9b,DW.ref.__gxx_personality_v0
	.cfi_lsda 0x1b,.LLSDA2270
	endbr64
	pushq	%rbp
	.cfi_def_cfa_offset 16
	.cfi_offset 6, -16
	movq	%rsp, %rbp
	.cfi_def_cfa_register 6
	pushq	%r15
	pushq	%r14
	pushq	%r13
	pushq	%r12
	pushq	%rbx
	subq	$248, %rsp
	.cfi_offset 15, -24
	.cfi_offset 14, -32
	.cfi_offset 13, -40
	.cfi_offset 12, -48
	.cfi_offset 3, -56
	movl	%edi, -276(%rbp)
	movq	%rsi, -288(%rbp)
	leaq	-240(%rbp), %r12
	movq	%r12, %r15
	cmpl	$0, __asan_option_detect_stack_use_after_return(%rip)
	je	.L1
	movl	$192, %edi
	call	__asan_stack_malloc_2@PLT
	testq	%rax, %rax
	je	.L1
	movq	%rax, %r12
.L1:
	leaq	192(%r12), %rax
	movq	%rax, %rbx
	movq	$1102416563, (%r12)
	leaq	.LC0(%rip), %rax
	movq	%rax, 8(%r12)
	leaq	.LASANPC2270(%rip), %rax
	movq	%rax, 16(%r12)
	movq	%r12, %r13
	shrq	$3, %r13
	movl	$-235802127, 2147450880(%r13)
	movl	$-234881024, 2147450884(%r13)
	movl	$-218959118, 2147450888(%r13)
	movl	$-202116109, 2147450900(%r13)
	.loc 1 22 44
	leaq	-160(%rbx), %rax
	leaq	.LC1(%rip), %rdx
	movl	$666, %esi
	movq	%rax, %rdi
.LEHB0:
	call	_ZN14FunctionLoggerC1EiPKc@PLT
.LEHE0:
	.loc 1 24 3
	cmpl	$2, -276(%rbp)
	jg	.L5
	.loc 1 26 9
	leaq	.LC2(%rip), %rax
	movq	%rax, %rdi
.LEHB1:
	call	puts@PLT
	.loc 1 28 11
	movl	$-1, %r14d
	jmp	.L6
.L5:
	.loc 1 31 15
	movq	-288(%rbp), %rax
	addq	$8, %rax
	movq	%rax, %rdx
	shrq	$3, %rdx
	addq	$2147450880, %rdx
	movzbl	(%rdx), %edx
	testb	%dl, %dl
	je	.L7
	movq	%rax, %rdi
	call	__asan_report_load8@PLT
.L7:
	movq	-288(%rbp), %rax
	movq	8(%rax), %rax
	movq	%rax, -256(%rbp)
	.loc 1 32 15
	movq	-288(%rbp), %rax
	addq	$16, %rax
	movq	%rax, %rdx
	shrq	$3, %rdx
	addq	$2147450880, %rdx
	movzbl	(%rdx), %edx
	testb	%dl, %dl
	je	.L8
	movq	%rax, %rdi
	call	__asan_report_load8@PLT
.L8:
	movq	-288(%rbp), %rax
	movq	16(%rax), %rax
	movq	%rax, -248(%rbp)
	.loc 1 34 11
	leaq	-96(%rbx), %rax
	movq	%rax, %rdx
	shrq	$3, %rdx
	addq	$2147450880, %rdx
	movzbl	(%rdx), %edx
	testb	%dl, %dl
	setne	%cl
	testb	%dl, %dl
	setle	%dl
	movl	%ecx, %esi
	andl	%edx, %esi
	movl	$64, %edx
	subq	$1, %rdx
	leaq	(%rax,%rdx), %rcx
	movq	%rcx, %rdx
	shrq	$3, %rdx
	addq	$2147450880, %rdx
	movzbl	(%rdx), %edx
	testb	%dl, %dl
	setne	%dil
	andl	$7, %ecx
	cmpb	%dl, %cl
	setge	%dl
	andl	%edi, %edx
	orl	%esi, %edx
	testb	%dl, %dl
	je	.L9
	movl	$64, %esi
	movq	%rax, %rdi
	call	__asan_report_store_n@PLT
.L9:
	movq	$0, -96(%rbx)
	movq	$0, -88(%rbx)
	movq	$0, -80(%rbx)
	movq	$0, -72(%rbx)
	movq	$0, -64(%rbx)
	movq	$0, -56(%rbx)
	movq	$0, -48(%rbx)
	movq	$0, -40(%rbx)
	.loc 1 35 14
	movq	-256(%rbp), %rdx
	leaq	-96(%rbx), %rax
	movq	%rdx, %rsi
	movq	%rax, %rdi
	call	_Z11ProgramCtorP7ProgramPKc@PLT
	.loc 1 38 45
	movq	-256(%rbp), %rdx
	leaq	-96(%rbx), %rax
	movq	%rdx, %rsi
	movq	%rax, %rdi
	call	_Z20GetProgramFromStdAwpP7ProgramPKc@PLT
	movl	%eax, -260(%rbp)
	.loc 1 39 3
	cmpl	$0, -260(%rbp)
	jne	.L18
	.loc 1 42 10
	leaq	-96(%rbx), %rax
	movq	%rax, %rsi
	leaq	.LC3(%rip), %rax
	movq	%rax, %rdi
	call	_Z7MakeImgPKcPK7Program@PLT
	.loc 1 46 33
	leaq	-96(%rbx), %rax
	movq	%rax, %rdi
	call	_Z12SetTokenTreeP7Program@PLT
	movl	%eax, -260(%rbp)
	.loc 1 47 3
	cmpl	$0, -260(%rbp)
	jne	.L19
	.loc 1 51 37
	movq	-248(%rbp), %rdx
	leaq	-96(%rbx), %rax
	movq	%rdx, %rsi
	movq	%rax, %rdi
	call	_Z14TranslateToAsmPK7ProgramPKc@PLT
	.loc 1 51 19
	orl	%eax, -260(%rbp)
	.loc 1 52 3
	cmpl	$0, -260(%rbp)
	jne	.L20
	.loc 1 55 14
	leaq	-96(%rbx), %rax
	movq	%rax, %rdi
	call	_Z11ProgramDtorP7Program@PLT
	.loc 1 57 10
	movl	$0, %r14d
	jmp	.L6
.L18:
	.loc 1 40 10
	nop
	jmp	.L11
.L19:
	.loc 1 48 12
	nop
	jmp	.L11
.L20:
	.loc 1 53 12
	nop
.L11:
	.loc 1 62 14
	leaq	-96(%rbx), %rax
	movq	%rax, %rdi
	call	_Z11ProgramDtorP7Program@PLT
.LEHE1:
	.loc 1 65 10
	movl	$-1, %r14d
.L6:
	.loc 1 66 3
	leaq	-160(%rbx), %rax
	movq	%rax, %rdi
	call	_ZN14FunctionLoggerD1Ev@PLT
	movl	%r14d, %edx
	.loc 1 21 3
	cmpq	%r12, %r15
	je	.L2
	jmp	.L17
.L16:
	endbr64
	.loc 1 66 3
	movq	%rax, %r12
	leaq	-160(%rbx), %rax
	movq	%rax, %rdi
	call	_ZN14FunctionLoggerD1Ev@PLT
	movq	%r12, %rbx
	call	__asan_handle_no_return@PLT
	movq	%rbx, %rdi
.LEHB2:
	call	_Unwind_Resume@PLT
.LEHE2:
.L17:
	.loc 1 21 3
	movq	$1172321806, (%r12)
	movabsq	$-723401728380766731, %rcx
	movabsq	$-723401728380766731, %rbx
	movq	%rcx, 2147450880(%r13)
	movq	%rbx, 2147450888(%r13)
	movabsq	$-723401728380766731, %rax
	movq	%rax, 2147450896(%r13)
	movq	248(%r12), %rax
	movb	$0, (%rax)
	jmp	.L3
.L2:
	movq	$0, 2147450880(%r13)
	movl	$0, 2147450888(%r13)
	movl	$0, 2147450900(%r13)
.L3:
	.loc 1 66 3
	movl	%edx, %eax
	addq	$248, %rsp
	popq	%rbx
	popq	%r12
	popq	%r13
	popq	%r14
	popq	%r15
	popq	%rbp
	.cfi_def_cfa 7, 8
	ret
	.cfi_endproc
.LFE2270:
	.globl	__gxx_personality_v0
	.section	.gcc_except_table,"a",@progbits
.LLSDA2270:
	.byte	0xff
	.byte	0xff
	.byte	0x1
	.uleb128 .LLSDACSE2270-.LLSDACSB2270
.LLSDACSB2270:
	.uleb128 .LEHB0-.LFB2270
	.uleb128 .LEHE0-.LEHB0
	.uleb128 0
	.uleb128 0
	.uleb128 .LEHB1-.LFB2270
	.uleb128 .LEHE1-.LEHB1
	.uleb128 .L16-.LFB2270
	.uleb128 0
	.uleb128 .LEHB2-.LFB2270
	.uleb128 .LEHE2-.LEHB2
	.uleb128 0
	.uleb128 0
.LLSDACSE2270:
	.text
	.size	main, .-main
	.section	.rodata
.LC4:
	.string	"./src/main.cpp"
	.text
	.type	_Z41__static_initialization_and_destruction_0ii, @function
_Z41__static_initialization_and_destruction_0ii:
.LASANPC2937:
.LFB2937:
	.loc 1 66 3
	.cfi_startproc
	endbr64
	pushq	%rbp
	.cfi_def_cfa_offset 16
	.cfi_offset 6, -16
	movq	%rsp, %rbp
	.cfi_def_cfa_register 6
	subq	$16, %rsp
	movl	%edi, -4(%rbp)
	movl	%esi, -8(%rbp)
	.loc 1 66 3
	cmpl	$1, -4(%rbp)
	jne	.L24
	.loc 1 66 3 is_stmt 0 discriminator 1
	leaq	.LC4(%rip), %rax
	movq	%rax, %rdi
	call	__asan_before_dynamic_init@PLT
	cmpl	$65535, -8(%rbp)
	jne	.L23
	.file 2 "/usr/include/c++/11/iostream"
	.loc 2 74 25 is_stmt 1
	leaq	_ZStL8__ioinit(%rip), %rax
	movq	%rax, %rdi
	call	_ZNSt8ios_base4InitC1Ev@PLT
	leaq	__dso_handle(%rip), %rax
	movq	%rax, %rdx
	leaq	_ZStL8__ioinit(%rip), %rax
	movq	%rax, %rsi
	movq	_ZNSt8ios_base4InitD1Ev@GOTPCREL(%rip), %rax
	movq	%rax, %rdi
	call	__cxa_atexit@PLT
.L23:
	.loc 2 74 25 is_stmt 0 discriminator 1
	call	__asan_after_dynamic_init@PLT
.L24:
	.loc 1 66 3 is_stmt 1
	nop
	leave
	.cfi_def_cfa 7, 8
	ret
	.cfi_endproc
.LFE2937:
	.size	_Z41__static_initialization_and_destruction_0ii, .-_Z41__static_initialization_and_destruction_0ii
	.type	_GLOBAL__sub_I_main, @function
_GLOBAL__sub_I_main:
.LASANPC2938:
.LFB2938:
	.loc 1 66 3
	.cfi_startproc
	endbr64
	pushq	%rbp
	.cfi_def_cfa_offset 16
	.cfi_offset 6, -16
	movq	%rsp, %rbp
	.cfi_def_cfa_register 6
	.loc 1 66 3
	movl	$65535, %esi
	movl	$1, %edi
	call	_Z41__static_initialization_and_destruction_0ii
	popq	%rbp
	.cfi_def_cfa 7, 8
	ret
	.cfi_endproc
.LFE2938:
	.size	_GLOBAL__sub_I_main, .-_GLOBAL__sub_I_main
	.section	.init_array,"aw"
	.align 8
	.quad	_GLOBAL__sub_I_main
	.section	.rodata
	.align 8
.LC5:
	.string	"../ATC/RandomStuff/CommonEnums.h"
	.section	.data.rel.local,"aw"
	.align 16
	.type	.LASANLOC1, @object
	.size	.LASANLOC1, 16
.LASANLOC1:
	.quad	.LC5
	.long	3
	.long	11
	.section	.rodata
.LC6:
	.string	"../ATC/Logger/LogConfig.h"
	.section	.data.rel.local
	.align 16
	.type	.LASANLOC2, @object
	.size	.LASANLOC2, 16
.LASANLOC2:
	.quad	.LC6
	.long	3
	.long	12
	.section	.rodata
.LC7:
	.string	"/usr/include/c++/11/iostream"
	.section	.data.rel.local
	.align 16
	.type	.LASANLOC3, @object
	.size	.LASANLOC3, 16
.LASANLOC3:
	.quad	.LC7
	.long	74
	.long	25
	.section	.rodata
.LC8:
	.string	"../ATC/Buffer/my_buffer.h"
	.section	.data.rel.local
	.align 16
	.type	.LASANLOC4, @object
	.size	.LASANLOC4, 16
.LASANLOC4:
	.quad	.LC8
	.long	32
	.long	11
	.section	.rodata
.LC9:
	.string	"../ATC/GraphVis/GVConfig.h"
	.section	.data.rel.local
	.align 16
	.type	.LASANLOC5, @object
	.size	.LASANLOC5, 16
.LASANLOC5:
	.quad	.LC9
	.long	13
	.long	11
	.align 16
	.type	.LASANLOC6, @object
	.size	.LASANLOC6, 16
.LASANLOC6:
	.quad	.LC9
	.long	11
	.long	12
	.align 16
	.type	.LASANLOC7, @object
	.size	.LASANLOC7, 16
.LASANLOC7:
	.quad	.LC9
	.long	9
	.long	12
	.align 16
	.type	.LASANLOC8, @object
	.size	.LASANLOC8, 16
.LASANLOC8:
	.quad	.LC9
	.long	8
	.long	12
	.align 16
	.type	.LASANLOC9, @object
	.size	.LASANLOC9, 16
.LASANLOC9:
	.quad	.LC9
	.long	7
	.long	12
	.align 16
	.type	.LASANLOC10, @object
	.size	.LASANLOC10, 16
.LASANLOC10:
	.quad	.LC9
	.long	4
	.long	11
	.align 16
	.type	.LASANLOC11, @object
	.size	.LASANLOC11, 16
.LASANLOC11:
	.quad	.LC9
	.long	3
	.long	11
	.section	.rodata
.LC10:
	.string	"./headers/SetTokenTree.h"
	.section	.data.rel.local
	.align 16
	.type	.LASANLOC12, @object
	.size	.LASANLOC12, 16
.LASANLOC12:
	.quad	.LC10
	.long	9
	.long	11
	.section	.rodata
.LC11:
	.string	"./headers/BackEndConfig.h"
	.section	.data.rel.local
	.align 16
	.type	.LASANLOC13, @object
	.size	.LASANLOC13, 16
.LASANLOC13:
	.quad	.LC11
	.long	12
	.long	11
	.align 16
	.type	.LASANLOC14, @object
	.size	.LASANLOC14, 16
.LASANLOC14:
	.quad	.LC11
	.long	9
	.long	11
	.align 16
	.type	.LASANLOC15, @object
	.size	.LASANLOC15, 16
.LASANLOC15:
	.quad	.LC11
	.long	8
	.long	11
	.align 16
	.type	.LASANLOC16, @object
	.size	.LASANLOC16, 16
.LASANLOC16:
	.quad	.LC11
	.long	4
	.long	11
	.align 16
	.type	.LASANLOC17, @object
	.size	.LASANLOC17, 16
.LASANLOC17:
	.quad	.LC11
	.long	3
	.long	11
	.section	.rodata
	.align 8
.LC12:
	.string	"../Common/Structures/Tabels/Tabels.h"
	.section	.data.rel.local
	.align 16
	.type	.LASANLOC18, @object
	.size	.LASANLOC18, 16
.LASANLOC18:
	.quad	.LC12
	.long	8
	.long	11
	.align 16
	.type	.LASANLOC19, @object
	.size	.LASANLOC19, 16
.LASANLOC19:
	.quad	.LC12
	.long	7
	.long	11
	.section	.rodata
.LC13:
	.string	"CRINGE"
.LC14:
	.string	"STD_LOG_NAME"
.LC15:
	.string	"__ioinit"
.LC16:
	.string	"INDENT_SIZE"
.LC17:
	.string	"SYSTEM_COMMAND_LENGTH"
.LC18:
	.string	"RANKDIR"
.LC19:
	.string	"EXTENSION"
.LC20:
	.string	"PATH_FOR_IMG"
.LC21:
	.string	"PATH_FOR_DOT"
.LC22:
	.string	"IMAGE_NAME_LENGTH"
.LC23:
	.string	"MAX_GRAPH_NAME_LENGTH"
.LC24:
	.string	"START_NUMBER_OF_NAME_TABLES"
.LC25:
	.string	"SOFT_CPU_PRECISION"
.LC26:
	.string	"RETURN_VALUE_REG"
.LC27:
	.string	"VARIABLES_ADDRESS_REG"
	.align 8
.LC28:
	.string	"START_RAM_ADDRESS_FOR_GLOBAL_VARS"
.LC29:
	.string	"START_RAM_ADDRESS"
.LC30:
	.string	"NOT_A_LABEL"
.LC31:
	.string	"NOT_DECLARED"
.LC32:
	.string	"*.LC1"
.LC33:
	.string	"*.LC2"
.LC34:
	.string	"*.LC3"
	.section	.data.rel.local
	.align 32
	.type	.LASAN0, @object
	.size	.LASAN0, 1408
.LASAN0:
	.quad	_ZL6CRINGE
	.quad	4
	.quad	64
	.quad	.LC13
	.quad	.LC4
	.quad	0
	.quad	.LASANLOC1
	.quad	0
	.quad	_ZL12STD_LOG_NAME
	.quad	18
	.quad	64
	.quad	.LC14
	.quad	.LC4
	.quad	0
	.quad	.LASANLOC2
	.quad	0
	.quad	_ZStL8__ioinit
	.quad	1
	.quad	64
	.quad	.LC15
	.quad	.LC4
	.quad	1
	.quad	.LASANLOC3
	.quad	0
	.quad	_ZL11INDENT_SIZE
	.quad	4
	.quad	64
	.quad	.LC16
	.quad	.LC4
	.quad	0
	.quad	.LASANLOC4
	.quad	0
	.quad	_ZL21SYSTEM_COMMAND_LENGTH
	.quad	4
	.quad	64
	.quad	.LC17
	.quad	.LC4
	.quad	0
	.quad	.LASANLOC5
	.quad	0
	.quad	_ZL7RANKDIR
	.quad	3
	.quad	64
	.quad	.LC18
	.quad	.LC4
	.quad	0
	.quad	.LASANLOC6
	.quad	0
	.quad	_ZL9EXTENSION
	.quad	4
	.quad	64
	.quad	.LC19
	.quad	.LC4
	.quad	0
	.quad	.LASANLOC7
	.quad	0
	.quad	_ZL12PATH_FOR_IMG
	.quad	12
	.quad	64
	.quad	.LC20
	.quad	.LC4
	.quad	0
	.quad	.LASANLOC8
	.quad	0
	.quad	_ZL12PATH_FOR_DOT
	.quad	16
	.quad	64
	.quad	.LC21
	.quad	.LC4
	.quad	0
	.quad	.LASANLOC9
	.quad	0
	.quad	_ZL17IMAGE_NAME_LENGTH
	.quad	4
	.quad	64
	.quad	.LC22
	.quad	.LC4
	.quad	0
	.quad	.LASANLOC10
	.quad	0
	.quad	_ZL21MAX_GRAPH_NAME_LENGTH
	.quad	4
	.quad	64
	.quad	.LC23
	.quad	.LC4
	.quad	0
	.quad	.LASANLOC11
	.quad	0
	.quad	_ZL27START_NUMBER_OF_NAME_TABLES
	.quad	4
	.quad	64
	.quad	.LC24
	.quad	.LC4
	.quad	0
	.quad	.LASANLOC12
	.quad	0
	.quad	_ZL18SOFT_CPU_PRECISION
	.quad	4
	.quad	64
	.quad	.LC25
	.quad	.LC4
	.quad	0
	.quad	.LASANLOC13
	.quad	0
	.quad	_ZL16RETURN_VALUE_REG
	.quad	4
	.quad	64
	.quad	.LC26
	.quad	.LC4
	.quad	0
	.quad	.LASANLOC14
	.quad	0
	.quad	_ZL21VARIABLES_ADDRESS_REG
	.quad	4
	.quad	64
	.quad	.LC27
	.quad	.LC4
	.quad	0
	.quad	.LASANLOC15
	.quad	0
	.quad	_ZL33START_RAM_ADDRESS_FOR_GLOBAL_VARS
	.quad	4
	.quad	64
	.quad	.LC28
	.quad	.LC4
	.quad	0
	.quad	.LASANLOC16
	.quad	0
	.quad	_ZL17START_RAM_ADDRESS
	.quad	4
	.quad	64
	.quad	.LC29
	.quad	.LC4
	.quad	0
	.quad	.LASANLOC17
	.quad	0
	.quad	_ZL11NOT_A_LABEL
	.quad	4
	.quad	64
	.quad	.LC30
	.quad	.LC4
	.quad	0
	.quad	.LASANLOC18
	.quad	0
	.quad	_ZL12NOT_DECLARED
	.quad	4
	.quad	64
	.quad	.LC31
	.quad	.LC4
	.quad	0
	.quad	.LASANLOC19
	.quad	0
	.quad	.LC1
	.quad	5
	.quad	64
	.quad	.LC32
	.quad	.LC4
	.quad	0
	.quad	0
	.quad	0
	.quad	.LC2
	.quad	49
	.quad	96
	.quad	.LC33
	.quad	.LC4
	.quad	0
	.quad	0
	.quad	0
	.quad	.LC3
	.quad	13
	.quad	64
	.quad	.LC34
	.quad	.LC4
	.quad	0
	.quad	0
	.quad	0
	.text
	.type	_sub_D_00099_0, @function
_sub_D_00099_0:
.LFB2939:
	.cfi_startproc
	endbr64
	pushq	%rbp
	.cfi_def_cfa_offset 16
	.cfi_offset 6, -16
	movq	%rsp, %rbp
	.cfi_def_cfa_register 6
	movl	$22, %esi
	leaq	.LASAN0(%rip), %rax
	movq	%rax, %rdi
	call	__asan_unregister_globals@PLT
	popq	%rbp
	.cfi_def_cfa 7, 8
	ret
	.cfi_endproc
.LFE2939:
	.size	_sub_D_00099_0, .-_sub_D_00099_0
	.section	.fini_array.00099,"aw"
	.align 8
	.quad	_sub_D_00099_0
	.text
	.type	_sub_I_00099_1, @function
_sub_I_00099_1:
.LFB2940:
	.cfi_startproc
	endbr64
	pushq	%rbp
	.cfi_def_cfa_offset 16
	.cfi_offset 6, -16
	movq	%rsp, %rbp
	.cfi_def_cfa_register 6
	call	__asan_init@PLT
	call	__asan_version_mismatch_check_v8@PLT
	movl	$22, %esi
	leaq	.LASAN0(%rip), %rax
	movq	%rax, %rdi
	call	__asan_register_globals@PLT
	popq	%rbp
	.cfi_def_cfa 7, 8
	ret
	.cfi_endproc
.LFE2940:
	.size	_sub_I_00099_1, .-_sub_I_00099_1
	.section	.init_array.00099,"aw"
	.align 8
	.quad	_sub_I_00099_1
	.text
.Letext0:
	.file 3 "../Common/Structures/Tabels/NameTable.h"
	.file 4 "../Common/Structures/Token/Token.h"
	.file 5 "../Common/Structures/Tabels/Tabels.h"
	.file 6 "../Common/Structures/Program/Program.h"
	.file 7 "./headers/BackEndConfig.h"
	.file 8 "./headers/SetTokenTree.h"
	.file 9 "/usr/include/stdlib.h"
	.file 10 "/usr/lib/gcc/x86_64-linux-gnu/11/include/stddef.h"
	.file 11 "/usr/include/x86_64-linux-gnu/bits/types.h"
	.file 12 "/usr/include/x86_64-linux-gnu/bits/stdint-intn.h"
	.file 13 "/usr/include/c++/11/cstdlib"
	.file 14 "/usr/include/c++/11/bits/std_abs.h"
	.file 15 "/usr/include/c++/11/cwchar"
	.file 16 "/usr/include/c++/11/type_traits"
	.file 17 "/usr/include/c++/11/bits/exception_ptr.h"
	.file 18 "/usr/include/x86_64-linux-gnu/c++/11/bits/c++config.h"
	.file 19 "/usr/include/c++/11/concepts"
	.file 20 "/usr/include/c++/11/bits/iterator_concepts.h"
	.file 21 "/usr/include/c++/11/bits/ranges_cmp.h"
	.file 22 "/usr/include/c++/11/compare"
	.file 23 "/usr/include/c++/11/debug/debug.h"
	.file 24 "/usr/include/c++/11/cstdint"
	.file 25 "/usr/include/c++/11/clocale"
	.file 26 "/usr/include/c++/11/numbers"
	.file 27 "/usr/include/c++/11/cstdio"
	.file 28 "/usr/include/c++/11/bits/ios_base.h"
	.file 29 "/usr/include/c++/11/cwctype"
	.file 30 "/usr/include/c++/11/bits/predefined_ops.h"
	.file 31 "/usr/include/c++/11/stdlib.h"
	.file 32 "<built-in>"
	.file 33 "/usr/include/x86_64-linux-gnu/bits/types/__mbstate_t.h"
	.file 34 "/usr/include/x86_64-linux-gnu/bits/types/__fpos_t.h"
	.file 35 "/usr/include/x86_64-linux-gnu/bits/types/__FILE.h"
	.file 36 "/usr/include/x86_64-linux-gnu/bits/types/struct_FILE.h"
	.file 37 "/usr/include/x86_64-linux-gnu/bits/types/FILE.h"
	.file 38 "/usr/include/stdio.h"
	.file 39 "../ATC/GraphVis/GVConfig.h"
	.file 40 "../ATC/Buffer/my_buffer.h"
	.file 41 "/usr/include/x86_64-linux-gnu/bits/types/wint_t.h"
	.file 42 "/usr/include/x86_64-linux-gnu/bits/types/mbstate_t.h"
	.file 43 "/usr/include/wchar.h"
	.file 44 "/usr/include/x86_64-linux-gnu/bits/types/struct_tm.h"
	.file 45 "/usr/include/c++/11/bits/ptr_traits.h"
	.file 46 "/usr/include/x86_64-linux-gnu/bits/stdint-uintn.h"
	.file 47 "/usr/include/stdint.h"
	.file 48 "/usr/include/locale.h"
	.file 49 "/usr/include/x86_64-linux-gnu/bits/wctype-wchar.h"
	.file 50 "/usr/include/wctype.h"
	.file 51 "../ATC/Logger/LogConfig.h"
	.file 52 "../ATC/Logger/FunctionLogger.h"
	.file 53 "../ATC/RandomStuff/CommonEnums.h"
	.file 54 "./headers/TranslateToAsm.h"
	.file 55 "../Common/Utils/DefGraphVis.h"
	.file 56 "../Common/StandartAWP/StandartAWP.h"
	.file 57 "/usr/include/c++/11/bits/algorithmfwd.h"
	.section	.data.rel.local.DW.ref.__gxx_personality_v0,"awG",@progbits,DW.ref.__gxx_personality_v0,comdat
	.align 8
	.type	DW.ref.__gxx_personality_v0, @object
	.size	DW.ref.__gxx_personality_v0, 8
DW.ref.__gxx_personality_v0:
	.quad	__gxx_personality_v0
	.hidden	__dso_handle
	.ident	"GCC: (Ubuntu 11.3.0-1ubuntu1~22.04) 11.3.0"
	.section	.note.GNU-stack,"",@progbits
	.section	.note.gnu.property,"a"
	.align 8
	.long	1f - 0f
	.long	4f - 1f
	.long	5
0:
	.string	"GNU"
1:
	.align 8
	.long	0xc0000002
	.long	3f - 2f
2:
	.long	0x3
3:
	.align 8
4:
