	.file	"my_buffer.cpp"
	.text
.Ltext0:
	.file 0 "/home/arsenyfucker/Cprojects/Lang/Translator/BackEnd" "../ATC/Buffer/my_buffer.cpp"
	.section	.rodata
	.align 32
	.type	_ZL11INDENT_SIZE, @object
	.size	_ZL11INDENT_SIZE, 4
_ZL11INDENT_SIZE:
	.long	2
	.zero	60
	.bss
	.align 32
	.type	_ZStL8__ioinit, @object
	.size	_ZStL8__ioinit, 1
_ZStL8__ioinit:
	.zero	64
	.section	.rodata
	.align 32
	.type	_ZL12STD_LOG_NAME, @object
	.size	_ZL12STD_LOG_NAME, 18
_ZL12STD_LOG_NAME:
	.string	"./logs/stdlog.ars"
	.zero	46
	.align 32
	.type	_ZL6CRINGE, @object
	.size	_ZL6CRINGE, 4
_ZL6CRINGE:
	.long	3565
	.zero	60
	.globl	__asan_stack_malloc_2
.LC0:
	.string	"1 48 144 8 txt_data"
	.align 32
.LC1:
	.string	"rb"
	.zero	61
	.align 32
.LC2:
	.string	"\033[91mCan't open file %s\n\033[0m"
	.zero	35
	.align 32
.LC3:
	.string	"GetSrcFile"
	.zero	53
	.align 32
.LC4:
	.string	"../ATC/Buffer/my_buffer.cpp"
	.zero	36
	.text
	.globl	_Z10GetSrcFilePKc
	.type	_Z10GetSrcFilePKc, @function
_Z10GetSrcFilePKc:
.LASANPC2270:
.LFB2270:
	.file 1 "../ATC/Buffer/my_buffer.cpp"
	.loc 1 11 5
	.cfi_startproc
	endbr64
	pushq	%rbp
	.cfi_def_cfa_offset 16
	.cfi_offset 6, -16
	movq	%rsp, %rbp
	.cfi_def_cfa_register 6
	pushq	%r14
	pushq	%r13
	pushq	%r12
	pushq	%rbx
	subq	$304, %rsp
	.cfi_offset 14, -24
	.cfi_offset 13, -32
	.cfi_offset 12, -40
	.cfi_offset 3, -48
	movq	%rdi, -328(%rbp)
	leaq	-288(%rbp), %rbx
	movq	%rbx, %r14
	cmpl	$0, __asan_option_detect_stack_use_after_return(%rip)
	je	.L1
	movl	$256, %edi
	call	__asan_stack_malloc_2@PLT
	testq	%rax, %rax
	je	.L1
	movq	%rax, %rbx
.L1:
	leaq	256(%rbx), %rax
	movq	%rax, %r13
	movq	$1102416563, (%rbx)
	leaq	.LC0(%rip), %rax
	movq	%rax, 8(%rbx)
	leaq	.LASANPC2270(%rip), %rax
	movq	%rax, 16(%rbx)
	movq	%rbx, %r12
	shrq	$3, %r12
	movl	$-235802127, 2147450880(%r12)
	movl	$61937, 2147450884(%r12)
	movl	$-202116109, 2147450904(%r12)
	movl	$-202116109, 2147450908(%r12)
	.loc 1 12 5
	cmpq	$0, -328(%rbp)
	jne	.L5
	.loc 1 12 32 discriminator 1
	movl	$0, %eax
	jmp	.L15
.L5:
	.loc 1 14 22
	movq	-328(%rbp), %rax
	leaq	.LC1(%rip), %rdx
	movq	%rdx, %rsi
	movq	%rax, %rdi
	call	fopen@PLT
	movq	%rax, -312(%rbp)
	.loc 1 15 6
	cmpq	$0, -312(%rbp)
	jne	.L7
	.loc 1 17 15
	movq	-328(%rbp), %rax
	movq	%rax, %rsi
	leaq	.LC2(%rip), %rax
	movq	%rax, %rdi
	movl	$0, %eax
	call	printf@PLT
	.loc 1 19 15
	movl	$0, %eax
	jmp	.L15
.L7:
	.loc 1 23 9
	leaq	-208(%r13), %rdx
	movq	-328(%rbp), %rax
	movq	%rdx, %rsi
	movq	%rax, %rdi
	call	stat@PLT
	.loc 1 25 18
	leaq	-208(%r13), %rax
	addq	$48, %rax
	movq	%rax, %rdx
	shrq	$3, %rdx
	addq	$2147450880, %rdx
	movzbl	(%rdx), %edx
	testb	%dl, %dl
	je	.L8
	movq	%rax, %rdi
	call	__asan_report_load8@PLT
.L8:
	movq	-160(%r13), %rax
	.loc 1 25 5
	testq	%rax, %rax
	jg	.L9
	.loc 1 27 15
	movq	-312(%rbp), %rax
	movq	%rax, %rdi
	call	fclose@PLT
	.loc 1 28 15
	movl	$0, %eax
	jmp	.L15
.L9:
	.loc 1 31 51
	call	_ZN6Logger11getInstanceEv@PLT
	movq	%rax, %rdi
	.loc 1 31 72
	leaq	-208(%r13), %rax
	addq	$48, %rax
	movq	%rax, %rdx
	shrq	$3, %rdx
	addq	$2147450880, %rdx
	movzbl	(%rdx), %edx
	testb	%dl, %dl
	je	.L10
	movq	%rax, %rdi
	call	__asan_report_load8@PLT
.L10:
	.loc 1 31 72 is_stmt 0 discriminator 1
	movq	-160(%r13), %rax
	.loc 1 31 80 is_stmt 1 discriminator 1
	addq	$1, %rax
	.loc 1 31 62 discriminator 1
	movq	%rax, %rsi
	movl	$31, %r9d
	leaq	.LC3(%rip), %r8
	leaq	.LC4(%rip), %rax
	movq	%rax, %rcx
	movl	$1, %edx
	call	_ZN6Logger7CAL_LOGEmmPKcS1_i@PLT
	movq	%rax, -320(%rbp)
	.loc 1 32 5 discriminator 1
	cmpq	$0, -320(%rbp)
	jne	.L11
	.loc 1 33 15
	movl	$0, %eax
	jmp	.L15
.L11:
	.loc 1 35 69
	leaq	-208(%r13), %rax
	addq	$48, %rax
	movq	%rax, %rdx
	shrq	$3, %rdx
	addq	$2147450880, %rdx
	movzbl	(%rdx), %edx
	testb	%dl, %dl
	je	.L12
	movq	%rax, %rdi
	call	__asan_report_load8@PLT
.L12:
	movq	-160(%r13), %rax
	.loc 1 35 33
	movq	%rax, %rsi
	movq	-312(%rbp), %rdx
	movq	-320(%rbp), %rax
	movq	%rdx, %rcx
	movq	%rsi, %rdx
	movl	$1, %esi
	movq	%rax, %rdi
	call	fread@PLT
	movq	%rax, -304(%rbp)
	.loc 1 37 32
	movq	-304(%rbp), %rax
	leaq	1(%rax), %rdx
	movq	-320(%rbp), %rax
	movq	%rdx, %rsi
	movq	%rax, %rdi
	call	realloc@PLT
	movq	%rax, -296(%rbp)
	.loc 1 38 5
	cmpq	$0, -296(%rbp)
	je	.L13
	.loc 1 39 20
	movq	-296(%rbp), %rax
	movq	%rax, -320(%rbp)
.L13:
	.loc 1 41 28
	movq	-320(%rbp), %rdx
	movq	-304(%rbp), %rax
	leaq	(%rdx,%rax), %rcx
	.loc 1 41 30
	movq	%rcx, %rax
	movq	%rax, %rdx
	shrq	$3, %rdx
	addq	$2147450880, %rdx
	movzbl	(%rdx), %edx
	testb	%dl, %dl
	setne	%sil
	movq	%rax, %rdi
	andl	$7, %edi
	cmpb	%dl, %dil
	setge	%dl
	andl	%esi, %edx
	testb	%dl, %dl
	je	.L14
	movq	%rax, %rdi
	call	__asan_report_store1@PLT
.L14:
	movb	$0, (%rcx)
	.loc 1 43 11
	movq	-312(%rbp), %rax
	movq	%rax, %rdi
	call	fclose@PLT
	.loc 1 45 12
	movq	-320(%rbp), %rax
.L15:
	.loc 1 46 5 discriminator 1
	movq	%rax, %rdx
	.loc 1 11 5 discriminator 1
	cmpq	%rbx, %r14
	je	.L2
	.loc 1 11 5 is_stmt 0
	movq	$1172321806, (%rbx)
	movabsq	$-723401728380766731, %rsi
	movabsq	$-723401728380766731, %rdi
	movq	%rsi, 2147450880(%r12)
	movq	%rdi, 2147450888(%r12)
	movq	%rsi, 2147450896(%r12)
	movq	%rdi, 2147450904(%r12)
	movq	248(%rbx), %rax
	movb	$0, (%rax)
	jmp	.L3
.L2:
	movq	$0, 2147450880(%r12)
	movq	$0, 2147450904(%r12)
.L3:
	.loc 1 46 5 is_stmt 1
	movq	%rdx, %rax
	addq	$304, %rsp
	popq	%rbx
	popq	%r12
	popq	%r13
	popq	%r14
	popq	%rbp
	.cfi_def_cfa 7, 8
	ret
	.cfi_endproc
.LFE2270:
	.size	_Z10GetSrcFilePKc, .-_Z10GetSrcFilePKc
	.section	.rodata
	.align 32
.LC5:
	.string	"DivideBufferIntoLines"
	.zero	42
	.text
	.globl	_Z21DivideBufferIntoLinesPcm
	.type	_Z21DivideBufferIntoLinesPcm, @function
_Z21DivideBufferIntoLinesPcm:
.LASANPC2271:
.LFB2271:
	.loc 1 51 5
	.cfi_startproc
	endbr64
	pushq	%rbp
	.cfi_def_cfa_offset 16
	.cfi_offset 6, -16
	movq	%rsp, %rbp
	.cfi_def_cfa_register 6
	subq	$48, %rsp
	movq	%rdi, -40(%rbp)
	movq	%rsi, -48(%rbp)
	.loc 1 52 5
	cmpq	$0, -40(%rbp)
	jne	.L17
	.loc 1 52 33 discriminator 1
	movl	$0, %eax
	jmp	.L18
.L17:
	.loc 1 53 5
	cmpq	$0, -48(%rbp)
	jne	.L19
	.loc 1 53 33 discriminator 1
	movl	$0, %eax
	jmp	.L18
.L19:
	.loc 1 55 66
	call	_ZN6Logger11getInstanceEv@PLT
	movq	%rax, %rdi
	.loc 1 55 77
	movq	-48(%rbp), %rax
	addq	$1, %rax
	movl	$55, %r9d
	leaq	.LC5(%rip), %r8
	leaq	.LC4(%rip), %rdx
	movq	%rdx, %rcx
	movl	$8, %edx
	movq	%rax, %rsi
	call	_ZN6Logger7CAL_LOGEmmPKcS1_i@PLT
	movq	%rax, -8(%rbp)
	.loc 1 56 5
	cmpq	$0, -8(%rbp)
	jne	.L20
	.loc 1 56 36 discriminator 1
	movl	$0, %eax
	jmp	.L18
.L20:
	.loc 1 58 12
	movq	$0, -24(%rbp)
	.loc 1 59 9
	movl	$0, -28(%rbp)
	.loc 1 60 12
	movq	$0, -16(%rbp)
	.loc 1 62 5
	jmp	.L21
.L34:
	.loc 1 64 21
	movq	-40(%rbp), %rdx
	movq	-16(%rbp), %rax
	leaq	(%rdx,%rax), %rcx
	movq	%rcx, %rax
	movq	%rax, %rdx
	shrq	$3, %rdx
	addq	$2147450880, %rdx
	movzbl	(%rdx), %edx
	testb	%dl, %dl
	setne	%sil
	movq	%rax, %rdi
	andl	$7, %edi
	cmpb	%dl, %dil
	setge	%dl
	andl	%esi, %edx
	testb	%dl, %dl
	je	.L22
	movq	%rax, %rdi
	call	__asan_report_load1@PLT
.L22:
	movzbl	(%rcx), %eax
	.loc 1 64 9
	cmpb	$13, %al
	jne	.L23
	.loc 1 65 21
	movq	-40(%rbp), %rdx
	movq	-16(%rbp), %rax
	leaq	(%rdx,%rax), %rcx
	.loc 1 65 23
	movq	%rcx, %rax
	movq	%rax, %rdx
	shrq	$3, %rdx
	addq	$2147450880, %rdx
	movzbl	(%rdx), %edx
	testb	%dl, %dl
	setne	%sil
	movq	%rax, %rdi
	andl	$7, %edi
	cmpb	%dl, %dil
	setge	%dl
	andl	%esi, %edx
	testb	%dl, %dl
	je	.L24
	movq	%rax, %rdi
	call	__asan_report_store1@PLT
.L24:
	movb	$32, (%rcx)
.L23:
	.loc 1 67 21
	movq	-40(%rbp), %rdx
	movq	-16(%rbp), %rax
	leaq	(%rdx,%rax), %rcx
	movq	%rcx, %rax
	movq	%rax, %rdx
	shrq	$3, %rdx
	addq	$2147450880, %rdx
	movzbl	(%rdx), %edx
	testb	%dl, %dl
	setne	%sil
	movq	%rax, %rdi
	andl	$7, %edi
	cmpb	%dl, %dil
	setge	%dl
	andl	%esi, %edx
	testb	%dl, %dl
	je	.L25
	movq	%rax, %rdi
	call	__asan_report_load1@PLT
.L25:
	movzbl	(%rcx), %eax
	.loc 1 67 9
	cmpb	$10, %al
	jne	.L26
	.loc 1 69 21
	movq	-40(%rbp), %rdx
	movq	-16(%rbp), %rax
	leaq	(%rdx,%rax), %rcx
	.loc 1 69 23
	movq	%rcx, %rax
	movq	%rax, %rdx
	shrq	$3, %rdx
	addq	$2147450880, %rdx
	movzbl	(%rdx), %edx
	testb	%dl, %dl
	setne	%sil
	movq	%rax, %rdi
	andl	$7, %edi
	cmpb	%dl, %dil
	setge	%dl
	andl	%esi, %edx
	testb	%dl, %dl
	je	.L27
	movq	%rax, %rdi
	call	__asan_report_store1@PLT
.L27:
	movb	$0, (%rcx)
	.loc 1 70 55
	movl	-28(%rbp), %eax
	movslq	%eax, %rdx
	.loc 1 70 53
	movq	-16(%rbp), %rax
	subq	%rdx, %rax
	movq	%rax, %rcx
	.loc 1 70 37
	movq	-24(%rbp), %rax
	leaq	0(,%rax,8), %rdx
	movq	-8(%rbp), %rax
	addq	%rdx, %rax
	.loc 1 70 53
	movq	-40(%rbp), %rdx
	leaq	(%rcx,%rdx), %rsi
	.loc 1 70 39
	movq	%rax, %rdx
	movq	%rdx, %rcx
	shrq	$3, %rcx
	addq	$2147450880, %rcx
	movzbl	(%rcx), %ecx
	testb	%cl, %cl
	je	.L28
	movq	%rdx, %rdi
	call	__asan_report_store8@PLT
.L28:
	movq	%rsi, (%rax)
	.loc 1 72 42
	movl	$0, -28(%rbp)
	.loc 1 73 25
	addq	$1, -24(%rbp)
	jmp	.L29
.L26:
	.loc 1 76 28
	movq	-16(%rbp), %rax
	leaq	1(%rax), %rdx
	movq	-40(%rbp), %rax
	leaq	(%rdx,%rax), %rcx
	movq	%rcx, %rax
	movq	%rax, %rdx
	shrq	$3, %rdx
	addq	$2147450880, %rdx
	movzbl	(%rdx), %edx
	testb	%dl, %dl
	setne	%sil
	movq	%rax, %rdi
	andl	$7, %edi
	cmpb	%dl, %dil
	setge	%dl
	andl	%esi, %edx
	testb	%dl, %dl
	je	.L30
	movq	%rax, %rdi
	call	__asan_report_load1@PLT
.L30:
	movzbl	(%rcx), %eax
	.loc 1 76 14
	testb	%al, %al
	jne	.L31
	.loc 1 78 55
	movl	-28(%rbp), %eax
	movslq	%eax, %rdx
	.loc 1 78 53
	movq	-16(%rbp), %rax
	subq	%rdx, %rax
	movq	%rax, %rcx
	.loc 1 78 37
	movq	-24(%rbp), %rax
	leaq	0(,%rax,8), %rdx
	movq	-8(%rbp), %rax
	addq	%rdx, %rax
	.loc 1 78 53
	movq	-40(%rbp), %rdx
	leaq	(%rcx,%rdx), %rsi
	.loc 1 78 39
	movq	%rax, %rdx
	movq	%rdx, %rcx
	shrq	$3, %rcx
	addq	$2147450880, %rcx
	movzbl	(%rcx), %ecx
	testb	%cl, %cl
	je	.L32
	movq	%rdx, %rdi
	call	__asan_report_store8@PLT
.L32:
	movq	%rsi, (%rax)
	.loc 1 80 25
	addq	$1, -24(%rbp)
	.loc 1 81 42
	movl	$0, -28(%rbp)
	jmp	.L29
.L31:
	.loc 1 85 41
	addl	$1, -28(%rbp)
.L29:
	.loc 1 87 10
	addq	$1, -16(%rbp)
.L21:
	.loc 1 62 20
	movq	-40(%rbp), %rdx
	movq	-16(%rbp), %rax
	leaq	(%rdx,%rax), %rcx
	movq	%rcx, %rax
	movq	%rax, %rdx
	shrq	$3, %rdx
	addq	$2147450880, %rdx
	movzbl	(%rdx), %edx
	testb	%dl, %dl
	setne	%sil
	movq	%rax, %rdi
	andl	$7, %edi
	cmpb	%dl, %dil
	setge	%dl
	andl	%esi, %edx
	testb	%dl, %dl
	je	.L33
	movq	%rax, %rdi
	call	__asan_report_load1@PLT
.L33:
	movzbl	(%rcx), %eax
	.loc 1 62 22
	testb	%al, %al
	jne	.L34
	.loc 1 90 32
	movq	-48(%rbp), %rax
	leaq	0(,%rax,8), %rdx
	movq	-8(%rbp), %rax
	addq	%rdx, %rax
	.loc 1 90 34
	movq	%rax, %rdx
	movq	%rdx, %rcx
	shrq	$3, %rcx
	addq	$2147450880, %rcx
	movzbl	(%rcx), %ecx
	testb	%cl, %cl
	je	.L35
	movq	%rdx, %rdi
	call	__asan_report_store8@PLT
.L35:
	movq	$0, (%rax)
	.loc 1 92 12
	movq	-8(%rbp), %rax
.L18:
	.loc 1 93 5
	leave
	.cfi_def_cfa 7, 8
	ret
	.cfi_endproc
.LFE2271:
	.size	_Z21DivideBufferIntoLinesPcm, .-_Z21DivideBufferIntoLinesPcm
	.section	.rodata
	.align 32
.LC6:
	.string	"SplitBufferIntoLines"
	.zero	43
	.text
	.globl	_Z20SplitBufferIntoLinesPKcm
	.type	_Z20SplitBufferIntoLinesPKcm, @function
_Z20SplitBufferIntoLinesPKcm:
.LASANPC2272:
.LFB2272:
	.loc 1 96 5
	.cfi_startproc
	endbr64
	pushq	%rbp
	.cfi_def_cfa_offset 16
	.cfi_offset 6, -16
	movq	%rsp, %rbp
	.cfi_def_cfa_register 6
	subq	$48, %rsp
	movq	%rdi, -40(%rbp)
	movq	%rsi, -48(%rbp)
	.loc 1 97 5
	cmpq	$0, -40(%rbp)
	jne	.L37
	.loc 1 97 33 discriminator 1
	movl	$0, %eax
	jmp	.L38
.L37:
	.loc 1 98 5
	cmpq	$0, -48(%rbp)
	jne	.L39
	.loc 1 98 33 discriminator 1
	movl	$0, %eax
	jmp	.L38
.L39:
	.loc 1 100 66
	call	_ZN6Logger11getInstanceEv@PLT
	movq	%rax, %rdi
	.loc 1 100 77
	movq	-48(%rbp), %rax
	addq	$1, %rax
	movl	$100, %r9d
	leaq	.LC6(%rip), %r8
	leaq	.LC4(%rip), %rdx
	movq	%rdx, %rcx
	movl	$8, %edx
	movq	%rax, %rsi
	call	_ZN6Logger7CAL_LOGEmmPKcS1_i@PLT
	movq	%rax, -8(%rbp)
	.loc 1 101 5
	cmpq	$0, -8(%rbp)
	jne	.L40
	.loc 1 101 36 discriminator 1
	movl	$0, %eax
	jmp	.L38
.L40:
	.loc 1 103 12
	movq	$0, -24(%rbp)
	.loc 1 104 9
	movl	$0, -28(%rbp)
	.loc 1 105 12
	movq	$0, -16(%rbp)
	.loc 1 107 5
	jmp	.L41
.L50:
	.loc 1 109 21
	movq	-40(%rbp), %rdx
	movq	-16(%rbp), %rax
	leaq	(%rdx,%rax), %rcx
	movq	%rcx, %rax
	movq	%rax, %rdx
	shrq	$3, %rdx
	addq	$2147450880, %rdx
	movzbl	(%rdx), %edx
	testb	%dl, %dl
	setne	%sil
	movq	%rax, %rdi
	andl	$7, %edi
	cmpb	%dl, %dil
	setge	%dl
	andl	%esi, %edx
	testb	%dl, %dl
	je	.L42
	movq	%rax, %rdi
	call	__asan_report_load1@PLT
.L42:
	movzbl	(%rcx), %eax
	.loc 1 109 9
	cmpb	$10, %al
	jne	.L43
	.loc 1 111 55
	movl	-28(%rbp), %eax
	movslq	%eax, %rdx
	.loc 1 111 53
	movq	-16(%rbp), %rax
	subq	%rdx, %rax
	movq	%rax, %rcx
	.loc 1 111 37
	movq	-24(%rbp), %rax
	leaq	0(,%rax,8), %rdx
	movq	-8(%rbp), %rax
	addq	%rdx, %rax
	.loc 1 111 53
	movq	-40(%rbp), %rdx
	leaq	(%rcx,%rdx), %rsi
	.loc 1 111 39
	movq	%rax, %rdx
	movq	%rdx, %rcx
	shrq	$3, %rcx
	addq	$2147450880, %rcx
	movzbl	(%rcx), %ecx
	testb	%cl, %cl
	je	.L44
	movq	%rdx, %rdi
	call	__asan_report_store8@PLT
.L44:
	movq	%rsi, (%rax)
	.loc 1 113 42
	movl	$0, -28(%rbp)
	.loc 1 114 25
	addq	$1, -24(%rbp)
	jmp	.L45
.L43:
	.loc 1 117 28
	movq	-16(%rbp), %rax
	leaq	1(%rax), %rdx
	movq	-40(%rbp), %rax
	leaq	(%rdx,%rax), %rcx
	movq	%rcx, %rax
	movq	%rax, %rdx
	shrq	$3, %rdx
	addq	$2147450880, %rdx
	movzbl	(%rdx), %edx
	testb	%dl, %dl
	setne	%sil
	movq	%rax, %rdi
	andl	$7, %edi
	cmpb	%dl, %dil
	setge	%dl
	andl	%esi, %edx
	testb	%dl, %dl
	je	.L46
	movq	%rax, %rdi
	call	__asan_report_load1@PLT
.L46:
	movzbl	(%rcx), %eax
	.loc 1 117 14
	testb	%al, %al
	jne	.L47
	.loc 1 119 55
	movl	-28(%rbp), %eax
	movslq	%eax, %rdx
	.loc 1 119 53
	movq	-16(%rbp), %rax
	subq	%rdx, %rax
	movq	%rax, %rcx
	.loc 1 119 37
	movq	-24(%rbp), %rax
	leaq	0(,%rax,8), %rdx
	movq	-8(%rbp), %rax
	addq	%rdx, %rax
	.loc 1 119 53
	movq	-40(%rbp), %rdx
	leaq	(%rcx,%rdx), %rsi
	.loc 1 119 39
	movq	%rax, %rdx
	movq	%rdx, %rcx
	shrq	$3, %rcx
	addq	$2147450880, %rcx
	movzbl	(%rcx), %ecx
	testb	%cl, %cl
	je	.L48
	movq	%rdx, %rdi
	call	__asan_report_store8@PLT
.L48:
	movq	%rsi, (%rax)
	.loc 1 121 25
	addq	$1, -24(%rbp)
	.loc 1 122 42
	movl	$0, -28(%rbp)
	jmp	.L45
.L47:
	.loc 1 126 41
	addl	$1, -28(%rbp)
.L45:
	.loc 1 128 10
	addq	$1, -16(%rbp)
.L41:
	.loc 1 107 20
	movq	-40(%rbp), %rdx
	movq	-16(%rbp), %rax
	leaq	(%rdx,%rax), %rcx
	movq	%rcx, %rax
	movq	%rax, %rdx
	shrq	$3, %rdx
	addq	$2147450880, %rdx
	movzbl	(%rdx), %edx
	testb	%dl, %dl
	setne	%sil
	movq	%rax, %rdi
	andl	$7, %edi
	cmpb	%dl, %dil
	setge	%dl
	andl	%esi, %edx
	testb	%dl, %dl
	je	.L49
	movq	%rax, %rdi
	call	__asan_report_load1@PLT
.L49:
	movzbl	(%rcx), %eax
	.loc 1 107 22
	testb	%al, %al
	jne	.L50
	.loc 1 131 32
	movq	-48(%rbp), %rax
	leaq	0(,%rax,8), %rdx
	movq	-8(%rbp), %rax
	addq	%rdx, %rax
	.loc 1 131 34
	movq	%rax, %rdx
	movq	%rdx, %rcx
	shrq	$3, %rcx
	addq	$2147450880, %rcx
	movzbl	(%rcx), %ecx
	testb	%cl, %cl
	je	.L51
	movq	%rdx, %rdi
	call	__asan_report_store8@PLT
.L51:
	movq	$0, (%rax)
	.loc 1 133 12
	movq	-8(%rbp), %rax
.L38:
	.loc 1 134 5
	leave
	.cfi_def_cfa 7, 8
	ret
	.cfi_endproc
.LFE2272:
	.size	_Z20SplitBufferIntoLinesPKcm, .-_Z20SplitBufferIntoLinesPKcm
	.globl	_Z10CountLinesPKcc
	.type	_Z10CountLinesPKcc, @function
_Z10CountLinesPKcc:
.LASANPC2273:
.LFB2273:
	.loc 1 137 5
	.cfi_startproc
	endbr64
	pushq	%rbp
	.cfi_def_cfa_offset 16
	.cfi_offset 6, -16
	movq	%rsp, %rbp
	.cfi_def_cfa_register 6
	subq	$32, %rsp
	movq	%rdi, -24(%rbp)
	movl	%esi, %eax
	movb	%al, -28(%rbp)
	.loc 1 138 5
	cmpq	$0, -24(%rbp)
	jne	.L53
	.loc 1 139 16
	movl	$0, %eax
	jmp	.L54
.L53:
	.loc 1 141 12
	movq	$0, -16(%rbp)
	.loc 1 142 12
	movq	$0, -8(%rbp)
	.loc 1 144 5
	jmp	.L55
.L61:
	.loc 1 146 19
	movq	-24(%rbp), %rdx
	movq	-8(%rbp), %rax
	leaq	(%rdx,%rax), %rcx
	movq	%rcx, %rax
	movq	%rax, %rdx
	shrq	$3, %rdx
	addq	$2147450880, %rdx
	movzbl	(%rdx), %edx
	testb	%dl, %dl
	setne	%sil
	movq	%rax, %rdi
	andl	$7, %edi
	cmpb	%dl, %dil
	setge	%dl
	andl	%esi, %edx
	testb	%dl, %dl
	je	.L56
	movq	%rax, %rdi
	call	__asan_report_load1@PLT
.L56:
	movzbl	(%rcx), %eax
	.loc 1 146 9
	cmpb	%al, -28(%rbp)
	je	.L57
	.loc 1 146 47 discriminator 1
	movq	-8(%rbp), %rax
	leaq	1(%rax), %rdx
	movq	-24(%rbp), %rax
	leaq	(%rdx,%rax), %rcx
	movq	%rcx, %rax
	movq	%rax, %rdx
	shrq	$3, %rdx
	addq	$2147450880, %rdx
	movzbl	(%rdx), %edx
	testb	%dl, %dl
	setne	%sil
	movq	%rax, %rdi
	andl	$7, %edi
	cmpb	%dl, %dil
	setge	%dl
	andl	%esi, %edx
	testb	%dl, %dl
	je	.L58
	.loc 1 146 47 is_stmt 0
	movq	%rax, %rdi
	call	__asan_report_load1@PLT
.L58:
	.loc 1 146 47 discriminator 1
	movzbl	(%rcx), %eax
	.loc 1 146 36 is_stmt 1 discriminator 1
	testb	%al, %al
	jne	.L59
.L57:
	.loc 1 147 28
	addq	$1, -16(%rbp)
.L59:
	.loc 1 149 10
	addq	$1, -8(%rbp)
.L55:
	.loc 1 144 18
	movq	-24(%rbp), %rdx
	movq	-8(%rbp), %rax
	leaq	(%rdx,%rax), %rcx
	movq	%rcx, %rax
	movq	%rax, %rdx
	shrq	$3, %rdx
	addq	$2147450880, %rdx
	movzbl	(%rdx), %edx
	testb	%dl, %dl
	setne	%sil
	movq	%rax, %rdi
	andl	$7, %edi
	cmpb	%dl, %dil
	setge	%dl
	andl	%esi, %edx
	testb	%dl, %dl
	je	.L60
	movq	%rax, %rdi
	call	__asan_report_load1@PLT
.L60:
	movzbl	(%rcx), %eax
	.loc 1 144 20
	testb	%al, %al
	jne	.L61
	.loc 1 152 12
	movq	-16(%rbp), %rax
.L54:
	.loc 1 153 5
	leave
	.cfi_def_cfa 7, 8
	ret
	.cfi_endproc
.LFE2273:
	.size	_Z10CountLinesPKcc, .-_Z10CountLinesPKcc
	.globl	_Z14RemoveCommentsPcc
	.type	_Z14RemoveCommentsPcc, @function
_Z14RemoveCommentsPcc:
.LASANPC2274:
.LFB2274:
	.loc 1 156 5
	.cfi_startproc
	endbr64
	pushq	%rbp
	.cfi_def_cfa_offset 16
	.cfi_offset 6, -16
	movq	%rsp, %rbp
	.cfi_def_cfa_register 6
	subq	$16, %rsp
	movq	%rdi, -8(%rbp)
	movl	%esi, %eax
	movb	%al, -12(%rbp)
	.loc 1 157 5
	cmpq	$0, -8(%rbp)
	je	.L70
	.loc 1 159 5
	jmp	.L65
.L69:
	.loc 1 161 13
	movq	-8(%rbp), %rax
	movq	%rax, %rdx
	shrq	$3, %rdx
	addq	$2147450880, %rdx
	movzbl	(%rdx), %edx
	testb	%dl, %dl
	setne	%cl
	movq	%rax, %rsi
	andl	$7, %esi
	cmpb	%dl, %sil
	setge	%dl
	andl	%ecx, %edx
	testb	%dl, %dl
	je	.L66
	movq	%rax, %rdi
	call	__asan_report_load1@PLT
.L66:
	movq	-8(%rbp), %rax
	movzbl	(%rax), %eax
	.loc 1 161 9
	cmpb	%al, -12(%rbp)
	jne	.L67
	.loc 1 162 21
	movq	-8(%rbp), %rax
	movb	$0, (%rax)
.L67:
	.loc 1 164 9
	addq	$1, -8(%rbp)
.L65:
	.loc 1 159 12
	movq	-8(%rbp), %rax
	movq	%rax, %rdx
	shrq	$3, %rdx
	addq	$2147450880, %rdx
	movzbl	(%rdx), %edx
	testb	%dl, %dl
	setne	%cl
	movq	%rax, %rsi
	andl	$7, %esi
	cmpb	%dl, %sil
	setge	%dl
	andl	%ecx, %edx
	testb	%dl, %dl
	je	.L68
	movq	%rax, %rdi
	call	__asan_report_load1@PLT
.L68:
	movq	-8(%rbp), %rax
	movzbl	(%rax), %eax
	.loc 1 159 20
	testb	%al, %al
	jne	.L69
	.loc 1 167 5
	jmp	.L62
.L70:
	.loc 1 157 18
	nop
.L62:
	.loc 1 168 5
	leave
	.cfi_def_cfa 7, 8
	ret
	.cfi_endproc
.LFE2274:
	.size	_Z14RemoveCommentsPcc, .-_Z14RemoveCommentsPcc
	.globl	_Z14RemoveCommentsPcjc
	.type	_Z14RemoveCommentsPcjc, @function
_Z14RemoveCommentsPcjc:
.LASANPC2275:
.LFB2275:
	.loc 1 171 5
	.cfi_startproc
	endbr64
	pushq	%rbp
	.cfi_def_cfa_offset 16
	.cfi_offset 6, -16
	movq	%rsp, %rbp
	.cfi_def_cfa_register 6
	subq	$32, %rsp
	movq	%rdi, -24(%rbp)
	movl	%esi, -28(%rbp)
	movl	%edx, %eax
	movb	%al, -32(%rbp)
	.loc 1 172 5
	cmpq	$0, -24(%rbp)
	je	.L79
	.loc 1 175 14
	movl	$0, -4(%rbp)
	.loc 1 176 5
	jmp	.L74
.L78:
	.loc 1 178 24
	movl	-4(%rbp), %edx
	.loc 1 178 22
	movq	-24(%rbp), %rax
	leaq	(%rdx,%rax), %rcx
	.loc 1 178 13
	movq	%rcx, %rax
	movq	%rax, %rdx
	shrq	$3, %rdx
	addq	$2147450880, %rdx
	movzbl	(%rdx), %edx
	testb	%dl, %dl
	setne	%sil
	movq	%rax, %rdi
	andl	$7, %edi
	cmpb	%dl, %dil
	setge	%dl
	andl	%esi, %edx
	testb	%dl, %dl
	je	.L75
	movq	%rax, %rdi
	call	__asan_report_load1@PLT
.L75:
	movzbl	(%rcx), %eax
	.loc 1 178 9
	cmpb	%al, -32(%rbp)
	jne	.L76
	.loc 1 179 24
	movl	-4(%rbp), %edx
	.loc 1 179 22
	movq	-24(%rbp), %rax
	leaq	(%rdx,%rax), %rcx
	.loc 1 179 27
	movq	%rcx, %rax
	movq	%rax, %rdx
	shrq	$3, %rdx
	addq	$2147450880, %rdx
	movzbl	(%rdx), %edx
	testb	%dl, %dl
	setne	%sil
	movq	%rax, %rdi
	andl	$7, %edi
	cmpb	%dl, %dil
	setge	%dl
	andl	%esi, %edx
	testb	%dl, %dl
	je	.L77
	movq	%rax, %rdi
	call	__asan_report_store1@PLT
.L77:
	movb	$0, (%rcx)
.L76:
	.loc 1 181 9
	addl	$1, -4(%rbp)
.L74:
	.loc 1 176 14
	movl	-4(%rbp), %eax
	cmpl	-28(%rbp), %eax
	jb	.L78
	.loc 1 184 5
	jmp	.L71
.L79:
	.loc 1 173 9
	nop
.L71:
	.loc 1 185 5
	leave
	.cfi_def_cfa 7, 8
	ret
	.cfi_endproc
.LFE2275:
	.size	_Z14RemoveCommentsPcjc, .-_Z14RemoveCommentsPcjc
	.globl	__asan_stack_malloc_0
	.section	.rodata
.LC7:
	.string	"1 32 4 1 n"
	.align 32
.LC8:
	.string	"%*[ \t\n\013]%n"
	.zero	53
	.text
	.globl	_Z10SkipSpacesPKc
	.type	_Z10SkipSpacesPKc, @function
_Z10SkipSpacesPKc:
.LASANPC2276:
.LFB2276:
	.loc 1 190 5
	.cfi_startproc
	endbr64
	pushq	%rbp
	.cfi_def_cfa_offset 16
	.cfi_offset 6, -16
	movq	%rsp, %rbp
	.cfi_def_cfa_register 6
	pushq	%r14
	pushq	%r13
	pushq	%r12
	pushq	%rbx
	subq	$80, %rsp
	.cfi_offset 14, -24
	.cfi_offset 13, -32
	.cfi_offset 12, -40
	.cfi_offset 3, -48
	movq	%rdi, -104(%rbp)
	leaq	-96(%rbp), %rbx
	movq	%rbx, %r14
	cmpl	$0, __asan_option_detect_stack_use_after_return(%rip)
	je	.L80
	movl	$64, %edi
	call	__asan_stack_malloc_0@PLT
	testq	%rax, %rax
	je	.L80
	movq	%rax, %rbx
.L80:
	leaq	64(%rbx), %rax
	movq	%rax, %r13
	movq	$1102416563, (%rbx)
	leaq	.LC7(%rip), %rax
	movq	%rax, 8(%rbx)
	leaq	.LASANPC2276(%rip), %rax
	movq	%rax, 16(%rbx)
	movq	%rbx, %r12
	shrq	$3, %r12
	movl	$-235802127, 2147450880(%r12)
	movl	$-202116348, 2147450884(%r12)
	.loc 1 191 5
	cmpq	$0, -104(%rbp)
	jne	.L84
	.loc 1 192 15
	movl	$0, %eax
	jmp	.L88
.L84:
	.loc 1 194 9
	leaq	-32(%r13), %rax
	movq	%rax, %rdx
	movq	%rdx, %rax
	shrq	$3, %rax
	addq	$2147450880, %rax
	movzbl	(%rax), %eax
	testb	%al, %al
	setne	%cl
	cmpb	$3, %al
	setle	%al
	andl	%ecx, %eax
	testb	%al, %al
	je	.L86
	movq	%rdx, %rdi
	call	__asan_report_store4@PLT
.L86:
	movl	$0, -32(%r13)
	.loc 1 195 11
	leaq	-32(%r13), %rdx
	movq	-104(%rbp), %rax
	leaq	.LC8(%rip), %rcx
	movq	%rcx, %rsi
	movq	%rax, %rdi
	movl	$0, %eax
	call	__isoc99_sscanf@PLT
	.loc 1 197 24
	leaq	-32(%r13), %rax
	movq	%rax, %rdx
	movq	%rdx, %rax
	shrq	$3, %rax
	addq	$2147450880, %rax
	movzbl	(%rax), %eax
	testb	%al, %al
	setne	%cl
	cmpb	$3, %al
	setle	%al
	andl	%ecx, %eax
	testb	%al, %al
	je	.L87
	movq	%rdx, %rdi
	call	__asan_report_load4@PLT
.L87:
	movl	-32(%r13), %eax
	movslq	%eax, %rdx
	.loc 1 197 25
	movq	-104(%rbp), %rax
	addq	%rdx, %rax
.L88:
	.loc 1 198 5 discriminator 1
	movq	%rax, %rdx
	.loc 1 190 5 discriminator 1
	cmpq	%rbx, %r14
	je	.L81
	.loc 1 190 5 is_stmt 0
	movq	$1172321806, (%rbx)
	movabsq	$-723401728380766731, %rax
	movq	%rax, 2147450880(%r12)
	movq	56(%rbx), %rax
	movb	$0, (%rax)
	jmp	.L82
.L81:
	movq	$0, 2147450880(%r12)
.L82:
	.loc 1 198 5 is_stmt 1
	movq	%rdx, %rax
	addq	$80, %rsp
	popq	%rbx
	popq	%r12
	popq	%r13
	popq	%r14
	popq	%rbp
	.cfi_def_cfa 7, 8
	ret
	.cfi_endproc
.LFE2276:
	.size	_Z10SkipSpacesPKc, .-_Z10SkipSpacesPKc
	.section	.rodata
	.align 32
.LC9:
	.string	"\\n"
	.zero	61
	.align 32
.LC10:
	.string	"\\t"
	.zero	61
	.align 32
.LC11:
	.string	"\\b"
	.zero	61
	.align 32
.LC12:
	.string	"\\r"
	.zero	61
	.align 32
.LC13:
	.string	"\\0"
	.zero	61
	.text
	.globl	_Z8ShowLinePKc
	.type	_Z8ShowLinePKc, @function
_Z8ShowLinePKc:
.LASANPC2277:
.LFB2277:
	.loc 1 201 5
	.cfi_startproc
	endbr64
	pushq	%rbp
	.cfi_def_cfa_offset 16
	.cfi_offset 6, -16
	movq	%rsp, %rbp
	.cfi_def_cfa_register 6
	subq	$16, %rsp
	movq	%rdi, -8(%rbp)
	.loc 1 204 5
	jmp	.L90
.L104:
	.loc 1 206 13
	movq	-8(%rbp), %rax
	movq	%rax, %rdx
	shrq	$3, %rdx
	addq	$2147450880, %rdx
	movzbl	(%rdx), %edx
	testb	%dl, %dl
	setne	%cl
	movq	%rax, %rsi
	andl	$7, %esi
	cmpb	%dl, %sil
	setge	%dl
	andl	%ecx, %edx
	testb	%dl, %dl
	je	.L91
	movq	%rax, %rdi
	call	__asan_report_load1@PLT
.L91:
	movq	-8(%rbp), %rax
	movzbl	(%rax), %eax
	.loc 1 206 9
	cmpb	$32, %al
	jne	.L92
	.loc 1 207 20
	movl	$95, %edi
	call	putchar@PLT
	jmp	.L93
.L92:
	.loc 1 209 13
	movq	-8(%rbp), %rax
	movq	%rax, %rdx
	shrq	$3, %rdx
	addq	$2147450880, %rdx
	movzbl	(%rdx), %edx
	testb	%dl, %dl
	setne	%cl
	movq	%rax, %rsi
	andl	$7, %esi
	cmpb	%dl, %sil
	setge	%dl
	andl	%ecx, %edx
	testb	%dl, %dl
	je	.L94
	movq	%rax, %rdi
	call	__asan_report_load1@PLT
.L94:
	movq	-8(%rbp), %rax
	movzbl	(%rax), %eax
	.loc 1 209 9
	cmpb	$10, %al
	jne	.L95
	.loc 1 210 19
	leaq	.LC9(%rip), %rax
	movq	%rax, %rdi
	movl	$0, %eax
	call	printf@PLT
	jmp	.L93
.L95:
	.loc 1 212 13
	movq	-8(%rbp), %rax
	movq	%rax, %rdx
	shrq	$3, %rdx
	addq	$2147450880, %rdx
	movzbl	(%rdx), %edx
	testb	%dl, %dl
	setne	%cl
	movq	%rax, %rsi
	andl	$7, %esi
	cmpb	%dl, %sil
	setge	%dl
	andl	%ecx, %edx
	testb	%dl, %dl
	je	.L96
	movq	%rax, %rdi
	call	__asan_report_load1@PLT
.L96:
	movq	-8(%rbp), %rax
	movzbl	(%rax), %eax
	.loc 1 212 9
	cmpb	$9, %al
	jne	.L97
	.loc 1 213 19
	leaq	.LC10(%rip), %rax
	movq	%rax, %rdi
	movl	$0, %eax
	call	printf@PLT
	jmp	.L93
.L97:
	.loc 1 215 13
	movq	-8(%rbp), %rax
	movq	%rax, %rdx
	shrq	$3, %rdx
	addq	$2147450880, %rdx
	movzbl	(%rdx), %edx
	testb	%dl, %dl
	setne	%cl
	movq	%rax, %rsi
	andl	$7, %esi
	cmpb	%dl, %sil
	setge	%dl
	andl	%ecx, %edx
	testb	%dl, %dl
	je	.L98
	movq	%rax, %rdi
	call	__asan_report_load1@PLT
.L98:
	movq	-8(%rbp), %rax
	movzbl	(%rax), %eax
	.loc 1 215 9
	cmpb	$8, %al
	jne	.L99
	.loc 1 216 19
	leaq	.LC11(%rip), %rax
	movq	%rax, %rdi
	movl	$0, %eax
	call	printf@PLT
	jmp	.L93
.L99:
	.loc 1 218 13
	movq	-8(%rbp), %rax
	movq	%rax, %rdx
	shrq	$3, %rdx
	addq	$2147450880, %rdx
	movzbl	(%rdx), %edx
	testb	%dl, %dl
	setne	%cl
	movq	%rax, %rsi
	andl	$7, %esi
	cmpb	%dl, %sil
	setge	%dl
	andl	%ecx, %edx
	testb	%dl, %dl
	je	.L100
	movq	%rax, %rdi
	call	__asan_report_load1@PLT
.L100:
	movq	-8(%rbp), %rax
	movzbl	(%rax), %eax
	.loc 1 218 9
	cmpb	$13, %al
	jne	.L101
	.loc 1 219 19
	leaq	.LC12(%rip), %rax
	movq	%rax, %rdi
	movl	$0, %eax
	call	printf@PLT
	jmp	.L93
.L101:
	.loc 1 221 22
	movq	-8(%rbp), %rax
	movq	%rax, %rdx
	shrq	$3, %rdx
	addq	$2147450880, %rdx
	movzbl	(%rdx), %edx
	testb	%dl, %dl
	setne	%cl
	movq	%rax, %rsi
	andl	$7, %esi
	cmpb	%dl, %sil
	setge	%dl
	andl	%ecx, %edx
	testb	%dl, %dl
	je	.L102
	movq	%rax, %rdi
	call	__asan_report_load1@PLT
.L102:
	movq	-8(%rbp), %rax
	movzbl	(%rax), %eax
	.loc 1 221 20
	movsbl	%al, %eax
	movl	%eax, %edi
	call	putchar@PLT
.L93:
	.loc 1 223 13
	addq	$1, -8(%rbp)
.L90:
	.loc 1 204 11
	movq	-8(%rbp), %rax
	movq	%rax, %rdx
	shrq	$3, %rdx
	addq	$2147450880, %rdx
	movzbl	(%rdx), %edx
	testb	%dl, %dl
	setne	%cl
	movq	%rax, %rsi
	andl	$7, %esi
	cmpb	%dl, %sil
	setge	%dl
	andl	%ecx, %edx
	testb	%dl, %dl
	je	.L103
	movq	%rax, %rdi
	call	__asan_report_load1@PLT
.L103:
	movq	-8(%rbp), %rax
	movzbl	(%rax), %eax
	.loc 1 204 17
	testb	%al, %al
	jne	.L104
	.loc 1 226 11
	leaq	.LC13(%rip), %rax
	movq	%rax, %rdi
	call	puts@PLT
	.loc 1 227 5
	nop
	leave
	.cfi_def_cfa 7, 8
	ret
	.cfi_endproc
.LFE2277:
	.size	_Z8ShowLinePKc, .-_Z8ShowLinePKc
	.globl	_Z7stricmpPKcS0_
	.type	_Z7stricmpPKcS0_, @function
_Z7stricmpPKcS0_:
.LASANPC2278:
.LFB2278:
	.loc 1 230 5
	.cfi_startproc
	endbr64
	pushq	%rbp
	.cfi_def_cfa_offset 16
	.cfi_offset 6, -16
	movq	%rsp, %rbp
	.cfi_def_cfa_register 6
	pushq	%rbx
	subq	$40, %rsp
	.cfi_offset 3, -24
	movq	%rdi, -40(%rbp)
	movq	%rsi, -48(%rbp)
	.loc 1 231 9
	movl	$0, -20(%rbp)
	.loc 1 233 5
	jmp	.L106
.L116:
	.loc 1 234 25
	movl	-20(%rbp), %eax
	movslq	%eax, %rdx
	.loc 1 234 26
	movq	-40(%rbp), %rax
	leaq	(%rdx,%rax), %rcx
	movq	%rcx, %rax
	movq	%rax, %rdx
	shrq	$3, %rdx
	addq	$2147450880, %rdx
	movzbl	(%rdx), %edx
	testb	%dl, %dl
	setne	%sil
	movq	%rax, %rdi
	andl	$7, %edi
	cmpb	%dl, %dil
	setge	%dl
	andl	%esi, %edx
	testb	%dl, %dl
	je	.L107
	movq	%rax, %rdi
	call	__asan_report_load1@PLT
.L107:
	movzbl	(%rcx), %eax
	.loc 1 234 21
	movsbl	%al, %eax
	movl	%eax, %edi
	call	tolower@PLT
	movl	%eax, %ebx
	.loc 1 234 43
	movl	-20(%rbp), %eax
	movslq	%eax, %rdx
	.loc 1 234 44
	movq	-48(%rbp), %rax
	leaq	(%rdx,%rax), %rcx
	movq	%rcx, %rax
	movq	%rax, %rdx
	shrq	$3, %rdx
	addq	$2147450880, %rdx
	movzbl	(%rdx), %edx
	testb	%dl, %dl
	setne	%sil
	movq	%rax, %rdi
	andl	$7, %edi
	cmpb	%dl, %dil
	setge	%dl
	andl	%esi, %edx
	testb	%dl, %dl
	je	.L108
	movq	%rax, %rdi
	call	__asan_report_load1@PLT
.L108:
	movzbl	(%rcx), %eax
	.loc 1 234 39
	movsbl	%al, %eax
	movl	%eax, %edi
	call	tolower@PLT
	.loc 1 234 9
	cmpl	%eax, %ebx
	je	.L109
	.loc 1 235 23
	movl	-20(%rbp), %eax
	movslq	%eax, %rdx
	.loc 1 235 24
	movq	-40(%rbp), %rax
	leaq	(%rdx,%rax), %rcx
	movq	%rcx, %rax
	movq	%rax, %rdx
	shrq	$3, %rdx
	addq	$2147450880, %rdx
	movzbl	(%rdx), %edx
	testb	%dl, %dl
	setne	%sil
	movq	%rax, %rdi
	andl	$7, %edi
	cmpb	%dl, %dil
	setge	%dl
	andl	%esi, %edx
	testb	%dl, %dl
	je	.L110
	movq	%rax, %rdi
	call	__asan_report_load1@PLT
.L110:
	movzbl	(%rcx), %eax
	movsbl	%al, %esi
	.loc 1 235 31
	movl	-20(%rbp), %eax
	movslq	%eax, %rdx
	.loc 1 235 32
	movq	-48(%rbp), %rax
	leaq	(%rdx,%rax), %rcx
	movq	%rcx, %rax
	movq	%rax, %rdx
	shrq	$3, %rdx
	addq	$2147450880, %rdx
	movzbl	(%rdx), %edx
	testb	%dl, %dl
	setne	%dil
	movq	%rax, %r8
	andl	$7, %r8d
	cmpb	%dl, %r8b
	setge	%dl
	andl	%edi, %edx
	testb	%dl, %dl
	je	.L111
	movq	%rax, %rdi
	call	__asan_report_load1@PLT
.L111:
	movzbl	(%rcx), %eax
	movsbl	%al, %edx
	movl	%esi, %eax
	subl	%edx, %eax
	jmp	.L112
.L109:
	.loc 1 233 5
	addl	$1, -20(%rbp)
.L106:
	.loc 1 233 15 discriminator 1
	movl	-20(%rbp), %eax
	movslq	%eax, %rdx
	.loc 1 233 16 discriminator 1
	movq	-40(%rbp), %rax
	leaq	(%rdx,%rax), %rcx
	movq	%rcx, %rax
	movq	%rax, %rdx
	shrq	$3, %rdx
	addq	$2147450880, %rdx
	movzbl	(%rdx), %edx
	testb	%dl, %dl
	setne	%sil
	movq	%rax, %rdi
	andl	$7, %edi
	cmpb	%dl, %dil
	setge	%dl
	andl	%esi, %edx
	testb	%dl, %dl
	je	.L113
	.loc 1 233 16 is_stmt 0
	movq	%rax, %rdi
	call	__asan_report_load1@PLT
.L113:
	.loc 1 233 16 discriminator 1
	movzbl	(%rcx), %eax
	.loc 1 233 18 is_stmt 1 discriminator 1
	testb	%al, %al
	je	.L114
	.loc 1 233 24 discriminator 2
	movl	-20(%rbp), %eax
	movslq	%eax, %rdx
	.loc 1 233 25 discriminator 2
	movq	-48(%rbp), %rax
	leaq	(%rdx,%rax), %rcx
	movq	%rcx, %rax
	movq	%rax, %rdx
	shrq	$3, %rdx
	addq	$2147450880, %rdx
	movzbl	(%rdx), %edx
	testb	%dl, %dl
	setne	%sil
	movq	%rax, %rdi
	andl	$7, %edi
	cmpb	%dl, %dil
	setge	%dl
	andl	%esi, %edx
	testb	%dl, %dl
	je	.L115
	.loc 1 233 25 is_stmt 0
	movq	%rax, %rdi
	call	__asan_report_load1@PLT
.L115:
	.loc 1 233 25 discriminator 2
	movzbl	(%rcx), %eax
	.loc 1 233 18 is_stmt 1 discriminator 2
	testb	%al, %al
	jne	.L116
.L114:
	.loc 1 237 16
	movl	-20(%rbp), %eax
	movslq	%eax, %rdx
	.loc 1 237 17
	movq	-40(%rbp), %rax
	leaq	(%rdx,%rax), %rcx
	movq	%rcx, %rax
	movq	%rax, %rdx
	shrq	$3, %rdx
	addq	$2147450880, %rdx
	movzbl	(%rdx), %edx
	testb	%dl, %dl
	setne	%sil
	movq	%rax, %rdi
	andl	$7, %edi
	cmpb	%dl, %dil
	setge	%dl
	andl	%esi, %edx
	testb	%dl, %dl
	je	.L117
	movq	%rax, %rdi
	call	__asan_report_load1@PLT
.L117:
	movzbl	(%rcx), %eax
	movsbl	%al, %esi
	.loc 1 237 24
	movl	-20(%rbp), %eax
	movslq	%eax, %rdx
	.loc 1 237 25
	movq	-48(%rbp), %rax
	leaq	(%rdx,%rax), %rcx
	movq	%rcx, %rax
	movq	%rax, %rdx
	shrq	$3, %rdx
	addq	$2147450880, %rdx
	movzbl	(%rdx), %edx
	testb	%dl, %dl
	setne	%dil
	movq	%rax, %r8
	andl	$7, %r8d
	cmpb	%dl, %r8b
	setge	%dl
	andl	%edi, %edx
	testb	%dl, %dl
	je	.L118
	movq	%rax, %rdi
	call	__asan_report_load1@PLT
.L118:
	movzbl	(%rcx), %eax
	movsbl	%al, %edx
	.loc 1 237 26
	movl	%esi, %eax
	subl	%edx, %eax
.L112:
	.loc 1 238 5
	movq	-8(%rbp), %rbx
	leave
	.cfi_def_cfa 7, 8
	ret
	.cfi_endproc
.LFE2278:
	.size	_Z7stricmpPKcS0_, .-_Z7stricmpPKcS0_
	.globl	_Z8strnicmpPKcS0_i
	.type	_Z8strnicmpPKcS0_i, @function
_Z8strnicmpPKcS0_i:
.LASANPC2279:
.LFB2279:
	.loc 1 241 5
	.cfi_startproc
	endbr64
	pushq	%rbp
	.cfi_def_cfa_offset 16
	.cfi_offset 6, -16
	movq	%rsp, %rbp
	.cfi_def_cfa_register 6
	pushq	%rbx
	subq	$56, %rsp
	.cfi_offset 3, -24
	movq	%rdi, -40(%rbp)
	movq	%rsi, -48(%rbp)
	movl	%edx, -52(%rbp)
	.loc 1 242 9
	movl	$0, -20(%rbp)
	.loc 1 244 5
	jmp	.L120
.L130:
	.loc 1 245 25
	movl	-20(%rbp), %eax
	movslq	%eax, %rdx
	.loc 1 245 26
	movq	-40(%rbp), %rax
	leaq	(%rdx,%rax), %rcx
	movq	%rcx, %rax
	movq	%rax, %rdx
	shrq	$3, %rdx
	addq	$2147450880, %rdx
	movzbl	(%rdx), %edx
	testb	%dl, %dl
	setne	%sil
	movq	%rax, %rdi
	andl	$7, %edi
	cmpb	%dl, %dil
	setge	%dl
	andl	%esi, %edx
	testb	%dl, %dl
	je	.L121
	movq	%rax, %rdi
	call	__asan_report_load1@PLT
.L121:
	movzbl	(%rcx), %eax
	.loc 1 245 21
	movsbl	%al, %eax
	movl	%eax, %edi
	call	tolower@PLT
	movl	%eax, %ebx
	.loc 1 245 43
	movl	-20(%rbp), %eax
	movslq	%eax, %rdx
	.loc 1 245 44
	movq	-48(%rbp), %rax
	leaq	(%rdx,%rax), %rcx
	movq	%rcx, %rax
	movq	%rax, %rdx
	shrq	$3, %rdx
	addq	$2147450880, %rdx
	movzbl	(%rdx), %edx
	testb	%dl, %dl
	setne	%sil
	movq	%rax, %rdi
	andl	$7, %edi
	cmpb	%dl, %dil
	setge	%dl
	andl	%esi, %edx
	testb	%dl, %dl
	je	.L122
	movq	%rax, %rdi
	call	__asan_report_load1@PLT
.L122:
	movzbl	(%rcx), %eax
	.loc 1 245 39
	movsbl	%al, %eax
	movl	%eax, %edi
	call	tolower@PLT
	.loc 1 245 9
	cmpl	%eax, %ebx
	je	.L123
	.loc 1 246 23
	movl	-20(%rbp), %eax
	movslq	%eax, %rdx
	.loc 1 246 24
	movq	-40(%rbp), %rax
	leaq	(%rdx,%rax), %rcx
	movq	%rcx, %rax
	movq	%rax, %rdx
	shrq	$3, %rdx
	addq	$2147450880, %rdx
	movzbl	(%rdx), %edx
	testb	%dl, %dl
	setne	%sil
	movq	%rax, %rdi
	andl	$7, %edi
	cmpb	%dl, %dil
	setge	%dl
	andl	%esi, %edx
	testb	%dl, %dl
	je	.L124
	movq	%rax, %rdi
	call	__asan_report_load1@PLT
.L124:
	movzbl	(%rcx), %eax
	movsbl	%al, %esi
	.loc 1 246 31
	movl	-20(%rbp), %eax
	movslq	%eax, %rdx
	.loc 1 246 32
	movq	-48(%rbp), %rax
	leaq	(%rdx,%rax), %rcx
	movq	%rcx, %rax
	movq	%rax, %rdx
	shrq	$3, %rdx
	addq	$2147450880, %rdx
	movzbl	(%rdx), %edx
	testb	%dl, %dl
	setne	%dil
	movq	%rax, %r8
	andl	$7, %r8d
	cmpb	%dl, %r8b
	setge	%dl
	andl	%edi, %edx
	testb	%dl, %dl
	je	.L125
	movq	%rax, %rdi
	call	__asan_report_load1@PLT
.L125:
	movzbl	(%rcx), %eax
	movsbl	%al, %edx
	movl	%esi, %eax
	subl	%edx, %eax
	jmp	.L126
.L123:
	.loc 1 244 47
	addl	$1, -20(%rbp)
	subl	$1, -52(%rbp)
.L120:
	.loc 1 244 15 discriminator 1
	movl	-20(%rbp), %eax
	movslq	%eax, %rdx
	.loc 1 244 16 discriminator 1
	movq	-40(%rbp), %rax
	leaq	(%rdx,%rax), %rcx
	movq	%rcx, %rax
	movq	%rax, %rdx
	shrq	$3, %rdx
	addq	$2147450880, %rdx
	movzbl	(%rdx), %edx
	testb	%dl, %dl
	setne	%sil
	movq	%rax, %rdi
	andl	$7, %edi
	cmpb	%dl, %dil
	setge	%dl
	andl	%esi, %edx
	testb	%dl, %dl
	je	.L127
	.loc 1 244 16 is_stmt 0
	movq	%rax, %rdi
	call	__asan_report_load1@PLT
.L127:
	.loc 1 244 16 discriminator 1
	movzbl	(%rcx), %eax
	.loc 1 244 27 is_stmt 1 discriminator 1
	testb	%al, %al
	je	.L128
	.loc 1 244 24 discriminator 2
	movl	-20(%rbp), %eax
	movslq	%eax, %rdx
	.loc 1 244 25 discriminator 2
	movq	-48(%rbp), %rax
	leaq	(%rdx,%rax), %rcx
	movq	%rcx, %rax
	movq	%rax, %rdx
	shrq	$3, %rdx
	addq	$2147450880, %rdx
	movzbl	(%rdx), %edx
	testb	%dl, %dl
	setne	%sil
	movq	%rax, %rdi
	andl	$7, %edi
	cmpb	%dl, %dil
	setge	%dl
	andl	%esi, %edx
	testb	%dl, %dl
	je	.L129
	.loc 1 244 25 is_stmt 0
	movq	%rax, %rdi
	call	__asan_report_load1@PLT
.L129:
	.loc 1 244 25 discriminator 2
	movzbl	(%rcx), %eax
	.loc 1 244 18 is_stmt 1 discriminator 2
	testb	%al, %al
	je	.L128
	.loc 1 244 27 discriminator 3
	cmpl	$0, -52(%rbp)
	jne	.L130
.L128:
	.loc 1 248 16
	movl	-20(%rbp), %eax
	movslq	%eax, %rdx
	.loc 1 248 17
	movq	-40(%rbp), %rax
	leaq	(%rdx,%rax), %rcx
	movq	%rcx, %rax
	movq	%rax, %rdx
	shrq	$3, %rdx
	addq	$2147450880, %rdx
	movzbl	(%rdx), %edx
	testb	%dl, %dl
	setne	%sil
	movq	%rax, %rdi
	andl	$7, %edi
	cmpb	%dl, %dil
	setge	%dl
	andl	%esi, %edx
	testb	%dl, %dl
	je	.L131
	movq	%rax, %rdi
	call	__asan_report_load1@PLT
.L131:
	movzbl	(%rcx), %eax
	movsbl	%al, %esi
	.loc 1 248 24
	movl	-20(%rbp), %eax
	movslq	%eax, %rdx
	.loc 1 248 25
	movq	-48(%rbp), %rax
	leaq	(%rdx,%rax), %rcx
	movq	%rcx, %rax
	movq	%rax, %rdx
	shrq	$3, %rdx
	addq	$2147450880, %rdx
	movzbl	(%rdx), %edx
	testb	%dl, %dl
	setne	%dil
	movq	%rax, %r8
	andl	$7, %r8d
	cmpb	%dl, %r8b
	setge	%dl
	andl	%edi, %edx
	testb	%dl, %dl
	je	.L132
	movq	%rax, %rdi
	call	__asan_report_load1@PLT
.L132:
	movzbl	(%rcx), %eax
	movsbl	%al, %edx
	.loc 1 248 26
	movl	%esi, %eax
	subl	%edx, %eax
.L126:
	.loc 1 249 5
	movq	-8(%rbp), %rbx
	leave
	.cfi_def_cfa 7, 8
	ret
	.cfi_endproc
.LFE2279:
	.size	_Z8strnicmpPKcS0_i, .-_Z8strnicmpPKcS0_i
	.globl	_Z11strnicmprusPKcS0_i
	.type	_Z11strnicmprusPKcS0_i, @function
_Z11strnicmprusPKcS0_i:
.LASANPC2280:
.LFB2280:
	.loc 1 253 5
	.cfi_startproc
	endbr64
	pushq	%rbp
	.cfi_def_cfa_offset 16
	.cfi_offset 6, -16
	movq	%rsp, %rbp
	.cfi_def_cfa_register 6
	subq	$48, %rsp
	movq	%rdi, -24(%rbp)
	movq	%rsi, -32(%rbp)
	movl	%edx, -36(%rbp)
	.loc 1 254 9
	movl	$0, -4(%rbp)
	.loc 1 263 5
	jmp	.L134
.L146:
	.loc 1 264 16
	movl	-4(%rbp), %eax
	movslq	%eax, %rdx
	.loc 1 264 17
	movq	-24(%rbp), %rax
	leaq	(%rdx,%rax), %rcx
	movq	%rcx, %rax
	movq	%rax, %rdx
	shrq	$3, %rdx
	addq	$2147450880, %rdx
	movzbl	(%rdx), %edx
	testb	%dl, %dl
	setne	%sil
	movq	%rax, %rdi
	andl	$7, %edi
	cmpb	%dl, %dil
	setge	%dl
	andl	%esi, %edx
	testb	%dl, %dl
	je	.L135
	movq	%rax, %rdi
	call	__asan_report_load1@PLT
.L135:
	movzbl	(%rcx), %esi
	.loc 1 264 25
	movl	-4(%rbp), %eax
	movslq	%eax, %rdx
	.loc 1 264 26
	movq	-32(%rbp), %rax
	leaq	(%rdx,%rax), %rcx
	movq	%rcx, %rax
	movq	%rax, %rdx
	shrq	$3, %rdx
	addq	$2147450880, %rdx
	movzbl	(%rdx), %edx
	testb	%dl, %dl
	setne	%dil
	movq	%rax, %r8
	andl	$7, %r8d
	cmpb	%dl, %r8b
	setge	%dl
	andl	%edi, %edx
	testb	%dl, %dl
	je	.L136
	movq	%rax, %rdi
	call	__asan_report_load1@PLT
.L136:
	movzbl	(%rcx), %eax
	.loc 1 264 9
	cmpb	%al, %sil
	je	.L137
	.loc 1 264 38 discriminator 1
	movl	-4(%rbp), %eax
	movslq	%eax, %rdx
	.loc 1 264 39 discriminator 1
	movq	-24(%rbp), %rax
	leaq	(%rdx,%rax), %rcx
	movq	%rcx, %rax
	movq	%rax, %rdx
	shrq	$3, %rdx
	addq	$2147450880, %rdx
	movzbl	(%rdx), %edx
	testb	%dl, %dl
	setne	%sil
	movq	%rax, %rdi
	andl	$7, %edi
	cmpb	%dl, %dil
	setge	%dl
	andl	%esi, %edx
	testb	%dl, %dl
	je	.L138
	.loc 1 264 39 is_stmt 0
	movq	%rax, %rdi
	call	__asan_report_load1@PLT
.L138:
	.loc 1 264 39 discriminator 1
	movzbl	(%rcx), %eax
	movsbl	%al, %esi
	.loc 1 264 46 is_stmt 1 discriminator 1
	movl	-4(%rbp), %eax
	movslq	%eax, %rdx
	.loc 1 264 47 discriminator 1
	movq	-32(%rbp), %rax
	leaq	(%rdx,%rax), %rcx
	movq	%rcx, %rax
	movq	%rax, %rdx
	shrq	$3, %rdx
	addq	$2147450880, %rdx
	movzbl	(%rdx), %edx
	testb	%dl, %dl
	setne	%dil
	movq	%rax, %r8
	andl	$7, %r8d
	cmpb	%dl, %r8b
	setge	%dl
	andl	%edi, %edx
	testb	%dl, %dl
	je	.L139
	.loc 1 264 47 is_stmt 0
	movq	%rax, %rdi
	call	__asan_report_load1@PLT
.L139:
	.loc 1 264 47 discriminator 1
	movzbl	(%rcx), %eax
	movsbl	%al, %edx
	.loc 1 264 41 is_stmt 1 discriminator 1
	movl	%esi, %eax
	subl	%edx, %eax
	.loc 1 264 34 discriminator 1
	movl	%eax, %edx
	negl	%edx
	cmovns	%edx, %eax
	.loc 1 264 28 discriminator 1
	cmpl	$32, %eax
	je	.L137
	.loc 1 265 23
	movl	-4(%rbp), %eax
	movslq	%eax, %rdx
	.loc 1 265 24
	movq	-24(%rbp), %rax
	leaq	(%rdx,%rax), %rcx
	movq	%rcx, %rax
	movq	%rax, %rdx
	shrq	$3, %rdx
	addq	$2147450880, %rdx
	movzbl	(%rdx), %edx
	testb	%dl, %dl
	setne	%sil
	movq	%rax, %rdi
	andl	$7, %edi
	cmpb	%dl, %dil
	setge	%dl
	andl	%esi, %edx
	testb	%dl, %dl
	je	.L140
	movq	%rax, %rdi
	call	__asan_report_load1@PLT
.L140:
	movzbl	(%rcx), %eax
	movsbl	%al, %esi
	.loc 1 265 31
	movl	-4(%rbp), %eax
	movslq	%eax, %rdx
	.loc 1 265 32
	movq	-32(%rbp), %rax
	leaq	(%rdx,%rax), %rcx
	movq	%rcx, %rax
	movq	%rax, %rdx
	shrq	$3, %rdx
	addq	$2147450880, %rdx
	movzbl	(%rdx), %edx
	testb	%dl, %dl
	setne	%dil
	movq	%rax, %r8
	andl	$7, %r8d
	cmpb	%dl, %r8b
	setge	%dl
	andl	%edi, %edx
	testb	%dl, %dl
	je	.L141
	movq	%rax, %rdi
	call	__asan_report_load1@PLT
.L141:
	movzbl	(%rcx), %eax
	movsbl	%al, %edx
	movl	%esi, %eax
	subl	%edx, %eax
	jmp	.L142
.L137:
	.loc 1 263 47
	addl	$1, -4(%rbp)
	subl	$1, -36(%rbp)
.L134:
	.loc 1 263 15 discriminator 1
	movl	-4(%rbp), %eax
	movslq	%eax, %rdx
	.loc 1 263 16 discriminator 1
	movq	-24(%rbp), %rax
	leaq	(%rdx,%rax), %rcx
	movq	%rcx, %rax
	movq	%rax, %rdx
	shrq	$3, %rdx
	addq	$2147450880, %rdx
	movzbl	(%rdx), %edx
	testb	%dl, %dl
	setne	%sil
	movq	%rax, %rdi
	andl	$7, %edi
	cmpb	%dl, %dil
	setge	%dl
	andl	%esi, %edx
	testb	%dl, %dl
	je	.L143
	.loc 1 263 16 is_stmt 0
	movq	%rax, %rdi
	call	__asan_report_load1@PLT
.L143:
	.loc 1 263 16 discriminator 1
	movzbl	(%rcx), %eax
	.loc 1 263 27 is_stmt 1 discriminator 1
	testb	%al, %al
	je	.L144
	.loc 1 263 24 discriminator 2
	movl	-4(%rbp), %eax
	movslq	%eax, %rdx
	.loc 1 263 25 discriminator 2
	movq	-32(%rbp), %rax
	leaq	(%rdx,%rax), %rcx
	movq	%rcx, %rax
	movq	%rax, %rdx
	shrq	$3, %rdx
	addq	$2147450880, %rdx
	movzbl	(%rdx), %edx
	testb	%dl, %dl
	setne	%sil
	movq	%rax, %rdi
	andl	$7, %edi
	cmpb	%dl, %dil
	setge	%dl
	andl	%esi, %edx
	testb	%dl, %dl
	je	.L145
	.loc 1 263 25 is_stmt 0
	movq	%rax, %rdi
	call	__asan_report_load1@PLT
.L145:
	.loc 1 263 25 discriminator 2
	movzbl	(%rcx), %eax
	.loc 1 263 18 is_stmt 1 discriminator 2
	testb	%al, %al
	je	.L144
	.loc 1 263 27 discriminator 3
	cmpl	$0, -36(%rbp)
	jne	.L146
.L144:
	.loc 1 267 17
	movl	-4(%rbp), %eax
	movslq	%eax, %rdx
	.loc 1 267 18
	movq	-24(%rbp), %rax
	leaq	(%rdx,%rax), %rcx
	movq	%rcx, %rax
	movq	%rax, %rdx
	shrq	$3, %rdx
	addq	$2147450880, %rdx
	movzbl	(%rdx), %edx
	testb	%dl, %dl
	setne	%sil
	movq	%rax, %rdi
	andl	$7, %edi
	cmpb	%dl, %dil
	setge	%dl
	andl	%esi, %edx
	testb	%dl, %dl
	je	.L147
	movq	%rax, %rdi
	call	__asan_report_load1@PLT
.L147:
	movzbl	(%rcx), %eax
	movsbl	%al, %esi
	.loc 1 267 25
	movl	-4(%rbp), %eax
	movslq	%eax, %rdx
	.loc 1 267 26
	movq	-32(%rbp), %rax
	leaq	(%rdx,%rax), %rcx
	movq	%rcx, %rax
	movq	%rax, %rdx
	shrq	$3, %rdx
	addq	$2147450880, %rdx
	movzbl	(%rdx), %edx
	testb	%dl, %dl
	setne	%dil
	movq	%rax, %r8
	andl	$7, %r8d
	cmpb	%dl, %r8b
	setge	%dl
	andl	%edi, %edx
	testb	%dl, %dl
	je	.L148
	movq	%rax, %rdi
	call	__asan_report_load1@PLT
.L148:
	movzbl	(%rcx), %eax
	movsbl	%al, %edx
	.loc 1 267 20
	movl	%esi, %eax
	subl	%edx, %eax
	.loc 1 267 13
	movl	%eax, %edx
	negl	%edx
	cmovns	%edx, %eax
	.loc 1 267 5
	cmpl	$32, %eax
	jne	.L149
	.loc 1 268 16
	movl	$0, %eax
	jmp	.L142
.L149:
	.loc 1 270 15
	movl	-4(%rbp), %eax
	movslq	%eax, %rdx
	.loc 1 270 16
	movq	-24(%rbp), %rax
	leaq	(%rdx,%rax), %rcx
	movq	%rcx, %rax
	movq	%rax, %rdx
	shrq	$3, %rdx
	addq	$2147450880, %rdx
	movzbl	(%rdx), %edx
	testb	%dl, %dl
	setne	%sil
	movq	%rax, %rdi
	andl	$7, %edi
	cmpb	%dl, %dil
	setge	%dl
	andl	%esi, %edx
	testb	%dl, %dl
	je	.L150
	movq	%rax, %rdi
	call	__asan_report_load1@PLT
.L150:
	movzbl	(%rcx), %eax
	movsbl	%al, %esi
	.loc 1 270 23
	movl	-4(%rbp), %eax
	movslq	%eax, %rdx
	.loc 1 270 24
	movq	-32(%rbp), %rax
	leaq	(%rdx,%rax), %rcx
	movq	%rcx, %rax
	movq	%rax, %rdx
	shrq	$3, %rdx
	addq	$2147450880, %rdx
	movzbl	(%rdx), %edx
	testb	%dl, %dl
	setne	%dil
	movq	%rax, %r8
	andl	$7, %r8d
	cmpb	%dl, %r8b
	setge	%dl
	andl	%edi, %edx
	testb	%dl, %dl
	je	.L151
	movq	%rax, %rdi
	call	__asan_report_load1@PLT
.L151:
	movzbl	(%rcx), %eax
	movsbl	%al, %edx
	movl	%esi, %eax
	subl	%edx, %eax
.L142:
	.loc 1 271 5
	leave
	.cfi_def_cfa 7, 8
	ret
	.cfi_endproc
.LFE2280:
	.size	_Z11strnicmprusPKcS0_i, .-_Z11strnicmprusPKcS0_i
	.globl	_Z11ClearBufferv
	.type	_Z11ClearBufferv, @function
_Z11ClearBufferv:
.LASANPC2281:
.LFB2281:
	.loc 1 274 5
	.cfi_startproc
	endbr64
	pushq	%rbp
	.cfi_def_cfa_offset 16
	.cfi_offset 6, -16
	movq	%rsp, %rbp
	.cfi_def_cfa_register 6
	.loc 1 275 5
	jmp	.L153
.L154:
	.loc 1 276 9
	nop
.L153:
	.loc 1 275 19
	call	getchar@PLT
	.loc 1 275 22
	cmpl	$10, %eax
	setne	%al
	testb	%al, %al
	jne	.L154
	.loc 1 278 5
	nop
	.loc 1 279 5
	popq	%rbp
	.cfi_def_cfa 7, 8
	ret
	.cfi_endproc
.LFE2281:
	.size	_Z11ClearBufferv, .-_Z11ClearBufferv
	.section	.rodata
	.align 32
.LC14:
	.string	""
	.zero	63
	.align 32
.LC15:
	.string	"%*s"
	.zero	60
	.text
	.globl	_Z10fsetindentP8_IO_FILEi
	.type	_Z10fsetindentP8_IO_FILEi, @function
_Z10fsetindentP8_IO_FILEi:
.LASANPC2282:
.LFB2282:
	.loc 1 282 5
	.cfi_startproc
	endbr64
	pushq	%rbp
	.cfi_def_cfa_offset 16
	.cfi_offset 6, -16
	movq	%rsp, %rbp
	.cfi_def_cfa_register 6
	subq	$16, %rsp
	movq	%rdi, -8(%rbp)
	movl	%esi, -12(%rbp)
	.loc 1 283 12
	movl	-12(%rbp), %eax
	leal	(%rax,%rax), %edx
	movq	-8(%rbp), %rax
	leaq	.LC14(%rip), %rcx
	leaq	.LC15(%rip), %rsi
	movq	%rax, %rdi
	movl	$0, %eax
	call	fprintf@PLT
	.loc 1 285 5
	nop
	.loc 1 286 5
	leave
	.cfi_def_cfa 7, 8
	ret
	.cfi_endproc
.LFE2282:
	.size	_Z10fsetindentP8_IO_FILEi, .-_Z10fsetindentP8_IO_FILEi
	.globl	_Z9setindenti
	.type	_Z9setindenti, @function
_Z9setindenti:
.LASANPC2283:
.LFB2283:
	.loc 1 289 5
	.cfi_startproc
	endbr64
	pushq	%rbp
	.cfi_def_cfa_offset 16
	.cfi_offset 6, -16
	movq	%rsp, %rbp
	.cfi_def_cfa_register 6
	subq	$16, %rsp
	movl	%edi, -4(%rbp)
	.loc 1 290 11
	movl	-4(%rbp), %eax
	addl	%eax, %eax
	leaq	.LC14(%rip), %rdx
	movl	%eax, %esi
	leaq	.LC15(%rip), %rax
	movq	%rax, %rdi
	movl	$0, %eax
	call	printf@PLT
	.loc 1 292 5
	nop
	.loc 1 293 5
	leave
	.cfi_def_cfa 7, 8
	ret
	.cfi_endproc
.LFE2283:
	.size	_Z9setindenti, .-_Z9setindenti
	.globl	__asan_stack_malloc_1
	.section	.rodata
.LC16:
	.string	"1 32 24 12 func_297:297"
	.align 32
.LC17:
	.string	"BufferCtor"
	.zero	53
	.align 32
.LC18:
	.string	"%s:%d::CHECK: buf is false\n"
	.zero	36
	.align 32
.LC19:
	.string	"Failed (%s:%d, %s:%d)"
	.zero	42
	.align 32
.LC20:
	.string	"%s:%d returned SUCCESS "
	.zero	40
	.text
	.globl	_Z10BufferCtorP6BufferPKc
	.type	_Z10BufferCtorP6BufferPKc, @function
_Z10BufferCtorP6BufferPKc:
.LASANPC2284:
.LFB2284:
	.loc 1 296 5
	.cfi_startproc
	.cfi_personality 0x9b,DW.ref.__gxx_personality_v0
	.cfi_lsda 0x1b,.LLSDA2284
	endbr64
	pushq	%rbp
	.cfi_def_cfa_offset 16
	.cfi_offset 6, -16
	movq	%rsp, %rbp
	.cfi_def_cfa_register 6
	pushq	%r15
	pushq	%r14
	pushq	%r13
	pushq	%r12
	pushq	%rbx
	subq	$120, %rsp
	.cfi_offset 15, -24
	.cfi_offset 14, -32
	.cfi_offset 13, -40
	.cfi_offset 12, -48
	.cfi_offset 3, -56
	movq	%rdi, -152(%rbp)
	movq	%rsi, -160(%rbp)
	leaq	-144(%rbp), %rbx
	movq	%rbx, %r15
	cmpl	$0, __asan_option_detect_stack_use_after_return(%rip)
	je	.L160
	movl	$96, %edi
	call	__asan_stack_malloc_1@PLT
	testq	%rax, %rax
	je	.L160
	movq	%rax, %rbx
.L160:
	leaq	96(%rbx), %rax
	movq	%rax, %r13
	movq	$1102416563, (%rbx)
	leaq	.LC16(%rip), %rax
	movq	%rax, 8(%rbx)
	leaq	.LASANPC2284(%rip), %rax
	movq	%rax, 16(%rbx)
	movq	%rbx, %r12
	shrq	$3, %r12
	movl	$-235802127, 2147450880(%r12)
	movl	$-218103808, 2147450884(%r12)
	movl	$-202116109, 2147450888(%r12)
	.loc 1 297 49
	leaq	-64(%r13), %rax
	leaq	.LC17(%rip), %rdx
	movl	$1, %esi
	movq	%rax, %rdi
.LEHB0:
	call	_ZN14FunctionLoggerC1EiPKc@PLT
.LEHE0:
	.loc 1 298 10
	cmpq	$0, -152(%rbp)
	jne	.L164
.LEHB1:
	.loc 1 298 41 discriminator 1
	call	_ZN6Logger11getInstanceEv@PLT
	movq	%rax, %rdi
	.loc 1 298 47 discriminator 1
	movl	$298, %ecx
	leaq	.LC17(%rip), %rax
	movq	%rax, %rdx
	leaq	.LC18(%rip), %rax
	movq	%rax, %rsi
	movl	$0, %eax
	call	_ZN6Logger3logEPKcz@PLT
	.loc 1 298 129 discriminator 3
	call	_ZN6Logger11getInstanceEv@PLT
	.loc 1 298 151 discriminator 3
	call	_ZN6Logger11getInstanceEv@PLT
	.loc 1 298 151 is_stmt 0 discriminator 4
	movq	%rax, %rdi
	.loc 1 298 164 is_stmt 1 discriminator 4
	subq	$8, %rsp
	pushq	$298
	leaq	.LC17(%rip), %r9
	movl	$298, %r8d
	leaq	.LC4(%rip), %rax
	movq	%rax, %rcx
	leaq	.LC19(%rip), %rax
	movq	%rax, %rdx
	movl	$-1, %esi
	movl	$0, %eax
	.cfi_escape 0x2e,0x10
	call	_ZN6Logger9LogMsgRetEiPKcz@PLT
	.loc 1 298 164 is_stmt 0 discriminator 5
	addq	$16, %rsp
	movl	%eax, %r14d
	.loc 1 298 249 is_stmt 1 discriminator 5
	jmp	.L165
.L164:
	.loc 1 300 17
	movq	-152(%rbp), %rax
	movq	%rax, %rdx
	shrq	$3, %rdx
	addq	$2147450880, %rdx
	movzbl	(%rdx), %edx
	testb	%dl, %dl
	je	.L166
	movq	%rax, %rdi
	call	__asan_report_store8@PLT
.L166:
	movq	-152(%rbp), %rax
	movq	-160(%rbp), %rdx
	movq	%rdx, (%rax)
	.loc 1 301 14
	movq	-152(%rbp), %rax
	addq	$8, %rax
	movq	%rax, %rdx
	shrq	$3, %rdx
	addq	$2147450880, %rdx
	movzbl	(%rdx), %edx
	testb	%dl, %dl
	je	.L167
	movq	%rax, %rdi
	call	__asan_report_store8@PLT
.L167:
	movq	-152(%rbp), %rax
	movq	-160(%rbp), %rdx
	movq	%rdx, 8(%rax)
	.loc 1 303 26
	movq	-152(%rbp), %rax
	addq	$16, %rax
	movq	%rax, %rdx
	movq	%rdx, %rax
	shrq	$3, %rax
	addq	$2147450880, %rax
	movzbl	(%rax), %eax
	testb	%al, %al
	setne	%cl
	cmpb	$3, %al
	setle	%al
	andl	%ecx, %eax
	testb	%al, %al
	je	.L168
	movq	%rdx, %rdi
	call	__asan_report_store4@PLT
.L168:
	movq	-152(%rbp), %rax
	movl	$1, 16(%rax)
	.loc 1 304 17
	movq	-152(%rbp), %rax
	addq	$20, %rax
	movq	%rax, %rdx
	shrq	$3, %rdx
	addq	$2147450880, %rdx
	movzbl	(%rdx), %edx
	testb	%dl, %dl
	setne	%sil
	movq	%rax, %rcx
	andl	$7, %ecx
	addl	$3, %ecx
	cmpb	%dl, %cl
	setge	%dl
	andl	%esi, %edx
	testb	%dl, %dl
	je	.L169
	movq	%rax, %rdi
	call	__asan_report_store4@PLT
.L169:
	movq	-152(%rbp), %rax
	movl	$1, 20(%rax)
	.cfi_escape 0x2e,0
	.loc 1 306 31
	call	_ZN6Logger11getInstanceEv@PLT
	.loc 1 306 53
	call	_ZN6Logger11getInstanceEv@PLT
	.loc 1 306 53 is_stmt 0 discriminator 1
	movq	%rax, %rdi
	.loc 1 306 66 is_stmt 1 discriminator 1
	movl	$306, %r8d
	leaq	.LC17(%rip), %rax
	movq	%rax, %rcx
	leaq	.LC20(%rip), %rax
	movq	%rax, %rdx
	movl	$0, %esi
	movl	$0, %eax
	call	_ZN6Logger9LogMsgRetEiPKcz@PLT
.LEHE1:
	.loc 1 306 66 is_stmt 0 discriminator 2
	movl	%eax, %r14d
	.loc 1 306 117 is_stmt 1 discriminator 2
	nop
.L165:
	.loc 1 307 5
	leaq	-64(%r13), %rax
	movq	%rax, %rdi
	call	_ZN14FunctionLoggerD1Ev@PLT
	movl	%r14d, %edx
	.loc 1 296 5
	cmpq	%rbx, %r15
	je	.L161
	jmp	.L173
.L172:
	endbr64
	.loc 1 307 5
	movq	%rax, %rbx
	leaq	-64(%r13), %rax
	movq	%rax, %rdi
	call	_ZN14FunctionLoggerD1Ev@PLT
	call	__asan_handle_no_return@PLT
	movq	%rbx, %rdi
.LEHB2:
	call	_Unwind_Resume@PLT
.LEHE2:
.L173:
	.loc 1 296 5
	movq	$1172321806, (%rbx)
	movabsq	$-723401728380766731, %rax
	movq	%rax, 2147450880(%r12)
	movl	$-168430091, 2147450888(%r12)
	movq	120(%rbx), %rax
	movb	$0, (%rax)
	jmp	.L162
.L161:
	movq	$0, 2147450880(%r12)
	movl	$0, 2147450888(%r12)
.L162:
	.loc 1 307 5
	movl	%edx, %eax
	leaq	-40(%rbp), %rsp
	popq	%rbx
	popq	%r12
	popq	%r13
	popq	%r14
	popq	%r15
	popq	%rbp
	.cfi_def_cfa 7, 8
	ret
	.cfi_endproc
.LFE2284:
	.globl	__gxx_personality_v0
	.section	.gcc_except_table,"a",@progbits
.LLSDA2284:
	.byte	0xff
	.byte	0xff
	.byte	0x1
	.uleb128 .LLSDACSE2284-.LLSDACSB2284
.LLSDACSB2284:
	.uleb128 .LEHB0-.LFB2284
	.uleb128 .LEHE0-.LEHB0
	.uleb128 0
	.uleb128 0
	.uleb128 .LEHB1-.LFB2284
	.uleb128 .LEHE1-.LEHB1
	.uleb128 .L172-.LFB2284
	.uleb128 0
	.uleb128 .LEHB2-.LFB2284
	.uleb128 .LEHE2-.LEHB2
	.uleb128 0
	.uleb128 0
.LLSDACSE2284:
	.text
	.size	_Z10BufferCtorP6BufferPKc, .-_Z10BufferCtorP6BufferPKc
	.section	.rodata
.LC21:
	.string	"1 32 24 12 func_311:311"
	.align 32
.LC22:
	.string	"buf"
	.zero	60
	.align 32
.LC23:
	.string	"ASSERTLOG:: Condition (%s) is false\n"
	.zero	59
	.align 32
.LC24:
	.string	"\033[93mASSERTLOG:: \033[0mCondition\033[95m (%s) \033[0mis \033[91mfalse\n\033[0m"
	.zero	32
	.align 32
.LC25:
	.string	"int BufferCtor(Buffer*, int)"
	.zero	35
	.align 32
.LC26:
	.string	"\t%s:%d, function: %s\n"
	.zero	42
	.align 32
.LC27:
	.string	"It matches to error: (code %d) %s\n\n"
	.zero	60
	.align 32
.LC28:
	.string	"Shutting down the system (%s:%d)"
	.zero	63
	.align 32
.LC29:
	.string	"echo LOX\n"
	.zero	54
	.text
	.globl	_Z10BufferCtorP6Bufferi
	.type	_Z10BufferCtorP6Bufferi, @function
_Z10BufferCtorP6Bufferi:
.LASANPC2285:
.LFB2285:
	.loc 1 310 5
	.cfi_startproc
	.cfi_personality 0x9b,DW.ref.__gxx_personality_v0
	.cfi_lsda 0x1b,.LLSDA2285
	endbr64
	pushq	%rbp
	.cfi_def_cfa_offset 16
	.cfi_offset 6, -16
	movq	%rsp, %rbp
	.cfi_def_cfa_register 6
	pushq	%r15
	pushq	%r14
	pushq	%r13
	pushq	%r12
	pushq	%rbx
	subq	$120, %rsp
	.cfi_offset 15, -24
	.cfi_offset 14, -32
	.cfi_offset 13, -40
	.cfi_offset 12, -48
	.cfi_offset 3, -56
	movq	%rdi, -152(%rbp)
	movl	%esi, -156(%rbp)
	leaq	-144(%rbp), %rbx
	movq	%rbx, %r15
	cmpl	$0, __asan_option_detect_stack_use_after_return(%rip)
	je	.L174
	movl	$96, %edi
	call	__asan_stack_malloc_1@PLT
	testq	%rax, %rax
	je	.L174
	movq	%rax, %rbx
.L174:
	leaq	96(%rbx), %rax
	movq	%rax, %r14
	movq	$1102416563, (%rbx)
	leaq	.LC21(%rip), %rax
	movq	%rax, 8(%rbx)
	leaq	.LASANPC2285(%rip), %rax
	movq	%rax, 16(%rbx)
	movq	%rbx, %r12
	shrq	$3, %r12
	movl	$-235802127, 2147450880(%r12)
	movl	$-218103808, 2147450884(%r12)
	movl	$-202116109, 2147450888(%r12)
	.loc 1 311 49
	leaq	-64(%r14), %rax
	leaq	.LC17(%rip), %rdx
	movl	$1, %esi
	movq	%rax, %rdi
.LEHB3:
	call	_ZN14FunctionLoggerC1EiPKc@PLT
.LEHE3:
	.loc 1 312 10
	cmpq	$0, -152(%rbp)
	jne	.L178
.LEHB4:
	.loc 1 312 43 discriminator 1
	call	_ZN6Logger11getInstanceEv@PLT
	movq	%rax, %rcx
	.loc 1 312 49 discriminator 1
	leaq	.LC22(%rip), %rax
	movq	%rax, %rdx
	leaq	.LC23(%rip), %rax
	movq	%rax, %rsi
	movq	%rcx, %rdi
	movl	$0, %eax
	call	_ZN6Logger3logEPKcz@PLT
	.loc 1 312 105 discriminator 3
	leaq	.LC22(%rip), %rax
	movq	%rax, %rsi
	leaq	.LC24(%rip), %rax
	movq	%rax, %rdi
	movl	$0, %eax
	call	printf@PLT
	.loc 1 312 249 discriminator 4
	call	_ZN6Logger11getInstanceEv@PLT
	movq	%rax, %rdi
	.loc 1 312 255 discriminator 4
	leaq	.LC25(%rip), %r8
	movl	$312, %ecx
	leaq	.LC4(%rip), %rax
	movq	%rax, %rdx
	leaq	.LC26(%rip), %rax
	movq	%rax, %rsi
	movl	$0, %eax
	call	_ZN6Logger3logEPKcz@PLT
	.loc 1 312 347 discriminator 6
	leaq	.LC25(%rip), %rax
	movq	%rax, %rcx
	movl	$312, %edx
	leaq	.LC4(%rip), %rax
	movq	%rax, %rsi
	leaq	.LC26(%rip), %rax
	movq	%rax, %rdi
	movl	$0, %eax
	call	printf@PLT
	.loc 1 312 452 discriminator 7
	call	_ZN6Logger11getInstanceEv@PLT
	movq	%rax, %r13
	.loc 1 312 458 discriminator 7
	movl	$14, %edi
	call	strerror@PLT
	movq	%rax, %rcx
	movl	$14, %edx
	leaq	.LC27(%rip), %rax
	movq	%rax, %rsi
	movq	%r13, %rdi
	movl	$0, %eax
	call	_ZN6Logger3logEPKcz@PLT
	.loc 1 312 27 discriminator 9
	call	_ZN6Logger11getInstanceEv@PLT
	movq	%rax, %rdi
	.loc 1 312 33 discriminator 9
	movl	$312, %ecx
	leaq	.LC17(%rip), %rax
	movq	%rax, %rdx
	leaq	.LC28(%rip), %rax
	movq	%rax, %rsi
	movl	$0, %eax
	call	_ZN6Logger3logEPKcz@PLT
	.loc 1 312 92 discriminator 11
	leaq	.LC29(%rip), %rax
	movq	%rax, %rdi
	call	system@PLT
	.loc 1 312 134 discriminator 12
	call	_ZN6Logger11getInstanceEv@PLT
	.loc 1 312 156 discriminator 12
	call	_ZN6Logger11getInstanceEv@PLT
	.loc 1 312 156 is_stmt 0 discriminator 13
	movq	%rax, %rdi
	.loc 1 312 169 is_stmt 1 discriminator 13
	subq	$8, %rsp
	pushq	$312
	leaq	.LC17(%rip), %r9
	movl	$312, %r8d
	leaq	.LC4(%rip), %rax
	movq	%rax, %rcx
	leaq	.LC19(%rip), %rax
	movq	%rax, %rdx
	movl	$-1, %esi
	movl	$0, %eax
	.cfi_escape 0x2e,0x10
	call	_ZN6Logger9LogMsgRetEiPKcz@PLT
	.loc 1 312 169 is_stmt 0 discriminator 14
	addq	$16, %rsp
	movl	%eax, %r13d
	.loc 1 312 254 is_stmt 1 discriminator 14
	jmp	.L179
.L178:
	.cfi_escape 0x2e,0
	.loc 1 314 52
	call	_ZN6Logger11getInstanceEv@PLT
	movq	%rax, %rdi
	.loc 1 314 63
	movl	-156(%rbp), %eax
	cltq
	movl	$314, %r9d
	leaq	.LC17(%rip), %r8
	leaq	.LC4(%rip), %rdx
	movq	%rdx, %rcx
	movl	$1, %edx
	movq	%rax, %rsi
	call	_ZN6Logger7CAL_LOGEmmPKcS1_i@PLT
	.loc 1 314 17 discriminator 1
	movq	-152(%rbp), %rdx
	movq	%rdx, %rcx
	shrq	$3, %rcx
	addq	$2147450880, %rcx
	movzbl	(%rcx), %ecx
	testb	%cl, %cl
	je	.L180
	.loc 1 314 17 is_stmt 0
	movq	%rdx, %rdi
	call	__asan_report_store8@PLT
.L180:
	.loc 1 314 17 discriminator 2
	movq	-152(%rbp), %rdx
	movq	%rax, (%rdx)
	.loc 1 315 15 is_stmt 1 discriminator 2
	movq	-152(%rbp), %rax
	movq	(%rax), %rax
	.loc 1 315 5 discriminator 2
	testq	%rax, %rax
	jne	.L181
	.loc 1 315 49 discriminator 1
	call	_ZN6Logger11getInstanceEv@PLT
	.loc 1 315 71 discriminator 1
	call	_ZN6Logger11getInstanceEv@PLT
	.loc 1 315 71 is_stmt 0 discriminator 2
	movq	%rax, %rdi
	.loc 1 315 84 is_stmt 1 discriminator 2
	subq	$8, %rsp
	pushq	$315
	leaq	.LC17(%rip), %r9
	movl	$315, %r8d
	leaq	.LC4(%rip), %rax
	movq	%rax, %rcx
	leaq	.LC19(%rip), %rax
	movq	%rax, %rdx
	movl	$-1, %esi
	movl	$0, %eax
	.cfi_escape 0x2e,0x10
	call	_ZN6Logger9LogMsgRetEiPKcz@PLT
	.loc 1 315 84 is_stmt 0 discriminator 3
	addq	$16, %rsp
	movl	%eax, %r13d
	.loc 1 315 169 is_stmt 1 discriminator 3
	jmp	.L179
.L181:
	.loc 1 317 29
	movq	-152(%rbp), %rax
	movq	%rax, %rdx
	shrq	$3, %rdx
	addq	$2147450880, %rdx
	movzbl	(%rdx), %edx
	testb	%dl, %dl
	je	.L182
	movq	%rax, %rdi
	call	__asan_report_load8@PLT
.L182:
	movq	-152(%rbp), %rax
	movq	(%rax), %rdx
	.loc 1 317 14
	movq	-152(%rbp), %rax
	addq	$8, %rax
	movq	%rax, %rcx
	shrq	$3, %rcx
	addq	$2147450880, %rcx
	movzbl	(%rcx), %ecx
	testb	%cl, %cl
	je	.L183
	movq	%rax, %rdi
	call	__asan_report_store8@PLT
.L183:
	movq	-152(%rbp), %rax
	movq	%rdx, 8(%rax)
	.loc 1 319 26
	movq	-152(%rbp), %rax
	addq	$16, %rax
	movq	%rax, %rdx
	movq	%rdx, %rax
	shrq	$3, %rax
	addq	$2147450880, %rax
	movzbl	(%rax), %eax
	testb	%al, %al
	setne	%cl
	cmpb	$3, %al
	setle	%al
	andl	%ecx, %eax
	testb	%al, %al
	je	.L184
	movq	%rdx, %rdi
	call	__asan_report_store4@PLT
.L184:
	movq	-152(%rbp), %rax
	movl	$1, 16(%rax)
	.loc 1 320 17
	movq	-152(%rbp), %rax
	addq	$20, %rax
	movq	%rax, %rdx
	shrq	$3, %rdx
	addq	$2147450880, %rdx
	movzbl	(%rdx), %edx
	testb	%dl, %dl
	setne	%sil
	movq	%rax, %rcx
	andl	$7, %ecx
	addl	$3, %ecx
	cmpb	%dl, %cl
	setge	%dl
	andl	%esi, %edx
	testb	%dl, %dl
	je	.L185
	movq	%rax, %rdi
	call	__asan_report_store4@PLT
.L185:
	movq	-152(%rbp), %rax
	movl	$1, 20(%rax)
	.cfi_escape 0x2e,0
	.loc 1 322 31
	call	_ZN6Logger11getInstanceEv@PLT
	.loc 1 322 53
	call	_ZN6Logger11getInstanceEv@PLT
	.loc 1 322 53 is_stmt 0 discriminator 1
	movq	%rax, %rdi
	.loc 1 322 66 is_stmt 1 discriminator 1
	movl	$322, %r8d
	leaq	.LC17(%rip), %rax
	movq	%rax, %rcx
	leaq	.LC20(%rip), %rax
	movq	%rax, %rdx
	movl	$0, %esi
	movl	$0, %eax
	call	_ZN6Logger9LogMsgRetEiPKcz@PLT
.LEHE4:
	.loc 1 322 66 is_stmt 0 discriminator 2
	movl	%eax, %r13d
	.loc 1 322 117 is_stmt 1 discriminator 2
	nop
.L179:
	.loc 1 323 5
	leaq	-64(%r14), %rax
	movq	%rax, %rdi
	call	_ZN14FunctionLoggerD1Ev@PLT
	movl	%r13d, %edx
	.loc 1 310 5
	cmpq	%rbx, %r15
	je	.L175
	jmp	.L189
.L188:
	endbr64
	.loc 1 323 5
	movq	%rax, %rbx
	leaq	-64(%r14), %rax
	movq	%rax, %rdi
	call	_ZN14FunctionLoggerD1Ev@PLT
	call	__asan_handle_no_return@PLT
	movq	%rbx, %rdi
.LEHB5:
	call	_Unwind_Resume@PLT
.LEHE5:
.L189:
	.loc 1 310 5
	movq	$1172321806, (%rbx)
	movabsq	$-723401728380766731, %rax
	movq	%rax, 2147450880(%r12)
	movl	$-168430091, 2147450888(%r12)
	movq	120(%rbx), %rax
	movb	$0, (%rax)
	jmp	.L176
.L175:
	movq	$0, 2147450880(%r12)
	movl	$0, 2147450888(%r12)
.L176:
	.loc 1 323 5
	movl	%edx, %eax
	leaq	-40(%rbp), %rsp
	popq	%rbx
	popq	%r12
	popq	%r13
	popq	%r14
	popq	%r15
	popq	%rbp
	.cfi_def_cfa 7, 8
	ret
	.cfi_endproc
.LFE2285:
	.section	.gcc_except_table
.LLSDA2285:
	.byte	0xff
	.byte	0xff
	.byte	0x1
	.uleb128 .LLSDACSE2285-.LLSDACSB2285
.LLSDACSB2285:
	.uleb128 .LEHB3-.LFB2285
	.uleb128 .LEHE3-.LEHB3
	.uleb128 0
	.uleb128 0
	.uleb128 .LEHB4-.LFB2285
	.uleb128 .LEHE4-.LEHB4
	.uleb128 .L188-.LFB2285
	.uleb128 0
	.uleb128 .LEHB5-.LFB2285
	.uleb128 .LEHE5-.LEHB5
	.uleb128 0
	.uleb128 0
.LLSDACSE2285:
	.text
	.size	_Z10BufferCtorP6Bufferi, .-_Z10BufferCtorP6Bufferi
	.section	.rodata
	.align 32
.LC30:
	.string	"void BufferSkipSpaces(Buffer*)"
	.zero	33
	.align 32
.LC31:
	.string	"%*[ \t\013]%n"
	.zero	54
	.text
	.globl	_Z16BufferSkipSpacesP6Buffer
	.type	_Z16BufferSkipSpacesP6Buffer, @function
_Z16BufferSkipSpacesP6Buffer:
.LASANPC2286:
.LFB2286:
	.loc 1 338 5
	.cfi_startproc
	endbr64
	pushq	%rbp
	.cfi_def_cfa_offset 16
	.cfi_offset 6, -16
	movq	%rsp, %rbp
	.cfi_def_cfa_register 6
	pushq	%r14
	pushq	%r13
	pushq	%r12
	pushq	%rbx
	subq	$80, %rsp
	.cfi_offset 14, -24
	.cfi_offset 13, -32
	.cfi_offset 12, -40
	.cfi_offset 3, -48
	movq	%rdi, -104(%rbp)
	leaq	-96(%rbp), %rbx
	movq	%rbx, %r14
	cmpl	$0, __asan_option_detect_stack_use_after_return(%rip)
	je	.L190
	movl	$64, %edi
	call	__asan_stack_malloc_0@PLT
	testq	%rax, %rax
	je	.L190
	movq	%rax, %rbx
.L190:
	leaq	64(%rbx), %rax
	movq	%rax, %r12
	movq	$1102416563, (%rbx)
	leaq	.LC7(%rip), %rax
	movq	%rax, 8(%rbx)
	leaq	.LASANPC2286(%rip), %rax
	movq	%rax, 16(%rbx)
	movq	%rbx, %r13
	shrq	$3, %r13
	movl	$-235802127, 2147450880(%r13)
	movl	$-202116348, 2147450884(%r13)
	.loc 1 339 6
	cmpq	$0, -104(%rbp)
	jne	.L194
	.loc 1 339 33 discriminator 1
	call	__asan_handle_no_return@PLT
	leaq	.LC30(%rip), %rax
	movq	%rax, %rcx
	movl	$339, %edx
	leaq	.LC4(%rip), %rax
	movq	%rax, %rsi
	leaq	.LC22(%rip), %rax
	movq	%rax, %rdi
	call	__assert_fail@PLT
.L194:
	.loc 1 341 9
	leaq	-32(%r12), %rax
	movq	%rax, %rdx
	movq	%rdx, %rax
	shrq	$3, %rax
	addq	$2147450880, %rax
	movzbl	(%rax), %eax
	testb	%al, %al
	setne	%cl
	cmpb	$3, %al
	setle	%al
	andl	%ecx, %eax
	testb	%al, %al
	je	.L195
	movq	%rdx, %rdi
	call	__asan_report_store4@PLT
.L195:
	movl	$0, -32(%r12)
	.loc 1 343 5
	jmp	.L196
.L209:
	.loc 1 346 21
	movq	-104(%rbp), %rax
	addq	$8, %rax
	movq	%rax, %rdx
	shrq	$3, %rdx
	addq	$2147450880, %rdx
	movzbl	(%rdx), %edx
	testb	%dl, %dl
	je	.L197
	movq	%rax, %rdi
	call	__asan_report_load8@PLT
.L197:
	movq	-104(%rbp), %rax
	movq	8(%rax), %rax
	.loc 1 346 15
	leaq	-32(%r12), %rdx
	leaq	.LC31(%rip), %rcx
	movq	%rcx, %rsi
	movq	%rax, %rdi
	movl	$0, %eax
	call	__isoc99_sscanf@PLT
	.loc 1 348 19
	movq	-104(%rbp), %rax
	addq	$8, %rax
	movq	%rax, %rdx
	shrq	$3, %rdx
	addq	$2147450880, %rdx
	movzbl	(%rdx), %edx
	testb	%dl, %dl
	je	.L198
	movq	%rax, %rdi
	call	__asan_report_load8@PLT
.L198:
	movq	-104(%rbp), %rax
	movq	8(%rax), %rdx
	.loc 1 348 13
	movq	%rdx, %rax
	movq	%rax, %rcx
	shrq	$3, %rcx
	addq	$2147450880, %rcx
	movzbl	(%rcx), %ecx
	testb	%cl, %cl
	setne	%sil
	movq	%rax, %rdi
	andl	$7, %edi
	cmpb	%cl, %dil
	setge	%cl
	andl	%esi, %ecx
	testb	%cl, %cl
	je	.L199
	movq	%rax, %rdi
	call	__asan_report_load1@PLT
.L199:
	movzbl	(%rdx), %eax
	.loc 1 348 9
	cmpb	$10, %al
	jne	.L200
	.loc 1 350 18 discriminator 1
	movq	-104(%rbp), %rax
	addq	$16, %rax
	movq	%rax, %rdx
	movq	%rdx, %rax
	shrq	$3, %rax
	addq	$2147450880, %rax
	movzbl	(%rax), %eax
	testb	%al, %al
	setne	%cl
	cmpb	$3, %al
	setle	%al
	andl	%ecx, %eax
	testb	%al, %al
	je	.L201
	.loc 1 350 18 is_stmt 0
	movq	%rdx, %rdi
	call	__asan_report_load4@PLT
.L201:
	.loc 1 350 18 discriminator 1
	movq	-104(%rbp), %rax
	movl	16(%rax), %eax
	.loc 1 350 33 is_stmt 1 discriminator 1
	leal	1(%rax), %edx
	movq	-104(%rbp), %rax
	movl	%edx, 16(%rax)
	.loc 1 351 25 discriminator 1
	movq	-104(%rbp), %rax
	addq	$20, %rax
	movq	%rax, %rdx
	shrq	$3, %rdx
	addq	$2147450880, %rdx
	movzbl	(%rdx), %edx
	testb	%dl, %dl
	setne	%sil
	movq	%rax, %rcx
	andl	$7, %ecx
	addl	$3, %ecx
	cmpb	%dl, %cl
	setge	%dl
	andl	%esi, %edx
	testb	%dl, %dl
	je	.L202
	.loc 1 351 25 is_stmt 0
	movq	%rax, %rdi
	call	__asan_report_store4@PLT
.L202:
	.loc 1 351 25 discriminator 1
	movq	-104(%rbp), %rax
	movl	$1, 20(%rax)
	.loc 1 353 22 is_stmt 1 discriminator 1
	movq	-104(%rbp), %rax
	movq	8(%rax), %rcx
	.loc 1 353 25 discriminator 1
	leaq	-32(%r12), %rax
	movq	%rax, %rdx
	movq	%rdx, %rax
	shrq	$3, %rax
	addq	$2147450880, %rax
	movzbl	(%rax), %eax
	testb	%al, %al
	setne	%sil
	cmpb	$3, %al
	setle	%al
	andl	%esi, %eax
	testb	%al, %al
	je	.L203
	.loc 1 353 25 is_stmt 0
	movq	%rdx, %rdi
	call	__asan_report_load4@PLT
.L203:
	.loc 1 353 25 discriminator 1
	movl	-32(%r12), %eax
	cltq
	.loc 1 353 22 is_stmt 1 discriminator 1
	addq	$1, %rax
	leaq	(%rcx,%rax), %rdx
	movq	-104(%rbp), %rax
	movq	%rdx, 8(%rax)
	.loc 1 355 13 discriminator 1
	jmp	.L196
.L200:
	.loc 1 358 18
	movq	-104(%rbp), %rax
	addq	$8, %rax
	movq	%rax, %rdx
	shrq	$3, %rdx
	addq	$2147450880, %rdx
	movzbl	(%rdx), %edx
	testb	%dl, %dl
	je	.L204
	movq	%rax, %rdi
	call	__asan_report_load8@PLT
.L204:
	movq	-104(%rbp), %rax
	movq	8(%rax), %rcx
	.loc 1 358 21
	leaq	-32(%r12), %rax
	movq	%rax, %rdx
	movq	%rdx, %rax
	shrq	$3, %rax
	addq	$2147450880, %rax
	movzbl	(%rax), %eax
	testb	%al, %al
	setne	%sil
	cmpb	$3, %al
	setle	%al
	andl	%esi, %eax
	testb	%al, %al
	je	.L205
	movq	%rdx, %rdi
	call	__asan_report_load4@PLT
.L205:
	movl	-32(%r12), %eax
	cltq
	.loc 1 358 18
	leaq	(%rcx,%rax), %rdx
	movq	-104(%rbp), %rax
	movq	%rdx, 8(%rax)
	.loc 1 359 21
	movq	-104(%rbp), %rax
	addq	$20, %rax
	movq	%rax, %rdx
	shrq	$3, %rdx
	addq	$2147450880, %rdx
	movzbl	(%rdx), %edx
	testb	%dl, %dl
	setne	%sil
	movq	%rax, %rcx
	andl	$7, %ecx
	addl	$3, %ecx
	cmpb	%dl, %cl
	setge	%dl
	andl	%esi, %edx
	testb	%dl, %dl
	je	.L206
	movq	%rax, %rdi
	call	__asan_report_load4@PLT
.L206:
	movq	-104(%rbp), %rax
	movl	20(%rax), %edx
	movl	-32(%r12), %eax
	addl	%eax, %edx
	movq	-104(%rbp), %rax
	movl	%edx, 20(%rax)
	.loc 1 361 11
	movl	$0, -32(%r12)
.L196:
	.loc 1 343 18
	movq	-104(%rbp), %rax
	addq	$8, %rax
	movq	%rax, %rdx
	shrq	$3, %rdx
	addq	$2147450880, %rdx
	movzbl	(%rdx), %edx
	testb	%dl, %dl
	je	.L207
	movq	%rax, %rdi
	call	__asan_report_load8@PLT
.L207:
	movq	-104(%rbp), %rax
	movq	8(%rax), %rdx
	.loc 1 343 12
	movq	%rdx, %rax
	movq	%rax, %rcx
	shrq	$3, %rcx
	addq	$2147450880, %rcx
	movzbl	(%rcx), %ecx
	testb	%cl, %cl
	setne	%sil
	movq	%rax, %rdi
	andl	$7, %edi
	cmpb	%cl, %dil
	setge	%cl
	andl	%esi, %ecx
	testb	%cl, %cl
	je	.L208
	movq	%rax, %rdi
	call	__asan_report_load1@PLT
.L208:
	movzbl	(%rdx), %eax
	.loc 1 344 30
	cmpb	$32, %al
	je	.L209
	.loc 1 343 38
	movq	-104(%rbp), %rax
	movq	8(%rax), %rdx
	.loc 1 343 32
	movq	%rdx, %rax
	movq	%rax, %rcx
	shrq	$3, %rcx
	addq	$2147450880, %rcx
	movzbl	(%rcx), %ecx
	testb	%cl, %cl
	setne	%sil
	movq	%rax, %rdi
	andl	$7, %edi
	cmpb	%cl, %dil
	setge	%cl
	andl	%esi, %ecx
	testb	%cl, %cl
	je	.L210
	movq	%rax, %rdi
	call	__asan_report_load1@PLT
.L210:
	movzbl	(%rdx), %eax
	.loc 1 343 29
	cmpb	$9, %al
	je	.L209
	.loc 1 344 18 discriminator 1
	movq	-104(%rbp), %rax
	movq	8(%rax), %rdx
	.loc 1 344 12 discriminator 1
	movq	%rdx, %rax
	movq	%rax, %rcx
	shrq	$3, %rcx
	addq	$2147450880, %rcx
	movzbl	(%rcx), %ecx
	testb	%cl, %cl
	setne	%sil
	movq	%rax, %rdi
	andl	$7, %edi
	cmpb	%cl, %dil
	setge	%cl
	andl	%esi, %ecx
	testb	%cl, %cl
	je	.L211
	.loc 1 344 12 is_stmt 0
	movq	%rax, %rdi
	call	__asan_report_load1@PLT
.L211:
	.loc 1 344 12 discriminator 1
	movzbl	(%rdx), %eax
	.loc 1 343 50 is_stmt 1 discriminator 1
	cmpb	$11, %al
	je	.L209
	.loc 1 344 39
	movq	-104(%rbp), %rax
	movq	8(%rax), %rdx
	.loc 1 344 33
	movq	%rdx, %rax
	movq	%rax, %rcx
	shrq	$3, %rcx
	addq	$2147450880, %rcx
	movzbl	(%rcx), %ecx
	testb	%cl, %cl
	setne	%sil
	movq	%rax, %rdi
	andl	$7, %edi
	cmpb	%cl, %dil
	setge	%cl
	andl	%esi, %ecx
	testb	%cl, %cl
	je	.L212
	movq	%rax, %rdi
	call	__asan_report_load1@PLT
.L212:
	movzbl	(%rdx), %eax
	.loc 1 344 30
	cmpb	$10, %al
	je	.L209
	.loc 1 370 5
	nop
	.loc 1 338 5
	cmpq	%rbx, %r14
	je	.L191
	movq	$1172321806, (%rbx)
	movabsq	$-723401728380766731, %rax
	movq	%rax, 2147450880(%r13)
	movq	56(%rbx), %rax
	movb	$0, (%rax)
	jmp	.L192
.L191:
	movq	$0, 2147450880(%r13)
.L192:
	.loc 1 371 5
	addq	$80, %rsp
	popq	%rbx
	popq	%r12
	popq	%r13
	popq	%r14
	popq	%rbp
	.cfi_def_cfa 7, 8
	ret
	.cfi_endproc
.LFE2286:
	.size	_Z16BufferSkipSpacesP6Buffer, .-_Z16BufferSkipSpacesP6Buffer
	.section	.rodata
	.align 32
.LC32:
	.string	"void BufferSkipCommentLine(Buffer*, char)"
	.zero	54
	.align 32
.LC33:
	.string	"%*[^\n]%n"
	.zero	55
	.text
	.globl	_Z21BufferSkipCommentLineP6Bufferc
	.type	_Z21BufferSkipCommentLineP6Bufferc, @function
_Z21BufferSkipCommentLineP6Bufferc:
.LASANPC2287:
.LFB2287:
	.loc 1 374 5
	.cfi_startproc
	endbr64
	pushq	%rbp
	.cfi_def_cfa_offset 16
	.cfi_offset 6, -16
	movq	%rsp, %rbp
	.cfi_def_cfa_register 6
	pushq	%r14
	pushq	%r13
	pushq	%r12
	pushq	%rbx
	subq	$80, %rsp
	.cfi_offset 14, -24
	.cfi_offset 13, -32
	.cfi_offset 12, -40
	.cfi_offset 3, -48
	movq	%rdi, -104(%rbp)
	movl	%esi, %eax
	movb	%al, -108(%rbp)
	leaq	-96(%rbp), %rbx
	movq	%rbx, %r14
	cmpl	$0, __asan_option_detect_stack_use_after_return(%rip)
	je	.L214
	movl	$64, %edi
	call	__asan_stack_malloc_0@PLT
	testq	%rax, %rax
	je	.L214
	movq	%rax, %rbx
.L214:
	leaq	64(%rbx), %rax
	movq	%rax, %r13
	movq	$1102416563, (%rbx)
	leaq	.LC7(%rip), %rax
	movq	%rax, 8(%rbx)
	leaq	.LASANPC2287(%rip), %rax
	movq	%rax, 16(%rbx)
	movq	%rbx, %r12
	shrq	$3, %r12
	movl	$-235802127, 2147450880(%r12)
	movl	$-202116348, 2147450884(%r12)
	.loc 1 375 6
	cmpq	$0, -104(%rbp)
	jne	.L218
	.loc 1 375 33 discriminator 1
	call	__asan_handle_no_return@PLT
	leaq	.LC32(%rip), %rax
	movq	%rax, %rcx
	movl	$375, %edx
	leaq	.LC4(%rip), %rax
	movq	%rax, %rsi
	leaq	.LC22(%rip), %rax
	movq	%rax, %rdi
	call	__assert_fail@PLT
.L218:
.LBB2:
	.loc 1 377 19
	movq	-104(%rbp), %rax
	movq	%rax, %rdi
	call	_Z10BufferLookP6Buffer
	.loc 1 377 28
	movsbl	-108(%rbp), %edx
	.loc 1 377 25
	cmpl	%edx, %eax
	sete	%al
	.loc 1 377 5
	testb	%al, %al
	je	.L227
.LBB3:
	.loc 1 379 13
	leaq	-32(%r13), %rax
	movq	%rax, %rdx
	movq	%rdx, %rax
	shrq	$3, %rax
	addq	$2147450880, %rax
	movzbl	(%rax), %eax
	testb	%al, %al
	setne	%cl
	cmpb	$3, %al
	setle	%al
	andl	%ecx, %eax
	testb	%al, %al
	je	.L220
	movq	%rdx, %rdi
	call	__asan_report_store4@PLT
.L220:
	movl	$0, -32(%r13)
	.loc 1 380 21
	movq	-104(%rbp), %rax
	addq	$8, %rax
	movq	%rax, %rdx
	shrq	$3, %rdx
	addq	$2147450880, %rdx
	movzbl	(%rdx), %edx
	testb	%dl, %dl
	je	.L221
	movq	%rax, %rdi
	call	__asan_report_load8@PLT
.L221:
	movq	-104(%rbp), %rax
	movq	8(%rax), %rax
	.loc 1 380 15
	leaq	-32(%r13), %rdx
	leaq	.LC33(%rip), %rcx
	movq	%rcx, %rsi
	movq	%rax, %rdi
	movl	$0, %eax
	call	__isoc99_sscanf@PLT
	.loc 1 382 18
	movq	-104(%rbp), %rax
	addq	$8, %rax
	movq	%rax, %rdx
	shrq	$3, %rdx
	addq	$2147450880, %rdx
	movzbl	(%rdx), %edx
	testb	%dl, %dl
	je	.L222
	movq	%rax, %rdi
	call	__asan_report_load8@PLT
.L222:
	movq	-104(%rbp), %rax
	movq	8(%rax), %rcx
	.loc 1 382 21
	leaq	-32(%r13), %rax
	movq	%rax, %rdx
	movq	%rdx, %rax
	shrq	$3, %rax
	addq	$2147450880, %rax
	movzbl	(%rax), %eax
	testb	%al, %al
	setne	%sil
	cmpb	$3, %al
	setle	%al
	andl	%esi, %eax
	testb	%al, %al
	je	.L223
	movq	%rdx, %rdi
	call	__asan_report_load4@PLT
.L223:
	movl	-32(%r13), %eax
	cltq
	.loc 1 382 18
	addq	$1, %rax
	leaq	(%rcx,%rax), %rdx
	movq	-104(%rbp), %rax
	movq	%rdx, 8(%rax)
	.loc 1 385 14
	movq	-104(%rbp), %rax
	addq	$16, %rax
	movq	%rax, %rdx
	movq	%rdx, %rax
	shrq	$3, %rax
	addq	$2147450880, %rax
	movzbl	(%rax), %eax
	testb	%al, %al
	setne	%cl
	cmpb	$3, %al
	setle	%al
	andl	%ecx, %eax
	testb	%al, %al
	je	.L224
	movq	%rdx, %rdi
	call	__asan_report_load4@PLT
.L224:
	movq	-104(%rbp), %rax
	movl	16(%rax), %eax
	.loc 1 385 29
	leal	1(%rax), %edx
	movq	-104(%rbp), %rax
	movl	%edx, 16(%rax)
	.loc 1 386 21
	movq	-104(%rbp), %rax
	addq	$20, %rax
	movq	%rax, %rdx
	shrq	$3, %rdx
	addq	$2147450880, %rdx
	movzbl	(%rdx), %edx
	testb	%dl, %dl
	setne	%sil
	movq	%rax, %rcx
	andl	$7, %ecx
	addl	$3, %ecx
	cmpb	%dl, %cl
	setge	%dl
	andl	%esi, %edx
	testb	%dl, %dl
	je	.L225
	movq	%rax, %rdi
	call	__asan_report_store4@PLT
.L225:
	movq	-104(%rbp), %rax
	movl	$1, 20(%rax)
.LBE3:
.LBE2:
	.loc 1 389 5
	nop
.L227:
	nop
	.loc 1 374 5
	cmpq	%rbx, %r14
	je	.L215
	movq	$1172321806, (%rbx)
	movabsq	$-723401728380766731, %rax
	movq	%rax, 2147450880(%r12)
	movq	56(%rbx), %rax
	movb	$0, (%rax)
	jmp	.L216
.L215:
	movq	$0, 2147450880(%r12)
.L216:
	.loc 1 390 5
	addq	$80, %rsp
	popq	%rbx
	popq	%r12
	popq	%r13
	popq	%r14
	popq	%rbp
	.cfi_def_cfa 7, 8
	ret
	.cfi_endproc
.LFE2287:
	.size	_Z21BufferSkipCommentLineP6Bufferc, .-_Z21BufferSkipCommentLineP6Bufferc
	.section	.rodata
	.align 32
.LC34:
	.string	"int BufferGetCh(Buffer*)"
	.zero	39
	.text
	.globl	_Z11BufferGetChP6Buffer
	.type	_Z11BufferGetChP6Buffer, @function
_Z11BufferGetChP6Buffer:
.LASANPC2288:
.LFB2288:
	.loc 1 393 5
	.cfi_startproc
	endbr64
	pushq	%rbp
	.cfi_def_cfa_offset 16
	.cfi_offset 6, -16
	movq	%rsp, %rbp
	.cfi_def_cfa_register 6
	subq	$16, %rsp
	movq	%rdi, -8(%rbp)
	.loc 1 394 6
	cmpq	$0, -8(%rbp)
	jne	.L229
	.loc 1 394 33 discriminator 1
	call	__asan_handle_no_return@PLT
	leaq	.LC34(%rip), %rax
	movq	%rax, %rcx
	movl	$394, %edx
	leaq	.LC4(%rip), %rax
	movq	%rax, %rsi
	leaq	.LC22(%rip), %rax
	movq	%rax, %rdi
	call	__assert_fail@PLT
.L229:
	.loc 1 396 21
	movq	-8(%rbp), %rax
	movq	%rax, %rdi
	call	_Z16BufferSkipSpacesP6Buffer
	.loc 1 398 10
	movq	-8(%rbp), %rax
	addq	$20, %rax
	movq	%rax, %rdx
	shrq	$3, %rdx
	addq	$2147450880, %rdx
	movzbl	(%rdx), %edx
	testb	%dl, %dl
	setne	%sil
	movq	%rax, %rcx
	andl	$7, %ecx
	addl	$3, %ecx
	cmpb	%dl, %cl
	setge	%dl
	andl	%esi, %edx
	testb	%dl, %dl
	je	.L230
	movq	%rax, %rdi
	call	__asan_report_load4@PLT
.L230:
	movq	-8(%rbp), %rax
	movl	20(%rax), %eax
	.loc 1 398 16
	leal	1(%rax), %edx
	movq	-8(%rbp), %rax
	movl	%edx, 20(%rax)
	.loc 1 400 19
	movq	-8(%rbp), %rax
	addq	$8, %rax
	movq	%rax, %rdx
	shrq	$3, %rdx
	addq	$2147450880, %rdx
	movzbl	(%rdx), %edx
	testb	%dl, %dl
	je	.L231
	movq	%rax, %rdi
	call	__asan_report_load8@PLT
.L231:
	movq	-8(%rbp), %rax
	movq	8(%rax), %rax
	.loc 1 400 22
	leaq	1(%rax), %rcx
	movq	-8(%rbp), %rdx
	movq	%rcx, 8(%rdx)
	.loc 1 400 12
	movq	%rax, %rdx
	movq	%rdx, %rcx
	shrq	$3, %rcx
	addq	$2147450880, %rcx
	movzbl	(%rcx), %ecx
	testb	%cl, %cl
	setne	%sil
	movq	%rdx, %rdi
	andl	$7, %edi
	cmpb	%cl, %dil
	setge	%cl
	andl	%esi, %ecx
	testb	%cl, %cl
	je	.L232
	movq	%rdx, %rdi
	call	__asan_report_load1@PLT
.L232:
	movzbl	(%rax), %eax
	.loc 1 400 24
	movsbl	%al, %eax
	.loc 1 401 5
	leave
	.cfi_def_cfa 7, 8
	ret
	.cfi_endproc
.LFE2288:
	.size	_Z11BufferGetChP6Buffer, .-_Z11BufferGetChP6Buffer
	.section	.rodata
	.align 32
.LC35:
	.string	"int BufferLook(Buffer*)"
	.zero	40
	.text
	.globl	_Z10BufferLookP6Buffer
	.type	_Z10BufferLookP6Buffer, @function
_Z10BufferLookP6Buffer:
.LASANPC2289:
.LFB2289:
	.loc 1 404 5
	.cfi_startproc
	endbr64
	pushq	%rbp
	.cfi_def_cfa_offset 16
	.cfi_offset 6, -16
	movq	%rsp, %rbp
	.cfi_def_cfa_register 6
	subq	$16, %rsp
	movq	%rdi, -8(%rbp)
	.loc 1 405 6
	cmpq	$0, -8(%rbp)
	jne	.L235
	.loc 1 405 33 discriminator 1
	call	__asan_handle_no_return@PLT
	leaq	.LC35(%rip), %rax
	movq	%rax, %rcx
	movl	$405, %edx
	leaq	.LC4(%rip), %rax
	movq	%rax, %rsi
	leaq	.LC22(%rip), %rax
	movq	%rax, %rdi
	call	__assert_fail@PLT
.L235:
	.loc 1 407 21
	movq	-8(%rbp), %rax
	movq	%rax, %rdi
	call	_Z16BufferSkipSpacesP6Buffer
	.loc 1 409 19
	movq	-8(%rbp), %rax
	addq	$8, %rax
	movq	%rax, %rdx
	shrq	$3, %rdx
	addq	$2147450880, %rdx
	movzbl	(%rdx), %edx
	testb	%dl, %dl
	je	.L236
	movq	%rax, %rdi
	call	__asan_report_load8@PLT
.L236:
	movq	-8(%rbp), %rax
	movq	8(%rax), %rdx
	.loc 1 409 12
	movq	%rdx, %rax
	movq	%rax, %rcx
	shrq	$3, %rcx
	addq	$2147450880, %rcx
	movzbl	(%rcx), %ecx
	testb	%cl, %cl
	setne	%sil
	movq	%rax, %rdi
	andl	$7, %edi
	cmpb	%cl, %dil
	setge	%cl
	andl	%esi, %ecx
	testb	%cl, %cl
	je	.L237
	movq	%rax, %rdi
	call	__asan_report_load1@PLT
.L237:
	movzbl	(%rdx), %eax
	.loc 1 409 22
	movsbl	%al, %eax
	.loc 1 410 5
	leave
	.cfi_def_cfa 7, 8
	ret
	.cfi_endproc
.LFE2289:
	.size	_Z10BufferLookP6Buffer, .-_Z10BufferLookP6Buffer
	.section	.rodata
	.align 32
.LC36:
	.string	"int BufferGetDouble(Buffer*, double*)"
	.zero	58
	.align 32
.LC37:
	.string	"%lg%n"
	.zero	58
	.text
	.globl	_Z15BufferGetDoubleP6BufferPd
	.type	_Z15BufferGetDoubleP6BufferPd, @function
_Z15BufferGetDoubleP6BufferPd:
.LASANPC2290:
.LFB2290:
	.loc 1 413 5
	.cfi_startproc
	endbr64
	pushq	%rbp
	.cfi_def_cfa_offset 16
	.cfi_offset 6, -16
	movq	%rsp, %rbp
	.cfi_def_cfa_register 6
	pushq	%r14
	pushq	%r13
	pushq	%r12
	pushq	%rbx
	subq	$80, %rsp
	.cfi_offset 14, -24
	.cfi_offset 13, -32
	.cfi_offset 12, -40
	.cfi_offset 3, -48
	movq	%rdi, -104(%rbp)
	movq	%rsi, -112(%rbp)
	leaq	-96(%rbp), %rbx
	movq	%rbx, %r14
	cmpl	$0, __asan_option_detect_stack_use_after_return(%rip)
	je	.L239
	movl	$64, %edi
	call	__asan_stack_malloc_0@PLT
	testq	%rax, %rax
	je	.L239
	movq	%rax, %rbx
.L239:
	leaq	64(%rbx), %rax
	movq	%rax, %r12
	movq	$1102416563, (%rbx)
	leaq	.LC7(%rip), %rax
	movq	%rax, 8(%rbx)
	leaq	.LASANPC2290(%rip), %rax
	movq	%rax, 16(%rbx)
	movq	%rbx, %r13
	shrq	$3, %r13
	movl	$-235802127, 2147450880(%r13)
	movl	$-202116348, 2147450884(%r13)
	.loc 1 414 6
	cmpq	$0, -104(%rbp)
	jne	.L243
	.loc 1 414 33 discriminator 1
	call	__asan_handle_no_return@PLT
	leaq	.LC36(%rip), %rax
	movq	%rax, %rcx
	movl	$414, %edx
	leaq	.LC4(%rip), %rax
	movq	%rax, %rsi
	leaq	.LC22(%rip), %rax
	movq	%rax, %rdi
	call	__assert_fail@PLT
.L243:
	.loc 1 419 9
	leaq	-32(%r12), %rax
	movq	%rax, %rdx
	movq	%rdx, %rax
	shrq	$3, %rax
	addq	$2147450880, %rax
	movzbl	(%rax), %eax
	testb	%al, %al
	setne	%cl
	cmpb	$3, %al
	setle	%al
	andl	%ecx, %eax
	testb	%al, %al
	je	.L244
	movq	%rdx, %rdi
	call	__asan_report_store4@PLT
.L244:
	movl	$0, -32(%r12)
	.loc 1 421 21
	movq	-104(%rbp), %rax
	addq	$8, %rax
	movq	%rax, %rdx
	shrq	$3, %rdx
	addq	$2147450880, %rdx
	movzbl	(%rdx), %edx
	testb	%dl, %dl
	je	.L245
	movq	%rax, %rdi
	call	__asan_report_load8@PLT
.L245:
	movq	-104(%rbp), %rax
	movq	8(%rax), %rax
	.loc 1 421 15
	leaq	-32(%r12), %rcx
	movq	-112(%rbp), %rdx
	leaq	.LC37(%rip), %rsi
	movq	%rax, %rdi
	movl	$0, %eax
	call	__isoc99_sscanf@PLT
	.loc 1 421 44
	testl	%eax, %eax
	sete	%al
	.loc 1 421 5
	testb	%al, %al
	je	.L246
	.loc 1 422 16
	leaq	-32(%r12), %rax
	movq	%rax, %rdx
	movq	%rdx, %rax
	shrq	$3, %rax
	addq	$2147450880, %rax
	movzbl	(%rax), %eax
	testb	%al, %al
	setne	%cl
	cmpb	$3, %al
	setle	%al
	andl	%ecx, %eax
	testb	%al, %al
	je	.L247
	movq	%rdx, %rdi
	call	__asan_report_load4@PLT
.L247:
	movl	-32(%r12), %eax
	jmp	.L252
.L246:
	.loc 1 424 14
	movq	-104(%rbp), %rax
	addq	$8, %rax
	movq	%rax, %rdx
	shrq	$3, %rdx
	addq	$2147450880, %rdx
	movzbl	(%rdx), %edx
	testb	%dl, %dl
	je	.L249
	movq	%rax, %rdi
	call	__asan_report_load8@PLT
.L249:
	movq	-104(%rbp), %rax
	movq	8(%rax), %rcx
	.loc 1 424 17
	leaq	-32(%r12), %rax
	movq	%rax, %rdx
	movq	%rdx, %rax
	shrq	$3, %rax
	addq	$2147450880, %rax
	movzbl	(%rax), %eax
	testb	%al, %al
	setne	%sil
	cmpb	$3, %al
	setle	%al
	andl	%esi, %eax
	testb	%al, %al
	je	.L250
	movq	%rdx, %rdi
	call	__asan_report_load4@PLT
.L250:
	movl	-32(%r12), %eax
	cltq
	.loc 1 424 14
	leaq	(%rcx,%rax), %rdx
	movq	-104(%rbp), %rax
	movq	%rdx, 8(%rax)
	.loc 1 425 17
	movq	-104(%rbp), %rax
	addq	$20, %rax
	movq	%rax, %rdx
	shrq	$3, %rdx
	addq	$2147450880, %rdx
	movzbl	(%rdx), %edx
	testb	%dl, %dl
	setne	%sil
	movq	%rax, %rcx
	andl	$7, %ecx
	addl	$3, %ecx
	cmpb	%dl, %cl
	setge	%dl
	andl	%esi, %edx
	testb	%dl, %dl
	je	.L251
	movq	%rax, %rdi
	call	__asan_report_load4@PLT
.L251:
	movq	-104(%rbp), %rax
	movl	20(%rax), %edx
	movl	-32(%r12), %eax
	addl	%eax, %edx
	movq	-104(%rbp), %rax
	movl	%edx, 20(%rax)
	.loc 1 427 12
	movl	-32(%r12), %eax
.L252:
	.loc 1 428 5 discriminator 1
	movl	%eax, %edx
	.loc 1 413 5 discriminator 1
	cmpq	%rbx, %r14
	je	.L240
	.loc 1 413 5 is_stmt 0
	movq	$1172321806, (%rbx)
	movabsq	$-723401728380766731, %rax
	movq	%rax, 2147450880(%r13)
	movq	56(%rbx), %rax
	movb	$0, (%rax)
	jmp	.L241
.L240:
	movq	$0, 2147450880(%r13)
.L241:
	.loc 1 428 5 is_stmt 1
	movl	%edx, %eax
	addq	$80, %rsp
	popq	%rbx
	popq	%r12
	popq	%r13
	popq	%r14
	popq	%rbp
	.cfi_def_cfa 7, 8
	ret
	.cfi_endproc
.LFE2290:
	.size	_Z15BufferGetDoubleP6BufferPd, .-_Z15BufferGetDoubleP6BufferPd
	.type	_Z41__static_initialization_and_destruction_0ii, @function
_Z41__static_initialization_and_destruction_0ii:
.LASANPC2957:
.LFB2957:
	.loc 1 428 5
	.cfi_startproc
	endbr64
	pushq	%rbp
	.cfi_def_cfa_offset 16
	.cfi_offset 6, -16
	movq	%rsp, %rbp
	.cfi_def_cfa_register 6
	subq	$16, %rsp
	movl	%edi, -4(%rbp)
	movl	%esi, -8(%rbp)
	.loc 1 428 5
	cmpl	$1, -4(%rbp)
	jne	.L256
	.loc 1 428 5 is_stmt 0 discriminator 1
	leaq	.LC4(%rip), %rax
	movq	%rax, %rdi
	call	__asan_before_dynamic_init@PLT
	cmpl	$65535, -8(%rbp)
	jne	.L255
	.file 2 "/usr/include/c++/11/iostream"
	.loc 2 74 25 is_stmt 1
	leaq	_ZStL8__ioinit(%rip), %rax
	movq	%rax, %rdi
	call	_ZNSt8ios_base4InitC1Ev@PLT
	leaq	__dso_handle(%rip), %rax
	movq	%rax, %rdx
	leaq	_ZStL8__ioinit(%rip), %rax
	movq	%rax, %rsi
	movq	_ZNSt8ios_base4InitD1Ev@GOTPCREL(%rip), %rax
	movq	%rax, %rdi
	call	__cxa_atexit@PLT
.L255:
	.loc 2 74 25 is_stmt 0 discriminator 1
	call	__asan_after_dynamic_init@PLT
.L256:
	.loc 1 428 5 is_stmt 1
	nop
	leave
	.cfi_def_cfa 7, 8
	ret
	.cfi_endproc
.LFE2957:
	.size	_Z41__static_initialization_and_destruction_0ii, .-_Z41__static_initialization_and_destruction_0ii
	.type	_GLOBAL__sub_I__Z10GetSrcFilePKc, @function
_GLOBAL__sub_I__Z10GetSrcFilePKc:
.LASANPC2958:
.LFB2958:
	.loc 1 428 5
	.cfi_startproc
	endbr64
	pushq	%rbp
	.cfi_def_cfa_offset 16
	.cfi_offset 6, -16
	movq	%rsp, %rbp
	.cfi_def_cfa_register 6
	.loc 1 428 5
	movl	$65535, %esi
	movl	$1, %edi
	call	_Z41__static_initialization_and_destruction_0ii
	popq	%rbp
	.cfi_def_cfa 7, 8
	ret
	.cfi_endproc
.LFE2958:
	.size	_GLOBAL__sub_I__Z10GetSrcFilePKc, .-_GLOBAL__sub_I__Z10GetSrcFilePKc
	.section	.init_array,"aw"
	.align 8
	.quad	_GLOBAL__sub_I__Z10GetSrcFilePKc
	.section	.rodata
	.align 8
.LC38:
	.string	"../ATC/RandomStuff/CommonEnums.h"
	.section	.data.rel.local,"aw"
	.align 16
	.type	.LASANLOC1, @object
	.size	.LASANLOC1, 16
.LASANLOC1:
	.quad	.LC38
	.long	3
	.long	11
	.section	.rodata
.LC39:
	.string	"../ATC/Logger/LogConfig.h"
	.section	.data.rel.local
	.align 16
	.type	.LASANLOC2, @object
	.size	.LASANLOC2, 16
.LASANLOC2:
	.quad	.LC39
	.long	3
	.long	12
	.section	.rodata
.LC40:
	.string	"/usr/include/c++/11/iostream"
	.section	.data.rel.local
	.align 16
	.type	.LASANLOC3, @object
	.size	.LASANLOC3, 16
.LASANLOC3:
	.quad	.LC40
	.long	74
	.long	25
	.section	.rodata
.LC41:
	.string	"../ATC/Buffer/my_buffer.h"
	.section	.data.rel.local
	.align 16
	.type	.LASANLOC4, @object
	.size	.LASANLOC4, 16
.LASANLOC4:
	.quad	.LC41
	.long	32
	.long	11
	.section	.rodata
.LC42:
	.string	"CRINGE"
.LC43:
	.string	"STD_LOG_NAME"
.LC44:
	.string	"__ioinit"
.LC45:
	.string	"INDENT_SIZE"
.LC46:
	.string	"*.LC26"
.LC47:
	.string	"*.LC9"
.LC48:
	.string	"*.LC3"
.LC49:
	.string	"*.LC20"
.LC50:
	.string	"*.LC32"
.LC51:
	.string	"*.LC11"
.LC52:
	.string	"*.LC30"
.LC53:
	.string	"*.LC18"
.LC54:
	.string	"*.LC23"
.LC55:
	.string	"*.LC5"
.LC56:
	.string	"*.LC6"
.LC57:
	.string	"*.LC4"
.LC58:
	.string	"*.LC31"
.LC59:
	.string	"*.LC12"
.LC60:
	.string	"*.LC15"
.LC61:
	.string	"*.LC33"
.LC62:
	.string	"*.LC34"
.LC63:
	.string	"*.LC29"
.LC64:
	.string	"*.LC25"
.LC65:
	.string	"*.LC17"
.LC66:
	.string	"*.LC37"
.LC67:
	.string	"*.LC35"
.LC68:
	.string	"*.LC8"
.LC69:
	.string	"*.LC27"
.LC70:
	.string	"*.LC22"
.LC71:
	.string	"*.LC36"
.LC72:
	.string	"*.LC24"
.LC73:
	.string	"*.LC13"
.LC74:
	.string	"*.LC14"
.LC75:
	.string	"*.LC28"
.LC76:
	.string	"*.LC2"
.LC77:
	.string	"*.LC1"
.LC78:
	.string	"*.LC19"
.LC79:
	.string	"*.LC10"
	.section	.data.rel.local
	.align 32
	.type	.LASAN0, @object
	.size	.LASAN0, 2432
.LASAN0:
	.quad	_ZL6CRINGE
	.quad	4
	.quad	64
	.quad	.LC42
	.quad	.LC4
	.quad	0
	.quad	.LASANLOC1
	.quad	0
	.quad	_ZL12STD_LOG_NAME
	.quad	18
	.quad	64
	.quad	.LC43
	.quad	.LC4
	.quad	0
	.quad	.LASANLOC2
	.quad	0
	.quad	_ZStL8__ioinit
	.quad	1
	.quad	64
	.quad	.LC44
	.quad	.LC4
	.quad	1
	.quad	.LASANLOC3
	.quad	0
	.quad	_ZL11INDENT_SIZE
	.quad	4
	.quad	64
	.quad	.LC45
	.quad	.LC4
	.quad	0
	.quad	.LASANLOC4
	.quad	0
	.quad	.LC26
	.quad	22
	.quad	64
	.quad	.LC46
	.quad	.LC4
	.quad	0
	.quad	0
	.quad	0
	.quad	.LC9
	.quad	3
	.quad	64
	.quad	.LC47
	.quad	.LC4
	.quad	0
	.quad	0
	.quad	0
	.quad	.LC3
	.quad	11
	.quad	64
	.quad	.LC48
	.quad	.LC4
	.quad	0
	.quad	0
	.quad	0
	.quad	.LC20
	.quad	24
	.quad	64
	.quad	.LC49
	.quad	.LC4
	.quad	0
	.quad	0
	.quad	0
	.quad	.LC32
	.quad	42
	.quad	96
	.quad	.LC50
	.quad	.LC4
	.quad	0
	.quad	0
	.quad	0
	.quad	.LC11
	.quad	3
	.quad	64
	.quad	.LC51
	.quad	.LC4
	.quad	0
	.quad	0
	.quad	0
	.quad	.LC30
	.quad	31
	.quad	64
	.quad	.LC52
	.quad	.LC4
	.quad	0
	.quad	0
	.quad	0
	.quad	.LC18
	.quad	28
	.quad	64
	.quad	.LC53
	.quad	.LC4
	.quad	0
	.quad	0
	.quad	0
	.quad	.LC23
	.quad	37
	.quad	96
	.quad	.LC54
	.quad	.LC4
	.quad	0
	.quad	0
	.quad	0
	.quad	.LC5
	.quad	22
	.quad	64
	.quad	.LC55
	.quad	.LC4
	.quad	0
	.quad	0
	.quad	0
	.quad	.LC6
	.quad	21
	.quad	64
	.quad	.LC56
	.quad	.LC4
	.quad	0
	.quad	0
	.quad	0
	.quad	.LC4
	.quad	28
	.quad	64
	.quad	.LC57
	.quad	.LC4
	.quad	0
	.quad	0
	.quad	0
	.quad	.LC31
	.quad	10
	.quad	64
	.quad	.LC58
	.quad	.LC4
	.quad	0
	.quad	0
	.quad	0
	.quad	.LC12
	.quad	3
	.quad	64
	.quad	.LC59
	.quad	.LC4
	.quad	0
	.quad	0
	.quad	0
	.quad	.LC15
	.quad	4
	.quad	64
	.quad	.LC60
	.quad	.LC4
	.quad	0
	.quad	0
	.quad	0
	.quad	.LC33
	.quad	9
	.quad	64
	.quad	.LC61
	.quad	.LC4
	.quad	0
	.quad	0
	.quad	0
	.quad	.LC34
	.quad	25
	.quad	64
	.quad	.LC62
	.quad	.LC4
	.quad	0
	.quad	0
	.quad	0
	.quad	.LC29
	.quad	10
	.quad	64
	.quad	.LC63
	.quad	.LC4
	.quad	0
	.quad	0
	.quad	0
	.quad	.LC25
	.quad	29
	.quad	64
	.quad	.LC64
	.quad	.LC4
	.quad	0
	.quad	0
	.quad	0
	.quad	.LC17
	.quad	11
	.quad	64
	.quad	.LC65
	.quad	.LC4
	.quad	0
	.quad	0
	.quad	0
	.quad	.LC37
	.quad	6
	.quad	64
	.quad	.LC66
	.quad	.LC4
	.quad	0
	.quad	0
	.quad	0
	.quad	.LC35
	.quad	24
	.quad	64
	.quad	.LC67
	.quad	.LC4
	.quad	0
	.quad	0
	.quad	0
	.quad	.LC8
	.quad	11
	.quad	64
	.quad	.LC68
	.quad	.LC4
	.quad	0
	.quad	0
	.quad	0
	.quad	.LC27
	.quad	36
	.quad	96
	.quad	.LC69
	.quad	.LC4
	.quad	0
	.quad	0
	.quad	0
	.quad	.LC22
	.quad	4
	.quad	64
	.quad	.LC70
	.quad	.LC4
	.quad	0
	.quad	0
	.quad	0
	.quad	.LC36
	.quad	38
	.quad	96
	.quad	.LC71
	.quad	.LC4
	.quad	0
	.quad	0
	.quad	0
	.quad	.LC24
	.quad	64
	.quad	96
	.quad	.LC72
	.quad	.LC4
	.quad	0
	.quad	0
	.quad	0
	.quad	.LC13
	.quad	3
	.quad	64
	.quad	.LC73
	.quad	.LC4
	.quad	0
	.quad	0
	.quad	0
	.quad	.LC14
	.quad	1
	.quad	64
	.quad	.LC74
	.quad	.LC4
	.quad	0
	.quad	0
	.quad	0
	.quad	.LC28
	.quad	33
	.quad	96
	.quad	.LC75
	.quad	.LC4
	.quad	0
	.quad	0
	.quad	0
	.quad	.LC2
	.quad	29
	.quad	64
	.quad	.LC76
	.quad	.LC4
	.quad	0
	.quad	0
	.quad	0
	.quad	.LC1
	.quad	3
	.quad	64
	.quad	.LC77
	.quad	.LC4
	.quad	0
	.quad	0
	.quad	0
	.quad	.LC19
	.quad	22
	.quad	64
	.quad	.LC78
	.quad	.LC4
	.quad	0
	.quad	0
	.quad	0
	.quad	.LC10
	.quad	3
	.quad	64
	.quad	.LC79
	.quad	.LC4
	.quad	0
	.quad	0
	.quad	0
	.text
	.type	_sub_D_00099_0, @function
_sub_D_00099_0:
.LFB2959:
	.cfi_startproc
	endbr64
	pushq	%rbp
	.cfi_def_cfa_offset 16
	.cfi_offset 6, -16
	movq	%rsp, %rbp
	.cfi_def_cfa_register 6
	movl	$38, %esi
	leaq	.LASAN0(%rip), %rax
	movq	%rax, %rdi
	call	__asan_unregister_globals@PLT
	popq	%rbp
	.cfi_def_cfa 7, 8
	ret
	.cfi_endproc
.LFE2959:
	.size	_sub_D_00099_0, .-_sub_D_00099_0
	.section	.fini_array.00099,"aw"
	.align 8
	.quad	_sub_D_00099_0
	.text
	.type	_sub_I_00099_1, @function
_sub_I_00099_1:
.LFB2960:
	.cfi_startproc
	endbr64
	pushq	%rbp
	.cfi_def_cfa_offset 16
	.cfi_offset 6, -16
	movq	%rsp, %rbp
	.cfi_def_cfa_register 6
	call	__asan_init@PLT
	call	__asan_version_mismatch_check_v8@PLT
	movl	$38, %esi
	leaq	.LASAN0(%rip), %rax
	movq	%rax, %rdi
	call	__asan_register_globals@PLT
	popq	%rbp
	.cfi_def_cfa 7, 8
	ret
	.cfi_endproc
.LFE2960:
	.size	_sub_I_00099_1, .-_sub_I_00099_1
	.section	.init_array.00099,"aw"
	.align 8
	.quad	_sub_I_00099_1
	.text
.Letext0:
	.file 3 "/usr/lib/gcc/x86_64-linux-gnu/11/include/stddef.h"
	.file 4 "/usr/include/stdlib.h"
	.file 5 "/usr/include/x86_64-linux-gnu/bits/types.h"
	.file 6 "/usr/include/x86_64-linux-gnu/bits/stdint-intn.h"
	.file 7 "/usr/include/x86_64-linux-gnu/bits/types/struct_timespec.h"
	.file 8 "/usr/include/c++/11/cstdlib"
	.file 9 "/usr/include/c++/11/bits/std_abs.h"
	.file 10 "/usr/include/c++/11/cwchar"
	.file 11 "/usr/include/c++/11/type_traits"
	.file 12 "/usr/include/c++/11/bits/exception_ptr.h"
	.file 13 "/usr/include/x86_64-linux-gnu/c++/11/bits/c++config.h"
	.file 14 "/usr/include/c++/11/concepts"
	.file 15 "/usr/include/c++/11/bits/iterator_concepts.h"
	.file 16 "/usr/include/c++/11/bits/ranges_cmp.h"
	.file 17 "/usr/include/c++/11/compare"
	.file 18 "/usr/include/c++/11/debug/debug.h"
	.file 19 "/usr/include/c++/11/cstdint"
	.file 20 "/usr/include/c++/11/clocale"
	.file 21 "/usr/include/c++/11/numbers"
	.file 22 "/usr/include/c++/11/cstdio"
	.file 23 "/usr/include/c++/11/bits/ios_base.h"
	.file 24 "/usr/include/c++/11/cwctype"
	.file 25 "/usr/include/c++/11/bits/predefined_ops.h"
	.file 26 "/usr/include/c++/11/stdlib.h"
	.file 27 "<built-in>"
	.file 28 "/usr/include/x86_64-linux-gnu/bits/types/__mbstate_t.h"
	.file 29 "/usr/include/x86_64-linux-gnu/bits/types/__fpos_t.h"
	.file 30 "/usr/include/x86_64-linux-gnu/bits/types/__FILE.h"
	.file 31 "/usr/include/x86_64-linux-gnu/bits/types/struct_FILE.h"
	.file 32 "/usr/include/x86_64-linux-gnu/bits/types/FILE.h"
	.file 33 "/usr/include/stdio.h"
	.file 34 "../ATC/Buffer/my_buffer.h"
	.file 35 "/usr/include/x86_64-linux-gnu/bits/struct_stat.h"
	.file 36 "/usr/include/x86_64-linux-gnu/bits/types/wint_t.h"
	.file 37 "/usr/include/x86_64-linux-gnu/bits/types/mbstate_t.h"
	.file 38 "/usr/include/wchar.h"
	.file 39 "/usr/include/x86_64-linux-gnu/bits/types/struct_tm.h"
	.file 40 "/usr/include/c++/11/bits/ptr_traits.h"
	.file 41 "/usr/include/x86_64-linux-gnu/bits/stdint-uintn.h"
	.file 42 "/usr/include/stdint.h"
	.file 43 "/usr/include/locale.h"
	.file 44 "/usr/include/x86_64-linux-gnu/bits/wctype-wchar.h"
	.file 45 "/usr/include/wctype.h"
	.file 46 "../ATC/Logger/LogConfig.h"
	.file 47 "../ATC/Logger/FunctionLogger.h"
	.file 48 "../ATC/RandomStuff/CommonEnums.h"
	.file 49 "/usr/include/assert.h"
	.file 50 "/usr/include/string.h"
	.file 51 "../ATC/Logger/Logger.h"
	.file 52 "/usr/include/ctype.h"
	.file 53 "/usr/include/x86_64-linux-gnu/sys/stat.h"
	.file 54 "/usr/include/c++/11/bits/algorithmfwd.h"
	.section	.data.rel.local.DW.ref.__gxx_personality_v0,"awG",@progbits,DW.ref.__gxx_personality_v0,comdat
	.align 8
	.type	DW.ref.__gxx_personality_v0, @object
	.size	DW.ref.__gxx_personality_v0, 8
DW.ref.__gxx_personality_v0:
	.quad	__gxx_personality_v0
	.hidden	__dso_handle
	.ident	"GCC: (Ubuntu 11.3.0-1ubuntu1~22.04) 11.3.0"
	.section	.note.GNU-stack,"",@progbits
	.section	.note.gnu.property,"a"
	.align 8
	.long	1f - 0f
	.long	4f - 1f
	.long	5
0:
	.string	"GNU"
1:
	.align 8
	.long	0xc0000002
	.long	3f - 2f
2:
	.long	0x3
3:
	.align 8
4:
