	.file	"NameTable.cpp"
	.text
.Ltext0:
	.file 0 "/home/arsenyfucker/Cprojects/Lang/Translator/BackEnd" "../Common/Structures/Tabels/NameTable.cpp"
	.bss
	.align 32
	.type	_ZStL8__ioinit, @object
	.size	_ZStL8__ioinit, 1
_ZStL8__ioinit:
	.zero	64
	.section	.rodata
	.align 32
	.type	_ZL12STD_LOG_NAME, @object
	.size	_ZL12STD_LOG_NAME, 18
_ZL12STD_LOG_NAME:
	.string	"./logs/stdlog.ars"
	.zero	46
	.align 32
	.type	_ZL6CRINGE, @object
	.size	_ZL6CRINGE, 4
_ZL6CRINGE:
	.long	3565
	.zero	60
	.align 32
	.type	_ZL11INDENT_SIZE, @object
	.size	_ZL11INDENT_SIZE, 4
_ZL11INDENT_SIZE:
	.long	2
	.zero	60
	.align 32
	.type	_ZL11GROWTH_RATE, @object
	.size	_ZL11GROWTH_RATE, 4
_ZL11GROWTH_RATE:
	.long	2
	.zero	60
	.align 32
	.type	_ZL20START_LABEL_ARR_SIZE, @object
	.size	_ZL20START_LABEL_ARR_SIZE, 4
_ZL20START_LABEL_ARR_SIZE:
	.long	10
	.zero	60
	.align 32
.LC0:
	.string	"NewNameTable"
	.zero	51
	.align 32
.LC1:
	.string	"../Common/Structures/Tabels/NameTable.cpp"
	.zero	54
	.text
	.globl	_Z12NewNameTablev
	.type	_Z12NewNameTablev, @function
_Z12NewNameTablev:
.LASANPC2270:
.LFB2270:
	.file 1 "../Common/Structures/Tabels/NameTable.cpp"
	.loc 1 17 5
	.cfi_startproc
	endbr64
	pushq	%rbp
	.cfi_def_cfa_offset 16
	.cfi_offset 6, -16
	movq	%rsp, %rbp
	.cfi_def_cfa_register 6
	subq	$16, %rsp
	.loc 1 18 56
	call	_ZN6Logger11getInstanceEv@PLT
	movq	%rax, %rdi
	.loc 1 18 67
	movl	$18, %r9d
	leaq	.LC0(%rip), %r8
	leaq	.LC1(%rip), %rax
	movq	%rax, %rcx
	movl	$24, %edx
	movl	$1, %esi
	call	_ZN6Logger7CAL_LOGEmmPKcS1_i@PLT
	movq	%rax, -8(%rbp)
	.loc 1 19 5
	cmpq	$0, -8(%rbp)
	jne	.L2
	.loc 1 20 15
	movl	$0, %eax
	jmp	.L3
.L2:
	.loc 1 22 23
	movq	-8(%rbp), %rax
	addq	$8, %rax
	movq	%rax, %rdx
	shrq	$3, %rdx
	addq	$2147450880, %rdx
	movzbl	(%rdx), %edx
	testb	%dl, %dl
	je	.L4
	movq	%rax, %rdi
	call	__asan_report_store8@PLT
.L4:
	movq	-8(%rbp), %rax
	movq	$10, 8(%rax)
	.loc 1 24 55
	call	_ZN6Logger11getInstanceEv@PLT
	movq	%rax, %rdi
	.loc 1 24 66
	movq	-8(%rbp), %rax
	addq	$8, %rax
	movq	%rax, %rdx
	shrq	$3, %rdx
	addq	$2147450880, %rdx
	movzbl	(%rdx), %edx
	testb	%dl, %dl
	je	.L5
	movq	%rax, %rdi
	call	__asan_report_load8@PLT
.L5:
	movq	-8(%rbp), %rax
	movq	8(%rax), %rax
	movl	$24, %r9d
	leaq	.LC0(%rip), %r8
	leaq	.LC1(%rip), %rdx
	movq	%rdx, %rcx
	movl	$8, %edx
	movq	%rax, %rsi
	call	_ZN6Logger7CAL_LOGEmmPKcS1_i@PLT
	.loc 1 24 24
	movq	-8(%rbp), %rdx
	movq	%rdx, %rcx
	shrq	$3, %rcx
	addq	$2147450880, %rcx
	movzbl	(%rcx), %ecx
	testb	%cl, %cl
	je	.L6
	movq	%rdx, %rdi
	call	__asan_report_store8@PLT
.L6:
	movq	-8(%rbp), %rdx
	movq	%rax, (%rdx)
	.loc 1 25 18
	movq	-8(%rbp), %rax
	movq	(%rax), %rax
	.loc 1 25 5
	testq	%rax, %rax
	jne	.L7
	.loc 1 27 28
	call	_ZN6Logger11getInstanceEv@PLT
	movq	%rax, %rdi
	.loc 1 27 40
	movq	-8(%rbp), %rax
	movl	$27, %r8d
	leaq	.LC0(%rip), %rdx
	movq	%rdx, %rcx
	leaq	.LC1(%rip), %rdx
	movq	%rax, %rsi
	call	_ZN6Logger8FREE_LOGEPvPKcS2_i@PLT
	.loc 1 28 15
	movl	$0, %eax
	jmp	.L3
.L7:
	.loc 1 31 31
	movq	-8(%rbp), %rax
	addq	$16, %rax
	movq	%rax, %rdx
	shrq	$3, %rdx
	addq	$2147450880, %rdx
	movzbl	(%rdx), %edx
	testb	%dl, %dl
	je	.L8
	movq	%rax, %rdi
	call	__asan_report_store8@PLT
.L8:
	movq	-8(%rbp), %rax
	movq	$0, 16(%rax)
	.loc 1 33 12
	movq	-8(%rbp), %rax
.L3:
	.loc 1 34 5
	leave
	.cfi_def_cfa 7, 8
	ret
	.cfi_endproc
.LFE2270:
	.size	_Z12NewNameTablev, .-_Z12NewNameTablev
	.section	.rodata
	.align 32
.LC2:
	.string	"table"
	.zero	58
	.align 32
.LC3:
	.string	"ASSERTLOG:: Condition (%s) is false\n"
	.zero	59
	.align 32
.LC4:
	.string	"\033[93mASSERTLOG:: \033[0mCondition\033[95m (%s) \033[0mis \033[91mfalse\n\033[0m"
	.zero	32
	.align 32
.LC5:
	.string	"int CloseNameTable(NameTable*)"
	.zero	33
	.align 32
.LC6:
	.string	"\t%s:%d, function: %s\n"
	.zero	42
	.align 32
.LC7:
	.string	"It matches to error: (code %d) %s\n\n"
	.zero	60
	.align 32
.LC8:
	.string	"CloseNameTable"
	.zero	49
	.align 32
.LC9:
	.string	"Shutting down the system (%s:%d)"
	.zero	63
	.align 32
.LC10:
	.string	"echo LOX\n"
	.zero	54
	.align 32
.LC11:
	.string	"Failed (%s:%d, %s:%d)"
	.zero	42
	.align 32
.LC12:
	.string	"Tabel %p: Null label arr pointer\n"
	.zero	62
	.align 32
.LC13:
	.string	"table %p: arr_size (%zu) less than namber_of_labels (%zu)\n"
	.zero	37
	.align 32
.LC14:
	.string	"table %p: null label in label_arr (position %zu)\n"
	.zero	46
	.text
	.globl	_Z14CloseNameTableP9NameTable
	.type	_Z14CloseNameTableP9NameTable, @function
_Z14CloseNameTableP9NameTable:
.LASANPC2271:
.LFB2271:
	.loc 1 37 5
	.cfi_startproc
	endbr64
	pushq	%rbp
	.cfi_def_cfa_offset 16
	.cfi_offset 6, -16
	movq	%rsp, %rbp
	.cfi_def_cfa_register 6
	pushq	%rbx
	subq	$40, %rsp
	.cfi_offset 3, -24
	movq	%rdi, -40(%rbp)
	.loc 1 38 10
	cmpq	$0, -40(%rbp)
	jne	.L10
	.loc 1 38 45 discriminator 1
	call	_ZN6Logger11getInstanceEv@PLT
	movq	%rax, %rcx
	.loc 1 38 51 discriminator 1
	leaq	.LC2(%rip), %rax
	movq	%rax, %rdx
	leaq	.LC3(%rip), %rax
	movq	%rax, %rsi
	movq	%rcx, %rdi
	movl	$0, %eax
	call	_ZN6Logger3logEPKcz@PLT
	.loc 1 38 109 discriminator 1
	leaq	.LC2(%rip), %rax
	movq	%rax, %rsi
	leaq	.LC4(%rip), %rax
	movq	%rax, %rdi
	movl	$0, %eax
	call	printf@PLT
	.loc 1 38 255 discriminator 1
	call	_ZN6Logger11getInstanceEv@PLT
	movq	%rax, %rdi
	.loc 1 38 261 discriminator 1
	leaq	.LC5(%rip), %r8
	movl	$38, %ecx
	leaq	.LC1(%rip), %rax
	movq	%rax, %rdx
	leaq	.LC6(%rip), %rax
	movq	%rax, %rsi
	movl	$0, %eax
	call	_ZN6Logger3logEPKcz@PLT
	.loc 1 38 366 discriminator 1
	leaq	.LC5(%rip), %rax
	movq	%rax, %rcx
	movl	$38, %edx
	leaq	.LC1(%rip), %rax
	movq	%rax, %rsi
	leaq	.LC6(%rip), %rax
	movq	%rax, %rdi
	movl	$0, %eax
	call	printf@PLT
	.loc 1 38 484 discriminator 1
	call	_ZN6Logger11getInstanceEv@PLT
	movq	%rax, %rbx
	.loc 1 38 490 discriminator 1
	movl	$14, %edi
	call	strerror@PLT
	movq	%rax, %rcx
	movl	$14, %edx
	leaq	.LC7(%rip), %rax
	movq	%rax, %rsi
	movq	%rbx, %rdi
	movl	$0, %eax
	call	_ZN6Logger3logEPKcz@PLT
	.loc 1 38 27 discriminator 1
	call	_ZN6Logger11getInstanceEv@PLT
	movq	%rax, %rdi
	.loc 1 38 33 discriminator 1
	movl	$38, %ecx
	leaq	.LC8(%rip), %rax
	movq	%rax, %rdx
	leaq	.LC9(%rip), %rax
	movq	%rax, %rsi
	movl	$0, %eax
	call	_ZN6Logger3logEPKcz@PLT
	.loc 1 38 91 discriminator 1
	leaq	.LC10(%rip), %rax
	movq	%rax, %rdi
	call	system@PLT
	.loc 1 38 133 discriminator 1
	call	_ZN6Logger11getInstanceEv@PLT
	.loc 1 38 155 discriminator 1
	call	_ZN6Logger11getInstanceEv@PLT
	movq	%rax, %rdi
	.loc 1 38 168 discriminator 1
	subq	$8, %rsp
	pushq	$38
	leaq	.LC8(%rip), %r9
	movl	$38, %r8d
	leaq	.LC1(%rip), %rax
	movq	%rax, %rcx
	leaq	.LC11(%rip), %rax
	movq	%rax, %rdx
	movl	$-1, %esi
	movl	$0, %eax
	call	_ZN6Logger9LogMsgRetEiPKcz@PLT
	addq	$16, %rsp
	.loc 1 38 265 discriminator 1
	jmp	.L11
.L10:
	.loc 1 40 18
	movq	-40(%rbp), %rax
	movq	%rax, %rdx
	shrq	$3, %rdx
	addq	$2147450880, %rdx
	movzbl	(%rdx), %edx
	testb	%dl, %dl
	je	.L12
	movq	%rax, %rdi
	call	__asan_report_load8@PLT
.L12:
	movq	-40(%rbp), %rax
	movq	(%rax), %rax
	.loc 1 40 5
	testq	%rax, %rax
	jne	.L13
	.loc 1 42 15
	movq	-40(%rbp), %rax
	movq	%rax, %rsi
	leaq	.LC12(%rip), %rax
	movq	%rax, %rdi
	movl	$0, %eax
	call	printf@PLT
	.loc 1 43 16
	movl	$-1, %eax
	jmp	.L11
.L13:
	.loc 1 46 17
	movq	-40(%rbp), %rax
	addq	$8, %rax
	movq	%rax, %rdx
	shrq	$3, %rdx
	addq	$2147450880, %rdx
	movzbl	(%rdx), %edx
	testb	%dl, %dl
	je	.L14
	movq	%rax, %rdi
	call	__asan_report_load8@PLT
.L14:
	movq	-40(%rbp), %rax
	movq	8(%rax), %rcx
	.loc 1 46 37
	movq	-40(%rbp), %rax
	addq	$16, %rax
	movq	%rax, %rdx
	shrq	$3, %rdx
	addq	$2147450880, %rdx
	movzbl	(%rdx), %edx
	testb	%dl, %dl
	je	.L15
	movq	%rax, %rdi
	call	__asan_report_load8@PLT
.L15:
	movq	-40(%rbp), %rax
	movq	16(%rax), %rax
	.loc 1 46 5
	cmpq	%rax, %rcx
	jnb	.L16
	.loc 1 48 15
	movq	-40(%rbp), %rax
	movq	16(%rax), %rcx
	movq	-40(%rbp), %rax
	movq	8(%rax), %rdx
	movq	-40(%rbp), %rax
	movq	%rax, %rsi
	leaq	.LC13(%rip), %rax
	movq	%rax, %rdi
	movl	$0, %eax
	call	printf@PLT
	.loc 1 51 16
	movl	$-1, %eax
	jmp	.L11
.L16:
.LBB2:
	.loc 1 54 17
	movq	$0, -24(%rbp)
	.loc 1 54 5
	jmp	.L17
.L23:
	.loc 1 56 23
	movq	-40(%rbp), %rax
	movq	%rax, %rdx
	shrq	$3, %rdx
	addq	$2147450880, %rdx
	movzbl	(%rdx), %edx
	testb	%dl, %dl
	je	.L18
	movq	%rax, %rdi
	call	__asan_report_load8@PLT
.L18:
	movq	-40(%rbp), %rax
	movq	(%rax), %rdx
	.loc 1 56 34
	movq	-24(%rbp), %rax
	salq	$3, %rax
	addq	%rdx, %rax
	.loc 1 56 9
	testq	%rax, %rax
	jne	.L19
	.loc 1 58 20
	movq	-24(%rbp), %rdx
	movq	-40(%rbp), %rax
	movq	%rax, %rsi
	leaq	.LC14(%rip), %rax
	movq	%rax, %rdi
	movl	$0, %eax
	call	printf@PLT
	.loc 1 60 20
	movl	$-1, %eax
	jmp	.L11
.L19:
	.loc 1 64 28 discriminator 2
	call	_ZN6Logger11getInstanceEv@PLT
	movq	%rax, %rdi
	.loc 1 64 49 discriminator 2
	movq	-40(%rbp), %rax
	movq	%rax, %rdx
	shrq	$3, %rdx
	addq	$2147450880, %rdx
	movzbl	(%rdx), %edx
	testb	%dl, %dl
	je	.L20
	.loc 1 64 49 is_stmt 0
	movq	%rax, %rdi
	call	__asan_report_load8@PLT
.L20:
	.loc 1 64 49 discriminator 2
	movq	-40(%rbp), %rax
	movq	(%rax), %rdx
	.loc 1 64 61 is_stmt 1 discriminator 2
	movq	-24(%rbp), %rax
	salq	$3, %rax
	addq	%rdx, %rax
	.loc 1 64 40 discriminator 2
	movq	%rax, %rdx
	movq	%rdx, %rcx
	shrq	$3, %rcx
	addq	$2147450880, %rcx
	movzbl	(%rcx), %ecx
	testb	%cl, %cl
	je	.L21
	.loc 1 64 40 is_stmt 0
	movq	%rdx, %rdi
	call	__asan_report_load8@PLT
.L21:
	.loc 1 64 40 discriminator 2
	movq	(%rax), %rax
	movl	$64, %r8d
	leaq	.LC8(%rip), %rdx
	movq	%rdx, %rcx
	leaq	.LC1(%rip), %rdx
	movq	%rax, %rsi
	call	_ZN6Logger8FREE_LOGEPvPKcS2_i@PLT
	.loc 1 54 5 is_stmt 1 discriminator 2
	addq	$1, -24(%rbp)
.L17:
	.loc 1 54 36 discriminator 1
	movq	-40(%rbp), %rax
	addq	$16, %rax
	movq	%rax, %rdx
	shrq	$3, %rdx
	addq	$2147450880, %rdx
	movzbl	(%rdx), %edx
	testb	%dl, %dl
	je	.L22
	.loc 1 54 36 is_stmt 0
	movq	%rax, %rdi
	call	__asan_report_load8@PLT
.L22:
	.loc 1 54 36 discriminator 1
	movq	-40(%rbp), %rax
	movq	16(%rax), %rax
	.loc 1 54 26 is_stmt 1 discriminator 1
	cmpq	%rax, -24(%rbp)
	jb	.L23
.LBE2:
	.loc 1 67 24
	call	_ZN6Logger11getInstanceEv@PLT
	movq	%rax, %rdi
	.loc 1 67 45
	movq	-40(%rbp), %rax
	movq	%rax, %rdx
	shrq	$3, %rdx
	addq	$2147450880, %rdx
	movzbl	(%rdx), %edx
	testb	%dl, %dl
	je	.L24
	movq	%rax, %rdi
	call	__asan_report_load8@PLT
.L24:
	movq	-40(%rbp), %rax
	movq	(%rax), %rax
	.loc 1 67 36
	movl	$67, %r8d
	leaq	.LC8(%rip), %rdx
	movq	%rdx, %rcx
	leaq	.LC1(%rip), %rdx
	movq	%rax, %rsi
	call	_ZN6Logger8FREE_LOGEPvPKcS2_i@PLT
	.loc 1 68 24
	call	_ZN6Logger11getInstanceEv@PLT
	movq	%rax, %rdi
	.loc 1 68 36
	movq	-40(%rbp), %rax
	movl	$68, %r8d
	leaq	.LC8(%rip), %rdx
	movq	%rdx, %rcx
	leaq	.LC1(%rip), %rdx
	movq	%rax, %rsi
	call	_ZN6Logger8FREE_LOGEPvPKcS2_i@PLT
	.loc 1 70 12
	movl	$0, %eax
.L11:
	.loc 1 71 5
	movq	-8(%rbp), %rbx
	leave
	.cfi_def_cfa 7, 8
	ret
	.cfi_endproc
.LFE2271:
	.size	_Z14CloseNameTableP9NameTable, .-_Z14CloseNameTableP9NameTable
	.globl	__asan_stack_malloc_1
	.section	.rodata
.LC15:
	.string	"1 32 24 10 func_75:75"
	.align 32
.LC16:
	.string	"IsLabel"
	.zero	56
	.align 32
.LC17:
	.string	"Label* IsLabel(int, int, NameTable*)"
	.zero	59
	.align 32
.LC18:
	.string	"\t%s: "
	.zero	58
	.align 32
.LC19:
	.string	"Empty label array in func table %p\n"
	.zero	60
	.align 32
.LC20:
	.string	" (%s:%d)\n"
	.zero	54
	.align 32
.LC21:
	.string	"type"
	.zero	59
	.align 32
.LC22:
	.string	"\t%s: %d\n"
	.zero	55
	.align 32
.LC23:
	.string	"name_id"
	.zero	56
	.text
	.globl	_Z7IsLabeliiP9NameTable
	.type	_Z7IsLabeliiP9NameTable, @function
_Z7IsLabeliiP9NameTable:
.LASANPC2272:
.LFB2272:
	.loc 1 74 5
	.cfi_startproc
	.cfi_personality 0x9b,DW.ref.__gxx_personality_v0
	.cfi_lsda 0x1b,.LLSDA2272
	endbr64
	pushq	%rbp
	.cfi_def_cfa_offset 16
	.cfi_offset 6, -16
	movq	%rsp, %rbp
	.cfi_def_cfa_register 6
	pushq	%r15
	pushq	%r14
	pushq	%r13
	pushq	%r12
	pushq	%rbx
	subq	$152, %rsp
	.cfi_offset 15, -24
	.cfi_offset 14, -32
	.cfi_offset 13, -40
	.cfi_offset 12, -48
	.cfi_offset 3, -56
	movl	%edi, -180(%rbp)
	movl	%esi, -184(%rbp)
	movq	%rdx, -192(%rbp)
	leaq	-144(%rbp), %rbx
	movq	%rbx, %r15
	cmpl	$0, __asan_option_detect_stack_use_after_return(%rip)
	je	.L25
	movl	$96, %edi
	call	__asan_stack_malloc_1@PLT
	testq	%rax, %rax
	je	.L25
	movq	%rax, %rbx
.L25:
	leaq	96(%rbx), %rax
	movq	%rax, %r13
	movq	$1102416563, (%rbx)
	leaq	.LC15(%rip), %rax
	movq	%rax, 8(%rbx)
	leaq	.LASANPC2272(%rip), %rax
	movq	%rax, 16(%rbx)
	movq	%rbx, %r12
	shrq	$3, %r12
	movl	$-235802127, 2147450880(%r12)
	movl	$-218103808, 2147450884(%r12)
	movl	$-202116109, 2147450888(%r12)
	.loc 1 75 40
	leaq	-64(%r13), %rax
	leaq	.LC16(%rip), %rdx
	movl	$1, %esi
	movq	%rax, %rdi
.LEHB0:
	call	_ZN14FunctionLoggerC1EiPKc@PLT
.LEHE0:
	.loc 1 76 10
	cmpq	$0, -192(%rbp)
	jne	.L29
.LEHB1:
	.loc 1 76 45 discriminator 1
	call	_ZN6Logger11getInstanceEv@PLT
	movq	%rax, %rcx
	.loc 1 76 51 discriminator 1
	leaq	.LC2(%rip), %rax
	movq	%rax, %rdx
	leaq	.LC3(%rip), %rax
	movq	%rax, %rsi
	movq	%rcx, %rdi
	movl	$0, %eax
	call	_ZN6Logger3logEPKcz@PLT
	.loc 1 76 109 discriminator 3
	leaq	.LC2(%rip), %rax
	movq	%rax, %rsi
	leaq	.LC4(%rip), %rax
	movq	%rax, %rdi
	movl	$0, %eax
	call	printf@PLT
	.loc 1 76 255 discriminator 4
	call	_ZN6Logger11getInstanceEv@PLT
	movq	%rax, %rdi
	.loc 1 76 261 discriminator 4
	leaq	.LC17(%rip), %r8
	movl	$76, %ecx
	leaq	.LC1(%rip), %rax
	movq	%rax, %rdx
	leaq	.LC6(%rip), %rax
	movq	%rax, %rsi
	movl	$0, %eax
	call	_ZN6Logger3logEPKcz@PLT
	.loc 1 76 366 discriminator 6
	leaq	.LC17(%rip), %rax
	movq	%rax, %rcx
	movl	$76, %edx
	leaq	.LC1(%rip), %rax
	movq	%rax, %rsi
	leaq	.LC6(%rip), %rax
	movq	%rax, %rdi
	movl	$0, %eax
	call	printf@PLT
	.loc 1 76 484 discriminator 7
	call	_ZN6Logger11getInstanceEv@PLT
	movq	%rax, %r14
	.loc 1 76 490 discriminator 7
	movl	$14, %edi
	call	strerror@PLT
	movq	%rax, %rcx
	movl	$14, %edx
	leaq	.LC7(%rip), %rax
	movq	%rax, %rsi
	movq	%r14, %rdi
	movl	$0, %eax
	call	_ZN6Logger3logEPKcz@PLT
	.loc 1 76 27 discriminator 9
	call	_ZN6Logger11getInstanceEv@PLT
	movq	%rax, %rdi
	.loc 1 76 33 discriminator 9
	movl	$76, %ecx
	leaq	.LC16(%rip), %rax
	movq	%rax, %rdx
	leaq	.LC9(%rip), %rax
	movq	%rax, %rsi
	movl	$0, %eax
	call	_ZN6Logger3logEPKcz@PLT
	.loc 1 76 91 discriminator 11
	leaq	.LC10(%rip), %rax
	movq	%rax, %rdi
	call	system@PLT
	.loc 1 76 4 discriminator 12
	movl	$0, %r14d
	jmp	.L30
.L29:
	.loc 1 78 12
	movq	-192(%rbp), %rax
	addq	$16, %rax
	movq	%rax, %rdx
	shrq	$3, %rdx
	addq	$2147450880, %rdx
	movzbl	(%rdx), %edx
	testb	%dl, %dl
	je	.L31
	movq	%rax, %rdi
	call	__asan_report_load8@PLT
.L31:
	movq	-192(%rbp), %rax
	movq	16(%rax), %rax
	movq	%rax, -160(%rbp)
	.loc 1 79 5
	cmpq	$0, -160(%rbp)
	jne	.L32
	.loc 1 80 15
	movl	$0, %r14d
	jmp	.L30
.L32:
	.loc 1 82 13
	movq	-192(%rbp), %rax
	movq	%rax, %rdx
	shrq	$3, %rdx
	addq	$2147450880, %rdx
	movzbl	(%rdx), %edx
	testb	%dl, %dl
	je	.L33
	movq	%rax, %rdi
	call	__asan_report_load8@PLT
.L33:
	movq	-192(%rbp), %rax
	movq	(%rax), %rax
	movq	%rax, -152(%rbp)
	.loc 1 83 5
	cmpq	$0, -152(%rbp)
	jne	.L34
	.loc 1 85 17
	leaq	.LC16(%rip), %rax
	movq	%rax, %rsi
	leaq	.LC18(%rip), %rax
	movq	%rax, %rdi
	movl	$0, %eax
	call	printf@PLT
	.loc 1 85 45 discriminator 1
	movq	-192(%rbp), %rax
	movq	%rax, %rsi
	leaq	.LC19(%rip), %rax
	movq	%rax, %rdi
	movl	$0, %eax
	call	printf@PLT
	.loc 1 85 108 discriminator 2
	movl	$85, %edx
	leaq	.LC1(%rip), %rax
	movq	%rax, %rsi
	leaq	.LC20(%rip), %rax
	movq	%rax, %rdi
	movl	$0, %eax
	call	printf@PLT
	.loc 1 86 15
	movl	$0, %r14d
	jmp	.L30
.L34:
	.loc 1 89 29
	call	_ZN6Logger11getInstanceEv@PLT
	movq	%rax, %rdi
	.loc 1 89 35
	movl	-184(%rbp), %eax
	movl	%eax, %ecx
	leaq	.LC21(%rip), %rax
	movq	%rax, %rdx
	leaq	.LC22(%rip), %rax
	movq	%rax, %rsi
	movl	$0, %eax
	call	_ZN6Logger3logEPKcz@PLT
	.loc 1 90 29
	call	_ZN6Logger11getInstanceEv@PLT
	movq	%rax, %rdi
	.loc 1 90 35
	movl	-180(%rbp), %eax
	movl	%eax, %ecx
	leaq	.LC23(%rip), %rax
	movq	%rax, %rdx
	leaq	.LC22(%rip), %rax
	movq	%rax, %rsi
	movl	$0, %eax
	call	_ZN6Logger3logEPKcz@PLT
.LEHE1:
.LBB3:
	.loc 1 91 16
	movq	$0, -168(%rbp)
	.loc 1 91 5
	jmp	.L35
.L42:
	.loc 1 93 37
	movq	-168(%rbp), %rax
	leaq	0(,%rax,8), %rdx
	movq	-152(%rbp), %rax
	addq	%rdx, %rax
	.loc 1 93 25
	movq	%rax, %rdx
	movq	%rdx, %rcx
	shrq	$3, %rcx
	addq	$2147450880, %rcx
	movzbl	(%rcx), %ecx
	testb	%cl, %cl
	je	.L36
	movq	%rdx, %rdi
	call	__asan_report_load8@PLT
.L36:
	movq	(%rax), %rdx
	.loc 1 93 44
	leaq	4(%rdx), %rax
	movq	%rax, %rcx
	shrq	$3, %rcx
	addq	$2147450880, %rcx
	movzbl	(%rcx), %ecx
	testb	%cl, %cl
	setne	%dil
	movq	%rax, %rsi
	andl	$7, %esi
	addl	$3, %esi
	cmpb	%cl, %sil
	setge	%cl
	andl	%edi, %ecx
	testb	%cl, %cl
	je	.L37
	movq	%rax, %rdi
	call	__asan_report_load4@PLT
.L37:
	movl	4(%rdx), %eax
	.loc 1 93 9
	cmpl	%eax, -180(%rbp)
	jne	.L38
	.loc 1 94 34 discriminator 1
	movq	-168(%rbp), %rax
	leaq	0(,%rax,8), %rdx
	movq	-152(%rbp), %rax
	addq	%rdx, %rax
	.loc 1 94 22 discriminator 1
	movq	%rax, %rdx
	movq	%rdx, %rcx
	shrq	$3, %rcx
	addq	$2147450880, %rcx
	movzbl	(%rcx), %ecx
	testb	%cl, %cl
	je	.L39
	.loc 1 94 22 is_stmt 0
	movq	%rdx, %rdi
	call	__asan_report_load8@PLT
.L39:
	.loc 1 94 22 discriminator 1
	movq	(%rax), %rax
	.loc 1 94 41 is_stmt 1 discriminator 1
	movq	%rax, %rdx
	movq	%rdx, %rcx
	movq	%rcx, %rdx
	shrq	$3, %rdx
	addq	$2147450880, %rdx
	movzbl	(%rdx), %edx
	testb	%dl, %dl
	setne	%sil
	cmpb	$3, %dl
	setle	%dl
	andl	%esi, %edx
	testb	%dl, %dl
	je	.L40
	.loc 1 94 41 is_stmt 0
	movq	%rcx, %rdi
	call	__asan_report_load4@PLT
.L40:
	.loc 1 94 41 discriminator 1
	movl	(%rax), %eax
	.loc 1 93 52 is_stmt 1 discriminator 1
	cmpl	%eax, -184(%rbp)
	jne	.L38
	.loc 1 95 32
	movq	-168(%rbp), %rax
	leaq	0(,%rax,8), %rdx
	movq	-152(%rbp), %rax
	addq	%rdx, %rax
	.loc 1 95 35
	movq	%rax, %rdx
	movq	%rdx, %rcx
	shrq	$3, %rcx
	addq	$2147450880, %rcx
	movzbl	(%rcx), %ecx
	testb	%cl, %cl
	je	.L41
	movq	%rdx, %rdi
	call	__asan_report_load8@PLT
.L41:
	movq	(%rax), %r14
	jmp	.L30
.L38:
	.loc 1 91 5 discriminator 2
	addq	$1, -168(%rbp)
.L35:
	.loc 1 91 25 discriminator 1
	movq	-168(%rbp), %rax
	cmpq	-160(%rbp), %rax
	jb	.L42
.LBE3:
	.loc 1 98 11
	movl	$0, %r14d
.L30:
	.loc 1 99 5
	leaq	-64(%r13), %rax
	movq	%rax, %rdi
	call	_ZN14FunctionLoggerD1Ev@PLT
	movq	%r14, %rdx
	.loc 1 74 5
	cmpq	%rbx, %r15
	je	.L26
	jmp	.L46
.L45:
	endbr64
	.loc 1 99 5
	movq	%rax, %rbx
	leaq	-64(%r13), %rax
	movq	%rax, %rdi
	call	_ZN14FunctionLoggerD1Ev@PLT
	call	__asan_handle_no_return@PLT
	movq	%rbx, %rdi
.LEHB2:
	call	_Unwind_Resume@PLT
.LEHE2:
.L46:
	.loc 1 74 5
	movq	$1172321806, (%rbx)
	movabsq	$-723401728380766731, %rax
	movq	%rax, 2147450880(%r12)
	movl	$-168430091, 2147450888(%r12)
	movq	120(%rbx), %rax
	movb	$0, (%rax)
	jmp	.L27
.L26:
	movq	$0, 2147450880(%r12)
	movl	$0, 2147450888(%r12)
.L27:
	.loc 1 99 5
	movq	%rdx, %rax
	addq	$152, %rsp
	popq	%rbx
	popq	%r12
	popq	%r13
	popq	%r14
	popq	%r15
	popq	%rbp
	.cfi_def_cfa 7, 8
	ret
	.cfi_endproc
.LFE2272:
	.globl	__gxx_personality_v0
	.section	.gcc_except_table,"a",@progbits
.LLSDA2272:
	.byte	0xff
	.byte	0xff
	.byte	0x1
	.uleb128 .LLSDACSE2272-.LLSDACSB2272
.LLSDACSB2272:
	.uleb128 .LEHB0-.LFB2272
	.uleb128 .LEHE0-.LEHB0
	.uleb128 0
	.uleb128 0
	.uleb128 .LEHB1-.LFB2272
	.uleb128 .LEHE1-.LEHB1
	.uleb128 .L45-.LFB2272
	.uleb128 0
	.uleb128 .LEHB2-.LFB2272
	.uleb128 .LEHE2-.LEHB2
	.uleb128 0
	.uleb128 0
.LLSDACSE2272:
	.text
	.size	_Z7IsLabeliiP9NameTable, .-_Z7IsLabeliiP9NameTable
	.section	.rodata
.LC24:
	.string	"1 32 24 12 func_103:103"
	.align 32
.LC25:
	.string	"AddLabel"
	.zero	55
	.align 32
.LC26:
	.string	"label"
	.zero	58
	.align 32
.LC27:
	.string	"int AddLabel(Label*, NameTable*)"
	.zero	63
	.align 32
.LC28:
	.string	"%s:%d::CHECK: ResizeNameTable(table) == SUCCESS is false\n"
	.zero	38
	.text
	.globl	_Z8AddLabelP5LabelP9NameTable
	.type	_Z8AddLabelP5LabelP9NameTable, @function
_Z8AddLabelP5LabelP9NameTable:
.LASANPC2273:
.LFB2273:
	.loc 1 102 5
	.cfi_startproc
	.cfi_personality 0x9b,DW.ref.__gxx_personality_v0
	.cfi_lsda 0x1b,.LLSDA2273
	endbr64
	pushq	%rbp
	.cfi_def_cfa_offset 16
	.cfi_offset 6, -16
	movq	%rsp, %rbp
	.cfi_def_cfa_register 6
	pushq	%r15
	pushq	%r14
	pushq	%r13
	pushq	%r12
	pushq	%rbx
	subq	$120, %rsp
	.cfi_offset 15, -24
	.cfi_offset 14, -32
	.cfi_offset 13, -40
	.cfi_offset 12, -48
	.cfi_offset 3, -56
	movq	%rdi, -152(%rbp)
	movq	%rsi, -160(%rbp)
	leaq	-144(%rbp), %rbx
	movq	%rbx, %r15
	cmpl	$0, __asan_option_detect_stack_use_after_return(%rip)
	je	.L47
	movl	$96, %edi
	call	__asan_stack_malloc_1@PLT
	testq	%rax, %rax
	je	.L47
	movq	%rax, %rbx
.L47:
	leaq	96(%rbx), %rax
	movq	%rax, %r14
	movq	$1102416563, (%rbx)
	leaq	.LC24(%rip), %rax
	movq	%rax, 8(%rbx)
	leaq	.LASANPC2273(%rip), %rax
	movq	%rax, 16(%rbx)
	movq	%rbx, %r12
	shrq	$3, %r12
	movl	$-235802127, 2147450880(%r12)
	movl	$-218103808, 2147450884(%r12)
	movl	$-202116109, 2147450888(%r12)
	.loc 1 103 41
	leaq	-64(%r14), %rax
	leaq	.LC25(%rip), %rdx
	movl	$1, %esi
	movq	%rax, %rdi
.LEHB3:
	call	_ZN14FunctionLoggerC1EiPKc@PLT
.LEHE3:
	.loc 1 104 10
	cmpq	$0, -152(%rbp)
	jne	.L51
.LEHB4:
	.loc 1 104 45 discriminator 1
	call	_ZN6Logger11getInstanceEv@PLT
	movq	%rax, %rcx
	.loc 1 104 51 discriminator 1
	leaq	.LC26(%rip), %rax
	movq	%rax, %rdx
	leaq	.LC3(%rip), %rax
	movq	%rax, %rsi
	movq	%rcx, %rdi
	movl	$0, %eax
	call	_ZN6Logger3logEPKcz@PLT
	.loc 1 104 109 discriminator 3
	leaq	.LC26(%rip), %rax
	movq	%rax, %rsi
	leaq	.LC4(%rip), %rax
	movq	%rax, %rdi
	movl	$0, %eax
	call	printf@PLT
	.loc 1 104 255 discriminator 4
	call	_ZN6Logger11getInstanceEv@PLT
	movq	%rax, %rdi
	.loc 1 104 261 discriminator 4
	leaq	.LC27(%rip), %r8
	movl	$104, %ecx
	leaq	.LC1(%rip), %rax
	movq	%rax, %rdx
	leaq	.LC6(%rip), %rax
	movq	%rax, %rsi
	movl	$0, %eax
	call	_ZN6Logger3logEPKcz@PLT
	.loc 1 104 367 discriminator 6
	leaq	.LC27(%rip), %rax
	movq	%rax, %rcx
	movl	$104, %edx
	leaq	.LC1(%rip), %rax
	movq	%rax, %rsi
	leaq	.LC6(%rip), %rax
	movq	%rax, %rdi
	movl	$0, %eax
	call	printf@PLT
	.loc 1 104 486 discriminator 7
	call	_ZN6Logger11getInstanceEv@PLT
	movq	%rax, %r13
	.loc 1 104 492 discriminator 7
	movl	$14, %edi
	call	strerror@PLT
	movq	%rax, %rcx
	movl	$14, %edx
	leaq	.LC7(%rip), %rax
	movq	%rax, %rsi
	movq	%r13, %rdi
	movl	$0, %eax
	call	_ZN6Logger3logEPKcz@PLT
	.loc 1 104 27 discriminator 9
	call	_ZN6Logger11getInstanceEv@PLT
	movq	%rax, %rdi
	.loc 1 104 33 discriminator 9
	movl	$104, %ecx
	leaq	.LC25(%rip), %rax
	movq	%rax, %rdx
	leaq	.LC9(%rip), %rax
	movq	%rax, %rsi
	movl	$0, %eax
	call	_ZN6Logger3logEPKcz@PLT
	.loc 1 104 92 discriminator 11
	leaq	.LC10(%rip), %rax
	movq	%rax, %rdi
	call	system@PLT
	.loc 1 104 134 discriminator 12
	call	_ZN6Logger11getInstanceEv@PLT
	.loc 1 104 156 discriminator 12
	call	_ZN6Logger11getInstanceEv@PLT
	.loc 1 104 156 is_stmt 0 discriminator 13
	movq	%rax, %rdi
	.loc 1 104 169 is_stmt 1 discriminator 13
	subq	$8, %rsp
	pushq	$104
	leaq	.LC25(%rip), %r9
	movl	$104, %r8d
	leaq	.LC1(%rip), %rax
	movq	%rax, %rcx
	leaq	.LC11(%rip), %rax
	movq	%rax, %rdx
	movl	$-1, %esi
	movl	$0, %eax
	.cfi_escape 0x2e,0x10
	call	_ZN6Logger9LogMsgRetEiPKcz@PLT
	.loc 1 104 169 is_stmt 0 discriminator 14
	addq	$16, %rsp
	movl	%eax, %r13d
	.loc 1 104 268 is_stmt 1 discriminator 14
	jmp	.L52
.L51:
	.loc 1 105 10
	cmpq	$0, -160(%rbp)
	jne	.L53
	.cfi_escape 0x2e,0
	.loc 1 105 45 discriminator 1
	call	_ZN6Logger11getInstanceEv@PLT
	movq	%rax, %rcx
	.loc 1 105 51 discriminator 1
	leaq	.LC2(%rip), %rax
	movq	%rax, %rdx
	leaq	.LC3(%rip), %rax
	movq	%rax, %rsi
	movq	%rcx, %rdi
	movl	$0, %eax
	call	_ZN6Logger3logEPKcz@PLT
	.loc 1 105 109 discriminator 3
	leaq	.LC2(%rip), %rax
	movq	%rax, %rsi
	leaq	.LC4(%rip), %rax
	movq	%rax, %rdi
	movl	$0, %eax
	call	printf@PLT
	.loc 1 105 255 discriminator 4
	call	_ZN6Logger11getInstanceEv@PLT
	movq	%rax, %rdi
	.loc 1 105 261 discriminator 4
	leaq	.LC27(%rip), %r8
	movl	$105, %ecx
	leaq	.LC1(%rip), %rax
	movq	%rax, %rdx
	leaq	.LC6(%rip), %rax
	movq	%rax, %rsi
	movl	$0, %eax
	call	_ZN6Logger3logEPKcz@PLT
	.loc 1 105 367 discriminator 6
	leaq	.LC27(%rip), %rax
	movq	%rax, %rcx
	movl	$105, %edx
	leaq	.LC1(%rip), %rax
	movq	%rax, %rsi
	leaq	.LC6(%rip), %rax
	movq	%rax, %rdi
	movl	$0, %eax
	call	printf@PLT
	.loc 1 105 486 discriminator 7
	call	_ZN6Logger11getInstanceEv@PLT
	movq	%rax, %r13
	.loc 1 105 492 discriminator 7
	movl	$14, %edi
	call	strerror@PLT
	movq	%rax, %rcx
	movl	$14, %edx
	leaq	.LC7(%rip), %rax
	movq	%rax, %rsi
	movq	%r13, %rdi
	movl	$0, %eax
	call	_ZN6Logger3logEPKcz@PLT
	.loc 1 105 27 discriminator 9
	call	_ZN6Logger11getInstanceEv@PLT
	movq	%rax, %rdi
	.loc 1 105 33 discriminator 9
	movl	$105, %ecx
	leaq	.LC25(%rip), %rax
	movq	%rax, %rdx
	leaq	.LC9(%rip), %rax
	movq	%rax, %rsi
	movl	$0, %eax
	call	_ZN6Logger3logEPKcz@PLT
	.loc 1 105 92 discriminator 11
	leaq	.LC10(%rip), %rax
	movq	%rax, %rdi
	call	system@PLT
	.loc 1 105 134 discriminator 12
	call	_ZN6Logger11getInstanceEv@PLT
	.loc 1 105 156 discriminator 12
	call	_ZN6Logger11getInstanceEv@PLT
	.loc 1 105 156 is_stmt 0 discriminator 13
	movq	%rax, %rdi
	.loc 1 105 169 is_stmt 1 discriminator 13
	subq	$8, %rsp
	pushq	$105
	leaq	.LC25(%rip), %r9
	movl	$105, %r8d
	leaq	.LC1(%rip), %rax
	movq	%rax, %rcx
	leaq	.LC11(%rip), %rax
	movq	%rax, %rdx
	movl	$-1, %esi
	movl	$0, %eax
	.cfi_escape 0x2e,0x10
	call	_ZN6Logger9LogMsgRetEiPKcz@PLT
	.loc 1 105 169 is_stmt 0 discriminator 14
	addq	$16, %rsp
	movl	%eax, %r13d
	.loc 1 105 268 is_stmt 1 discriminator 14
	jmp	.L52
.L53:
	.loc 1 107 17
	movq	-160(%rbp), %rax
	addq	$8, %rax
	movq	%rax, %rdx
	shrq	$3, %rdx
	addq	$2147450880, %rdx
	movzbl	(%rdx), %edx
	testb	%dl, %dl
	je	.L54
	movq	%rax, %rdi
	call	__asan_report_load8@PLT
.L54:
	movq	-160(%rbp), %rax
	movq	8(%rax), %rcx
	.loc 1 107 38
	movq	-160(%rbp), %rax
	addq	$16, %rax
	movq	%rax, %rdx
	shrq	$3, %rdx
	addq	$2147450880, %rdx
	movzbl	(%rdx), %edx
	testb	%dl, %dl
	je	.L55
	movq	%rax, %rdi
	call	__asan_report_load8@PLT
.L55:
	movq	-160(%rbp), %rax
	movq	16(%rax), %rax
	.loc 1 107 5
	cmpq	%rax, %rcx
	ja	.L56
	.loc 1 108 34
	movq	-160(%rbp), %rax
	movq	%rax, %rdi
	.cfi_escape 0x2e,0
	call	_ZL15ResizeNameTableP9NameTable
	.loc 1 108 42
	testl	%eax, %eax
	setne	%al
	.loc 1 108 14
	testb	%al, %al
	je	.L56
	.loc 1 108 75 discriminator 2
	call	_ZN6Logger11getInstanceEv@PLT
	movq	%rax, %rdi
	.loc 1 108 81 discriminator 2
	movl	$108, %ecx
	leaq	.LC25(%rip), %rax
	movq	%rax, %rdx
	leaq	.LC28(%rip), %rax
	movq	%rax, %rsi
	movl	$0, %eax
	call	_ZN6Logger3logEPKcz@PLT
	.loc 1 108 193 discriminator 4
	call	_ZN6Logger11getInstanceEv@PLT
	.loc 1 108 215 discriminator 4
	call	_ZN6Logger11getInstanceEv@PLT
	.loc 1 108 215 is_stmt 0 discriminator 5
	movq	%rax, %rdi
	.loc 1 108 228 is_stmt 1 discriminator 5
	subq	$8, %rsp
	pushq	$108
	leaq	.LC25(%rip), %r9
	movl	$108, %r8d
	leaq	.LC1(%rip), %rax
	movq	%rax, %rcx
	leaq	.LC11(%rip), %rax
	movq	%rax, %rdx
	movl	$-1, %esi
	movl	$0, %eax
	.cfi_escape 0x2e,0x10
	call	_ZN6Logger9LogMsgRetEiPKcz@PLT
.LEHE4:
	.loc 1 108 228 is_stmt 0 discriminator 6
	addq	$16, %rsp
	movl	%eax, %r13d
	.loc 1 108 327 is_stmt 1 discriminator 6
	jmp	.L52
.L56:
	.loc 1 110 15
	movq	-160(%rbp), %rax
	movq	%rax, %rdx
	shrq	$3, %rdx
	addq	$2147450880, %rdx
	movzbl	(%rdx), %edx
	testb	%dl, %dl
	je	.L57
	movq	%rax, %rdi
	call	__asan_report_load8@PLT
.L57:
	movq	-160(%rbp), %rax
	movq	(%rax), %rcx
	.loc 1 110 36
	movq	-160(%rbp), %rax
	addq	$16, %rax
	movq	%rax, %rdx
	shrq	$3, %rdx
	addq	$2147450880, %rdx
	movzbl	(%rdx), %edx
	testb	%dl, %dl
	je	.L58
	movq	%rax, %rdi
	call	__asan_report_load8@PLT
.L58:
	movq	-160(%rbp), %rax
	movq	16(%rax), %rax
	.loc 1 110 26
	salq	$3, %rax
	addq	%rcx, %rax
	.loc 1 110 55
	movq	%rax, %rdx
	movq	%rdx, %rcx
	shrq	$3, %rcx
	addq	$2147450880, %rcx
	movzbl	(%rcx), %ecx
	testb	%cl, %cl
	je	.L59
	movq	%rdx, %rdi
	call	__asan_report_store8@PLT
.L59:
	movq	-152(%rbp), %rdx
	movq	%rdx, (%rax)
	.loc 1 114 26
	movq	-160(%rbp), %rax
	movq	16(%rax), %rax
	.loc 1 114 43
	leaq	1(%rax), %rcx
	movq	-160(%rbp), %rdx
	movq	%rcx, 16(%rdx)
	movl	%eax, %r13d
.L52:
	.loc 1 115 5
	leaq	-64(%r14), %rax
	movq	%rax, %rdi
	call	_ZN14FunctionLoggerD1Ev@PLT
	movl	%r13d, %edx
	.loc 1 102 5
	cmpq	%rbx, %r15
	je	.L48
	jmp	.L63
.L62:
	endbr64
	.loc 1 115 5
	movq	%rax, %rbx
	leaq	-64(%r14), %rax
	movq	%rax, %rdi
	call	_ZN14FunctionLoggerD1Ev@PLT
	call	__asan_handle_no_return@PLT
	movq	%rbx, %rdi
.LEHB5:
	call	_Unwind_Resume@PLT
.LEHE5:
.L63:
	.loc 1 102 5
	movq	$1172321806, (%rbx)
	movabsq	$-723401728380766731, %rax
	movq	%rax, 2147450880(%r12)
	movl	$-168430091, 2147450888(%r12)
	movq	120(%rbx), %rax
	movb	$0, (%rax)
	jmp	.L49
.L48:
	movq	$0, 2147450880(%r12)
	movl	$0, 2147450888(%r12)
.L49:
	.loc 1 115 5
	movl	%edx, %eax
	leaq	-40(%rbp), %rsp
	popq	%rbx
	popq	%r12
	popq	%r13
	popq	%r14
	popq	%r15
	popq	%rbp
	.cfi_def_cfa 7, 8
	ret
	.cfi_endproc
.LFE2273:
	.section	.gcc_except_table
.LLSDA2273:
	.byte	0xff
	.byte	0xff
	.byte	0x1
	.uleb128 .LLSDACSE2273-.LLSDACSB2273
.LLSDACSB2273:
	.uleb128 .LEHB3-.LFB2273
	.uleb128 .LEHE3-.LEHB3
	.uleb128 0
	.uleb128 0
	.uleb128 .LEHB4-.LFB2273
	.uleb128 .LEHE4-.LEHB4
	.uleb128 .L62-.LFB2273
	.uleb128 0
	.uleb128 .LEHB5-.LFB2273
	.uleb128 .LEHE5-.LEHB5
	.uleb128 0
	.uleb128 0
.LLSDACSE2273:
	.text
	.size	_Z8AddLabelP5LabelP9NameTable, .-_Z8AddLabelP5LabelP9NameTable
	.section	.rodata
.LC29:
	.string	"1 32 24 12 func_119:119"
	.align 32
.LC30:
	.string	"CopyLabel"
	.zero	54
	.align 32
.LC31:
	.string	"Label* CopyLabel(Label*, NameTable*)"
	.zero	59
	.align 32
.LC32:
	.string	"Returnig null ptr (%s:%d, %s)"
	.zero	34
	.align 32
.LC33:
	.string	"Label (%p) with same name and type already in table\n"
	.zero	43
	.align 32
.LC34:
	.string	"Type: %d\n"
	.zero	54
	.text
	.globl	_Z9CopyLabelP5LabelP9NameTable
	.type	_Z9CopyLabelP5LabelP9NameTable, @function
_Z9CopyLabelP5LabelP9NameTable:
.LASANPC2274:
.LFB2274:
	.loc 1 118 5
	.cfi_startproc
	.cfi_personality 0x9b,DW.ref.__gxx_personality_v0
	.cfi_lsda 0x1b,.LLSDA2274
	endbr64
	pushq	%rbp
	.cfi_def_cfa_offset 16
	.cfi_offset 6, -16
	movq	%rsp, %rbp
	.cfi_def_cfa_register 6
	pushq	%r15
	pushq	%r14
	pushq	%r13
	pushq	%r12
	pushq	%rbx
	subq	$136, %rsp
	.cfi_offset 15, -24
	.cfi_offset 14, -32
	.cfi_offset 13, -40
	.cfi_offset 12, -48
	.cfi_offset 3, -56
	movq	%rdi, -168(%rbp)
	movq	%rsi, -176(%rbp)
	leaq	-144(%rbp), %rbx
	movq	%rbx, %r15
	cmpl	$0, __asan_option_detect_stack_use_after_return(%rip)
	je	.L64
	movl	$96, %edi
	call	__asan_stack_malloc_1@PLT
	testq	%rax, %rax
	je	.L64
	movq	%rax, %rbx
.L64:
	leaq	96(%rbx), %rax
	movq	%rax, %r13
	movq	$1102416563, (%rbx)
	leaq	.LC29(%rip), %rax
	movq	%rax, 8(%rbx)
	leaq	.LASANPC2274(%rip), %rax
	movq	%rax, 16(%rbx)
	movq	%rbx, %r12
	shrq	$3, %r12
	movl	$-235802127, 2147450880(%r12)
	movl	$-218103808, 2147450884(%r12)
	movl	$-202116109, 2147450888(%r12)
	.loc 1 119 41
	leaq	-64(%r13), %rax
	leaq	.LC30(%rip), %rdx
	movl	$1, %esi
	movq	%rax, %rdi
.LEHB6:
	call	_ZN14FunctionLoggerC1EiPKc@PLT
.LEHE6:
	.loc 1 120 10
	cmpq	$0, -168(%rbp)
	jne	.L68
.LEHB7:
	.loc 1 120 45 discriminator 1
	call	_ZN6Logger11getInstanceEv@PLT
	movq	%rax, %rcx
	.loc 1 120 51 discriminator 1
	leaq	.LC26(%rip), %rax
	movq	%rax, %rdx
	leaq	.LC3(%rip), %rax
	movq	%rax, %rsi
	movq	%rcx, %rdi
	movl	$0, %eax
	call	_ZN6Logger3logEPKcz@PLT
	.loc 1 120 109 discriminator 3
	leaq	.LC26(%rip), %rax
	movq	%rax, %rsi
	leaq	.LC4(%rip), %rax
	movq	%rax, %rdi
	movl	$0, %eax
	call	printf@PLT
	.loc 1 120 255 discriminator 4
	call	_ZN6Logger11getInstanceEv@PLT
	movq	%rax, %rdi
	.loc 1 120 261 discriminator 4
	leaq	.LC31(%rip), %r8
	movl	$120, %ecx
	leaq	.LC1(%rip), %rax
	movq	%rax, %rdx
	leaq	.LC6(%rip), %rax
	movq	%rax, %rsi
	movl	$0, %eax
	call	_ZN6Logger3logEPKcz@PLT
	.loc 1 120 367 discriminator 6
	leaq	.LC31(%rip), %rax
	movq	%rax, %rcx
	movl	$120, %edx
	leaq	.LC1(%rip), %rax
	movq	%rax, %rsi
	leaq	.LC6(%rip), %rax
	movq	%rax, %rdi
	movl	$0, %eax
	call	printf@PLT
	.loc 1 120 486 discriminator 7
	call	_ZN6Logger11getInstanceEv@PLT
	movq	%rax, %r14
	.loc 1 120 492 discriminator 7
	movl	$14, %edi
	call	strerror@PLT
	movq	%rax, %rcx
	movl	$14, %edx
	leaq	.LC7(%rip), %rax
	movq	%rax, %rsi
	movq	%r14, %rdi
	movl	$0, %eax
	call	_ZN6Logger3logEPKcz@PLT
	.loc 1 120 27 discriminator 9
	call	_ZN6Logger11getInstanceEv@PLT
	movq	%rax, %rdi
	.loc 1 120 33 discriminator 9
	movl	$120, %ecx
	leaq	.LC30(%rip), %rax
	movq	%rax, %rdx
	leaq	.LC9(%rip), %rax
	movq	%rax, %rsi
	movl	$0, %eax
	call	_ZN6Logger3logEPKcz@PLT
	.loc 1 120 92 discriminator 11
	leaq	.LC10(%rip), %rax
	movq	%rax, %rdi
	call	system@PLT
	.loc 1 120 134 discriminator 12
	call	_ZN6Logger11getInstanceEv@PLT
	movq	%rax, %rdi
	.loc 1 120 150 discriminator 12
	leaq	.LC30(%rip), %r8
	movl	$120, %ecx
	leaq	.LC1(%rip), %rax
	movq	%rax, %rdx
	leaq	.LC32(%rip), %rax
	movq	%rax, %rsi
	movl	$0, %eax
	call	_ZN6Logger13LogMsgNullRetEPKcz@PLT
	.loc 1 120 242 discriminator 14
	movl	$0, %r14d
	jmp	.L69
.L68:
	.loc 1 121 10
	cmpq	$0, -176(%rbp)
	jne	.L70
	.loc 1 121 45 discriminator 1
	call	_ZN6Logger11getInstanceEv@PLT
	movq	%rax, %rcx
	.loc 1 121 51 discriminator 1
	leaq	.LC2(%rip), %rax
	movq	%rax, %rdx
	leaq	.LC3(%rip), %rax
	movq	%rax, %rsi
	movq	%rcx, %rdi
	movl	$0, %eax
	call	_ZN6Logger3logEPKcz@PLT
	.loc 1 121 109 discriminator 3
	leaq	.LC2(%rip), %rax
	movq	%rax, %rsi
	leaq	.LC4(%rip), %rax
	movq	%rax, %rdi
	movl	$0, %eax
	call	printf@PLT
	.loc 1 121 255 discriminator 4
	call	_ZN6Logger11getInstanceEv@PLT
	movq	%rax, %rdi
	.loc 1 121 261 discriminator 4
	leaq	.LC31(%rip), %r8
	movl	$121, %ecx
	leaq	.LC1(%rip), %rax
	movq	%rax, %rdx
	leaq	.LC6(%rip), %rax
	movq	%rax, %rsi
	movl	$0, %eax
	call	_ZN6Logger3logEPKcz@PLT
	.loc 1 121 367 discriminator 6
	leaq	.LC31(%rip), %rax
	movq	%rax, %rcx
	movl	$121, %edx
	leaq	.LC1(%rip), %rax
	movq	%rax, %rsi
	leaq	.LC6(%rip), %rax
	movq	%rax, %rdi
	movl	$0, %eax
	call	printf@PLT
	.loc 1 121 486 discriminator 7
	call	_ZN6Logger11getInstanceEv@PLT
	movq	%rax, %r14
	.loc 1 121 492 discriminator 7
	movl	$14, %edi
	call	strerror@PLT
	movq	%rax, %rcx
	movl	$14, %edx
	leaq	.LC7(%rip), %rax
	movq	%rax, %rsi
	movq	%r14, %rdi
	movl	$0, %eax
	call	_ZN6Logger3logEPKcz@PLT
	.loc 1 121 27 discriminator 9
	call	_ZN6Logger11getInstanceEv@PLT
	movq	%rax, %rdi
	.loc 1 121 33 discriminator 9
	movl	$121, %ecx
	leaq	.LC30(%rip), %rax
	movq	%rax, %rdx
	leaq	.LC9(%rip), %rax
	movq	%rax, %rsi
	movl	$0, %eax
	call	_ZN6Logger3logEPKcz@PLT
	.loc 1 121 92 discriminator 11
	leaq	.LC10(%rip), %rax
	movq	%rax, %rdi
	call	system@PLT
	.loc 1 121 134 discriminator 12
	call	_ZN6Logger11getInstanceEv@PLT
	movq	%rax, %rdi
	.loc 1 121 150 discriminator 12
	leaq	.LC30(%rip), %r8
	movl	$121, %ecx
	leaq	.LC1(%rip), %rax
	movq	%rax, %rdx
	leaq	.LC32(%rip), %rax
	movq	%rax, %rsi
	movl	$0, %eax
	call	_ZN6Logger13LogMsgNullRetEPKcz@PLT
	.loc 1 121 242 discriminator 14
	movl	$0, %r14d
	jmp	.L69
.L70:
	.loc 1 123 16
	movq	-168(%rbp), %rax
	movq	%rax, %rdx
	movq	%rdx, %rax
	shrq	$3, %rax
	addq	$2147450880, %rax
	movzbl	(%rax), %eax
	testb	%al, %al
	setne	%cl
	cmpb	$3, %al
	setle	%al
	andl	%ecx, %eax
	testb	%al, %al
	je	.L71
	movq	%rdx, %rdi
	call	__asan_report_load4@PLT
.L71:
	movq	-168(%rbp), %rax
	movl	(%rax), %ecx
	movq	-168(%rbp), %rax
	addq	$4, %rax
	movq	%rax, %rdx
	shrq	$3, %rdx
	addq	$2147450880, %rdx
	movzbl	(%rdx), %edx
	testb	%dl, %dl
	setne	%dil
	movq	%rax, %rsi
	andl	$7, %esi
	addl	$3, %esi
	cmpb	%dl, %sil
	setge	%dl
	andl	%edi, %edx
	testb	%dl, %dl
	je	.L72
	movq	%rax, %rdi
	call	__asan_report_load4@PLT
.L72:
	movq	-168(%rbp), %rax
	movl	4(%rax), %eax
	movq	-176(%rbp), %rdx
	movl	%ecx, %esi
	movl	%eax, %edi
	call	_Z7IsLabeliiP9NameTable
	testq	%rax, %rax
	setne	%al
	.loc 1 123 5
	testb	%al, %al
	je	.L73
	.loc 1 125 17
	leaq	.LC30(%rip), %rax
	movq	%rax, %rsi
	leaq	.LC18(%rip), %rax
	movq	%rax, %rdi
	movl	$0, %eax
	call	printf@PLT
	.loc 1 125 45 discriminator 1
	movq	-168(%rbp), %rax
	movq	%rax, %rsi
	leaq	.LC33(%rip), %rax
	movq	%rax, %rdi
	movl	$0, %eax
	call	printf@PLT
	.loc 1 125 125 discriminator 2
	movl	$125, %edx
	leaq	.LC1(%rip), %rax
	movq	%rax, %rsi
	leaq	.LC20(%rip), %rax
	movq	%rax, %rdi
	movl	$0, %eax
	call	printf@PLT
	.loc 1 127 15
	movq	-168(%rbp), %rax
	movq	%rax, %rdx
	movq	%rdx, %rax
	shrq	$3, %rax
	addq	$2147450880, %rax
	movzbl	(%rax), %eax
	testb	%al, %al
	setne	%cl
	cmpb	$3, %al
	setle	%al
	andl	%ecx, %eax
	testb	%al, %al
	je	.L74
	movq	%rdx, %rdi
	call	__asan_report_load4@PLT
.L74:
	movq	-168(%rbp), %rax
	movl	(%rax), %eax
	movl	%eax, %esi
	leaq	.LC34(%rip), %rax
	movq	%rax, %rdi
	movl	$0, %eax
	call	printf@PLT
	.loc 1 129 35
	call	_ZN6Logger11getInstanceEv@PLT
	movq	%rax, %rdi
	.loc 1 129 51
	leaq	.LC30(%rip), %r8
	movl	$129, %ecx
	leaq	.LC1(%rip), %rax
	movq	%rax, %rdx
	leaq	.LC32(%rip), %rax
	movq	%rax, %rsi
	movl	$0, %eax
	call	_ZN6Logger13LogMsgNullRetEPKcz@PLT
	.loc 1 129 143 discriminator 2
	movl	$0, %r14d
	jmp	.L69
.L73:
	.loc 1 132 52
	call	_ZN6Logger11getInstanceEv@PLT
	movq	%rax, %rdi
	.loc 1 132 63
	movl	$132, %r9d
	leaq	.LC30(%rip), %r8
	leaq	.LC1(%rip), %rax
	movq	%rax, %rcx
	movl	$32, %edx
	movl	$1, %esi
	call	_ZN6Logger7CAL_LOGEmmPKcS1_i@PLT
	.loc 1 132 63 is_stmt 0 discriminator 1
	movq	%rax, -152(%rbp)
	.loc 1 133 5 is_stmt 1 discriminator 1
	cmpq	$0, -152(%rbp)
	jne	.L75
	.loc 1 134 35
	call	_ZN6Logger11getInstanceEv@PLT
	movq	%rax, %rdi
	.loc 1 134 51
	leaq	.LC30(%rip), %r8
	movl	$134, %ecx
	leaq	.LC1(%rip), %rax
	movq	%rax, %rdx
	leaq	.LC32(%rip), %rax
	movq	%rax, %rsi
	movl	$0, %eax
	call	_ZN6Logger13LogMsgNullRetEPKcz@PLT
	.loc 1 134 143 discriminator 2
	movl	$0, %r14d
	jmp	.L69
.L75:
	.loc 1 136 16
	movq	-152(%rbp), %rax
	movq	%rax, %rdx
	shrq	$3, %rdx
	addq	$2147450880, %rdx
	movzbl	(%rdx), %edx
	testb	%dl, %dl
	setne	%cl
	testb	%dl, %dl
	setle	%dl
	movl	%ecx, %esi
	andl	%edx, %esi
	movl	$32, %edx
	subq	$1, %rdx
	leaq	(%rax,%rdx), %rcx
	movq	%rcx, %rdx
	shrq	$3, %rdx
	addq	$2147450880, %rdx
	movzbl	(%rdx), %edx
	testb	%dl, %dl
	setne	%dil
	andl	$7, %ecx
	cmpb	%dl, %cl
	setge	%dl
	andl	%edi, %edx
	orl	%esi, %edx
	testb	%dl, %dl
	je	.L76
	movl	$32, %esi
	movq	%rax, %rdi
	call	__asan_report_store_n@PLT
.L76:
	movq	-168(%rbp), %rax
	movq	%rax, %rdx
	shrq	$3, %rdx
	addq	$2147450880, %rdx
	movzbl	(%rdx), %edx
	testb	%dl, %dl
	setne	%cl
	testb	%dl, %dl
	setle	%dl
	andl	%edx, %ecx
	movl	%ecx, %esi
	movl	$32, %edx
	subq	$1, %rdx
	leaq	(%rax,%rdx), %rcx
	movq	%rcx, %rdx
	shrq	$3, %rdx
	addq	$2147450880, %rdx
	movzbl	(%rdx), %edx
	testb	%dl, %dl
	setne	%dil
	andl	$7, %ecx
	cmpb	%dl, %cl
	setge	%dl
	andl	%edi, %edx
	orl	%esi, %edx
	testb	%dl, %dl
	je	.L77
	movl	$32, %esi
	movq	%rax, %rdi
	call	__asan_report_load_n@PLT
.L77:
	movq	-152(%rbp), %rcx
	movq	-168(%rbp), %rsi
	movq	(%rsi), %rax
	movq	8(%rsi), %rdx
	movq	%rax, (%rcx)
	movq	%rdx, 8(%rcx)
	movq	16(%rsi), %rax
	movq	24(%rsi), %rdx
	movq	%rax, 16(%rcx)
	movq	%rdx, 24(%rcx)
	.loc 1 151 17
	movq	-176(%rbp), %rdx
	movq	-152(%rbp), %rax
	movq	%rdx, %rsi
	movq	%rax, %rdi
	call	_Z8AddLabelP5LabelP9NameTable
	.loc 1 151 36
	shrl	$31, %eax
	.loc 1 151 5
	testb	%al, %al
	je	.L78
	.loc 1 152 35
	call	_ZN6Logger11getInstanceEv@PLT
	movq	%rax, %rdi
	.loc 1 152 51
	leaq	.LC30(%rip), %r8
	movl	$152, %ecx
	leaq	.LC1(%rip), %rax
	movq	%rax, %rdx
	leaq	.LC32(%rip), %rax
	movq	%rax, %rsi
	movl	$0, %eax
	call	_ZN6Logger13LogMsgNullRetEPKcz@PLT
.LEHE7:
	.loc 1 152 143 discriminator 2
	movl	$0, %r14d
	jmp	.L69
.L78:
	.loc 1 154 12
	movq	-152(%rbp), %r14
.L69:
	.loc 1 155 5
	leaq	-64(%r13), %rax
	movq	%rax, %rdi
	call	_ZN14FunctionLoggerD1Ev@PLT
	movq	%r14, %rdx
	.loc 1 118 5
	cmpq	%rbx, %r15
	je	.L65
	jmp	.L82
.L81:
	endbr64
	.loc 1 155 5
	movq	%rax, %rbx
	leaq	-64(%r13), %rax
	movq	%rax, %rdi
	call	_ZN14FunctionLoggerD1Ev@PLT
	call	__asan_handle_no_return@PLT
	movq	%rbx, %rdi
.LEHB8:
	call	_Unwind_Resume@PLT
.LEHE8:
.L82:
	.loc 1 118 5
	movq	$1172321806, (%rbx)
	movabsq	$-723401728380766731, %rax
	movq	%rax, 2147450880(%r12)
	movl	$-168430091, 2147450888(%r12)
	movq	120(%rbx), %rax
	movb	$0, (%rax)
	jmp	.L66
.L65:
	movq	$0, 2147450880(%r12)
	movl	$0, 2147450888(%r12)
.L66:
	.loc 1 155 5
	movq	%rdx, %rax
	addq	$136, %rsp
	popq	%rbx
	popq	%r12
	popq	%r13
	popq	%r14
	popq	%r15
	popq	%rbp
	.cfi_def_cfa 7, 8
	ret
	.cfi_endproc
.LFE2274:
	.section	.gcc_except_table
.LLSDA2274:
	.byte	0xff
	.byte	0xff
	.byte	0x1
	.uleb128 .LLSDACSE2274-.LLSDACSB2274
.LLSDACSB2274:
	.uleb128 .LEHB6-.LFB2274
	.uleb128 .LEHE6-.LEHB6
	.uleb128 0
	.uleb128 0
	.uleb128 .LEHB7-.LFB2274
	.uleb128 .LEHE7-.LEHB7
	.uleb128 .L81-.LFB2274
	.uleb128 0
	.uleb128 .LEHB8-.LFB2274
	.uleb128 .LEHE8-.LEHB8
	.uleb128 0
	.uleb128 0
.LLSDACSE2274:
	.text
	.size	_Z9CopyLabelP5LabelP9NameTable, .-_Z9CopyLabelP5LabelP9NameTable
	.section	.rodata
	.align 32
.LC35:
	.string	"label1"
	.zero	57
	.align 32
.LC36:
	.string	"int CompareLabels(Label*, Label*)"
	.zero	62
	.align 32
.LC37:
	.string	"CompareLabels"
	.zero	50
	.align 32
.LC38:
	.string	"label2"
	.zero	57
	.text
	.globl	_Z13CompareLabelsP5LabelS0_
	.type	_Z13CompareLabelsP5LabelS0_, @function
_Z13CompareLabelsP5LabelS0_:
.LASANPC2275:
.LFB2275:
	.loc 1 158 5
	.cfi_startproc
	endbr64
	pushq	%rbp
	.cfi_def_cfa_offset 16
	.cfi_offset 6, -16
	movq	%rsp, %rbp
	.cfi_def_cfa_register 6
	pushq	%rbx
	subq	$24, %rsp
	.cfi_offset 3, -24
	movq	%rdi, -24(%rbp)
	movq	%rsi, -32(%rbp)
	.loc 1 159 10
	cmpq	$0, -24(%rbp)
	jne	.L84
	.loc 1 159 46 discriminator 1
	call	_ZN6Logger11getInstanceEv@PLT
	movq	%rax, %rcx
	.loc 1 159 52 discriminator 1
	leaq	.LC35(%rip), %rax
	movq	%rax, %rdx
	leaq	.LC3(%rip), %rax
	movq	%rax, %rsi
	movq	%rcx, %rdi
	movl	$0, %eax
	call	_ZN6Logger3logEPKcz@PLT
	.loc 1 159 111 discriminator 1
	leaq	.LC35(%rip), %rax
	movq	%rax, %rsi
	leaq	.LC4(%rip), %rax
	movq	%rax, %rdi
	movl	$0, %eax
	call	printf@PLT
	.loc 1 159 258 discriminator 1
	call	_ZN6Logger11getInstanceEv@PLT
	movq	%rax, %rdi
	.loc 1 159 264 discriminator 1
	leaq	.LC36(%rip), %r8
	movl	$159, %ecx
	leaq	.LC1(%rip), %rax
	movq	%rax, %rdx
	leaq	.LC6(%rip), %rax
	movq	%rax, %rsi
	movl	$0, %eax
	call	_ZN6Logger3logEPKcz@PLT
	.loc 1 159 370 discriminator 1
	leaq	.LC36(%rip), %rax
	movq	%rax, %rcx
	movl	$159, %edx
	leaq	.LC1(%rip), %rax
	movq	%rax, %rsi
	leaq	.LC6(%rip), %rax
	movq	%rax, %rdi
	movl	$0, %eax
	call	printf@PLT
	.loc 1 159 489 discriminator 1
	call	_ZN6Logger11getInstanceEv@PLT
	movq	%rax, %rbx
	.loc 1 159 495 discriminator 1
	movl	$14, %edi
	call	strerror@PLT
	movq	%rax, %rcx
	movl	$14, %edx
	leaq	.LC7(%rip), %rax
	movq	%rax, %rsi
	movq	%rbx, %rdi
	movl	$0, %eax
	call	_ZN6Logger3logEPKcz@PLT
	.loc 1 159 27 discriminator 1
	call	_ZN6Logger11getInstanceEv@PLT
	movq	%rax, %rdi
	.loc 1 159 33 discriminator 1
	movl	$159, %ecx
	leaq	.LC37(%rip), %rax
	movq	%rax, %rdx
	leaq	.LC9(%rip), %rax
	movq	%rax, %rsi
	movl	$0, %eax
	call	_ZN6Logger3logEPKcz@PLT
	.loc 1 159 92 discriminator 1
	leaq	.LC10(%rip), %rax
	movq	%rax, %rdi
	call	system@PLT
	.loc 1 159 115 discriminator 1
	movl	$0, %eax
	jmp	.L85
.L84:
	.loc 1 160 10
	cmpq	$0, -32(%rbp)
	jne	.L86
	.loc 1 160 46 discriminator 1
	call	_ZN6Logger11getInstanceEv@PLT
	movq	%rax, %rcx
	.loc 1 160 52 discriminator 1
	leaq	.LC38(%rip), %rax
	movq	%rax, %rdx
	leaq	.LC3(%rip), %rax
	movq	%rax, %rsi
	movq	%rcx, %rdi
	movl	$0, %eax
	call	_ZN6Logger3logEPKcz@PLT
	.loc 1 160 111 discriminator 1
	leaq	.LC38(%rip), %rax
	movq	%rax, %rsi
	leaq	.LC4(%rip), %rax
	movq	%rax, %rdi
	movl	$0, %eax
	call	printf@PLT
	.loc 1 160 258 discriminator 1
	call	_ZN6Logger11getInstanceEv@PLT
	movq	%rax, %rdi
	.loc 1 160 264 discriminator 1
	leaq	.LC36(%rip), %r8
	movl	$160, %ecx
	leaq	.LC1(%rip), %rax
	movq	%rax, %rdx
	leaq	.LC6(%rip), %rax
	movq	%rax, %rsi
	movl	$0, %eax
	call	_ZN6Logger3logEPKcz@PLT
	.loc 1 160 370 discriminator 1
	leaq	.LC36(%rip), %rax
	movq	%rax, %rcx
	movl	$160, %edx
	leaq	.LC1(%rip), %rax
	movq	%rax, %rsi
	leaq	.LC6(%rip), %rax
	movq	%rax, %rdi
	movl	$0, %eax
	call	printf@PLT
	.loc 1 160 489 discriminator 1
	call	_ZN6Logger11getInstanceEv@PLT
	movq	%rax, %rbx
	.loc 1 160 495 discriminator 1
	movl	$14, %edi
	call	strerror@PLT
	movq	%rax, %rcx
	movl	$14, %edx
	leaq	.LC7(%rip), %rax
	movq	%rax, %rsi
	movq	%rbx, %rdi
	movl	$0, %eax
	call	_ZN6Logger3logEPKcz@PLT
	.loc 1 160 27 discriminator 1
	call	_ZN6Logger11getInstanceEv@PLT
	movq	%rax, %rdi
	.loc 1 160 33 discriminator 1
	movl	$160, %ecx
	leaq	.LC37(%rip), %rax
	movq	%rax, %rdx
	leaq	.LC9(%rip), %rax
	movq	%rax, %rsi
	movl	$0, %eax
	call	_ZN6Logger3logEPKcz@PLT
	.loc 1 160 92 discriminator 1
	leaq	.LC10(%rip), %rax
	movq	%rax, %rdi
	call	system@PLT
	.loc 1 160 115 discriminator 1
	movl	$0, %eax
	jmp	.L85
.L86:
	.loc 1 162 17
	movq	-24(%rbp), %rax
	addq	$4, %rax
	movq	%rax, %rdx
	shrq	$3, %rdx
	addq	$2147450880, %rdx
	movzbl	(%rdx), %edx
	testb	%dl, %dl
	setne	%sil
	movq	%rax, %rcx
	andl	$7, %ecx
	addl	$3, %ecx
	cmpb	%dl, %cl
	setge	%dl
	andl	%esi, %edx
	testb	%dl, %dl
	je	.L87
	movq	%rax, %rdi
	call	__asan_report_load4@PLT
.L87:
	movq	-24(%rbp), %rax
	movl	4(%rax), %ecx
	.loc 1 162 37
	movq	-32(%rbp), %rax
	addq	$4, %rax
	movq	%rax, %rdx
	shrq	$3, %rdx
	addq	$2147450880, %rdx
	movzbl	(%rdx), %edx
	testb	%dl, %dl
	setne	%dil
	movq	%rax, %rsi
	andl	$7, %esi
	addl	$3, %esi
	cmpb	%dl, %sil
	setge	%dl
	andl	%edi, %edx
	testb	%dl, %dl
	je	.L88
	movq	%rax, %rdi
	call	__asan_report_load4@PLT
.L88:
	movq	-32(%rbp), %rax
	movl	4(%rax), %eax
	.loc 1 162 5
	cmpl	%eax, %ecx
	je	.L89
	.loc 1 163 16
	movl	$0, %eax
	jmp	.L85
.L89:
	.loc 1 165 17
	movq	-24(%rbp), %rax
	movq	%rax, %rdx
	movq	%rdx, %rax
	shrq	$3, %rax
	addq	$2147450880, %rax
	movzbl	(%rax), %eax
	testb	%al, %al
	setne	%cl
	cmpb	$3, %al
	setle	%al
	andl	%ecx, %eax
	testb	%al, %al
	je	.L90
	movq	%rdx, %rdi
	call	__asan_report_load4@PLT
.L90:
	movq	-24(%rbp), %rax
	movl	(%rax), %ecx
	.loc 1 165 33
	movq	-32(%rbp), %rax
	movq	%rax, %rdx
	movq	%rdx, %rax
	shrq	$3, %rax
	addq	$2147450880, %rax
	movzbl	(%rax), %eax
	testb	%al, %al
	setne	%sil
	cmpb	$3, %al
	setle	%al
	andl	%esi, %eax
	testb	%al, %al
	je	.L91
	movq	%rdx, %rdi
	call	__asan_report_load4@PLT
.L91:
	movq	-32(%rbp), %rax
	movl	(%rax), %eax
	.loc 1 165 5
	cmpl	%eax, %ecx
	je	.L92
	.loc 1 166 16
	movl	$0, %eax
	jmp	.L85
.L92:
	.loc 1 168 17
	movq	-24(%rbp), %rax
	addq	$8, %rax
	movq	%rax, %rdx
	movq	%rdx, %rax
	shrq	$3, %rax
	addq	$2147450880, %rax
	movzbl	(%rax), %eax
	testb	%al, %al
	setne	%cl
	cmpb	$3, %al
	setle	%al
	andl	%ecx, %eax
	testb	%al, %al
	je	.L93
	movq	%rdx, %rdi
	call	__asan_report_load4@PLT
.L93:
	movq	-24(%rbp), %rax
	movl	8(%rax), %ecx
	.loc 1 168 43
	movq	-32(%rbp), %rax
	addq	$8, %rax
	movq	%rax, %rdx
	movq	%rdx, %rax
	shrq	$3, %rax
	addq	$2147450880, %rax
	movzbl	(%rax), %eax
	testb	%al, %al
	setne	%sil
	cmpb	$3, %al
	setle	%al
	andl	%esi, %eax
	testb	%al, %al
	je	.L94
	movq	%rdx, %rdi
	call	__asan_report_load4@PLT
.L94:
	movq	-32(%rbp), %rax
	movl	8(%rax), %eax
	.loc 1 168 5
	cmpl	%eax, %ecx
	je	.L95
	.loc 1 169 16
	movl	$0, %eax
	jmp	.L85
.L95:
	.loc 1 171 17
	movq	-24(%rbp), %rax
	addq	$12, %rax
	movq	%rax, %rdx
	shrq	$3, %rdx
	addq	$2147450880, %rdx
	movzbl	(%rdx), %edx
	testb	%dl, %dl
	setne	%sil
	movq	%rax, %rcx
	andl	$7, %ecx
	addl	$3, %ecx
	cmpb	%dl, %cl
	setge	%dl
	andl	%esi, %edx
	testb	%dl, %dl
	je	.L96
	movq	%rax, %rdi
	call	__asan_report_load4@PLT
.L96:
	movq	-24(%rbp), %rax
	movl	12(%rax), %ecx
	.loc 1 171 37
	movq	-32(%rbp), %rax
	addq	$12, %rax
	movq	%rax, %rdx
	shrq	$3, %rdx
	addq	$2147450880, %rdx
	movzbl	(%rdx), %edx
	testb	%dl, %dl
	setne	%dil
	movq	%rax, %rsi
	andl	$7, %esi
	addl	$3, %esi
	cmpb	%dl, %sil
	setge	%dl
	andl	%edi, %edx
	testb	%dl, %dl
	je	.L97
	movq	%rax, %rdi
	call	__asan_report_load4@PLT
.L97:
	movq	-32(%rbp), %rax
	movl	12(%rax), %eax
	.loc 1 171 5
	cmpl	%eax, %ecx
	je	.L98
	.loc 1 172 16
	movl	$0, %eax
	jmp	.L85
.L98:
	.loc 1 174 17
	movq	-24(%rbp), %rax
	addq	$16, %rax
	movq	%rax, %rdx
	movq	%rdx, %rax
	shrq	$3, %rax
	addq	$2147450880, %rax
	movzbl	(%rax), %eax
	testb	%al, %al
	setne	%cl
	cmpb	$3, %al
	setle	%al
	andl	%ecx, %eax
	testb	%al, %al
	je	.L99
	movq	%rdx, %rdi
	call	__asan_report_load4@PLT
.L99:
	movq	-24(%rbp), %rax
	movl	16(%rax), %ecx
	.loc 1 174 39
	movq	-32(%rbp), %rax
	addq	$16, %rax
	movq	%rax, %rdx
	movq	%rdx, %rax
	shrq	$3, %rax
	addq	$2147450880, %rax
	movzbl	(%rax), %eax
	testb	%al, %al
	setne	%sil
	cmpb	$3, %al
	setle	%al
	andl	%esi, %eax
	testb	%al, %al
	je	.L100
	movq	%rdx, %rdi
	call	__asan_report_load4@PLT
.L100:
	movq	-32(%rbp), %rax
	movl	16(%rax), %eax
	.loc 1 174 5
	cmpl	%eax, %ecx
	je	.L101
	.loc 1 175 16
	movl	$0, %eax
	jmp	.L85
.L101:
	.loc 1 177 12
	movl	$1, %eax
.L85:
	.loc 1 178 5
	movq	-8(%rbp), %rbx
	leave
	.cfi_def_cfa 7, 8
	ret
	.cfi_endproc
.LFE2275:
	.size	_Z13CompareLabelsP5LabelS0_, .-_Z13CompareLabelsP5LabelS0_
	.section	.rodata
	.align 32
.LC39:
	.string	"int ResizeNameTable(NameTable*)"
	.zero	32
	.align 32
.LC40:
	.string	"ResizeNameTable"
	.zero	48
	.text
	.type	_ZL15ResizeNameTableP9NameTable, @function
_ZL15ResizeNameTableP9NameTable:
.LASANPC2276:
.LFB2276:
	.loc 1 181 5
	.cfi_startproc
	endbr64
	pushq	%rbp
	.cfi_def_cfa_offset 16
	.cfi_offset 6, -16
	movq	%rsp, %rbp
	.cfi_def_cfa_register 6
	pushq	%rbx
	subq	$40, %rsp
	.cfi_offset 3, -24
	movq	%rdi, -40(%rbp)
	.loc 1 182 10
	cmpq	$0, -40(%rbp)
	jne	.L103
	.loc 1 182 45 discriminator 1
	call	_ZN6Logger11getInstanceEv@PLT
	movq	%rax, %rcx
	.loc 1 182 51 discriminator 1
	leaq	.LC2(%rip), %rax
	movq	%rax, %rdx
	leaq	.LC3(%rip), %rax
	movq	%rax, %rsi
	movq	%rcx, %rdi
	movl	$0, %eax
	call	_ZN6Logger3logEPKcz@PLT
	.loc 1 182 109 discriminator 1
	leaq	.LC2(%rip), %rax
	movq	%rax, %rsi
	leaq	.LC4(%rip), %rax
	movq	%rax, %rdi
	movl	$0, %eax
	call	printf@PLT
	.loc 1 182 255 discriminator 1
	call	_ZN6Logger11getInstanceEv@PLT
	movq	%rax, %rdi
	.loc 1 182 261 discriminator 1
	leaq	.LC39(%rip), %r8
	movl	$182, %ecx
	leaq	.LC1(%rip), %rax
	movq	%rax, %rdx
	leaq	.LC6(%rip), %rax
	movq	%rax, %rsi
	movl	$0, %eax
	call	_ZN6Logger3logEPKcz@PLT
	.loc 1 182 367 discriminator 1
	leaq	.LC39(%rip), %rax
	movq	%rax, %rcx
	movl	$182, %edx
	leaq	.LC1(%rip), %rax
	movq	%rax, %rsi
	leaq	.LC6(%rip), %rax
	movq	%rax, %rdi
	movl	$0, %eax
	call	printf@PLT
	.loc 1 182 486 discriminator 1
	call	_ZN6Logger11getInstanceEv@PLT
	movq	%rax, %rbx
	.loc 1 182 492 discriminator 1
	movl	$14, %edi
	call	strerror@PLT
	movq	%rax, %rcx
	movl	$14, %edx
	leaq	.LC7(%rip), %rax
	movq	%rax, %rsi
	movq	%rbx, %rdi
	movl	$0, %eax
	call	_ZN6Logger3logEPKcz@PLT
	.loc 1 182 27 discriminator 1
	call	_ZN6Logger11getInstanceEv@PLT
	movq	%rax, %rdi
	.loc 1 182 33 discriminator 1
	movl	$182, %ecx
	leaq	.LC40(%rip), %rax
	movq	%rax, %rdx
	leaq	.LC9(%rip), %rax
	movq	%rax, %rsi
	movl	$0, %eax
	call	_ZN6Logger3logEPKcz@PLT
	.loc 1 182 92 discriminator 1
	leaq	.LC10(%rip), %rax
	movq	%rax, %rdi
	call	system@PLT
	.loc 1 182 115 discriminator 1
	movl	$-2, %eax
	jmp	.L104
.L103:
	.loc 1 184 53
	call	_ZN6Logger11getInstanceEv@PLT
	movq	%rax, %rdi
	.loc 1 184 95
	movq	-40(%rbp), %rax
	addq	$8, %rax
	movq	%rax, %rdx
	shrq	$3, %rdx
	addq	$2147450880, %rdx
	movzbl	(%rdx), %edx
	testb	%dl, %dl
	je	.L105
	movq	%rax, %rdi
	call	__asan_report_load8@PLT
.L105:
	movq	-40(%rbp), %rax
	movq	8(%rax), %rax
	.loc 1 184 66
	salq	$4, %rax
	movq	%rax, %rdx
	.loc 1 184 75
	movq	-40(%rbp), %rax
	movq	%rax, %rcx
	shrq	$3, %rcx
	addq	$2147450880, %rcx
	movzbl	(%rcx), %ecx
	testb	%cl, %cl
	je	.L106
	movq	%rax, %rdi
	call	__asan_report_load8@PLT
.L106:
	movq	-40(%rbp), %rax
	movq	(%rax), %rax
	.loc 1 184 66
	movl	$184, %r9d
	leaq	.LC40(%rip), %r8
	leaq	.LC1(%rip), %rcx
	movq	%rax, %rsi
	call	_ZN6Logger9RECAL_LOGEPvmPKcS2_i@PLT
	movq	%rax, -24(%rbp)
	.loc 1 185 5
	cmpq	$0, -24(%rbp)
	jne	.L107
	.loc 1 186 35
	call	_ZN6Logger11getInstanceEv@PLT
	.loc 1 186 57
	call	_ZN6Logger11getInstanceEv@PLT
	movq	%rax, %rdi
	.loc 1 186 70
	subq	$8, %rsp
	pushq	$186
	leaq	.LC40(%rip), %r9
	movl	$186, %r8d
	leaq	.LC1(%rip), %rax
	movq	%rax, %rcx
	leaq	.LC11(%rip), %rax
	movq	%rax, %rdx
	movl	$-1, %esi
	movl	$0, %eax
	call	_ZN6Logger9LogMsgRetEiPKcz@PLT
	addq	$16, %rsp
	.loc 1 186 169
	jmp	.L104
.L107:
	.loc 1 188 24
	movq	-40(%rbp), %rax
	movq	%rax, %rdx
	shrq	$3, %rdx
	addq	$2147450880, %rdx
	movzbl	(%rdx), %edx
	testb	%dl, %dl
	je	.L108
	movq	%rax, %rdi
	call	__asan_report_store8@PLT
.L108:
	movq	-40(%rbp), %rax
	movq	-24(%rbp), %rdx
	movq	%rdx, (%rax)
	.loc 1 189 24
	movq	-40(%rbp), %rax
	addq	$8, %rax
	movq	%rax, %rdx
	shrq	$3, %rdx
	addq	$2147450880, %rdx
	movzbl	(%rdx), %edx
	testb	%dl, %dl
	je	.L109
	movq	%rax, %rdi
	call	__asan_report_load8@PLT
.L109:
	movq	-40(%rbp), %rax
	movq	8(%rax), %rax
	leaq	(%rax,%rax), %rdx
	movq	-40(%rbp), %rax
	movq	%rdx, 8(%rax)
	.loc 1 191 12
	movl	$0, %eax
.L104:
	.loc 1 192 5
	movq	-8(%rbp), %rbx
	leave
	.cfi_def_cfa 7, 8
	ret
	.cfi_endproc
.LFE2276:
	.size	_ZL15ResizeNameTableP9NameTable, .-_ZL15ResizeNameTableP9NameTable
	.section	.rodata
	.align 32
.LC41:
	.string	"NewNameTableArr"
	.zero	48
	.align 32
.LC42:
	.string	"Can't create NameTableArr of size %d\n"
	.zero	58
	.text
	.globl	_Z15NewNameTableArri
	.type	_Z15NewNameTableArri, @function
_Z15NewNameTableArri:
.LASANPC2277:
.LFB2277:
	.loc 1 202 5
	.cfi_startproc
	endbr64
	pushq	%rbp
	.cfi_def_cfa_offset 16
	.cfi_offset 6, -16
	movq	%rsp, %rbp
	.cfi_def_cfa_register 6
	subq	$32, %rsp
	movl	%edi, -20(%rbp)
	.loc 1 203 5
	cmpl	$0, -20(%rbp)
	jg	.L111
	.loc 1 205 17
	leaq	.LC41(%rip), %rax
	movq	%rax, %rsi
	leaq	.LC18(%rip), %rax
	movq	%rax, %rdi
	movl	$0, %eax
	call	printf@PLT
	.loc 1 205 45
	movl	-20(%rbp), %eax
	movl	%eax, %esi
	leaq	.LC42(%rip), %rax
	movq	%rax, %rdi
	movl	$0, %eax
	call	printf@PLT
	.loc 1 205 107
	movl	$205, %edx
	leaq	.LC1(%rip), %rax
	movq	%rax, %rsi
	leaq	.LC20(%rip), %rax
	movq	%rax, %rdi
	movl	$0, %eax
	call	printf@PLT
	.loc 1 206 35
	call	_ZN6Logger11getInstanceEv@PLT
	movq	%rax, %rdi
	.loc 1 206 51
	leaq	.LC41(%rip), %r8
	movl	$206, %ecx
	leaq	.LC1(%rip), %rax
	movq	%rax, %rdx
	leaq	.LC32(%rip), %rax
	movq	%rax, %rsi
	movl	$0, %eax
	call	_ZN6Logger13LogMsgNullRetEPKcz@PLT
	.loc 1 206 143
	movl	$0, %eax
	jmp	.L112
.L111:
	.loc 1 209 66
	call	_ZN6Logger11getInstanceEv@PLT
	movq	%rax, %rdi
	.loc 1 209 77
	movl	$209, %r9d
	leaq	.LC41(%rip), %r8
	leaq	.LC1(%rip), %rax
	movq	%rax, %rcx
	movl	$16, %edx
	movl	$1, %esi
	call	_ZN6Logger7CAL_LOGEmmPKcS1_i@PLT
	movq	%rax, -8(%rbp)
	.loc 1 210 5
	cmpq	$0, -8(%rbp)
	jne	.L113
	.loc 1 211 15
	movl	$0, %eax
	jmp	.L112
.L113:
	.loc 1 213 39
	movq	-8(%rbp), %rax
	addq	$8, %rax
	movq	%rax, %rdx
	movq	%rdx, %rax
	shrq	$3, %rax
	addq	$2147450880, %rax
	movzbl	(%rax), %eax
	testb	%al, %al
	setne	%cl
	cmpb	$3, %al
	setle	%al
	andl	%ecx, %eax
	testb	%al, %al
	je	.L114
	movq	%rdx, %rdi
	call	__asan_report_store4@PLT
.L114:
	movq	-8(%rbp), %rax
	movl	-20(%rbp), %edx
	movl	%edx, 8(%rax)
	.loc 1 215 59
	call	_ZN6Logger11getInstanceEv@PLT
	movq	%rax, %rdi
	.loc 1 215 94
	movq	-8(%rbp), %rax
	addq	$8, %rax
	movq	%rax, %rdx
	movq	%rdx, %rax
	shrq	$3, %rax
	addq	$2147450880, %rax
	movzbl	(%rax), %eax
	testb	%al, %al
	setne	%cl
	cmpb	$3, %al
	setle	%al
	andl	%ecx, %eax
	testb	%al, %al
	je	.L115
	movq	%rdx, %rdi
	call	__asan_report_load4@PLT
.L115:
	movq	-8(%rbp), %rax
	movl	8(%rax), %eax
	.loc 1 215 70
	cltq
	movl	$215, %r9d
	leaq	.LC41(%rip), %r8
	leaq	.LC1(%rip), %rdx
	movq	%rdx, %rcx
	movl	$8, %edx
	movq	%rax, %rsi
	call	_ZN6Logger7CAL_LOGEmmPKcS1_i@PLT
	.loc 1 215 24
	movq	-8(%rbp), %rdx
	movq	%rdx, %rcx
	shrq	$3, %rcx
	addq	$2147450880, %rcx
	movzbl	(%rcx), %ecx
	testb	%cl, %cl
	je	.L116
	movq	%rdx, %rdi
	call	__asan_report_store8@PLT
.L116:
	movq	-8(%rbp), %rdx
	movq	%rax, (%rdx)
	.loc 1 216 24
	movq	-8(%rbp), %rax
	movq	(%rax), %rax
	.loc 1 216 5
	testq	%rax, %rax
	jne	.L117
	.loc 1 218 28
	call	_ZN6Logger11getInstanceEv@PLT
	movq	%rax, %rdi
	.loc 1 218 40
	movq	-8(%rbp), %rax
	movl	$218, %r8d
	leaq	.LC41(%rip), %rdx
	movq	%rdx, %rcx
	leaq	.LC1(%rip), %rdx
	movq	%rax, %rsi
	call	_ZN6Logger8FREE_LOGEPvPKcS2_i@PLT
	.loc 1 219 15
	movl	$0, %eax
	jmp	.L112
.L117:
	.loc 1 222 37
	movq	-8(%rbp), %rax
	addq	$12, %rax
	movq	%rax, %rdx
	shrq	$3, %rdx
	addq	$2147450880, %rdx
	movzbl	(%rdx), %edx
	testb	%dl, %dl
	setne	%sil
	movq	%rax, %rcx
	andl	$7, %ecx
	addl	$3, %ecx
	cmpb	%dl, %cl
	setge	%dl
	andl	%esi, %edx
	testb	%dl, %dl
	je	.L118
	movq	%rax, %rdi
	call	__asan_report_store4@PLT
.L118:
	movq	-8(%rbp), %rax
	movl	$0, 12(%rax)
	.loc 1 224 12
	movq	-8(%rbp), %rax
.L112:
	.loc 1 225 5
	leave
	.cfi_def_cfa 7, 8
	ret
	.cfi_endproc
.LFE2277:
	.size	_Z15NewNameTableArri, .-_Z15NewNameTableArri
	.section	.rodata
	.align 32
.LC43:
	.string	"table_arr"
	.zero	54
	.align 32
.LC44:
	.string	"int DeleteNameTableArr(NameTableArr*)"
	.zero	58
	.align 32
.LC45:
	.string	"DeleteNameTableArr"
	.zero	45
	.align 32
.LC46:
	.string	"Tabel_arr %p: Null table_arr arr pointer\n"
	.zero	54
	.align 32
.LC47:
	.string	"Table+arr %p: arr_size (%d) less than namber_of_tables (%d)\n"
	.zero	35
	.align 32
.LC48:
	.string	"table_arr %p: null label in table_arr (position %d)\n"
	.zero	43
	.text
	.globl	_Z18DeleteNameTableArrP12NameTableArr
	.type	_Z18DeleteNameTableArrP12NameTableArr, @function
_Z18DeleteNameTableArrP12NameTableArr:
.LASANPC2278:
.LFB2278:
	.loc 1 228 5
	.cfi_startproc
	endbr64
	pushq	%rbp
	.cfi_def_cfa_offset 16
	.cfi_offset 6, -16
	movq	%rsp, %rbp
	.cfi_def_cfa_register 6
	pushq	%rbx
	subq	$40, %rsp
	.cfi_offset 3, -24
	movq	%rdi, -40(%rbp)
	.loc 1 229 10
	cmpq	$0, -40(%rbp)
	jne	.L120
	.loc 1 229 49 discriminator 1
	call	_ZN6Logger11getInstanceEv@PLT
	movq	%rax, %rcx
	.loc 1 229 55 discriminator 1
	leaq	.LC43(%rip), %rax
	movq	%rax, %rdx
	leaq	.LC3(%rip), %rax
	movq	%rax, %rsi
	movq	%rcx, %rdi
	movl	$0, %eax
	call	_ZN6Logger3logEPKcz@PLT
	.loc 1 229 117 discriminator 1
	leaq	.LC43(%rip), %rax
	movq	%rax, %rsi
	leaq	.LC4(%rip), %rax
	movq	%rax, %rdi
	movl	$0, %eax
	call	printf@PLT
	.loc 1 229 267 discriminator 1
	call	_ZN6Logger11getInstanceEv@PLT
	movq	%rax, %rdi
	.loc 1 229 273 discriminator 1
	leaq	.LC44(%rip), %r8
	movl	$229, %ecx
	leaq	.LC1(%rip), %rax
	movq	%rax, %rdx
	leaq	.LC6(%rip), %rax
	movq	%rax, %rsi
	movl	$0, %eax
	call	_ZN6Logger3logEPKcz@PLT
	.loc 1 229 379 discriminator 1
	leaq	.LC44(%rip), %rax
	movq	%rax, %rcx
	movl	$229, %edx
	leaq	.LC1(%rip), %rax
	movq	%rax, %rsi
	leaq	.LC6(%rip), %rax
	movq	%rax, %rdi
	movl	$0, %eax
	call	printf@PLT
	.loc 1 229 498 discriminator 1
	call	_ZN6Logger11getInstanceEv@PLT
	movq	%rax, %rbx
	.loc 1 229 504 discriminator 1
	movl	$14, %edi
	call	strerror@PLT
	movq	%rax, %rcx
	movl	$14, %edx
	leaq	.LC7(%rip), %rax
	movq	%rax, %rsi
	movq	%rbx, %rdi
	movl	$0, %eax
	call	_ZN6Logger3logEPKcz@PLT
	.loc 1 229 27 discriminator 1
	call	_ZN6Logger11getInstanceEv@PLT
	movq	%rax, %rdi
	.loc 1 229 33 discriminator 1
	movl	$229, %ecx
	leaq	.LC45(%rip), %rax
	movq	%rax, %rdx
	leaq	.LC9(%rip), %rax
	movq	%rax, %rsi
	movl	$0, %eax
	call	_ZN6Logger3logEPKcz@PLT
	.loc 1 229 92 discriminator 1
	leaq	.LC10(%rip), %rax
	movq	%rax, %rdi
	call	system@PLT
	.loc 1 229 134 discriminator 1
	call	_ZN6Logger11getInstanceEv@PLT
	.loc 1 229 156 discriminator 1
	call	_ZN6Logger11getInstanceEv@PLT
	movq	%rax, %rdi
	.loc 1 229 169 discriminator 1
	subq	$8, %rsp
	pushq	$229
	leaq	.LC45(%rip), %r9
	movl	$229, %r8d
	leaq	.LC1(%rip), %rax
	movq	%rax, %rcx
	leaq	.LC11(%rip), %rax
	movq	%rax, %rdx
	movl	$-1, %esi
	movl	$0, %eax
	call	_ZN6Logger9LogMsgRetEiPKcz@PLT
	addq	$16, %rsp
	.loc 1 229 268 discriminator 1
	jmp	.L121
.L120:
	.loc 1 231 24
	movq	-40(%rbp), %rax
	movq	%rax, %rdx
	shrq	$3, %rdx
	addq	$2147450880, %rdx
	movzbl	(%rdx), %edx
	testb	%dl, %dl
	je	.L122
	movq	%rax, %rdi
	call	__asan_report_load8@PLT
.L122:
	movq	-40(%rbp), %rax
	movq	(%rax), %rax
	.loc 1 231 5
	testq	%rax, %rax
	jne	.L123
	.loc 1 233 17
	leaq	.LC45(%rip), %rax
	movq	%rax, %rsi
	leaq	.LC18(%rip), %rax
	movq	%rax, %rdi
	movl	$0, %eax
	call	printf@PLT
	.loc 1 233 45
	movq	-40(%rbp), %rax
	movq	%rax, %rsi
	leaq	.LC46(%rip), %rax
	movq	%rax, %rdi
	movl	$0, %eax
	call	printf@PLT
	.loc 1 233 118
	movl	$233, %edx
	leaq	.LC1(%rip), %rax
	movq	%rax, %rsi
	leaq	.LC20(%rip), %rax
	movq	%rax, %rdi
	movl	$0, %eax
	call	printf@PLT
	.loc 1 234 35
	call	_ZN6Logger11getInstanceEv@PLT
	.loc 1 234 57
	call	_ZN6Logger11getInstanceEv@PLT
	movq	%rax, %rdi
	.loc 1 234 70
	subq	$8, %rsp
	pushq	$234
	leaq	.LC45(%rip), %r9
	movl	$234, %r8d
	leaq	.LC1(%rip), %rax
	movq	%rax, %rcx
	leaq	.LC11(%rip), %rax
	movq	%rax, %rdx
	movl	$-1, %esi
	movl	$0, %eax
	call	_ZN6Logger9LogMsgRetEiPKcz@PLT
	addq	$16, %rsp
	.loc 1 234 169
	jmp	.L121
.L123:
	.loc 1 237 23
	movq	-40(%rbp), %rax
	addq	$8, %rax
	movq	%rax, %rdx
	movq	%rdx, %rax
	shrq	$3, %rax
	addq	$2147450880, %rax
	movzbl	(%rax), %eax
	testb	%al, %al
	setne	%cl
	cmpb	$3, %al
	setle	%al
	andl	%ecx, %eax
	testb	%al, %al
	je	.L124
	movq	%rdx, %rdi
	call	__asan_report_load4@PLT
.L124:
	movq	-40(%rbp), %rax
	movl	8(%rax), %ecx
	.loc 1 237 59
	movq	-40(%rbp), %rax
	addq	$12, %rax
	movq	%rax, %rdx
	shrq	$3, %rdx
	addq	$2147450880, %rdx
	movzbl	(%rdx), %edx
	testb	%dl, %dl
	setne	%dil
	movq	%rax, %rsi
	andl	$7, %esi
	addl	$3, %esi
	cmpb	%dl, %sil
	setge	%dl
	andl	%edi, %edx
	testb	%dl, %dl
	je	.L125
	movq	%rax, %rdi
	call	__asan_report_load4@PLT
.L125:
	movq	-40(%rbp), %rax
	movl	12(%rax), %eax
	.loc 1 237 5
	cmpl	%eax, %ecx
	jge	.L126
	.loc 1 239 17
	leaq	.LC45(%rip), %rax
	movq	%rax, %rsi
	leaq	.LC18(%rip), %rax
	movq	%rax, %rdi
	movl	$0, %eax
	call	printf@PLT
	.loc 1 239 45
	movq	-40(%rbp), %rax
	addq	$12, %rax
	movq	%rax, %rdx
	shrq	$3, %rdx
	addq	$2147450880, %rdx
	movzbl	(%rdx), %edx
	testb	%dl, %dl
	setne	%sil
	movq	%rax, %rcx
	andl	$7, %ecx
	addl	$3, %ecx
	cmpb	%dl, %cl
	setge	%dl
	andl	%esi, %edx
	testb	%dl, %dl
	je	.L127
	movq	%rax, %rdi
	call	__asan_report_load4@PLT
.L127:
	movq	-40(%rbp), %rax
	movl	12(%rax), %ecx
	movq	-40(%rbp), %rax
	addq	$8, %rax
	movq	%rax, %rdx
	movq	%rdx, %rax
	shrq	$3, %rax
	addq	$2147450880, %rax
	movzbl	(%rax), %eax
	testb	%al, %al
	setne	%sil
	cmpb	$3, %al
	setle	%al
	andl	%esi, %eax
	testb	%al, %al
	je	.L128
	movq	%rdx, %rdi
	call	__asan_report_load4@PLT
.L128:
	movq	-40(%rbp), %rax
	movl	8(%rax), %edx
	movq	-40(%rbp), %rax
	movq	%rax, %rsi
	leaq	.LC47(%rip), %rax
	movq	%rax, %rdi
	movl	$0, %eax
	call	printf@PLT
	.loc 1 239 205
	movl	$239, %edx
	leaq	.LC1(%rip), %rax
	movq	%rax, %rsi
	leaq	.LC20(%rip), %rax
	movq	%rax, %rdi
	movl	$0, %eax
	call	printf@PLT
	.loc 1 242 16
	movl	$-1, %eax
	jmp	.L121
.L126:
.LBB4:
	.loc 1 245 14
	movl	$0, -20(%rbp)
	.loc 1 245 5
	jmp	.L129
.L135:
	.loc 1 247 29
	movq	-40(%rbp), %rax
	movq	%rax, %rdx
	shrq	$3, %rdx
	addq	$2147450880, %rdx
	movzbl	(%rdx), %edx
	testb	%dl, %dl
	je	.L130
	movq	%rax, %rdi
	call	__asan_report_load8@PLT
.L130:
	movq	-40(%rbp), %rax
	movq	(%rax), %rdx
	.loc 1 247 36
	movl	-20(%rbp), %eax
	cltq
	.loc 1 247 34
	salq	$3, %rax
	addq	%rdx, %rax
	.loc 1 247 9
	testq	%rax, %rax
	jne	.L131
	.loc 1 249 21
	leaq	.LC45(%rip), %rax
	movq	%rax, %rsi
	leaq	.LC18(%rip), %rax
	movq	%rax, %rdi
	movl	$0, %eax
	call	printf@PLT
	.loc 1 249 49
	movl	-20(%rbp), %edx
	movq	-40(%rbp), %rax
	movq	%rax, %rsi
	leaq	.LC48(%rip), %rax
	movq	%rax, %rdi
	movl	$0, %eax
	call	printf@PLT
	.loc 1 249 128
	movl	$249, %edx
	leaq	.LC1(%rip), %rax
	movq	%rax, %rsi
	leaq	.LC20(%rip), %rax
	movq	%rax, %rdi
	movl	$0, %eax
	call	printf@PLT
	.loc 1 251 39
	call	_ZN6Logger11getInstanceEv@PLT
	.loc 1 251 61
	call	_ZN6Logger11getInstanceEv@PLT
	movq	%rax, %rdi
	.loc 1 251 74
	subq	$8, %rsp
	pushq	$251
	leaq	.LC45(%rip), %r9
	movl	$251, %r8d
	leaq	.LC1(%rip), %rax
	movq	%rax, %rcx
	leaq	.LC11(%rip), %rax
	movq	%rax, %rdx
	movl	$-1, %esi
	movl	$0, %eax
	call	_ZN6Logger9LogMsgRetEiPKcz@PLT
	addq	$16, %rsp
	.loc 1 251 173
	jmp	.L121
.L131:
	.loc 1 253 38 discriminator 2
	movq	-40(%rbp), %rax
	movq	%rax, %rdx
	shrq	$3, %rdx
	addq	$2147450880, %rdx
	movzbl	(%rdx), %edx
	testb	%dl, %dl
	je	.L132
	.loc 1 253 38 is_stmt 0
	movq	%rax, %rdi
	call	__asan_report_load8@PLT
.L132:
	.loc 1 253 38 discriminator 2
	movq	-40(%rbp), %rax
	movq	(%rax), %rdx
	.loc 1 253 43 is_stmt 1 discriminator 2
	movl	-20(%rbp), %eax
	cltq
	.loc 1 253 44 discriminator 2
	salq	$3, %rax
	addq	%rdx, %rax
	.loc 1 253 23 discriminator 2
	movq	%rax, %rdx
	movq	%rdx, %rcx
	shrq	$3, %rcx
	addq	$2147450880, %rcx
	movzbl	(%rcx), %ecx
	testb	%cl, %cl
	je	.L133
	.loc 1 253 23 is_stmt 0
	movq	%rdx, %rdi
	call	__asan_report_load8@PLT
.L133:
	.loc 1 253 23 discriminator 2
	movq	(%rax), %rax
	movq	%rax, %rdi
	call	_Z14CloseNameTableP9NameTable
	.loc 1 245 5 is_stmt 1 discriminator 2
	addl	$1, -20(%rbp)
.L129:
	.loc 1 245 39 discriminator 1
	movq	-40(%rbp), %rax
	addq	$12, %rax
	movq	%rax, %rdx
	shrq	$3, %rdx
	addq	$2147450880, %rdx
	movzbl	(%rdx), %edx
	testb	%dl, %dl
	setne	%sil
	movq	%rax, %rcx
	andl	$7, %ecx
	addl	$3, %ecx
	cmpb	%dl, %cl
	setge	%dl
	andl	%esi, %edx
	testb	%dl, %dl
	je	.L134
	.loc 1 245 39 is_stmt 0
	movq	%rax, %rdi
	call	__asan_report_load4@PLT
.L134:
	.loc 1 245 39 discriminator 1
	movq	-40(%rbp), %rax
	movl	12(%rax), %eax
	.loc 1 245 23 is_stmt 1 discriminator 1
	cmpl	%eax, -20(%rbp)
	jl	.L135
.LBE4:
	.loc 1 256 24
	call	_ZN6Logger11getInstanceEv@PLT
	movq	%rax, %rdi
	.loc 1 256 51
	movq	-40(%rbp), %rax
	movq	%rax, %rdx
	shrq	$3, %rdx
	addq	$2147450880, %rdx
	movzbl	(%rdx), %edx
	testb	%dl, %dl
	je	.L136
	movq	%rax, %rdi
	call	__asan_report_load8@PLT
.L136:
	movq	-40(%rbp), %rax
	movq	(%rax), %rax
	.loc 1 256 36
	movl	$256, %r8d
	leaq	.LC45(%rip), %rdx
	movq	%rdx, %rcx
	leaq	.LC1(%rip), %rdx
	movq	%rax, %rsi
	call	_ZN6Logger8FREE_LOGEPvPKcS2_i@PLT
	.loc 1 257 24
	call	_ZN6Logger11getInstanceEv@PLT
	movq	%rax, %rdi
	.loc 1 257 36
	movq	-40(%rbp), %rax
	movl	$257, %r8d
	leaq	.LC45(%rip), %rdx
	movq	%rdx, %rcx
	leaq	.LC1(%rip), %rdx
	movq	%rax, %rsi
	call	_ZN6Logger8FREE_LOGEPvPKcS2_i@PLT
	.loc 1 259 12
	movl	$0, %eax
.L121:
	.loc 1 260 5
	movq	-8(%rbp), %rbx
	leave
	.cfi_def_cfa 7, 8
	ret
	.cfi_endproc
.LFE2278:
	.size	_Z18DeleteNameTableArrP12NameTableArr, .-_Z18DeleteNameTableArrP12NameTableArr
	.section	.rodata
.LC49:
	.string	"1 32 24 12 func_264:264"
	.align 32
.LC50:
	.string	"AddTable"
	.zero	55
	.align 32
.LC51:
	.string	"NameTable* AddTable(NameTableArr*)"
	.zero	61
	.align 32
.LC52:
	.string	"%s:%d::CHECK: ResizeNameTableArr(table_arr) == SUCCESS is false\n"
	.zero	63
	.text
	.globl	_Z8AddTableP12NameTableArr
	.type	_Z8AddTableP12NameTableArr, @function
_Z8AddTableP12NameTableArr:
.LASANPC2279:
.LFB2279:
	.loc 1 263 5
	.cfi_startproc
	.cfi_personality 0x9b,DW.ref.__gxx_personality_v0
	.cfi_lsda 0x1b,.LLSDA2279
	endbr64
	pushq	%rbp
	.cfi_def_cfa_offset 16
	.cfi_offset 6, -16
	movq	%rsp, %rbp
	.cfi_def_cfa_register 6
	pushq	%r15
	pushq	%r14
	pushq	%r13
	pushq	%r12
	pushq	%rbx
	subq	$136, %rsp
	.cfi_offset 15, -24
	.cfi_offset 14, -32
	.cfi_offset 13, -40
	.cfi_offset 12, -48
	.cfi_offset 3, -56
	movq	%rdi, -168(%rbp)
	leaq	-144(%rbp), %rbx
	movq	%rbx, %r15
	cmpl	$0, __asan_option_detect_stack_use_after_return(%rip)
	je	.L137
	movl	$96, %edi
	call	__asan_stack_malloc_1@PLT
	testq	%rax, %rax
	je	.L137
	movq	%rax, %rbx
.L137:
	leaq	96(%rbx), %rax
	movq	%rax, %r13
	movq	$1102416563, (%rbx)
	leaq	.LC49(%rip), %rax
	movq	%rax, 8(%rbx)
	leaq	.LASANPC2279(%rip), %rax
	movq	%rax, 16(%rbx)
	movq	%rbx, %r12
	shrq	$3, %r12
	movl	$-235802127, 2147450880(%r12)
	movl	$-218103808, 2147450884(%r12)
	movl	$-202116109, 2147450888(%r12)
	.loc 1 264 41
	leaq	-64(%r13), %rax
	leaq	.LC50(%rip), %rdx
	movl	$1, %esi
	movq	%rax, %rdi
.LEHB9:
	call	_ZN14FunctionLoggerC1EiPKc@PLT
.LEHE9:
	.loc 1 265 10
	cmpq	$0, -168(%rbp)
	jne	.L141
.LEHB10:
	.loc 1 265 49 discriminator 1
	call	_ZN6Logger11getInstanceEv@PLT
	movq	%rax, %rcx
	.loc 1 265 55 discriminator 1
	leaq	.LC43(%rip), %rax
	movq	%rax, %rdx
	leaq	.LC3(%rip), %rax
	movq	%rax, %rsi
	movq	%rcx, %rdi
	movl	$0, %eax
	call	_ZN6Logger3logEPKcz@PLT
	.loc 1 265 117 discriminator 3
	leaq	.LC43(%rip), %rax
	movq	%rax, %rsi
	leaq	.LC4(%rip), %rax
	movq	%rax, %rdi
	movl	$0, %eax
	call	printf@PLT
	.loc 1 265 267 discriminator 4
	call	_ZN6Logger11getInstanceEv@PLT
	movq	%rax, %rdi
	.loc 1 265 273 discriminator 4
	leaq	.LC51(%rip), %r8
	movl	$265, %ecx
	leaq	.LC1(%rip), %rax
	movq	%rax, %rdx
	leaq	.LC6(%rip), %rax
	movq	%rax, %rsi
	movl	$0, %eax
	call	_ZN6Logger3logEPKcz@PLT
	.loc 1 265 379 discriminator 6
	leaq	.LC51(%rip), %rax
	movq	%rax, %rcx
	movl	$265, %edx
	leaq	.LC1(%rip), %rax
	movq	%rax, %rsi
	leaq	.LC6(%rip), %rax
	movq	%rax, %rdi
	movl	$0, %eax
	call	printf@PLT
	.loc 1 265 498 discriminator 7
	call	_ZN6Logger11getInstanceEv@PLT
	movq	%rax, %r14
	.loc 1 265 504 discriminator 7
	movl	$14, %edi
	call	strerror@PLT
	movq	%rax, %rcx
	movl	$14, %edx
	leaq	.LC7(%rip), %rax
	movq	%rax, %rsi
	movq	%r14, %rdi
	movl	$0, %eax
	call	_ZN6Logger3logEPKcz@PLT
	.loc 1 265 27 discriminator 9
	call	_ZN6Logger11getInstanceEv@PLT
	movq	%rax, %rdi
	.loc 1 265 33 discriminator 9
	movl	$265, %ecx
	leaq	.LC50(%rip), %rax
	movq	%rax, %rdx
	leaq	.LC9(%rip), %rax
	movq	%rax, %rsi
	movl	$0, %eax
	call	_ZN6Logger3logEPKcz@PLT
	.loc 1 265 92 discriminator 11
	leaq	.LC10(%rip), %rax
	movq	%rax, %rdi
	call	system@PLT
	.loc 1 265 134 discriminator 12
	call	_ZN6Logger11getInstanceEv@PLT
	movq	%rax, %rdi
	.loc 1 265 150 discriminator 12
	leaq	.LC50(%rip), %r8
	movl	$265, %ecx
	leaq	.LC1(%rip), %rax
	movq	%rax, %rdx
	leaq	.LC32(%rip), %rax
	movq	%rax, %rsi
	movl	$0, %eax
	call	_ZN6Logger13LogMsgNullRetEPKcz@PLT
	.loc 1 265 242 discriminator 14
	movl	$0, %r14d
	jmp	.L142
.L141:
	.loc 1 267 23
	movq	-168(%rbp), %rax
	addq	$8, %rax
	movq	%rax, %rdx
	movq	%rdx, %rax
	shrq	$3, %rax
	addq	$2147450880, %rax
	movzbl	(%rax), %eax
	testb	%al, %al
	setne	%cl
	cmpb	$3, %al
	setle	%al
	andl	%ecx, %eax
	testb	%al, %al
	je	.L143
	movq	%rdx, %rdi
	call	__asan_report_load4@PLT
.L143:
	movq	-168(%rbp), %rax
	movl	8(%rax), %ecx
	.loc 1 267 60
	movq	-168(%rbp), %rax
	addq	$12, %rax
	movq	%rax, %rdx
	shrq	$3, %rdx
	addq	$2147450880, %rdx
	movzbl	(%rdx), %edx
	testb	%dl, %dl
	setne	%dil
	movq	%rax, %rsi
	andl	$7, %esi
	addl	$3, %esi
	cmpb	%dl, %sil
	setge	%dl
	andl	%edi, %edx
	testb	%dl, %dl
	je	.L144
	movq	%rax, %rdi
	call	__asan_report_load4@PLT
.L144:
	movq	-168(%rbp), %rax
	movl	12(%rax), %eax
	.loc 1 267 5
	cmpl	%eax, %ecx
	jg	.L145
	.loc 1 268 37
	movq	-168(%rbp), %rax
	movq	%rax, %rdi
	call	_ZL18ResizeNameTableArrP12NameTableArr
	.loc 1 268 49
	testl	%eax, %eax
	setne	%al
	.loc 1 268 14
	testb	%al, %al
	je	.L145
	.loc 1 268 82 discriminator 2
	call	_ZN6Logger11getInstanceEv@PLT
	movq	%rax, %rdi
	.loc 1 268 88 discriminator 2
	movl	$268, %ecx
	leaq	.LC50(%rip), %rax
	movq	%rax, %rdx
	leaq	.LC52(%rip), %rax
	movq	%rax, %rsi
	movl	$0, %eax
	call	_ZN6Logger3logEPKcz@PLT
	.loc 1 268 207 discriminator 4
	call	_ZN6Logger11getInstanceEv@PLT
	movq	%rax, %rdi
	.loc 1 268 223 discriminator 4
	leaq	.LC50(%rip), %r8
	movl	$268, %ecx
	leaq	.LC1(%rip), %rax
	movq	%rax, %rdx
	leaq	.LC32(%rip), %rax
	movq	%rax, %rsi
	movl	$0, %eax
	call	_ZN6Logger13LogMsgNullRetEPKcz@PLT
	.loc 1 268 315 discriminator 6
	movl	$0, %r14d
	jmp	.L142
.L145:
	.loc 1 270 36
	call	_Z12NewNameTablev
	movq	%rax, -152(%rbp)
	.loc 1 271 5
	cmpq	$0, -152(%rbp)
	jne	.L146
	.loc 1 272 35
	call	_ZN6Logger11getInstanceEv@PLT
	movq	%rax, %rdi
	.loc 1 272 51
	leaq	.LC50(%rip), %r8
	movl	$272, %ecx
	leaq	.LC1(%rip), %rax
	movq	%rax, %rdx
	leaq	.LC32(%rip), %rax
	movq	%rax, %rsi
	movl	$0, %eax
	call	_ZN6Logger13LogMsgNullRetEPKcz@PLT
.LEHE10:
	.loc 1 272 143 discriminator 2
	movl	$0, %r14d
	jmp	.L142
.L146:
	.loc 1 274 63
	movq	-152(%rbp), %rcx
	.loc 1 274 21
	movq	-168(%rbp), %rax
	movq	%rax, %rdx
	shrq	$3, %rdx
	addq	$2147450880, %rdx
	movzbl	(%rdx), %edx
	testb	%dl, %dl
	je	.L147
	movq	%rax, %rdi
	call	__asan_report_load8@PLT
.L147:
	movq	-168(%rbp), %rax
	movq	(%rax), %rdi
	.loc 1 274 42
	movq	-168(%rbp), %rax
	addq	$12, %rax
	movq	%rax, %rdx
	shrq	$3, %rdx
	addq	$2147450880, %rdx
	movzbl	(%rdx), %edx
	testb	%dl, %dl
	setne	%r8b
	movq	%rax, %rsi
	andl	$7, %esi
	addl	$3, %esi
	cmpb	%dl, %sil
	setge	%dl
	andl	%r8d, %edx
	testb	%dl, %dl
	je	.L148
	movq	%rax, %rdi
	call	__asan_report_load4@PLT
.L148:
	movq	-168(%rbp), %rax
	movl	12(%rax), %eax
	.loc 1 274 59
	leal	1(%rax), %esi
	movq	-168(%rbp), %rdx
	movl	%esi, 12(%rdx)
	cltq
	.loc 1 274 26
	salq	$3, %rax
	addq	%rdi, %rax
	.loc 1 274 63
	movq	%rax, %rdx
	movq	%rdx, %rsi
	shrq	$3, %rsi
	addq	$2147450880, %rsi
	movzbl	(%rsi), %esi
	testb	%sil, %sil
	je	.L149
	movq	%rdx, %rdi
	call	__asan_report_store8@PLT
.L149:
	movq	%rcx, (%rax)
	.loc 1 278 12
	movq	-152(%rbp), %r14
.L142:
	.loc 1 279 5
	leaq	-64(%r13), %rax
	movq	%rax, %rdi
	call	_ZN14FunctionLoggerD1Ev@PLT
	movq	%r14, %rdx
	.loc 1 263 5
	cmpq	%rbx, %r15
	je	.L138
	jmp	.L153
.L152:
	endbr64
	.loc 1 279 5
	movq	%rax, %rbx
	leaq	-64(%r13), %rax
	movq	%rax, %rdi
	call	_ZN14FunctionLoggerD1Ev@PLT
	call	__asan_handle_no_return@PLT
	movq	%rbx, %rdi
.LEHB11:
	call	_Unwind_Resume@PLT
.LEHE11:
.L153:
	.loc 1 263 5
	movq	$1172321806, (%rbx)
	movabsq	$-723401728380766731, %rax
	movq	%rax, 2147450880(%r12)
	movl	$-168430091, 2147450888(%r12)
	movq	120(%rbx), %rax
	movb	$0, (%rax)
	jmp	.L139
.L138:
	movq	$0, 2147450880(%r12)
	movl	$0, 2147450888(%r12)
.L139:
	.loc 1 279 5
	movq	%rdx, %rax
	addq	$136, %rsp
	popq	%rbx
	popq	%r12
	popq	%r13
	popq	%r14
	popq	%r15
	popq	%rbp
	.cfi_def_cfa 7, 8
	ret
	.cfi_endproc
.LFE2279:
	.section	.gcc_except_table
.LLSDA2279:
	.byte	0xff
	.byte	0xff
	.byte	0x1
	.uleb128 .LLSDACSE2279-.LLSDACSB2279
.LLSDACSB2279:
	.uleb128 .LEHB9-.LFB2279
	.uleb128 .LEHE9-.LEHB9
	.uleb128 0
	.uleb128 0
	.uleb128 .LEHB10-.LFB2279
	.uleb128 .LEHE10-.LEHB10
	.uleb128 .L152-.LFB2279
	.uleb128 0
	.uleb128 .LEHB11-.LFB2279
	.uleb128 .LEHE11-.LEHB11
	.uleb128 0
	.uleb128 0
.LLSDACSE2279:
	.text
	.size	_Z8AddTableP12NameTableArr, .-_Z8AddTableP12NameTableArr
	.section	.rodata
	.align 32
.LC53:
	.string	"int ResizeNameTableArr(NameTableArr*)"
	.zero	58
	.align 32
.LC54:
	.string	"ResizeNameTableArr"
	.zero	45
	.text
	.type	_ZL18ResizeNameTableArrP12NameTableArr, @function
_ZL18ResizeNameTableArrP12NameTableArr:
.LASANPC2280:
.LFB2280:
	.loc 1 283 5
	.cfi_startproc
	endbr64
	pushq	%rbp
	.cfi_def_cfa_offset 16
	.cfi_offset 6, -16
	movq	%rsp, %rbp
	.cfi_def_cfa_register 6
	pushq	%rbx
	subq	$40, %rsp
	.cfi_offset 3, -24
	movq	%rdi, -40(%rbp)
	.loc 1 284 10
	cmpq	$0, -40(%rbp)
	jne	.L155
	.loc 1 284 49 discriminator 1
	call	_ZN6Logger11getInstanceEv@PLT
	movq	%rax, %rcx
	.loc 1 284 55 discriminator 1
	leaq	.LC43(%rip), %rax
	movq	%rax, %rdx
	leaq	.LC3(%rip), %rax
	movq	%rax, %rsi
	movq	%rcx, %rdi
	movl	$0, %eax
	call	_ZN6Logger3logEPKcz@PLT
	.loc 1 284 117 discriminator 1
	leaq	.LC43(%rip), %rax
	movq	%rax, %rsi
	leaq	.LC4(%rip), %rax
	movq	%rax, %rdi
	movl	$0, %eax
	call	printf@PLT
	.loc 1 284 267 discriminator 1
	call	_ZN6Logger11getInstanceEv@PLT
	movq	%rax, %rdi
	.loc 1 284 273 discriminator 1
	leaq	.LC53(%rip), %r8
	movl	$284, %ecx
	leaq	.LC1(%rip), %rax
	movq	%rax, %rdx
	leaq	.LC6(%rip), %rax
	movq	%rax, %rsi
	movl	$0, %eax
	call	_ZN6Logger3logEPKcz@PLT
	.loc 1 284 379 discriminator 1
	leaq	.LC53(%rip), %rax
	movq	%rax, %rcx
	movl	$284, %edx
	leaq	.LC1(%rip), %rax
	movq	%rax, %rsi
	leaq	.LC6(%rip), %rax
	movq	%rax, %rdi
	movl	$0, %eax
	call	printf@PLT
	.loc 1 284 498 discriminator 1
	call	_ZN6Logger11getInstanceEv@PLT
	movq	%rax, %rbx
	.loc 1 284 504 discriminator 1
	movl	$14, %edi
	call	strerror@PLT
	movq	%rax, %rcx
	movl	$14, %edx
	leaq	.LC7(%rip), %rax
	movq	%rax, %rsi
	movq	%rbx, %rdi
	movl	$0, %eax
	call	_ZN6Logger3logEPKcz@PLT
	.loc 1 284 27 discriminator 1
	call	_ZN6Logger11getInstanceEv@PLT
	movq	%rax, %rdi
	.loc 1 284 33 discriminator 1
	movl	$284, %ecx
	leaq	.LC54(%rip), %rax
	movq	%rax, %rdx
	leaq	.LC9(%rip), %rax
	movq	%rax, %rsi
	movl	$0, %eax
	call	_ZN6Logger3logEPKcz@PLT
	.loc 1 284 92 discriminator 1
	leaq	.LC10(%rip), %rax
	movq	%rax, %rdi
	call	system@PLT
	.loc 1 284 115 discriminator 1
	movl	$-2, %eax
	jmp	.L156
.L155:
	.loc 1 286 61
	call	_ZN6Logger11getInstanceEv@PLT
	movq	%rax, %rdi
	.loc 1 286 118
	movq	-40(%rbp), %rax
	addq	$8, %rax
	movq	%rax, %rdx
	movq	%rdx, %rax
	shrq	$3, %rax
	addq	$2147450880, %rax
	movzbl	(%rax), %eax
	testb	%al, %al
	setne	%cl
	cmpb	$3, %al
	setle	%al
	andl	%ecx, %eax
	testb	%al, %al
	je	.L157
	movq	%rdx, %rdi
	call	__asan_report_load4@PLT
.L157:
	movq	-40(%rbp), %rax
	movl	8(%rax), %eax
	.loc 1 286 95
	cltq
	.loc 1 286 74
	salq	$4, %rax
	movq	%rax, %rdx
	.loc 1 286 89
	movq	-40(%rbp), %rax
	movq	%rax, %rcx
	shrq	$3, %rcx
	addq	$2147450880, %rcx
	movzbl	(%rcx), %ecx
	testb	%cl, %cl
	je	.L158
	movq	%rax, %rdi
	call	__asan_report_load8@PLT
.L158:
	movq	-40(%rbp), %rax
	movq	(%rax), %rax
	.loc 1 286 74
	movl	$286, %r9d
	leaq	.LC54(%rip), %r8
	leaq	.LC1(%rip), %rcx
	movq	%rax, %rsi
	call	_ZN6Logger9RECAL_LOGEPvmPKcS2_i@PLT
	movq	%rax, -24(%rbp)
	.loc 1 287 5
	cmpq	$0, -24(%rbp)
	jne	.L159
	.loc 1 288 35
	call	_ZN6Logger11getInstanceEv@PLT
	.loc 1 288 57
	call	_ZN6Logger11getInstanceEv@PLT
	movq	%rax, %rdi
	.loc 1 288 70
	subq	$8, %rsp
	pushq	$288
	leaq	.LC54(%rip), %r9
	movl	$288, %r8d
	leaq	.LC1(%rip), %rax
	movq	%rax, %rcx
	leaq	.LC11(%rip), %rax
	movq	%rax, %rdx
	movl	$-1, %esi
	movl	$0, %eax
	call	_ZN6Logger9LogMsgRetEiPKcz@PLT
	addq	$16, %rsp
	.loc 1 288 169
	jmp	.L156
.L159:
	.loc 1 290 24
	movq	-40(%rbp), %rax
	movq	%rax, %rdx
	shrq	$3, %rdx
	addq	$2147450880, %rdx
	movzbl	(%rdx), %edx
	testb	%dl, %dl
	je	.L160
	movq	%rax, %rdi
	call	__asan_report_store8@PLT
.L160:
	movq	-40(%rbp), %rax
	movq	-24(%rbp), %rdx
	movq	%rdx, (%rax)
	.loc 1 291 39
	movq	-40(%rbp), %rax
	addq	$8, %rax
	movq	%rax, %rdx
	movq	%rdx, %rax
	shrq	$3, %rax
	addq	$2147450880, %rax
	movzbl	(%rax), %eax
	testb	%al, %al
	setne	%cl
	cmpb	$3, %al
	setle	%al
	andl	%ecx, %eax
	testb	%al, %al
	je	.L161
	movq	%rdx, %rdi
	call	__asan_report_load4@PLT
.L161:
	movq	-40(%rbp), %rax
	movl	8(%rax), %eax
	leal	(%rax,%rax), %edx
	movq	-40(%rbp), %rax
	movl	%edx, 8(%rax)
	.loc 1 293 12
	movl	$0, %eax
.L156:
	.loc 1 294 5
	movq	-8(%rbp), %rbx
	leave
	.cfi_def_cfa 7, 8
	ret
	.cfi_endproc
.LFE2280:
	.size	_ZL18ResizeNameTableArrP12NameTableArr, .-_ZL18ResizeNameTableArrP12NameTableArr
	.type	_Z41__static_initialization_and_destruction_0ii, @function
_Z41__static_initialization_and_destruction_0ii:
.LASANPC2947:
.LFB2947:
	.loc 1 294 5
	.cfi_startproc
	endbr64
	pushq	%rbp
	.cfi_def_cfa_offset 16
	.cfi_offset 6, -16
	movq	%rsp, %rbp
	.cfi_def_cfa_register 6
	subq	$16, %rsp
	movl	%edi, -4(%rbp)
	movl	%esi, -8(%rbp)
	.loc 1 294 5
	cmpl	$1, -4(%rbp)
	jne	.L165
	.loc 1 294 5 is_stmt 0 discriminator 1
	leaq	.LC1(%rip), %rax
	movq	%rax, %rdi
	call	__asan_before_dynamic_init@PLT
	cmpl	$65535, -8(%rbp)
	jne	.L164
	.file 2 "/usr/include/c++/11/iostream"
	.loc 2 74 25 is_stmt 1
	leaq	_ZStL8__ioinit(%rip), %rax
	movq	%rax, %rdi
	call	_ZNSt8ios_base4InitC1Ev@PLT
	leaq	__dso_handle(%rip), %rax
	movq	%rax, %rdx
	leaq	_ZStL8__ioinit(%rip), %rax
	movq	%rax, %rsi
	movq	_ZNSt8ios_base4InitD1Ev@GOTPCREL(%rip), %rax
	movq	%rax, %rdi
	call	__cxa_atexit@PLT
.L164:
	.loc 2 74 25 is_stmt 0 discriminator 1
	call	__asan_after_dynamic_init@PLT
.L165:
	.loc 1 294 5 is_stmt 1
	nop
	leave
	.cfi_def_cfa 7, 8
	ret
	.cfi_endproc
.LFE2947:
	.size	_Z41__static_initialization_and_destruction_0ii, .-_Z41__static_initialization_and_destruction_0ii
	.type	_GLOBAL__sub_I__Z12NewNameTablev, @function
_GLOBAL__sub_I__Z12NewNameTablev:
.LASANPC2948:
.LFB2948:
	.loc 1 294 5
	.cfi_startproc
	endbr64
	pushq	%rbp
	.cfi_def_cfa_offset 16
	.cfi_offset 6, -16
	movq	%rsp, %rbp
	.cfi_def_cfa_register 6
	.loc 1 294 5
	movl	$65535, %esi
	movl	$1, %edi
	call	_Z41__static_initialization_and_destruction_0ii
	popq	%rbp
	.cfi_def_cfa 7, 8
	ret
	.cfi_endproc
.LFE2948:
	.size	_GLOBAL__sub_I__Z12NewNameTablev, .-_GLOBAL__sub_I__Z12NewNameTablev
	.section	.init_array,"aw"
	.align 8
	.quad	_GLOBAL__sub_I__Z12NewNameTablev
	.section	.data.rel.local,"aw"
	.align 16
	.type	.LASANLOC1, @object
	.size	.LASANLOC1, 16
.LASANLOC1:
	.quad	.LC1
	.long	8
	.long	11
	.align 16
	.type	.LASANLOC2, @object
	.size	.LASANLOC2, 16
.LASANLOC2:
	.quad	.LC1
	.long	6
	.long	11
	.section	.rodata
.LC55:
	.string	"../ATC/Buffer/my_buffer.h"
	.section	.data.rel.local
	.align 16
	.type	.LASANLOC3, @object
	.size	.LASANLOC3, 16
.LASANLOC3:
	.quad	.LC55
	.long	32
	.long	11
	.section	.rodata
	.align 8
.LC56:
	.string	"../ATC/RandomStuff/CommonEnums.h"
	.section	.data.rel.local
	.align 16
	.type	.LASANLOC4, @object
	.size	.LASANLOC4, 16
.LASANLOC4:
	.quad	.LC56
	.long	3
	.long	11
	.section	.rodata
.LC57:
	.string	"../ATC/Logger/LogConfig.h"
	.section	.data.rel.local
	.align 16
	.type	.LASANLOC5, @object
	.size	.LASANLOC5, 16
.LASANLOC5:
	.quad	.LC57
	.long	3
	.long	12
	.section	.rodata
.LC58:
	.string	"/usr/include/c++/11/iostream"
	.section	.data.rel.local
	.align 16
	.type	.LASANLOC6, @object
	.size	.LASANLOC6, 16
.LASANLOC6:
	.quad	.LC58
	.long	74
	.long	25
	.section	.rodata
.LC59:
	.string	"START_LABEL_ARR_SIZE"
.LC60:
	.string	"GROWTH_RATE"
.LC61:
	.string	"INDENT_SIZE"
.LC62:
	.string	"CRINGE"
.LC63:
	.string	"STD_LOG_NAME"
.LC64:
	.string	"__ioinit"
.LC65:
	.string	"*.LC16"
.LC66:
	.string	"*.LC6"
.LC67:
	.string	"*.LC18"
.LC68:
	.string	"*.LC39"
.LC69:
	.string	"*.LC33"
.LC70:
	.string	"*.LC43"
.LC71:
	.string	"*.LC48"
.LC72:
	.string	"*.LC35"
.LC73:
	.string	"*.LC22"
.LC74:
	.string	"*.LC51"
.LC75:
	.string	"*.LC50"
.LC76:
	.string	"*.LC3"
.LC77:
	.string	"*.LC45"
.LC78:
	.string	"*.LC53"
.LC79:
	.string	"*.LC34"
.LC80:
	.string	"*.LC41"
.LC81:
	.string	"*.LC38"
.LC82:
	.string	"*.LC44"
.LC83:
	.string	"*.LC25"
.LC84:
	.string	"*.LC20"
.LC85:
	.string	"*.LC36"
.LC86:
	.string	"*.LC52"
.LC87:
	.string	"*.LC0"
.LC88:
	.string	"*.LC5"
.LC89:
	.string	"*.LC19"
.LC90:
	.string	"*.LC1"
.LC91:
	.string	"*.LC27"
.LC92:
	.string	"*.LC8"
.LC93:
	.string	"*.LC10"
.LC94:
	.string	"*.LC37"
.LC95:
	.string	"*.LC32"
.LC96:
	.string	"*.LC40"
.LC97:
	.string	"*.LC21"
.LC98:
	.string	"*.LC7"
.LC99:
	.string	"*.LC54"
.LC100:
	.string	"*.LC2"
.LC101:
	.string	"*.LC12"
.LC102:
	.string	"*.LC47"
.LC103:
	.string	"*.LC28"
.LC104:
	.string	"*.LC4"
.LC105:
	.string	"*.LC30"
.LC106:
	.string	"*.LC13"
.LC107:
	.string	"*.LC26"
.LC108:
	.string	"*.LC9"
.LC109:
	.string	"*.LC42"
.LC110:
	.string	"*.LC14"
.LC111:
	.string	"*.LC46"
.LC112:
	.string	"*.LC23"
.LC113:
	.string	"*.LC17"
.LC114:
	.string	"*.LC31"
.LC115:
	.string	"*.LC11"
	.section	.data.rel.local
	.align 32
	.type	.LASAN0, @object
	.size	.LASAN0, 3648
.LASAN0:
	.quad	_ZL20START_LABEL_ARR_SIZE
	.quad	4
	.quad	64
	.quad	.LC59
	.quad	.LC1
	.quad	0
	.quad	.LASANLOC1
	.quad	0
	.quad	_ZL11GROWTH_RATE
	.quad	4
	.quad	64
	.quad	.LC60
	.quad	.LC1
	.quad	0
	.quad	.LASANLOC2
	.quad	0
	.quad	_ZL11INDENT_SIZE
	.quad	4
	.quad	64
	.quad	.LC61
	.quad	.LC1
	.quad	0
	.quad	.LASANLOC3
	.quad	0
	.quad	_ZL6CRINGE
	.quad	4
	.quad	64
	.quad	.LC62
	.quad	.LC1
	.quad	0
	.quad	.LASANLOC4
	.quad	0
	.quad	_ZL12STD_LOG_NAME
	.quad	18
	.quad	64
	.quad	.LC63
	.quad	.LC1
	.quad	0
	.quad	.LASANLOC5
	.quad	0
	.quad	_ZStL8__ioinit
	.quad	1
	.quad	64
	.quad	.LC64
	.quad	.LC1
	.quad	1
	.quad	.LASANLOC6
	.quad	0
	.quad	.LC16
	.quad	8
	.quad	64
	.quad	.LC65
	.quad	.LC1
	.quad	0
	.quad	0
	.quad	0
	.quad	.LC6
	.quad	22
	.quad	64
	.quad	.LC66
	.quad	.LC1
	.quad	0
	.quad	0
	.quad	0
	.quad	.LC18
	.quad	6
	.quad	64
	.quad	.LC67
	.quad	.LC1
	.quad	0
	.quad	0
	.quad	0
	.quad	.LC39
	.quad	32
	.quad	64
	.quad	.LC68
	.quad	.LC1
	.quad	0
	.quad	0
	.quad	0
	.quad	.LC33
	.quad	53
	.quad	96
	.quad	.LC69
	.quad	.LC1
	.quad	0
	.quad	0
	.quad	0
	.quad	.LC43
	.quad	10
	.quad	64
	.quad	.LC70
	.quad	.LC1
	.quad	0
	.quad	0
	.quad	0
	.quad	.LC48
	.quad	53
	.quad	96
	.quad	.LC71
	.quad	.LC1
	.quad	0
	.quad	0
	.quad	0
	.quad	.LC35
	.quad	7
	.quad	64
	.quad	.LC72
	.quad	.LC1
	.quad	0
	.quad	0
	.quad	0
	.quad	.LC22
	.quad	9
	.quad	64
	.quad	.LC73
	.quad	.LC1
	.quad	0
	.quad	0
	.quad	0
	.quad	.LC51
	.quad	35
	.quad	96
	.quad	.LC74
	.quad	.LC1
	.quad	0
	.quad	0
	.quad	0
	.quad	.LC50
	.quad	9
	.quad	64
	.quad	.LC75
	.quad	.LC1
	.quad	0
	.quad	0
	.quad	0
	.quad	.LC3
	.quad	37
	.quad	96
	.quad	.LC76
	.quad	.LC1
	.quad	0
	.quad	0
	.quad	0
	.quad	.LC45
	.quad	19
	.quad	64
	.quad	.LC77
	.quad	.LC1
	.quad	0
	.quad	0
	.quad	0
	.quad	.LC53
	.quad	38
	.quad	96
	.quad	.LC78
	.quad	.LC1
	.quad	0
	.quad	0
	.quad	0
	.quad	.LC34
	.quad	10
	.quad	64
	.quad	.LC79
	.quad	.LC1
	.quad	0
	.quad	0
	.quad	0
	.quad	.LC41
	.quad	16
	.quad	64
	.quad	.LC80
	.quad	.LC1
	.quad	0
	.quad	0
	.quad	0
	.quad	.LC38
	.quad	7
	.quad	64
	.quad	.LC81
	.quad	.LC1
	.quad	0
	.quad	0
	.quad	0
	.quad	.LC44
	.quad	38
	.quad	96
	.quad	.LC82
	.quad	.LC1
	.quad	0
	.quad	0
	.quad	0
	.quad	.LC25
	.quad	9
	.quad	64
	.quad	.LC83
	.quad	.LC1
	.quad	0
	.quad	0
	.quad	0
	.quad	.LC20
	.quad	10
	.quad	64
	.quad	.LC84
	.quad	.LC1
	.quad	0
	.quad	0
	.quad	0
	.quad	.LC36
	.quad	34
	.quad	96
	.quad	.LC85
	.quad	.LC1
	.quad	0
	.quad	0
	.quad	0
	.quad	.LC52
	.quad	65
	.quad	128
	.quad	.LC86
	.quad	.LC1
	.quad	0
	.quad	0
	.quad	0
	.quad	.LC0
	.quad	13
	.quad	64
	.quad	.LC87
	.quad	.LC1
	.quad	0
	.quad	0
	.quad	0
	.quad	.LC5
	.quad	31
	.quad	64
	.quad	.LC88
	.quad	.LC1
	.quad	0
	.quad	0
	.quad	0
	.quad	.LC19
	.quad	36
	.quad	96
	.quad	.LC89
	.quad	.LC1
	.quad	0
	.quad	0
	.quad	0
	.quad	.LC1
	.quad	42
	.quad	96
	.quad	.LC90
	.quad	.LC1
	.quad	0
	.quad	0
	.quad	0
	.quad	.LC27
	.quad	33
	.quad	96
	.quad	.LC91
	.quad	.LC1
	.quad	0
	.quad	0
	.quad	0
	.quad	.LC8
	.quad	15
	.quad	64
	.quad	.LC92
	.quad	.LC1
	.quad	0
	.quad	0
	.quad	0
	.quad	.LC10
	.quad	10
	.quad	64
	.quad	.LC93
	.quad	.LC1
	.quad	0
	.quad	0
	.quad	0
	.quad	.LC37
	.quad	14
	.quad	64
	.quad	.LC94
	.quad	.LC1
	.quad	0
	.quad	0
	.quad	0
	.quad	.LC32
	.quad	30
	.quad	64
	.quad	.LC95
	.quad	.LC1
	.quad	0
	.quad	0
	.quad	0
	.quad	.LC40
	.quad	16
	.quad	64
	.quad	.LC96
	.quad	.LC1
	.quad	0
	.quad	0
	.quad	0
	.quad	.LC21
	.quad	5
	.quad	64
	.quad	.LC97
	.quad	.LC1
	.quad	0
	.quad	0
	.quad	0
	.quad	.LC7
	.quad	36
	.quad	96
	.quad	.LC98
	.quad	.LC1
	.quad	0
	.quad	0
	.quad	0
	.quad	.LC54
	.quad	19
	.quad	64
	.quad	.LC99
	.quad	.LC1
	.quad	0
	.quad	0
	.quad	0
	.quad	.LC2
	.quad	6
	.quad	64
	.quad	.LC100
	.quad	.LC1
	.quad	0
	.quad	0
	.quad	0
	.quad	.LC12
	.quad	34
	.quad	96
	.quad	.LC101
	.quad	.LC1
	.quad	0
	.quad	0
	.quad	0
	.quad	.LC47
	.quad	61
	.quad	96
	.quad	.LC102
	.quad	.LC1
	.quad	0
	.quad	0
	.quad	0
	.quad	.LC28
	.quad	58
	.quad	96
	.quad	.LC103
	.quad	.LC1
	.quad	0
	.quad	0
	.quad	0
	.quad	.LC4
	.quad	64
	.quad	96
	.quad	.LC104
	.quad	.LC1
	.quad	0
	.quad	0
	.quad	0
	.quad	.LC30
	.quad	10
	.quad	64
	.quad	.LC105
	.quad	.LC1
	.quad	0
	.quad	0
	.quad	0
	.quad	.LC13
	.quad	59
	.quad	96
	.quad	.LC106
	.quad	.LC1
	.quad	0
	.quad	0
	.quad	0
	.quad	.LC26
	.quad	6
	.quad	64
	.quad	.LC107
	.quad	.LC1
	.quad	0
	.quad	0
	.quad	0
	.quad	.LC9
	.quad	33
	.quad	96
	.quad	.LC108
	.quad	.LC1
	.quad	0
	.quad	0
	.quad	0
	.quad	.LC42
	.quad	38
	.quad	96
	.quad	.LC109
	.quad	.LC1
	.quad	0
	.quad	0
	.quad	0
	.quad	.LC14
	.quad	50
	.quad	96
	.quad	.LC110
	.quad	.LC1
	.quad	0
	.quad	0
	.quad	0
	.quad	.LC46
	.quad	42
	.quad	96
	.quad	.LC111
	.quad	.LC1
	.quad	0
	.quad	0
	.quad	0
	.quad	.LC23
	.quad	8
	.quad	64
	.quad	.LC112
	.quad	.LC1
	.quad	0
	.quad	0
	.quad	0
	.quad	.LC17
	.quad	37
	.quad	96
	.quad	.LC113
	.quad	.LC1
	.quad	0
	.quad	0
	.quad	0
	.quad	.LC31
	.quad	37
	.quad	96
	.quad	.LC114
	.quad	.LC1
	.quad	0
	.quad	0
	.quad	0
	.quad	.LC11
	.quad	22
	.quad	64
	.quad	.LC115
	.quad	.LC1
	.quad	0
	.quad	0
	.quad	0
	.text
	.type	_sub_D_00099_0, @function
_sub_D_00099_0:
.LFB2949:
	.cfi_startproc
	endbr64
	pushq	%rbp
	.cfi_def_cfa_offset 16
	.cfi_offset 6, -16
	movq	%rsp, %rbp
	.cfi_def_cfa_register 6
	movl	$57, %esi
	leaq	.LASAN0(%rip), %rax
	movq	%rax, %rdi
	call	__asan_unregister_globals@PLT
	popq	%rbp
	.cfi_def_cfa 7, 8
	ret
	.cfi_endproc
.LFE2949:
	.size	_sub_D_00099_0, .-_sub_D_00099_0
	.section	.fini_array.00099,"aw"
	.align 8
	.quad	_sub_D_00099_0
	.text
	.type	_sub_I_00099_1, @function
_sub_I_00099_1:
.LFB2950:
	.cfi_startproc
	endbr64
	pushq	%rbp
	.cfi_def_cfa_offset 16
	.cfi_offset 6, -16
	movq	%rsp, %rbp
	.cfi_def_cfa_register 6
	call	__asan_init@PLT
	call	__asan_version_mismatch_check_v8@PLT
	movl	$57, %esi
	leaq	.LASAN0(%rip), %rax
	movq	%rax, %rdi
	call	__asan_register_globals@PLT
	popq	%rbp
	.cfi_def_cfa 7, 8
	ret
	.cfi_endproc
.LFE2950:
	.size	_sub_I_00099_1, .-_sub_I_00099_1
	.section	.init_array.00099,"aw"
	.align 8
	.quad	_sub_I_00099_1
	.text
.Letext0:
	.file 3 "../Common/Structures/Tabels/NameTable.h"
	.file 4 "<built-in>"
	.file 5 "/usr/lib/gcc/x86_64-linux-gnu/11/include/stddef.h"
	.file 6 "/usr/include/x86_64-linux-gnu/bits/types/wint_t.h"
	.file 7 "/usr/include/x86_64-linux-gnu/bits/types/__mbstate_t.h"
	.file 8 "/usr/include/x86_64-linux-gnu/bits/types/mbstate_t.h"
	.file 9 "/usr/include/x86_64-linux-gnu/bits/types/__FILE.h"
	.file 10 "/usr/include/x86_64-linux-gnu/bits/types/struct_FILE.h"
	.file 11 "/usr/include/x86_64-linux-gnu/bits/types/FILE.h"
	.file 12 "/usr/include/c++/11/cwchar"
	.file 13 "/usr/include/c++/11/type_traits"
	.file 14 "/usr/include/c++/11/bits/exception_ptr.h"
	.file 15 "/usr/include/x86_64-linux-gnu/c++/11/bits/c++config.h"
	.file 16 "/usr/include/c++/11/concepts"
	.file 17 "/usr/include/c++/11/bits/iterator_concepts.h"
	.file 18 "/usr/include/c++/11/bits/ranges_cmp.h"
	.file 19 "/usr/include/c++/11/compare"
	.file 20 "/usr/include/c++/11/debug/debug.h"
	.file 21 "/usr/include/c++/11/cstdint"
	.file 22 "/usr/include/c++/11/clocale"
	.file 23 "/usr/include/c++/11/cstdlib"
	.file 24 "/usr/include/c++/11/numbers"
	.file 25 "/usr/include/c++/11/cstdio"
	.file 26 "/usr/include/c++/11/bits/ios_base.h"
	.file 27 "/usr/include/c++/11/cwctype"
	.file 28 "/usr/include/c++/11/bits/std_abs.h"
	.file 29 "/usr/include/wchar.h"
	.file 30 "/usr/include/x86_64-linux-gnu/bits/types/struct_tm.h"
	.file 31 "/usr/include/c++/11/bits/predefined_ops.h"
	.file 32 "/usr/include/c++/11/bits/ptr_traits.h"
	.file 33 "/usr/include/x86_64-linux-gnu/bits/types.h"
	.file 34 "/usr/include/x86_64-linux-gnu/bits/stdint-intn.h"
	.file 35 "/usr/include/x86_64-linux-gnu/bits/stdint-uintn.h"
	.file 36 "/usr/include/stdint.h"
	.file 37 "/usr/include/locale.h"
	.file 38 "/usr/include/stdlib.h"
	.file 39 "/usr/include/x86_64-linux-gnu/bits/types/__fpos_t.h"
	.file 40 "/usr/include/stdio.h"
	.file 41 "/usr/include/x86_64-linux-gnu/bits/wctype-wchar.h"
	.file 42 "/usr/include/wctype.h"
	.file 43 "../ATC/Logger/LogConfig.h"
	.file 44 "../ATC/Logger/FunctionLogger.h"
	.file 45 "../ATC/RandomStuff/CommonEnums.h"
	.file 46 "/usr/include/c++/11/stdlib.h"
	.file 47 "../ATC/Buffer/my_buffer.h"
	.file 48 "../ATC/Logger/Logger.h"
	.file 49 "/usr/include/string.h"
	.file 50 "/usr/include/c++/11/bits/algorithmfwd.h"
	.section	.data.rel.local.DW.ref.__gxx_personality_v0,"awG",@progbits,DW.ref.__gxx_personality_v0,comdat
	.align 8
	.type	DW.ref.__gxx_personality_v0, @object
	.size	DW.ref.__gxx_personality_v0, 8
DW.ref.__gxx_personality_v0:
	.quad	__gxx_personality_v0
	.hidden	__dso_handle
	.ident	"GCC: (Ubuntu 11.3.0-1ubuntu1~22.04) 11.3.0"
	.section	.note.GNU-stack,"",@progbits
	.section	.note.gnu.property,"a"
	.align 8
	.long	1f - 0f
	.long	4f - 1f
	.long	5
0:
	.string	"GNU"
1:
	.align 8
	.long	0xc0000002
	.long	3f - 2f
2:
	.long	0x3
3:
	.align 8
4:
