	.file	"NameTabel.cpp"
	.text
.Ltext0:
	.file 0 "/home/arsenyfucker/Cprojects/Lang/Translator/BackEnd" "../Common/Structures/Tabels/NameTabel.cpp"
	.bss
	.align 32
	.type	_ZStL8__ioinit, @object
	.size	_ZStL8__ioinit, 1
_ZStL8__ioinit:
	.zero	64
	.section	.rodata
	.align 32
	.type	_ZL12STD_LOG_NAME, @object
	.size	_ZL12STD_LOG_NAME, 18
_ZL12STD_LOG_NAME:
	.string	"./logs/stdlog.ars"
	.zero	46
	.align 32
	.type	_ZL6CRINGE, @object
	.size	_ZL6CRINGE, 4
_ZL6CRINGE:
	.long	3565
	.zero	60
	.align 32
	.type	_ZL11GROWTH_RATE, @object
	.size	_ZL11GROWTH_RATE, 4
_ZL11GROWTH_RATE:
	.long	2
	.zero	60
	.align 32
	.type	_ZL20START_LABEL_ARR_SIZE, @object
	.size	_ZL20START_LABEL_ARR_SIZE, 4
_ZL20START_LABEL_ARR_SIZE:
	.long	10
	.zero	60
	.align 32
.LC0:
	.string	"NewNameTable"
	.zero	51
	.align 32
.LC1:
	.string	"../Common/Structures/Tabels/NameTabel.cpp"
	.zero	54
	.text
	.globl	_Z12NewNameTablev
	.type	_Z12NewNameTablev, @function
_Z12NewNameTablev:
.LASANPC2270:
.LFB2270:
	.file 1 "../Common/Structures/Tabels/NameTabel.cpp"
	.loc 1 16 5
	.cfi_startproc
	endbr64
	pushq	%rbp
	.cfi_def_cfa_offset 16
	.cfi_offset 6, -16
	movq	%rsp, %rbp
	.cfi_def_cfa_register 6
	subq	$16, %rsp
	.loc 1 17 56
	call	_ZN6Logger11getInstanceEv@PLT
	movq	%rax, %rdi
	.loc 1 17 67
	movl	$17, %r9d
	leaq	.LC0(%rip), %r8
	leaq	.LC1(%rip), %rax
	movq	%rax, %rcx
	movl	$24, %edx
	movl	$1, %esi
	call	_ZN6Logger7CAL_LOGEmmPKcS1_i@PLT
	movq	%rax, -8(%rbp)
	.loc 1 18 5
	cmpq	$0, -8(%rbp)
	jne	.L2
	.loc 1 19 15
	movl	$0, %eax
	jmp	.L3
.L2:
	.loc 1 21 23
	movq	-8(%rbp), %rax
	addq	$8, %rax
	movq	%rax, %rdx
	shrq	$3, %rdx
	addq	$2147450880, %rdx
	movzbl	(%rdx), %edx
	testb	%dl, %dl
	je	.L4
	movq	%rax, %rdi
	call	__asan_report_store8@PLT
.L4:
	movq	-8(%rbp), %rax
	movq	$10, 8(%rax)
	.loc 1 23 55
	call	_ZN6Logger11getInstanceEv@PLT
	movq	%rax, %rdi
	.loc 1 23 66
	movq	-8(%rbp), %rax
	addq	$8, %rax
	movq	%rax, %rdx
	shrq	$3, %rdx
	addq	$2147450880, %rdx
	movzbl	(%rdx), %edx
	testb	%dl, %dl
	je	.L5
	movq	%rax, %rdi
	call	__asan_report_load8@PLT
.L5:
	movq	-8(%rbp), %rax
	movq	8(%rax), %rax
	movl	$23, %r9d
	leaq	.LC0(%rip), %r8
	leaq	.LC1(%rip), %rdx
	movq	%rdx, %rcx
	movl	$8, %edx
	movq	%rax, %rsi
	call	_ZN6Logger7CAL_LOGEmmPKcS1_i@PLT
	.loc 1 23 24
	movq	-8(%rbp), %rdx
	movq	%rdx, %rcx
	shrq	$3, %rcx
	addq	$2147450880, %rcx
	movzbl	(%rcx), %ecx
	testb	%cl, %cl
	je	.L6
	movq	%rdx, %rdi
	call	__asan_report_store8@PLT
.L6:
	movq	-8(%rbp), %rdx
	movq	%rax, (%rdx)
	.loc 1 24 18
	movq	-8(%rbp), %rax
	movq	(%rax), %rax
	.loc 1 24 5
	testq	%rax, %rax
	jne	.L7
	.loc 1 26 28
	call	_ZN6Logger11getInstanceEv@PLT
	movq	%rax, %rdi
	.loc 1 26 40
	movq	-8(%rbp), %rax
	movl	$26, %r8d
	leaq	.LC0(%rip), %rdx
	movq	%rdx, %rcx
	leaq	.LC1(%rip), %rdx
	movq	%rax, %rsi
	call	_ZN6Logger8FREE_LOGEPvPKcS2_i@PLT
	.loc 1 27 15
	movl	$0, %eax
	jmp	.L3
.L7:
	.loc 1 30 31
	movq	-8(%rbp), %rax
	addq	$16, %rax
	movq	%rax, %rdx
	shrq	$3, %rdx
	addq	$2147450880, %rdx
	movzbl	(%rdx), %edx
	testb	%dl, %dl
	je	.L8
	movq	%rax, %rdi
	call	__asan_report_store8@PLT
.L8:
	movq	-8(%rbp), %rax
	movq	$0, 16(%rax)
	.loc 1 32 12
	movq	-8(%rbp), %rax
.L3:
	.loc 1 33 5
	leave
	.cfi_def_cfa 7, 8
	ret
	.cfi_endproc
.LFE2270:
	.size	_Z12NewNameTablev, .-_Z12NewNameTablev
	.section	.rodata
	.align 32
.LC2:
	.string	"table"
	.zero	58
	.align 32
.LC3:
	.string	"ASSERTLOG:: Condition (%s) is false\n"
	.zero	59
	.align 32
.LC4:
	.string	"\033[93mASSERTLOG:: \033[0mCondition\033[95m (%s) \033[0mis \033[91mfalse\n\033[0m"
	.zero	32
	.align 32
.LC5:
	.string	"int CloseNameTable(NameTable*)"
	.zero	33
	.align 32
.LC6:
	.string	"\t%s:%d, function: %s\n"
	.zero	42
	.align 32
.LC7:
	.string	"It matches to error: (code %d) %s\n\n"
	.zero	60
	.align 32
.LC8:
	.string	"CloseNameTable"
	.zero	49
	.align 32
.LC9:
	.string	"Shutting down the system (%s:%d)"
	.zero	63
	.align 32
.LC10:
	.string	"echo LOX\n"
	.zero	54
	.align 32
.LC11:
	.string	"\033[91mFailed %s:%d (%s:%d)\n\033[0m"
	.zero	33
	.align 32
.LC12:
	.string	"Failed (%s:%d, %s:%d)"
	.zero	42
	.align 32
.LC13:
	.string	"Tabel %p: Null label arr pointer\n"
	.zero	62
	.align 32
.LC14:
	.string	"table %p: arr_size (%zu) less than namber_of_labels (%zu)\n"
	.zero	37
	.align 32
.LC15:
	.string	"table %p: null label in label_arr (position %zu)\n"
	.zero	46
	.text
	.globl	_Z14CloseNameTableP9NameTable
	.type	_Z14CloseNameTableP9NameTable, @function
_Z14CloseNameTableP9NameTable:
.LASANPC2271:
.LFB2271:
	.loc 1 36 5
	.cfi_startproc
	endbr64
	pushq	%rbp
	.cfi_def_cfa_offset 16
	.cfi_offset 6, -16
	movq	%rsp, %rbp
	.cfi_def_cfa_register 6
	pushq	%rbx
	subq	$40, %rsp
	.cfi_offset 3, -24
	movq	%rdi, -40(%rbp)
	.loc 1 37 10
	cmpq	$0, -40(%rbp)
	jne	.L10
	.loc 1 37 45 discriminator 1
	call	_ZN6Logger11getInstanceEv@PLT
	movq	%rax, %rcx
	.loc 1 37 51 discriminator 1
	leaq	.LC2(%rip), %rax
	movq	%rax, %rdx
	leaq	.LC3(%rip), %rax
	movq	%rax, %rsi
	movq	%rcx, %rdi
	movl	$0, %eax
	call	_ZN6Logger3logEPKcz@PLT
	.loc 1 37 109 discriminator 1
	leaq	.LC2(%rip), %rax
	movq	%rax, %rsi
	leaq	.LC4(%rip), %rax
	movq	%rax, %rdi
	movl	$0, %eax
	call	printf@PLT
	.loc 1 37 255 discriminator 1
	call	_ZN6Logger11getInstanceEv@PLT
	movq	%rax, %rdi
	.loc 1 37 261 discriminator 1
	leaq	.LC5(%rip), %r8
	movl	$37, %ecx
	leaq	.LC1(%rip), %rax
	movq	%rax, %rdx
	leaq	.LC6(%rip), %rax
	movq	%rax, %rsi
	movl	$0, %eax
	call	_ZN6Logger3logEPKcz@PLT
	.loc 1 37 366 discriminator 1
	leaq	.LC5(%rip), %rax
	movq	%rax, %rcx
	movl	$37, %edx
	leaq	.LC1(%rip), %rax
	movq	%rax, %rsi
	leaq	.LC6(%rip), %rax
	movq	%rax, %rdi
	movl	$0, %eax
	call	printf@PLT
	.loc 1 37 484 discriminator 1
	call	_ZN6Logger11getInstanceEv@PLT
	movq	%rax, %rbx
	.loc 1 37 490 discriminator 1
	movl	$14, %edi
	call	strerror@PLT
	movq	%rax, %rcx
	movl	$14, %edx
	leaq	.LC7(%rip), %rax
	movq	%rax, %rsi
	movq	%rbx, %rdi
	movl	$0, %eax
	call	_ZN6Logger3logEPKcz@PLT
	.loc 1 37 27 discriminator 1
	call	_ZN6Logger11getInstanceEv@PLT
	movq	%rax, %rdi
	.loc 1 37 33 discriminator 1
	movl	$37, %ecx
	leaq	.LC8(%rip), %rax
	movq	%rax, %rdx
	leaq	.LC9(%rip), %rax
	movq	%rax, %rsi
	movl	$0, %eax
	call	_ZN6Logger3logEPKcz@PLT
	.loc 1 37 91 discriminator 1
	leaq	.LC10(%rip), %rax
	movq	%rax, %rdi
	call	system@PLT
	.loc 1 37 133 discriminator 1
	call	_ZN6Logger11getInstanceEv@PLT
	.loc 1 37 155 discriminator 1
	call	_ZN6Logger11getInstanceEv@PLT
	movq	%rax, %rbx
	.loc 1 37 168 discriminator 1
	movl	$37, %r9d
	leaq	.LC8(%rip), %r8
	movl	$37, %ecx
	leaq	.LC1(%rip), %rax
	movq	%rax, %rdx
	leaq	.LC11(%rip), %rax
	movq	%rax, %rsi
	movl	$-1, %edi
	movl	$0, %eax
	call	_Z6MsgRetiPKcz@PLT
	movl	%eax, %esi
	subq	$8, %rsp
	pushq	$37
	leaq	.LC8(%rip), %r9
	movl	$37, %r8d
	leaq	.LC1(%rip), %rax
	movq	%rax, %rcx
	leaq	.LC12(%rip), %rax
	movq	%rax, %rdx
	movq	%rbx, %rdi
	movl	$0, %eax
	call	_ZN6Logger9LogMsgRetEiPKcz@PLT
	addq	$16, %rsp
	.loc 1 37 383 discriminator 1
	jmp	.L11
.L10:
	.loc 1 39 18
	movq	-40(%rbp), %rax
	movq	%rax, %rdx
	shrq	$3, %rdx
	addq	$2147450880, %rdx
	movzbl	(%rdx), %edx
	testb	%dl, %dl
	je	.L12
	movq	%rax, %rdi
	call	__asan_report_load8@PLT
.L12:
	movq	-40(%rbp), %rax
	movq	(%rax), %rax
	.loc 1 39 5
	testq	%rax, %rax
	jne	.L13
	.loc 1 41 15
	movq	-40(%rbp), %rax
	movq	%rax, %rsi
	leaq	.LC13(%rip), %rax
	movq	%rax, %rdi
	movl	$0, %eax
	call	printf@PLT
	.loc 1 42 16
	movl	$-1, %eax
	jmp	.L11
.L13:
	.loc 1 45 17
	movq	-40(%rbp), %rax
	addq	$8, %rax
	movq	%rax, %rdx
	shrq	$3, %rdx
	addq	$2147450880, %rdx
	movzbl	(%rdx), %edx
	testb	%dl, %dl
	je	.L14
	movq	%rax, %rdi
	call	__asan_report_load8@PLT
.L14:
	movq	-40(%rbp), %rax
	movq	8(%rax), %rcx
	.loc 1 45 37
	movq	-40(%rbp), %rax
	addq	$16, %rax
	movq	%rax, %rdx
	shrq	$3, %rdx
	addq	$2147450880, %rdx
	movzbl	(%rdx), %edx
	testb	%dl, %dl
	je	.L15
	movq	%rax, %rdi
	call	__asan_report_load8@PLT
.L15:
	movq	-40(%rbp), %rax
	movq	16(%rax), %rax
	.loc 1 45 5
	cmpq	%rax, %rcx
	jnb	.L16
	.loc 1 47 15
	movq	-40(%rbp), %rax
	movq	16(%rax), %rcx
	movq	-40(%rbp), %rax
	movq	8(%rax), %rdx
	movq	-40(%rbp), %rax
	movq	%rax, %rsi
	leaq	.LC14(%rip), %rax
	movq	%rax, %rdi
	movl	$0, %eax
	call	printf@PLT
	.loc 1 50 16
	movl	$-1, %eax
	jmp	.L11
.L16:
.LBB2:
	.loc 1 53 17
	movq	$0, -24(%rbp)
	.loc 1 53 5
	jmp	.L17
.L23:
	.loc 1 55 23
	movq	-40(%rbp), %rax
	movq	%rax, %rdx
	shrq	$3, %rdx
	addq	$2147450880, %rdx
	movzbl	(%rdx), %edx
	testb	%dl, %dl
	je	.L18
	movq	%rax, %rdi
	call	__asan_report_load8@PLT
.L18:
	movq	-40(%rbp), %rax
	movq	(%rax), %rdx
	.loc 1 55 34
	movq	-24(%rbp), %rax
	salq	$3, %rax
	addq	%rdx, %rax
	.loc 1 55 9
	testq	%rax, %rax
	jne	.L19
	.loc 1 57 20
	movq	-24(%rbp), %rdx
	movq	-40(%rbp), %rax
	movq	%rax, %rsi
	leaq	.LC15(%rip), %rax
	movq	%rax, %rdi
	movl	$0, %eax
	call	printf@PLT
	.loc 1 59 20
	movl	$-1, %eax
	jmp	.L11
.L19:
	.loc 1 63 28 discriminator 2
	call	_ZN6Logger11getInstanceEv@PLT
	movq	%rax, %rdi
	.loc 1 63 49 discriminator 2
	movq	-40(%rbp), %rax
	movq	%rax, %rdx
	shrq	$3, %rdx
	addq	$2147450880, %rdx
	movzbl	(%rdx), %edx
	testb	%dl, %dl
	je	.L20
	.loc 1 63 49 is_stmt 0
	movq	%rax, %rdi
	call	__asan_report_load8@PLT
.L20:
	.loc 1 63 49 discriminator 2
	movq	-40(%rbp), %rax
	movq	(%rax), %rdx
	.loc 1 63 61 is_stmt 1 discriminator 2
	movq	-24(%rbp), %rax
	salq	$3, %rax
	addq	%rdx, %rax
	.loc 1 63 40 discriminator 2
	movq	%rax, %rdx
	movq	%rdx, %rcx
	shrq	$3, %rcx
	addq	$2147450880, %rcx
	movzbl	(%rcx), %ecx
	testb	%cl, %cl
	je	.L21
	.loc 1 63 40 is_stmt 0
	movq	%rdx, %rdi
	call	__asan_report_load8@PLT
.L21:
	.loc 1 63 40 discriminator 2
	movq	(%rax), %rax
	movl	$63, %r8d
	leaq	.LC8(%rip), %rdx
	movq	%rdx, %rcx
	leaq	.LC1(%rip), %rdx
	movq	%rax, %rsi
	call	_ZN6Logger8FREE_LOGEPvPKcS2_i@PLT
	.loc 1 53 5 is_stmt 1 discriminator 2
	addq	$1, -24(%rbp)
.L17:
	.loc 1 53 36 discriminator 1
	movq	-40(%rbp), %rax
	addq	$16, %rax
	movq	%rax, %rdx
	shrq	$3, %rdx
	addq	$2147450880, %rdx
	movzbl	(%rdx), %edx
	testb	%dl, %dl
	je	.L22
	.loc 1 53 36 is_stmt 0
	movq	%rax, %rdi
	call	__asan_report_load8@PLT
.L22:
	.loc 1 53 36 discriminator 1
	movq	-40(%rbp), %rax
	movq	16(%rax), %rax
	.loc 1 53 26 is_stmt 1 discriminator 1
	cmpq	%rax, -24(%rbp)
	jb	.L23
.LBE2:
	.loc 1 66 24
	call	_ZN6Logger11getInstanceEv@PLT
	movq	%rax, %rdi
	.loc 1 66 45
	movq	-40(%rbp), %rax
	movq	%rax, %rdx
	shrq	$3, %rdx
	addq	$2147450880, %rdx
	movzbl	(%rdx), %edx
	testb	%dl, %dl
	je	.L24
	movq	%rax, %rdi
	call	__asan_report_load8@PLT
.L24:
	movq	-40(%rbp), %rax
	movq	(%rax), %rax
	.loc 1 66 36
	movl	$66, %r8d
	leaq	.LC8(%rip), %rdx
	movq	%rdx, %rcx
	leaq	.LC1(%rip), %rdx
	movq	%rax, %rsi
	call	_ZN6Logger8FREE_LOGEPvPKcS2_i@PLT
	.loc 1 67 24
	call	_ZN6Logger11getInstanceEv@PLT
	movq	%rax, %rdi
	.loc 1 67 36
	movq	-40(%rbp), %rax
	movl	$67, %r8d
	leaq	.LC8(%rip), %rdx
	movq	%rdx, %rcx
	leaq	.LC1(%rip), %rdx
	movq	%rax, %rsi
	call	_ZN6Logger8FREE_LOGEPvPKcS2_i@PLT
	.loc 1 69 12
	movl	$0, %eax
.L11:
	.loc 1 70 5
	movq	-8(%rbp), %rbx
	leave
	.cfi_def_cfa 7, 8
	ret
	.cfi_endproc
.LFE2271:
	.size	_Z14CloseNameTableP9NameTable, .-_Z14CloseNameTableP9NameTable
	.section	.rodata
	.align 32
.LC16:
	.string	"int IsLabel(int, int, NameTable*)"
	.zero	62
	.align 32
.LC17:
	.string	"IsLabel"
	.zero	56
	.align 32
.LC18:
	.string	"\t%s: "
	.zero	58
	.align 32
.LC19:
	.string	"Empty label array in func table %p\n"
	.zero	60
	.align 32
.LC20:
	.string	" (%s:%d)\n"
	.zero	54
	.text
	.globl	_Z7IsLabeliiP9NameTable
	.type	_Z7IsLabeliiP9NameTable, @function
_Z7IsLabeliiP9NameTable:
.LASANPC2272:
.LFB2272:
	.loc 1 73 5
	.cfi_startproc
	endbr64
	pushq	%rbp
	.cfi_def_cfa_offset 16
	.cfi_offset 6, -16
	movq	%rsp, %rbp
	.cfi_def_cfa_register 6
	pushq	%rbx
	subq	$56, %rsp
	.cfi_offset 3, -24
	movl	%edi, -52(%rbp)
	movl	%esi, -56(%rbp)
	movq	%rdx, -64(%rbp)
	.loc 1 74 10
	cmpq	$0, -64(%rbp)
	jne	.L26
	.loc 1 74 45 discriminator 1
	call	_ZN6Logger11getInstanceEv@PLT
	movq	%rax, %rcx
	.loc 1 74 51 discriminator 1
	leaq	.LC2(%rip), %rax
	movq	%rax, %rdx
	leaq	.LC3(%rip), %rax
	movq	%rax, %rsi
	movq	%rcx, %rdi
	movl	$0, %eax
	call	_ZN6Logger3logEPKcz@PLT
	.loc 1 74 109 discriminator 1
	leaq	.LC2(%rip), %rax
	movq	%rax, %rsi
	leaq	.LC4(%rip), %rax
	movq	%rax, %rdi
	movl	$0, %eax
	call	printf@PLT
	.loc 1 74 255 discriminator 1
	call	_ZN6Logger11getInstanceEv@PLT
	movq	%rax, %rdi
	.loc 1 74 261 discriminator 1
	leaq	.LC16(%rip), %r8
	movl	$74, %ecx
	leaq	.LC1(%rip), %rax
	movq	%rax, %rdx
	leaq	.LC6(%rip), %rax
	movq	%rax, %rsi
	movl	$0, %eax
	call	_ZN6Logger3logEPKcz@PLT
	.loc 1 74 366 discriminator 1
	leaq	.LC16(%rip), %rax
	movq	%rax, %rcx
	movl	$74, %edx
	leaq	.LC1(%rip), %rax
	movq	%rax, %rsi
	leaq	.LC6(%rip), %rax
	movq	%rax, %rdi
	movl	$0, %eax
	call	printf@PLT
	.loc 1 74 484 discriminator 1
	call	_ZN6Logger11getInstanceEv@PLT
	movq	%rax, %rbx
	.loc 1 74 490 discriminator 1
	movl	$14, %edi
	call	strerror@PLT
	movq	%rax, %rcx
	movl	$14, %edx
	leaq	.LC7(%rip), %rax
	movq	%rax, %rsi
	movq	%rbx, %rdi
	movl	$0, %eax
	call	_ZN6Logger3logEPKcz@PLT
	.loc 1 74 27 discriminator 1
	call	_ZN6Logger11getInstanceEv@PLT
	movq	%rax, %rdi
	.loc 1 74 33 discriminator 1
	movl	$74, %ecx
	leaq	.LC17(%rip), %rax
	movq	%rax, %rdx
	leaq	.LC9(%rip), %rax
	movq	%rax, %rsi
	movl	$0, %eax
	call	_ZN6Logger3logEPKcz@PLT
	.loc 1 74 91 discriminator 1
	leaq	.LC10(%rip), %rax
	movq	%rax, %rdi
	call	system@PLT
	.loc 1 74 114 discriminator 1
	movl	$-2, %eax
	jmp	.L27
.L26:
	.loc 1 76 12
	movq	-64(%rbp), %rax
	addq	$16, %rax
	movq	%rax, %rdx
	shrq	$3, %rdx
	addq	$2147450880, %rdx
	movzbl	(%rdx), %edx
	testb	%dl, %dl
	je	.L28
	movq	%rax, %rdi
	call	__asan_report_load8@PLT
.L28:
	movq	-64(%rbp), %rax
	movq	16(%rax), %rax
	movq	%rax, -32(%rbp)
	.loc 1 77 5
	cmpq	$0, -32(%rbp)
	jne	.L29
	.loc 1 78 17
	movl	$-1, %eax
	jmp	.L27
.L29:
	.loc 1 80 13
	movq	-64(%rbp), %rax
	movq	%rax, %rdx
	shrq	$3, %rdx
	addq	$2147450880, %rdx
	movzbl	(%rdx), %edx
	testb	%dl, %dl
	je	.L30
	movq	%rax, %rdi
	call	__asan_report_load8@PLT
.L30:
	movq	-64(%rbp), %rax
	movq	(%rax), %rax
	movq	%rax, -24(%rbp)
	.loc 1 81 5
	cmpq	$0, -24(%rbp)
	jne	.L31
	.loc 1 83 17
	leaq	.LC17(%rip), %rax
	movq	%rax, %rsi
	leaq	.LC18(%rip), %rax
	movq	%rax, %rdi
	movl	$0, %eax
	call	printf@PLT
	.loc 1 83 45
	movq	-64(%rbp), %rax
	movq	%rax, %rsi
	leaq	.LC19(%rip), %rax
	movq	%rax, %rdi
	movl	$0, %eax
	call	printf@PLT
	.loc 1 83 108
	movl	$83, %edx
	leaq	.LC1(%rip), %rax
	movq	%rax, %rsi
	leaq	.LC20(%rip), %rax
	movq	%rax, %rdi
	movl	$0, %eax
	call	printf@PLT
	.loc 1 84 16
	movl	$-2, %eax
	jmp	.L27
.L31:
.LBB3:
	.loc 1 87 16
	movq	$0, -40(%rbp)
	.loc 1 87 5
	jmp	.L32
.L38:
	.loc 1 89 37
	movq	-40(%rbp), %rax
	leaq	0(,%rax,8), %rdx
	movq	-24(%rbp), %rax
	addq	%rdx, %rax
	.loc 1 89 25
	movq	%rax, %rdx
	movq	%rdx, %rcx
	shrq	$3, %rcx
	addq	$2147450880, %rcx
	movzbl	(%rcx), %ecx
	testb	%cl, %cl
	je	.L33
	movq	%rdx, %rdi
	call	__asan_report_load8@PLT
.L33:
	movq	(%rax), %rdx
	.loc 1 89 44
	movq	%rdx, %rax
	movq	%rax, %rcx
	shrq	$3, %rcx
	addq	$2147450880, %rcx
	movzbl	(%rcx), %ecx
	testb	%cl, %cl
	setne	%dil
	movq	%rax, %rsi
	andl	$7, %esi
	addl	$3, %esi
	cmpb	%cl, %sil
	setge	%cl
	andl	%edi, %ecx
	testb	%cl, %cl
	je	.L34
	movq	%rax, %rdi
	call	__asan_report_load4@PLT
.L34:
	movl	(%rdx), %eax
	.loc 1 89 9
	cmpl	%eax, -52(%rbp)
	jne	.L35
	.loc 1 90 34 discriminator 1
	movq	-40(%rbp), %rax
	leaq	0(,%rax,8), %rdx
	movq	-24(%rbp), %rax
	addq	%rdx, %rax
	.loc 1 90 22 discriminator 1
	movq	%rax, %rdx
	movq	%rdx, %rcx
	shrq	$3, %rcx
	addq	$2147450880, %rcx
	movzbl	(%rcx), %ecx
	testb	%cl, %cl
	je	.L36
	.loc 1 90 22 is_stmt 0
	movq	%rdx, %rdi
	call	__asan_report_load8@PLT
.L36:
	.loc 1 90 22 discriminator 1
	movq	(%rax), %rdx
	.loc 1 90 41 is_stmt 1 discriminator 1
	leaq	4(%rdx), %rax
	movq	%rax, %rcx
	shrq	$3, %rcx
	addq	$2147450880, %rcx
	movzbl	(%rcx), %ecx
	testb	%cl, %cl
	setne	%dil
	movq	%rax, %rsi
	andl	$7, %esi
	addl	$3, %esi
	cmpb	%cl, %sil
	setge	%cl
	andl	%edi, %ecx
	testb	%cl, %cl
	je	.L37
	.loc 1 90 41 is_stmt 0
	movq	%rax, %rdi
	call	__asan_report_load4@PLT
.L37:
	.loc 1 90 41 discriminator 1
	movl	4(%rdx), %eax
	.loc 1 89 52 is_stmt 1 discriminator 1
	cmpl	%eax, -56(%rbp)
	jne	.L35
	.loc 1 91 26
	movq	-40(%rbp), %rax
	jmp	.L27
.L35:
	.loc 1 87 5 discriminator 2
	addq	$1, -40(%rbp)
.L32:
	.loc 1 87 25 discriminator 1
	movq	-40(%rbp), %rax
	cmpq	-32(%rbp), %rax
	jb	.L38
.LBE3:
	.loc 1 94 13
	movl	$-1, %eax
.L27:
	.loc 1 95 5
	movq	-8(%rbp), %rbx
	leave
	.cfi_def_cfa 7, 8
	ret
	.cfi_endproc
.LFE2272:
	.size	_Z7IsLabeliiP9NameTable, .-_Z7IsLabeliiP9NameTable
	.section	.rodata
	.align 32
.LC21:
	.string	"label"
	.zero	58
	.align 32
.LC22:
	.string	"int AddLabel(Label*, NameTable*)"
	.zero	63
	.align 32
.LC23:
	.string	"AddLabel"
	.zero	55
	.align 32
.LC24:
	.string	"%s:%d::CHECK: ResizeNameTable(table) == SUCCESS is false\n"
	.zero	38
	.text
	.globl	_Z8AddLabelP5LabelP9NameTable
	.type	_Z8AddLabelP5LabelP9NameTable, @function
_Z8AddLabelP5LabelP9NameTable:
.LASANPC2273:
.LFB2273:
	.loc 1 98 5
	.cfi_startproc
	endbr64
	pushq	%rbp
	.cfi_def_cfa_offset 16
	.cfi_offset 6, -16
	movq	%rsp, %rbp
	.cfi_def_cfa_register 6
	pushq	%rbx
	subq	$24, %rsp
	.cfi_offset 3, -24
	movq	%rdi, -24(%rbp)
	movq	%rsi, -32(%rbp)
	.loc 1 99 10
	cmpq	$0, -24(%rbp)
	jne	.L40
	.loc 1 99 45 discriminator 1
	call	_ZN6Logger11getInstanceEv@PLT
	movq	%rax, %rcx
	.loc 1 99 51 discriminator 1
	leaq	.LC21(%rip), %rax
	movq	%rax, %rdx
	leaq	.LC3(%rip), %rax
	movq	%rax, %rsi
	movq	%rcx, %rdi
	movl	$0, %eax
	call	_ZN6Logger3logEPKcz@PLT
	.loc 1 99 109 discriminator 1
	leaq	.LC21(%rip), %rax
	movq	%rax, %rsi
	leaq	.LC4(%rip), %rax
	movq	%rax, %rdi
	movl	$0, %eax
	call	printf@PLT
	.loc 1 99 255 discriminator 1
	call	_ZN6Logger11getInstanceEv@PLT
	movq	%rax, %rdi
	.loc 1 99 261 discriminator 1
	leaq	.LC22(%rip), %r8
	movl	$99, %ecx
	leaq	.LC1(%rip), %rax
	movq	%rax, %rdx
	leaq	.LC6(%rip), %rax
	movq	%rax, %rsi
	movl	$0, %eax
	call	_ZN6Logger3logEPKcz@PLT
	.loc 1 99 366 discriminator 1
	leaq	.LC22(%rip), %rax
	movq	%rax, %rcx
	movl	$99, %edx
	leaq	.LC1(%rip), %rax
	movq	%rax, %rsi
	leaq	.LC6(%rip), %rax
	movq	%rax, %rdi
	movl	$0, %eax
	call	printf@PLT
	.loc 1 99 484 discriminator 1
	call	_ZN6Logger11getInstanceEv@PLT
	movq	%rax, %rbx
	.loc 1 99 490 discriminator 1
	movl	$14, %edi
	call	strerror@PLT
	movq	%rax, %rcx
	movl	$14, %edx
	leaq	.LC7(%rip), %rax
	movq	%rax, %rsi
	movq	%rbx, %rdi
	movl	$0, %eax
	call	_ZN6Logger3logEPKcz@PLT
	.loc 1 99 27 discriminator 1
	call	_ZN6Logger11getInstanceEv@PLT
	movq	%rax, %rdi
	.loc 1 99 33 discriminator 1
	movl	$99, %ecx
	leaq	.LC23(%rip), %rax
	movq	%rax, %rdx
	leaq	.LC9(%rip), %rax
	movq	%rax, %rsi
	movl	$0, %eax
	call	_ZN6Logger3logEPKcz@PLT
	.loc 1 99 91 discriminator 1
	leaq	.LC10(%rip), %rax
	movq	%rax, %rdi
	call	system@PLT
	.loc 1 99 133 discriminator 1
	call	_ZN6Logger11getInstanceEv@PLT
	.loc 1 99 155 discriminator 1
	call	_ZN6Logger11getInstanceEv@PLT
	movq	%rax, %rbx
	.loc 1 99 168 discriminator 1
	movl	$99, %r9d
	leaq	.LC23(%rip), %r8
	movl	$99, %ecx
	leaq	.LC1(%rip), %rax
	movq	%rax, %rdx
	leaq	.LC11(%rip), %rax
	movq	%rax, %rsi
	movl	$-1, %edi
	movl	$0, %eax
	call	_Z6MsgRetiPKcz@PLT
	movl	%eax, %esi
	subq	$8, %rsp
	pushq	$99
	leaq	.LC23(%rip), %r9
	movl	$99, %r8d
	leaq	.LC1(%rip), %rax
	movq	%rax, %rcx
	leaq	.LC12(%rip), %rax
	movq	%rax, %rdx
	movq	%rbx, %rdi
	movl	$0, %eax
	call	_ZN6Logger9LogMsgRetEiPKcz@PLT
	addq	$16, %rsp
	.loc 1 99 383 discriminator 1
	jmp	.L41
.L40:
	.loc 1 100 10
	cmpq	$0, -32(%rbp)
	jne	.L42
	.loc 1 100 45 discriminator 1
	call	_ZN6Logger11getInstanceEv@PLT
	movq	%rax, %rcx
	.loc 1 100 51 discriminator 1
	leaq	.LC2(%rip), %rax
	movq	%rax, %rdx
	leaq	.LC3(%rip), %rax
	movq	%rax, %rsi
	movq	%rcx, %rdi
	movl	$0, %eax
	call	_ZN6Logger3logEPKcz@PLT
	.loc 1 100 109 discriminator 1
	leaq	.LC2(%rip), %rax
	movq	%rax, %rsi
	leaq	.LC4(%rip), %rax
	movq	%rax, %rdi
	movl	$0, %eax
	call	printf@PLT
	.loc 1 100 255 discriminator 1
	call	_ZN6Logger11getInstanceEv@PLT
	movq	%rax, %rdi
	.loc 1 100 261 discriminator 1
	leaq	.LC22(%rip), %r8
	movl	$100, %ecx
	leaq	.LC1(%rip), %rax
	movq	%rax, %rdx
	leaq	.LC6(%rip), %rax
	movq	%rax, %rsi
	movl	$0, %eax
	call	_ZN6Logger3logEPKcz@PLT
	.loc 1 100 367 discriminator 1
	leaq	.LC22(%rip), %rax
	movq	%rax, %rcx
	movl	$100, %edx
	leaq	.LC1(%rip), %rax
	movq	%rax, %rsi
	leaq	.LC6(%rip), %rax
	movq	%rax, %rdi
	movl	$0, %eax
	call	printf@PLT
	.loc 1 100 486 discriminator 1
	call	_ZN6Logger11getInstanceEv@PLT
	movq	%rax, %rbx
	.loc 1 100 492 discriminator 1
	movl	$14, %edi
	call	strerror@PLT
	movq	%rax, %rcx
	movl	$14, %edx
	leaq	.LC7(%rip), %rax
	movq	%rax, %rsi
	movq	%rbx, %rdi
	movl	$0, %eax
	call	_ZN6Logger3logEPKcz@PLT
	.loc 1 100 27 discriminator 1
	call	_ZN6Logger11getInstanceEv@PLT
	movq	%rax, %rdi
	.loc 1 100 33 discriminator 1
	movl	$100, %ecx
	leaq	.LC23(%rip), %rax
	movq	%rax, %rdx
	leaq	.LC9(%rip), %rax
	movq	%rax, %rsi
	movl	$0, %eax
	call	_ZN6Logger3logEPKcz@PLT
	.loc 1 100 92 discriminator 1
	leaq	.LC10(%rip), %rax
	movq	%rax, %rdi
	call	system@PLT
	.loc 1 100 134 discriminator 1
	call	_ZN6Logger11getInstanceEv@PLT
	.loc 1 100 156 discriminator 1
	call	_ZN6Logger11getInstanceEv@PLT
	movq	%rax, %rbx
	.loc 1 100 169 discriminator 1
	movl	$100, %r9d
	leaq	.LC23(%rip), %r8
	movl	$100, %ecx
	leaq	.LC1(%rip), %rax
	movq	%rax, %rdx
	leaq	.LC11(%rip), %rax
	movq	%rax, %rsi
	movl	$-1, %edi
	movl	$0, %eax
	call	_Z6MsgRetiPKcz@PLT
	movl	%eax, %esi
	subq	$8, %rsp
	pushq	$100
	leaq	.LC23(%rip), %r9
	movl	$100, %r8d
	leaq	.LC1(%rip), %rax
	movq	%rax, %rcx
	leaq	.LC12(%rip), %rax
	movq	%rax, %rdx
	movq	%rbx, %rdi
	movl	$0, %eax
	call	_ZN6Logger9LogMsgRetEiPKcz@PLT
	addq	$16, %rsp
	.loc 1 100 388 discriminator 1
	jmp	.L41
.L42:
	.loc 1 102 17
	movq	-32(%rbp), %rax
	addq	$8, %rax
	movq	%rax, %rdx
	shrq	$3, %rdx
	addq	$2147450880, %rdx
	movzbl	(%rdx), %edx
	testb	%dl, %dl
	je	.L43
	movq	%rax, %rdi
	call	__asan_report_load8@PLT
.L43:
	movq	-32(%rbp), %rax
	movq	8(%rax), %rcx
	.loc 1 102 38
	movq	-32(%rbp), %rax
	addq	$16, %rax
	movq	%rax, %rdx
	shrq	$3, %rdx
	addq	$2147450880, %rdx
	movzbl	(%rdx), %edx
	testb	%dl, %dl
	je	.L44
	movq	%rax, %rdi
	call	__asan_report_load8@PLT
.L44:
	movq	-32(%rbp), %rax
	movq	16(%rax), %rax
	.loc 1 102 5
	cmpq	%rax, %rcx
	ja	.L45
	.loc 1 103 34
	movq	-32(%rbp), %rax
	movq	%rax, %rdi
	call	_ZL15ResizeNameTableP9NameTable
	.loc 1 103 42
	testl	%eax, %eax
	setne	%al
	.loc 1 103 14
	testb	%al, %al
	je	.L45
	.loc 1 103 75 discriminator 1
	call	_ZN6Logger11getInstanceEv@PLT
	movq	%rax, %rdi
	.loc 1 103 81 discriminator 1
	movl	$103, %ecx
	leaq	.LC23(%rip), %rax
	movq	%rax, %rdx
	leaq	.LC24(%rip), %rax
	movq	%rax, %rsi
	movl	$0, %eax
	call	_ZN6Logger3logEPKcz@PLT
	.loc 1 103 193 discriminator 1
	call	_ZN6Logger11getInstanceEv@PLT
	.loc 1 103 215 discriminator 1
	call	_ZN6Logger11getInstanceEv@PLT
	movq	%rax, %rbx
	.loc 1 103 228 discriminator 1
	movl	$103, %r9d
	leaq	.LC23(%rip), %r8
	movl	$103, %ecx
	leaq	.LC1(%rip), %rax
	movq	%rax, %rdx
	leaq	.LC11(%rip), %rax
	movq	%rax, %rsi
	movl	$-1, %edi
	movl	$0, %eax
	call	_Z6MsgRetiPKcz@PLT
	movl	%eax, %esi
	subq	$8, %rsp
	pushq	$103
	leaq	.LC23(%rip), %r9
	movl	$103, %r8d
	leaq	.LC1(%rip), %rax
	movq	%rax, %rcx
	leaq	.LC12(%rip), %rax
	movq	%rax, %rdx
	movq	%rbx, %rdi
	movl	$0, %eax
	call	_ZN6Logger9LogMsgRetEiPKcz@PLT
	addq	$16, %rsp
	.loc 1 103 447 discriminator 1
	jmp	.L41
.L45:
	.loc 1 105 15
	movq	-32(%rbp), %rax
	movq	%rax, %rdx
	shrq	$3, %rdx
	addq	$2147450880, %rdx
	movzbl	(%rdx), %edx
	testb	%dl, %dl
	je	.L46
	movq	%rax, %rdi
	call	__asan_report_load8@PLT
.L46:
	movq	-32(%rbp), %rax
	movq	(%rax), %rcx
	.loc 1 105 36
	movq	-32(%rbp), %rax
	addq	$16, %rax
	movq	%rax, %rdx
	shrq	$3, %rdx
	addq	$2147450880, %rdx
	movzbl	(%rdx), %edx
	testb	%dl, %dl
	je	.L47
	movq	%rax, %rdi
	call	__asan_report_load8@PLT
.L47:
	movq	-32(%rbp), %rax
	movq	16(%rax), %rax
	.loc 1 105 26
	salq	$3, %rax
	addq	%rcx, %rax
	.loc 1 105 55
	movq	%rax, %rdx
	movq	%rdx, %rcx
	shrq	$3, %rcx
	addq	$2147450880, %rcx
	movzbl	(%rcx), %ecx
	testb	%cl, %cl
	je	.L48
	movq	%rdx, %rdi
	call	__asan_report_store8@PLT
.L48:
	movq	-24(%rbp), %rdx
	movq	%rdx, (%rax)
	.loc 1 107 26
	movq	-32(%rbp), %rax
	movq	16(%rax), %rax
	.loc 1 107 43
	leaq	1(%rax), %rcx
	movq	-32(%rbp), %rdx
	movq	%rcx, 16(%rdx)
.L41:
	.loc 1 108 5
	movq	-8(%rbp), %rbx
	leave
	.cfi_def_cfa 7, 8
	ret
	.cfi_endproc
.LFE2273:
	.size	_Z8AddLabelP5LabelP9NameTable, .-_Z8AddLabelP5LabelP9NameTable
	.section	.rodata
	.align 32
.LC25:
	.string	"int CopyLabel(Label*, NameTable*)"
	.zero	62
	.align 32
.LC26:
	.string	"CopyLabel"
	.zero	54
	.align 32
.LC27:
	.string	"Label (%p) with same name and type already in table\n"
	.zero	43
	.text
	.globl	_Z9CopyLabelP5LabelP9NameTable
	.type	_Z9CopyLabelP5LabelP9NameTable, @function
_Z9CopyLabelP5LabelP9NameTable:
.LASANPC2274:
.LFB2274:
	.loc 1 111 5
	.cfi_startproc
	endbr64
	pushq	%rbp
	.cfi_def_cfa_offset 16
	.cfi_offset 6, -16
	movq	%rsp, %rbp
	.cfi_def_cfa_register 6
	pushq	%rbx
	subq	$40, %rsp
	.cfi_offset 3, -24
	movq	%rdi, -40(%rbp)
	movq	%rsi, -48(%rbp)
	.loc 1 112 10
	cmpq	$0, -40(%rbp)
	jne	.L50
	.loc 1 112 45 discriminator 1
	call	_ZN6Logger11getInstanceEv@PLT
	movq	%rax, %rcx
	.loc 1 112 51 discriminator 1
	leaq	.LC21(%rip), %rax
	movq	%rax, %rdx
	leaq	.LC3(%rip), %rax
	movq	%rax, %rsi
	movq	%rcx, %rdi
	movl	$0, %eax
	call	_ZN6Logger3logEPKcz@PLT
	.loc 1 112 109 discriminator 1
	leaq	.LC21(%rip), %rax
	movq	%rax, %rsi
	leaq	.LC4(%rip), %rax
	movq	%rax, %rdi
	movl	$0, %eax
	call	printf@PLT
	.loc 1 112 255 discriminator 1
	call	_ZN6Logger11getInstanceEv@PLT
	movq	%rax, %rdi
	.loc 1 112 261 discriminator 1
	leaq	.LC25(%rip), %r8
	movl	$112, %ecx
	leaq	.LC1(%rip), %rax
	movq	%rax, %rdx
	leaq	.LC6(%rip), %rax
	movq	%rax, %rsi
	movl	$0, %eax
	call	_ZN6Logger3logEPKcz@PLT
	.loc 1 112 367 discriminator 1
	leaq	.LC25(%rip), %rax
	movq	%rax, %rcx
	movl	$112, %edx
	leaq	.LC1(%rip), %rax
	movq	%rax, %rsi
	leaq	.LC6(%rip), %rax
	movq	%rax, %rdi
	movl	$0, %eax
	call	printf@PLT
	.loc 1 112 486 discriminator 1
	call	_ZN6Logger11getInstanceEv@PLT
	movq	%rax, %rbx
	.loc 1 112 492 discriminator 1
	movl	$14, %edi
	call	strerror@PLT
	movq	%rax, %rcx
	movl	$14, %edx
	leaq	.LC7(%rip), %rax
	movq	%rax, %rsi
	movq	%rbx, %rdi
	movl	$0, %eax
	call	_ZN6Logger3logEPKcz@PLT
	.loc 1 112 27 discriminator 1
	call	_ZN6Logger11getInstanceEv@PLT
	movq	%rax, %rdi
	.loc 1 112 33 discriminator 1
	movl	$112, %ecx
	leaq	.LC26(%rip), %rax
	movq	%rax, %rdx
	leaq	.LC9(%rip), %rax
	movq	%rax, %rsi
	movl	$0, %eax
	call	_ZN6Logger3logEPKcz@PLT
	.loc 1 112 92 discriminator 1
	leaq	.LC10(%rip), %rax
	movq	%rax, %rdi
	call	system@PLT
	.loc 1 112 115 discriminator 1
	movl	$-2, %eax
	jmp	.L51
.L50:
	.loc 1 113 10
	cmpq	$0, -48(%rbp)
	jne	.L52
	.loc 1 113 45 discriminator 1
	call	_ZN6Logger11getInstanceEv@PLT
	movq	%rax, %rcx
	.loc 1 113 51 discriminator 1
	leaq	.LC2(%rip), %rax
	movq	%rax, %rdx
	leaq	.LC3(%rip), %rax
	movq	%rax, %rsi
	movq	%rcx, %rdi
	movl	$0, %eax
	call	_ZN6Logger3logEPKcz@PLT
	.loc 1 113 109 discriminator 1
	leaq	.LC2(%rip), %rax
	movq	%rax, %rsi
	leaq	.LC4(%rip), %rax
	movq	%rax, %rdi
	movl	$0, %eax
	call	printf@PLT
	.loc 1 113 255 discriminator 1
	call	_ZN6Logger11getInstanceEv@PLT
	movq	%rax, %rdi
	.loc 1 113 261 discriminator 1
	leaq	.LC25(%rip), %r8
	movl	$113, %ecx
	leaq	.LC1(%rip), %rax
	movq	%rax, %rdx
	leaq	.LC6(%rip), %rax
	movq	%rax, %rsi
	movl	$0, %eax
	call	_ZN6Logger3logEPKcz@PLT
	.loc 1 113 367 discriminator 1
	leaq	.LC25(%rip), %rax
	movq	%rax, %rcx
	movl	$113, %edx
	leaq	.LC1(%rip), %rax
	movq	%rax, %rsi
	leaq	.LC6(%rip), %rax
	movq	%rax, %rdi
	movl	$0, %eax
	call	printf@PLT
	.loc 1 113 486 discriminator 1
	call	_ZN6Logger11getInstanceEv@PLT
	movq	%rax, %rbx
	.loc 1 113 492 discriminator 1
	movl	$14, %edi
	call	strerror@PLT
	movq	%rax, %rcx
	movl	$14, %edx
	leaq	.LC7(%rip), %rax
	movq	%rax, %rsi
	movq	%rbx, %rdi
	movl	$0, %eax
	call	_ZN6Logger3logEPKcz@PLT
	.loc 1 113 27 discriminator 1
	call	_ZN6Logger11getInstanceEv@PLT
	movq	%rax, %rdi
	.loc 1 113 33 discriminator 1
	movl	$113, %ecx
	leaq	.LC26(%rip), %rax
	movq	%rax, %rdx
	leaq	.LC9(%rip), %rax
	movq	%rax, %rsi
	movl	$0, %eax
	call	_ZN6Logger3logEPKcz@PLT
	.loc 1 113 92 discriminator 1
	leaq	.LC10(%rip), %rax
	movq	%rax, %rdi
	call	system@PLT
	.loc 1 113 115 discriminator 1
	movl	$-2, %eax
	jmp	.L51
.L52:
	.loc 1 115 16
	movq	-40(%rbp), %rax
	addq	$4, %rax
	movq	%rax, %rdx
	shrq	$3, %rdx
	addq	$2147450880, %rdx
	movzbl	(%rdx), %edx
	testb	%dl, %dl
	setne	%sil
	movq	%rax, %rcx
	andl	$7, %ecx
	addl	$3, %ecx
	cmpb	%dl, %cl
	setge	%dl
	andl	%esi, %edx
	testb	%dl, %dl
	je	.L53
	movq	%rax, %rdi
	call	__asan_report_load4@PLT
.L53:
	movq	-40(%rbp), %rax
	movl	4(%rax), %ecx
	movq	-40(%rbp), %rax
	movq	%rax, %rdx
	shrq	$3, %rdx
	addq	$2147450880, %rdx
	movzbl	(%rdx), %edx
	testb	%dl, %dl
	setne	%dil
	movq	%rax, %rsi
	andl	$7, %esi
	addl	$3, %esi
	cmpb	%dl, %sil
	setge	%dl
	andl	%edi, %edx
	testb	%dl, %dl
	je	.L54
	movq	%rax, %rdi
	call	__asan_report_load4@PLT
.L54:
	movq	-40(%rbp), %rax
	movl	(%rax), %eax
	movq	-48(%rbp), %rdx
	movl	%ecx, %esi
	movl	%eax, %edi
	call	_Z7IsLabeliiP9NameTable
	.loc 1 115 53
	testl	%eax, %eax
	setg	%al
	.loc 1 115 5
	testb	%al, %al
	je	.L55
	.loc 1 117 17
	leaq	.LC26(%rip), %rax
	movq	%rax, %rsi
	leaq	.LC18(%rip), %rax
	movq	%rax, %rdi
	movl	$0, %eax
	call	printf@PLT
	.loc 1 117 45
	movq	-40(%rbp), %rax
	movq	%rax, %rsi
	leaq	.LC27(%rip), %rax
	movq	%rax, %rdi
	movl	$0, %eax
	call	printf@PLT
	.loc 1 117 125
	movl	$117, %edx
	leaq	.LC1(%rip), %rax
	movq	%rax, %rsi
	leaq	.LC20(%rip), %rax
	movq	%rax, %rdi
	movl	$0, %eax
	call	printf@PLT
	.loc 1 118 16
	movl	$-1, %eax
	jmp	.L51
.L55:
	.loc 1 121 52
	call	_ZN6Logger11getInstanceEv@PLT
	movq	%rax, %rdi
	.loc 1 121 63
	movl	$121, %r9d
	leaq	.LC26(%rip), %r8
	leaq	.LC1(%rip), %rax
	movq	%rax, %rcx
	movl	$12, %edx
	movl	$1, %esi
	call	_ZN6Logger7CAL_LOGEmmPKcS1_i@PLT
	movq	%rax, -24(%rbp)
	.loc 1 122 5
	cmpq	$0, -24(%rbp)
	jne	.L56
	.loc 1 123 17
	movl	$-1, %eax
	jmp	.L51
.L56:
	.loc 1 125 33
	movq	-40(%rbp), %rax
	movq	%rax, %rdx
	shrq	$3, %rdx
	addq	$2147450880, %rdx
	movzbl	(%rdx), %edx
	testb	%dl, %dl
	setne	%sil
	movq	%rax, %rcx
	andl	$7, %ecx
	addl	$3, %ecx
	cmpb	%dl, %cl
	setge	%dl
	andl	%esi, %edx
	testb	%dl, %dl
	je	.L57
	movq	%rax, %rdi
	call	__asan_report_load4@PLT
.L57:
	movq	-40(%rbp), %rax
	movl	(%rax), %ecx
	.loc 1 125 24
	movq	-24(%rbp), %rax
	movq	%rax, %rdx
	shrq	$3, %rdx
	addq	$2147450880, %rdx
	movzbl	(%rdx), %edx
	testb	%dl, %dl
	setne	%dil
	movq	%rax, %rsi
	andl	$7, %esi
	addl	$3, %esi
	cmpb	%dl, %sil
	setge	%dl
	andl	%edi, %edx
	testb	%dl, %dl
	je	.L58
	movq	%rax, %rdi
	call	__asan_report_store4@PLT
.L58:
	movq	-24(%rbp), %rax
	movl	%ecx, (%rax)
	.loc 1 126 30
	movq	-40(%rbp), %rax
	addq	$4, %rax
	movq	%rax, %rdx
	shrq	$3, %rdx
	addq	$2147450880, %rdx
	movzbl	(%rdx), %edx
	testb	%dl, %dl
	setne	%sil
	movq	%rax, %rcx
	andl	$7, %ecx
	addl	$3, %ecx
	cmpb	%dl, %cl
	setge	%dl
	andl	%esi, %edx
	testb	%dl, %dl
	je	.L59
	movq	%rax, %rdi
	call	__asan_report_load4@PLT
.L59:
	movq	-40(%rbp), %rax
	movl	4(%rax), %ecx
	.loc 1 126 21
	movq	-24(%rbp), %rax
	addq	$4, %rax
	movq	%rax, %rdx
	shrq	$3, %rdx
	addq	$2147450880, %rdx
	movzbl	(%rdx), %edx
	testb	%dl, %dl
	setne	%dil
	movq	%rax, %rsi
	andl	$7, %esi
	addl	$3, %esi
	cmpb	%dl, %sil
	setge	%dl
	andl	%edi, %edx
	testb	%dl, %dl
	je	.L60
	movq	%rax, %rdi
	call	__asan_report_store4@PLT
.L60:
	movq	-24(%rbp), %rax
	movl	%ecx, 4(%rax)
	.loc 1 128 39
	movq	-40(%rbp), %rax
	addq	$8, %rax
	movq	%rax, %rdx
	shrq	$3, %rdx
	addq	$2147450880, %rdx
	movzbl	(%rdx), %edx
	testb	%dl, %dl
	setne	%sil
	movq	%rax, %rcx
	andl	$7, %ecx
	addl	$3, %ecx
	cmpb	%dl, %cl
	setge	%dl
	andl	%esi, %edx
	testb	%dl, %dl
	je	.L61
	movq	%rax, %rdi
	call	__asan_report_load4@PLT
.L61:
	movq	-40(%rbp), %rax
	movl	8(%rax), %ecx
	.loc 1 128 30
	movq	-24(%rbp), %rax
	addq	$8, %rax
	movq	%rax, %rdx
	shrq	$3, %rdx
	addq	$2147450880, %rdx
	movzbl	(%rdx), %edx
	testb	%dl, %dl
	setne	%dil
	movq	%rax, %rsi
	andl	$7, %esi
	addl	$3, %esi
	cmpb	%dl, %sil
	setge	%dl
	andl	%edi, %edx
	testb	%dl, %dl
	je	.L62
	movq	%rax, %rdi
	call	__asan_report_store4@PLT
.L62:
	movq	-24(%rbp), %rax
	movl	%ecx, 8(%rax)
	.loc 1 130 20
	movq	-48(%rbp), %rdx
	movq	-24(%rbp), %rax
	movq	%rdx, %rsi
	movq	%rax, %rdi
	call	_Z8AddLabelP5LabelP9NameTable
	.loc 1 130 37
	nop
.L51:
	.loc 1 131 5
	movq	-8(%rbp), %rbx
	leave
	.cfi_def_cfa 7, 8
	ret
	.cfi_endproc
.LFE2274:
	.size	_Z9CopyLabelP5LabelP9NameTable, .-_Z9CopyLabelP5LabelP9NameTable
	.section	.rodata
	.align 32
.LC28:
	.string	"label1"
	.zero	57
	.align 32
.LC29:
	.string	"int CompareLabels(Label*, Label*)"
	.zero	62
	.align 32
.LC30:
	.string	"CompareLabels"
	.zero	50
	.align 32
.LC31:
	.string	"label2"
	.zero	57
	.text
	.globl	_Z13CompareLabelsP5LabelS0_
	.type	_Z13CompareLabelsP5LabelS0_, @function
_Z13CompareLabelsP5LabelS0_:
.LASANPC2275:
.LFB2275:
	.loc 1 134 5
	.cfi_startproc
	endbr64
	pushq	%rbp
	.cfi_def_cfa_offset 16
	.cfi_offset 6, -16
	movq	%rsp, %rbp
	.cfi_def_cfa_register 6
	pushq	%rbx
	subq	$24, %rsp
	.cfi_offset 3, -24
	movq	%rdi, -24(%rbp)
	movq	%rsi, -32(%rbp)
	.loc 1 135 10
	cmpq	$0, -24(%rbp)
	jne	.L64
	.loc 1 135 46 discriminator 1
	call	_ZN6Logger11getInstanceEv@PLT
	movq	%rax, %rcx
	.loc 1 135 52 discriminator 1
	leaq	.LC28(%rip), %rax
	movq	%rax, %rdx
	leaq	.LC3(%rip), %rax
	movq	%rax, %rsi
	movq	%rcx, %rdi
	movl	$0, %eax
	call	_ZN6Logger3logEPKcz@PLT
	.loc 1 135 111 discriminator 1
	leaq	.LC28(%rip), %rax
	movq	%rax, %rsi
	leaq	.LC4(%rip), %rax
	movq	%rax, %rdi
	movl	$0, %eax
	call	printf@PLT
	.loc 1 135 258 discriminator 1
	call	_ZN6Logger11getInstanceEv@PLT
	movq	%rax, %rdi
	.loc 1 135 264 discriminator 1
	leaq	.LC29(%rip), %r8
	movl	$135, %ecx
	leaq	.LC1(%rip), %rax
	movq	%rax, %rdx
	leaq	.LC6(%rip), %rax
	movq	%rax, %rsi
	movl	$0, %eax
	call	_ZN6Logger3logEPKcz@PLT
	.loc 1 135 370 discriminator 1
	leaq	.LC29(%rip), %rax
	movq	%rax, %rcx
	movl	$135, %edx
	leaq	.LC1(%rip), %rax
	movq	%rax, %rsi
	leaq	.LC6(%rip), %rax
	movq	%rax, %rdi
	movl	$0, %eax
	call	printf@PLT
	.loc 1 135 489 discriminator 1
	call	_ZN6Logger11getInstanceEv@PLT
	movq	%rax, %rbx
	.loc 1 135 495 discriminator 1
	movl	$14, %edi
	call	strerror@PLT
	movq	%rax, %rcx
	movl	$14, %edx
	leaq	.LC7(%rip), %rax
	movq	%rax, %rsi
	movq	%rbx, %rdi
	movl	$0, %eax
	call	_ZN6Logger3logEPKcz@PLT
	.loc 1 135 27 discriminator 1
	call	_ZN6Logger11getInstanceEv@PLT
	movq	%rax, %rdi
	.loc 1 135 33 discriminator 1
	movl	$135, %ecx
	leaq	.LC30(%rip), %rax
	movq	%rax, %rdx
	leaq	.LC9(%rip), %rax
	movq	%rax, %rsi
	movl	$0, %eax
	call	_ZN6Logger3logEPKcz@PLT
	.loc 1 135 92 discriminator 1
	leaq	.LC10(%rip), %rax
	movq	%rax, %rdi
	call	system@PLT
	.loc 1 135 115 discriminator 1
	movl	$0, %eax
	jmp	.L65
.L64:
	.loc 1 136 10
	cmpq	$0, -32(%rbp)
	jne	.L66
	.loc 1 136 46 discriminator 1
	call	_ZN6Logger11getInstanceEv@PLT
	movq	%rax, %rcx
	.loc 1 136 52 discriminator 1
	leaq	.LC31(%rip), %rax
	movq	%rax, %rdx
	leaq	.LC3(%rip), %rax
	movq	%rax, %rsi
	movq	%rcx, %rdi
	movl	$0, %eax
	call	_ZN6Logger3logEPKcz@PLT
	.loc 1 136 111 discriminator 1
	leaq	.LC31(%rip), %rax
	movq	%rax, %rsi
	leaq	.LC4(%rip), %rax
	movq	%rax, %rdi
	movl	$0, %eax
	call	printf@PLT
	.loc 1 136 258 discriminator 1
	call	_ZN6Logger11getInstanceEv@PLT
	movq	%rax, %rdi
	.loc 1 136 264 discriminator 1
	leaq	.LC29(%rip), %r8
	movl	$136, %ecx
	leaq	.LC1(%rip), %rax
	movq	%rax, %rdx
	leaq	.LC6(%rip), %rax
	movq	%rax, %rsi
	movl	$0, %eax
	call	_ZN6Logger3logEPKcz@PLT
	.loc 1 136 370 discriminator 1
	leaq	.LC29(%rip), %rax
	movq	%rax, %rcx
	movl	$136, %edx
	leaq	.LC1(%rip), %rax
	movq	%rax, %rsi
	leaq	.LC6(%rip), %rax
	movq	%rax, %rdi
	movl	$0, %eax
	call	printf@PLT
	.loc 1 136 489 discriminator 1
	call	_ZN6Logger11getInstanceEv@PLT
	movq	%rax, %rbx
	.loc 1 136 495 discriminator 1
	movl	$14, %edi
	call	strerror@PLT
	movq	%rax, %rcx
	movl	$14, %edx
	leaq	.LC7(%rip), %rax
	movq	%rax, %rsi
	movq	%rbx, %rdi
	movl	$0, %eax
	call	_ZN6Logger3logEPKcz@PLT
	.loc 1 136 27 discriminator 1
	call	_ZN6Logger11getInstanceEv@PLT
	movq	%rax, %rdi
	.loc 1 136 33 discriminator 1
	movl	$136, %ecx
	leaq	.LC30(%rip), %rax
	movq	%rax, %rdx
	leaq	.LC9(%rip), %rax
	movq	%rax, %rsi
	movl	$0, %eax
	call	_ZN6Logger3logEPKcz@PLT
	.loc 1 136 92 discriminator 1
	leaq	.LC10(%rip), %rax
	movq	%rax, %rdi
	call	system@PLT
	.loc 1 136 115 discriminator 1
	movl	$0, %eax
	jmp	.L65
.L66:
	.loc 1 138 17
	movq	-24(%rbp), %rax
	movq	%rax, %rdx
	shrq	$3, %rdx
	addq	$2147450880, %rdx
	movzbl	(%rdx), %edx
	testb	%dl, %dl
	setne	%sil
	movq	%rax, %rcx
	andl	$7, %ecx
	addl	$3, %ecx
	cmpb	%dl, %cl
	setge	%dl
	andl	%esi, %edx
	testb	%dl, %dl
	je	.L67
	movq	%rax, %rdi
	call	__asan_report_load4@PLT
.L67:
	movq	-24(%rbp), %rax
	movl	(%rax), %ecx
	.loc 1 138 37
	movq	-32(%rbp), %rax
	movq	%rax, %rdx
	shrq	$3, %rdx
	addq	$2147450880, %rdx
	movzbl	(%rdx), %edx
	testb	%dl, %dl
	setne	%dil
	movq	%rax, %rsi
	andl	$7, %esi
	addl	$3, %esi
	cmpb	%dl, %sil
	setge	%dl
	andl	%edi, %edx
	testb	%dl, %dl
	je	.L68
	movq	%rax, %rdi
	call	__asan_report_load4@PLT
.L68:
	movq	-32(%rbp), %rax
	movl	(%rax), %eax
	.loc 1 138 5
	cmpl	%eax, %ecx
	je	.L69
	.loc 1 139 16
	movl	$0, %eax
	jmp	.L65
.L69:
	.loc 1 141 17
	movq	-24(%rbp), %rax
	addq	$4, %rax
	movq	%rax, %rdx
	shrq	$3, %rdx
	addq	$2147450880, %rdx
	movzbl	(%rdx), %edx
	testb	%dl, %dl
	setne	%sil
	movq	%rax, %rcx
	andl	$7, %ecx
	addl	$3, %ecx
	cmpb	%dl, %cl
	setge	%dl
	andl	%esi, %edx
	testb	%dl, %dl
	je	.L70
	movq	%rax, %rdi
	call	__asan_report_load4@PLT
.L70:
	movq	-24(%rbp), %rax
	movl	4(%rax), %ecx
	.loc 1 141 33
	movq	-32(%rbp), %rax
	addq	$4, %rax
	movq	%rax, %rdx
	shrq	$3, %rdx
	addq	$2147450880, %rdx
	movzbl	(%rdx), %edx
	testb	%dl, %dl
	setne	%dil
	movq	%rax, %rsi
	andl	$7, %esi
	addl	$3, %esi
	cmpb	%dl, %sil
	setge	%dl
	andl	%edi, %edx
	testb	%dl, %dl
	je	.L71
	movq	%rax, %rdi
	call	__asan_report_load4@PLT
.L71:
	movq	-32(%rbp), %rax
	movl	4(%rax), %eax
	.loc 1 141 5
	cmpl	%eax, %ecx
	je	.L72
	.loc 1 142 16
	movl	$0, %eax
	jmp	.L65
.L72:
	.loc 1 144 17
	movq	-24(%rbp), %rax
	addq	$8, %rax
	movq	%rax, %rdx
	shrq	$3, %rdx
	addq	$2147450880, %rdx
	movzbl	(%rdx), %edx
	testb	%dl, %dl
	setne	%sil
	movq	%rax, %rcx
	andl	$7, %ecx
	addl	$3, %ecx
	cmpb	%dl, %cl
	setge	%dl
	andl	%esi, %edx
	testb	%dl, %dl
	je	.L73
	movq	%rax, %rdi
	call	__asan_report_load4@PLT
.L73:
	movq	-24(%rbp), %rax
	movl	8(%rax), %ecx
	.loc 1 144 42
	movq	-32(%rbp), %rax
	addq	$8, %rax
	movq	%rax, %rdx
	shrq	$3, %rdx
	addq	$2147450880, %rdx
	movzbl	(%rdx), %edx
	testb	%dl, %dl
	setne	%dil
	movq	%rax, %rsi
	andl	$7, %esi
	addl	$3, %esi
	cmpb	%dl, %sil
	setge	%dl
	andl	%edi, %edx
	testb	%dl, %dl
	je	.L74
	movq	%rax, %rdi
	call	__asan_report_load4@PLT
.L74:
	movq	-32(%rbp), %rax
	movl	8(%rax), %eax
	.loc 1 144 5
	cmpl	%eax, %ecx
	je	.L75
	.loc 1 145 16
	movl	$0, %eax
	jmp	.L65
.L75:
	.loc 1 147 12
	movl	$1, %eax
.L65:
	.loc 1 148 5
	movq	-8(%rbp), %rbx
	leave
	.cfi_def_cfa 7, 8
	ret
	.cfi_endproc
.LFE2275:
	.size	_Z13CompareLabelsP5LabelS0_, .-_Z13CompareLabelsP5LabelS0_
	.section	.rodata
	.align 32
.LC32:
	.string	"int ResizeNameTable(NameTable*)"
	.zero	32
	.align 32
.LC33:
	.string	"ResizeNameTable"
	.zero	48
	.text
	.type	_ZL15ResizeNameTableP9NameTable, @function
_ZL15ResizeNameTableP9NameTable:
.LASANPC2276:
.LFB2276:
	.loc 1 151 5
	.cfi_startproc
	endbr64
	pushq	%rbp
	.cfi_def_cfa_offset 16
	.cfi_offset 6, -16
	movq	%rsp, %rbp
	.cfi_def_cfa_register 6
	pushq	%rbx
	subq	$40, %rsp
	.cfi_offset 3, -24
	movq	%rdi, -40(%rbp)
	.loc 1 152 10
	cmpq	$0, -40(%rbp)
	jne	.L77
	.loc 1 152 45 discriminator 1
	call	_ZN6Logger11getInstanceEv@PLT
	movq	%rax, %rcx
	.loc 1 152 51 discriminator 1
	leaq	.LC2(%rip), %rax
	movq	%rax, %rdx
	leaq	.LC3(%rip), %rax
	movq	%rax, %rsi
	movq	%rcx, %rdi
	movl	$0, %eax
	call	_ZN6Logger3logEPKcz@PLT
	.loc 1 152 109 discriminator 1
	leaq	.LC2(%rip), %rax
	movq	%rax, %rsi
	leaq	.LC4(%rip), %rax
	movq	%rax, %rdi
	movl	$0, %eax
	call	printf@PLT
	.loc 1 152 255 discriminator 1
	call	_ZN6Logger11getInstanceEv@PLT
	movq	%rax, %rdi
	.loc 1 152 261 discriminator 1
	leaq	.LC32(%rip), %r8
	movl	$152, %ecx
	leaq	.LC1(%rip), %rax
	movq	%rax, %rdx
	leaq	.LC6(%rip), %rax
	movq	%rax, %rsi
	movl	$0, %eax
	call	_ZN6Logger3logEPKcz@PLT
	.loc 1 152 367 discriminator 1
	leaq	.LC32(%rip), %rax
	movq	%rax, %rcx
	movl	$152, %edx
	leaq	.LC1(%rip), %rax
	movq	%rax, %rsi
	leaq	.LC6(%rip), %rax
	movq	%rax, %rdi
	movl	$0, %eax
	call	printf@PLT
	.loc 1 152 486 discriminator 1
	call	_ZN6Logger11getInstanceEv@PLT
	movq	%rax, %rbx
	.loc 1 152 492 discriminator 1
	movl	$14, %edi
	call	strerror@PLT
	movq	%rax, %rcx
	movl	$14, %edx
	leaq	.LC7(%rip), %rax
	movq	%rax, %rsi
	movq	%rbx, %rdi
	movl	$0, %eax
	call	_ZN6Logger3logEPKcz@PLT
	.loc 1 152 27 discriminator 1
	call	_ZN6Logger11getInstanceEv@PLT
	movq	%rax, %rdi
	.loc 1 152 33 discriminator 1
	movl	$152, %ecx
	leaq	.LC33(%rip), %rax
	movq	%rax, %rdx
	leaq	.LC9(%rip), %rax
	movq	%rax, %rsi
	movl	$0, %eax
	call	_ZN6Logger3logEPKcz@PLT
	.loc 1 152 92 discriminator 1
	leaq	.LC10(%rip), %rax
	movq	%rax, %rdi
	call	system@PLT
	.loc 1 152 115 discriminator 1
	movl	$-2, %eax
	jmp	.L78
.L77:
	.loc 1 154 53
	call	_ZN6Logger11getInstanceEv@PLT
	movq	%rax, %rdi
	.loc 1 154 95
	movq	-40(%rbp), %rax
	addq	$8, %rax
	movq	%rax, %rdx
	shrq	$3, %rdx
	addq	$2147450880, %rdx
	movzbl	(%rdx), %edx
	testb	%dl, %dl
	je	.L79
	movq	%rax, %rdi
	call	__asan_report_load8@PLT
.L79:
	movq	-40(%rbp), %rax
	movq	8(%rax), %rax
	.loc 1 154 66
	salq	$4, %rax
	movq	%rax, %rdx
	.loc 1 154 75
	movq	-40(%rbp), %rax
	movq	%rax, %rcx
	shrq	$3, %rcx
	addq	$2147450880, %rcx
	movzbl	(%rcx), %ecx
	testb	%cl, %cl
	je	.L80
	movq	%rax, %rdi
	call	__asan_report_load8@PLT
.L80:
	movq	-40(%rbp), %rax
	movq	(%rax), %rax
	.loc 1 154 66
	movl	$154, %r9d
	leaq	.LC33(%rip), %r8
	leaq	.LC1(%rip), %rcx
	movq	%rax, %rsi
	call	_ZN6Logger9RECAL_LOGEPvmPKcS2_i@PLT
	movq	%rax, -24(%rbp)
	.loc 1 155 5
	cmpq	$0, -24(%rbp)
	jne	.L81
	.loc 1 156 35
	call	_ZN6Logger11getInstanceEv@PLT
	.loc 1 156 57
	call	_ZN6Logger11getInstanceEv@PLT
	movq	%rax, %rbx
	.loc 1 156 70
	movl	$156, %r9d
	leaq	.LC33(%rip), %r8
	movl	$156, %ecx
	leaq	.LC1(%rip), %rax
	movq	%rax, %rdx
	leaq	.LC11(%rip), %rax
	movq	%rax, %rsi
	movl	$-1, %edi
	movl	$0, %eax
	call	_Z6MsgRetiPKcz@PLT
	movl	%eax, %esi
	subq	$8, %rsp
	pushq	$156
	leaq	.LC33(%rip), %r9
	movl	$156, %r8d
	leaq	.LC1(%rip), %rax
	movq	%rax, %rcx
	leaq	.LC12(%rip), %rax
	movq	%rax, %rdx
	movq	%rbx, %rdi
	movl	$0, %eax
	call	_ZN6Logger9LogMsgRetEiPKcz@PLT
	addq	$16, %rsp
	.loc 1 156 289
	jmp	.L78
.L81:
	.loc 1 158 24
	movq	-40(%rbp), %rax
	movq	%rax, %rdx
	shrq	$3, %rdx
	addq	$2147450880, %rdx
	movzbl	(%rdx), %edx
	testb	%dl, %dl
	je	.L82
	movq	%rax, %rdi
	call	__asan_report_store8@PLT
.L82:
	movq	-40(%rbp), %rax
	movq	-24(%rbp), %rdx
	movq	%rdx, (%rax)
	.loc 1 159 24
	movq	-40(%rbp), %rax
	addq	$8, %rax
	movq	%rax, %rdx
	shrq	$3, %rdx
	addq	$2147450880, %rdx
	movzbl	(%rdx), %edx
	testb	%dl, %dl
	je	.L83
	movq	%rax, %rdi
	call	__asan_report_load8@PLT
.L83:
	movq	-40(%rbp), %rax
	movq	8(%rax), %rax
	leaq	(%rax,%rax), %rdx
	movq	-40(%rbp), %rax
	movq	%rdx, 8(%rax)
	.loc 1 161 12
	movl	$0, %eax
.L78:
	.loc 1 162 5
	movq	-8(%rbp), %rbx
	leave
	.cfi_def_cfa 7, 8
	ret
	.cfi_endproc
.LFE2276:
	.size	_ZL15ResizeNameTableP9NameTable, .-_ZL15ResizeNameTableP9NameTable
	.type	_Z41__static_initialization_and_destruction_0ii, @function
_Z41__static_initialization_and_destruction_0ii:
.LASANPC2943:
.LFB2943:
	.loc 1 162 5
	.cfi_startproc
	endbr64
	pushq	%rbp
	.cfi_def_cfa_offset 16
	.cfi_offset 6, -16
	movq	%rsp, %rbp
	.cfi_def_cfa_register 6
	subq	$16, %rsp
	movl	%edi, -4(%rbp)
	movl	%esi, -8(%rbp)
	.loc 1 162 5
	cmpl	$1, -4(%rbp)
	jne	.L87
	.loc 1 162 5 is_stmt 0 discriminator 1
	leaq	.LC1(%rip), %rax
	movq	%rax, %rdi
	call	__asan_before_dynamic_init@PLT
	cmpl	$65535, -8(%rbp)
	jne	.L86
	.file 2 "/usr/include/c++/11/iostream"
	.loc 2 74 25 is_stmt 1
	leaq	_ZStL8__ioinit(%rip), %rax
	movq	%rax, %rdi
	call	_ZNSt8ios_base4InitC1Ev@PLT
	leaq	__dso_handle(%rip), %rax
	movq	%rax, %rdx
	leaq	_ZStL8__ioinit(%rip), %rax
	movq	%rax, %rsi
	movq	_ZNSt8ios_base4InitD1Ev@GOTPCREL(%rip), %rax
	movq	%rax, %rdi
	call	__cxa_atexit@PLT
.L86:
	.loc 2 74 25 is_stmt 0 discriminator 1
	call	__asan_after_dynamic_init@PLT
.L87:
	.loc 1 162 5 is_stmt 1
	nop
	leave
	.cfi_def_cfa 7, 8
	ret
	.cfi_endproc
.LFE2943:
	.size	_Z41__static_initialization_and_destruction_0ii, .-_Z41__static_initialization_and_destruction_0ii
	.type	_GLOBAL__sub_I__Z12NewNameTablev, @function
_GLOBAL__sub_I__Z12NewNameTablev:
.LASANPC2944:
.LFB2944:
	.loc 1 162 5
	.cfi_startproc
	endbr64
	pushq	%rbp
	.cfi_def_cfa_offset 16
	.cfi_offset 6, -16
	movq	%rsp, %rbp
	.cfi_def_cfa_register 6
	.loc 1 162 5
	movl	$65535, %esi
	movl	$1, %edi
	call	_Z41__static_initialization_and_destruction_0ii
	popq	%rbp
	.cfi_def_cfa 7, 8
	ret
	.cfi_endproc
.LFE2944:
	.size	_GLOBAL__sub_I__Z12NewNameTablev, .-_GLOBAL__sub_I__Z12NewNameTablev
	.section	.init_array,"aw"
	.align 8
	.quad	_GLOBAL__sub_I__Z12NewNameTablev
	.section	.data.rel.local,"aw"
	.align 16
	.type	.LASANLOC1, @object
	.size	.LASANLOC1, 16
.LASANLOC1:
	.quad	.LC1
	.long	7
	.long	11
	.align 16
	.type	.LASANLOC2, @object
	.size	.LASANLOC2, 16
.LASANLOC2:
	.quad	.LC1
	.long	5
	.long	11
	.section	.rodata
	.align 8
.LC34:
	.string	"../ATC/RandomStuff/CommonEnums.h"
	.section	.data.rel.local
	.align 16
	.type	.LASANLOC3, @object
	.size	.LASANLOC3, 16
.LASANLOC3:
	.quad	.LC34
	.long	3
	.long	11
	.section	.rodata
.LC35:
	.string	"../ATC/Logger/LogConfig.h"
	.section	.data.rel.local
	.align 16
	.type	.LASANLOC4, @object
	.size	.LASANLOC4, 16
.LASANLOC4:
	.quad	.LC35
	.long	3
	.long	12
	.section	.rodata
.LC36:
	.string	"/usr/include/c++/11/iostream"
	.section	.data.rel.local
	.align 16
	.type	.LASANLOC5, @object
	.size	.LASANLOC5, 16
.LASANLOC5:
	.quad	.LC36
	.long	74
	.long	25
	.section	.rodata
.LC37:
	.string	"START_LABEL_ARR_SIZE"
.LC38:
	.string	"GROWTH_RATE"
.LC39:
	.string	"CRINGE"
.LC40:
	.string	"STD_LOG_NAME"
.LC41:
	.string	"__ioinit"
.LC42:
	.string	"*.LC17"
.LC43:
	.string	"*.LC6"
.LC44:
	.string	"*.LC18"
.LC45:
	.string	"*.LC32"
.LC46:
	.string	"*.LC27"
.LC47:
	.string	"*.LC28"
.LC48:
	.string	"*.LC3"
.LC49:
	.string	"*.LC11"
.LC50:
	.string	"*.LC31"
.LC51:
	.string	"*.LC16"
.LC52:
	.string	"*.LC23"
.LC53:
	.string	"*.LC20"
.LC54:
	.string	"*.LC29"
.LC55:
	.string	"*.LC0"
.LC56:
	.string	"*.LC5"
.LC57:
	.string	"*.LC19"
.LC58:
	.string	"*.LC1"
.LC59:
	.string	"*.LC8"
.LC60:
	.string	"*.LC10"
.LC61:
	.string	"*.LC30"
.LC62:
	.string	"*.LC33"
.LC63:
	.string	"*.LC7"
.LC64:
	.string	"*.LC25"
.LC65:
	.string	"*.LC2"
.LC66:
	.string	"*.LC13"
.LC67:
	.string	"*.LC24"
.LC68:
	.string	"*.LC4"
.LC69:
	.string	"*.LC26"
.LC70:
	.string	"*.LC22"
.LC71:
	.string	"*.LC14"
.LC72:
	.string	"*.LC21"
.LC73:
	.string	"*.LC9"
.LC74:
	.string	"*.LC15"
.LC75:
	.string	"*.LC12"
	.section	.data.rel.local
	.align 32
	.type	.LASAN0, @object
	.size	.LASAN0, 2496
.LASAN0:
	.quad	_ZL20START_LABEL_ARR_SIZE
	.quad	4
	.quad	64
	.quad	.LC37
	.quad	.LC1
	.quad	0
	.quad	.LASANLOC1
	.quad	0
	.quad	_ZL11GROWTH_RATE
	.quad	4
	.quad	64
	.quad	.LC38
	.quad	.LC1
	.quad	0
	.quad	.LASANLOC2
	.quad	0
	.quad	_ZL6CRINGE
	.quad	4
	.quad	64
	.quad	.LC39
	.quad	.LC1
	.quad	0
	.quad	.LASANLOC3
	.quad	0
	.quad	_ZL12STD_LOG_NAME
	.quad	18
	.quad	64
	.quad	.LC40
	.quad	.LC1
	.quad	0
	.quad	.LASANLOC4
	.quad	0
	.quad	_ZStL8__ioinit
	.quad	1
	.quad	64
	.quad	.LC41
	.quad	.LC1
	.quad	1
	.quad	.LASANLOC5
	.quad	0
	.quad	.LC17
	.quad	8
	.quad	64
	.quad	.LC42
	.quad	.LC1
	.quad	0
	.quad	0
	.quad	0
	.quad	.LC6
	.quad	22
	.quad	64
	.quad	.LC43
	.quad	.LC1
	.quad	0
	.quad	0
	.quad	0
	.quad	.LC18
	.quad	6
	.quad	64
	.quad	.LC44
	.quad	.LC1
	.quad	0
	.quad	0
	.quad	0
	.quad	.LC32
	.quad	32
	.quad	64
	.quad	.LC45
	.quad	.LC1
	.quad	0
	.quad	0
	.quad	0
	.quad	.LC27
	.quad	53
	.quad	96
	.quad	.LC46
	.quad	.LC1
	.quad	0
	.quad	0
	.quad	0
	.quad	.LC28
	.quad	7
	.quad	64
	.quad	.LC47
	.quad	.LC1
	.quad	0
	.quad	0
	.quad	0
	.quad	.LC3
	.quad	37
	.quad	96
	.quad	.LC48
	.quad	.LC1
	.quad	0
	.quad	0
	.quad	0
	.quad	.LC11
	.quad	31
	.quad	64
	.quad	.LC49
	.quad	.LC1
	.quad	0
	.quad	0
	.quad	0
	.quad	.LC31
	.quad	7
	.quad	64
	.quad	.LC50
	.quad	.LC1
	.quad	0
	.quad	0
	.quad	0
	.quad	.LC16
	.quad	34
	.quad	96
	.quad	.LC51
	.quad	.LC1
	.quad	0
	.quad	0
	.quad	0
	.quad	.LC23
	.quad	9
	.quad	64
	.quad	.LC52
	.quad	.LC1
	.quad	0
	.quad	0
	.quad	0
	.quad	.LC20
	.quad	10
	.quad	64
	.quad	.LC53
	.quad	.LC1
	.quad	0
	.quad	0
	.quad	0
	.quad	.LC29
	.quad	34
	.quad	96
	.quad	.LC54
	.quad	.LC1
	.quad	0
	.quad	0
	.quad	0
	.quad	.LC0
	.quad	13
	.quad	64
	.quad	.LC55
	.quad	.LC1
	.quad	0
	.quad	0
	.quad	0
	.quad	.LC5
	.quad	31
	.quad	64
	.quad	.LC56
	.quad	.LC1
	.quad	0
	.quad	0
	.quad	0
	.quad	.LC19
	.quad	36
	.quad	96
	.quad	.LC57
	.quad	.LC1
	.quad	0
	.quad	0
	.quad	0
	.quad	.LC1
	.quad	42
	.quad	96
	.quad	.LC58
	.quad	.LC1
	.quad	0
	.quad	0
	.quad	0
	.quad	.LC8
	.quad	15
	.quad	64
	.quad	.LC59
	.quad	.LC1
	.quad	0
	.quad	0
	.quad	0
	.quad	.LC10
	.quad	10
	.quad	64
	.quad	.LC60
	.quad	.LC1
	.quad	0
	.quad	0
	.quad	0
	.quad	.LC30
	.quad	14
	.quad	64
	.quad	.LC61
	.quad	.LC1
	.quad	0
	.quad	0
	.quad	0
	.quad	.LC33
	.quad	16
	.quad	64
	.quad	.LC62
	.quad	.LC1
	.quad	0
	.quad	0
	.quad	0
	.quad	.LC7
	.quad	36
	.quad	96
	.quad	.LC63
	.quad	.LC1
	.quad	0
	.quad	0
	.quad	0
	.quad	.LC25
	.quad	34
	.quad	96
	.quad	.LC64
	.quad	.LC1
	.quad	0
	.quad	0
	.quad	0
	.quad	.LC2
	.quad	6
	.quad	64
	.quad	.LC65
	.quad	.LC1
	.quad	0
	.quad	0
	.quad	0
	.quad	.LC13
	.quad	34
	.quad	96
	.quad	.LC66
	.quad	.LC1
	.quad	0
	.quad	0
	.quad	0
	.quad	.LC24
	.quad	58
	.quad	96
	.quad	.LC67
	.quad	.LC1
	.quad	0
	.quad	0
	.quad	0
	.quad	.LC4
	.quad	64
	.quad	96
	.quad	.LC68
	.quad	.LC1
	.quad	0
	.quad	0
	.quad	0
	.quad	.LC26
	.quad	10
	.quad	64
	.quad	.LC69
	.quad	.LC1
	.quad	0
	.quad	0
	.quad	0
	.quad	.LC22
	.quad	33
	.quad	96
	.quad	.LC70
	.quad	.LC1
	.quad	0
	.quad	0
	.quad	0
	.quad	.LC14
	.quad	59
	.quad	96
	.quad	.LC71
	.quad	.LC1
	.quad	0
	.quad	0
	.quad	0
	.quad	.LC21
	.quad	6
	.quad	64
	.quad	.LC72
	.quad	.LC1
	.quad	0
	.quad	0
	.quad	0
	.quad	.LC9
	.quad	33
	.quad	96
	.quad	.LC73
	.quad	.LC1
	.quad	0
	.quad	0
	.quad	0
	.quad	.LC15
	.quad	50
	.quad	96
	.quad	.LC74
	.quad	.LC1
	.quad	0
	.quad	0
	.quad	0
	.quad	.LC12
	.quad	22
	.quad	64
	.quad	.LC75
	.quad	.LC1
	.quad	0
	.quad	0
	.quad	0
	.text
	.type	_sub_D_00099_0, @function
_sub_D_00099_0:
.LFB2945:
	.cfi_startproc
	endbr64
	pushq	%rbp
	.cfi_def_cfa_offset 16
	.cfi_offset 6, -16
	movq	%rsp, %rbp
	.cfi_def_cfa_register 6
	movl	$39, %esi
	leaq	.LASAN0(%rip), %rax
	movq	%rax, %rdi
	call	__asan_unregister_globals@PLT
	popq	%rbp
	.cfi_def_cfa 7, 8
	ret
	.cfi_endproc
.LFE2945:
	.size	_sub_D_00099_0, .-_sub_D_00099_0
	.section	.fini_array.00099,"aw"
	.align 8
	.quad	_sub_D_00099_0
	.text
	.type	_sub_I_00099_1, @function
_sub_I_00099_1:
.LFB2946:
	.cfi_startproc
	endbr64
	pushq	%rbp
	.cfi_def_cfa_offset 16
	.cfi_offset 6, -16
	movq	%rsp, %rbp
	.cfi_def_cfa_register 6
	call	__asan_init@PLT
	call	__asan_version_mismatch_check_v8@PLT
	movl	$39, %esi
	leaq	.LASAN0(%rip), %rax
	movq	%rax, %rdi
	call	__asan_register_globals@PLT
	popq	%rbp
	.cfi_def_cfa 7, 8
	ret
	.cfi_endproc
.LFE2946:
	.size	_sub_I_00099_1, .-_sub_I_00099_1
	.section	.init_array.00099,"aw"
	.align 8
	.quad	_sub_I_00099_1
	.text
.Letext0:
	.file 3 "../Common/Structures/Tabels/NameTabel.h"
	.file 4 "<built-in>"
	.file 5 "/usr/lib/gcc/x86_64-linux-gnu/11/include/stddef.h"
	.file 6 "/usr/include/x86_64-linux-gnu/bits/types/wint_t.h"
	.file 7 "/usr/include/x86_64-linux-gnu/bits/types/__mbstate_t.h"
	.file 8 "/usr/include/x86_64-linux-gnu/bits/types/mbstate_t.h"
	.file 9 "/usr/include/x86_64-linux-gnu/bits/types/__FILE.h"
	.file 10 "/usr/include/x86_64-linux-gnu/bits/types/struct_FILE.h"
	.file 11 "/usr/include/x86_64-linux-gnu/bits/types/FILE.h"
	.file 12 "/usr/include/c++/11/cwchar"
	.file 13 "/usr/include/c++/11/type_traits"
	.file 14 "/usr/include/c++/11/bits/exception_ptr.h"
	.file 15 "/usr/include/x86_64-linux-gnu/c++/11/bits/c++config.h"
	.file 16 "/usr/include/c++/11/concepts"
	.file 17 "/usr/include/c++/11/bits/iterator_concepts.h"
	.file 18 "/usr/include/c++/11/bits/ranges_cmp.h"
	.file 19 "/usr/include/c++/11/compare"
	.file 20 "/usr/include/c++/11/debug/debug.h"
	.file 21 "/usr/include/c++/11/cstdint"
	.file 22 "/usr/include/c++/11/clocale"
	.file 23 "/usr/include/c++/11/cstdlib"
	.file 24 "/usr/include/c++/11/numbers"
	.file 25 "/usr/include/c++/11/cstdio"
	.file 26 "/usr/include/c++/11/bits/ios_base.h"
	.file 27 "/usr/include/c++/11/cwctype"
	.file 28 "/usr/include/wchar.h"
	.file 29 "/usr/include/x86_64-linux-gnu/bits/types/struct_tm.h"
	.file 30 "/usr/include/c++/11/bits/predefined_ops.h"
	.file 31 "/usr/include/c++/11/bits/ptr_traits.h"
	.file 32 "/usr/include/x86_64-linux-gnu/bits/types.h"
	.file 33 "/usr/include/x86_64-linux-gnu/bits/stdint-intn.h"
	.file 34 "/usr/include/x86_64-linux-gnu/bits/stdint-uintn.h"
	.file 35 "/usr/include/stdint.h"
	.file 36 "/usr/include/locale.h"
	.file 37 "/usr/include/stdlib.h"
	.file 38 "/usr/include/x86_64-linux-gnu/bits/types/__fpos_t.h"
	.file 39 "/usr/include/stdio.h"
	.file 40 "/usr/include/x86_64-linux-gnu/bits/wctype-wchar.h"
	.file 41 "/usr/include/wctype.h"
	.file 42 "../ATC/Logger/LogConfig.h"
	.file 43 "../ATC/RandomStuff/CommonEnums.h"
	.file 44 "../ATC/Logger/Logger.h"
	.file 45 "../ATC/Utils/Utils.h"
	.file 46 "/usr/include/string.h"
	.file 47 "/usr/include/c++/11/bits/algorithmfwd.h"
	.section	.note.GNU-stack,"",@progbits
	.section	.note.gnu.property,"a"
	.align 8
	.long	1f - 0f
	.long	4f - 1f
	.long	5
0:
	.string	"GNU"
1:
	.align 8
	.long	0xc0000002
	.long	3f - 2f
2:
	.long	0x3
3:
	.align 8
4:
