	.file	"Program.cpp"
	.text
.Ltext0:
	.file 0 "/home/arsenyfucker/Cprojects/Lang/Translator/BackEnd" "../Common/Structures/Program/Program.cpp"
	.section	.rodata
	.align 32
	.type	_ZL12NOT_DECLARED, @object
	.size	_ZL12NOT_DECLARED, 4
_ZL12NOT_DECLARED:
	.long	-111
	.zero	60
	.align 32
	.type	_ZL11NOT_A_LABEL, @object
	.size	_ZL11NOT_A_LABEL, 4
_ZL11NOT_A_LABEL:
	.long	-9
	.zero	60
	.bss
	.align 32
	.type	_ZStL8__ioinit, @object
	.size	_ZStL8__ioinit, 1
_ZStL8__ioinit:
	.zero	64
	.section	.rodata
	.align 32
	.type	_ZL12STD_LOG_NAME, @object
	.size	_ZL12STD_LOG_NAME, 18
_ZL12STD_LOG_NAME:
	.string	"./logs/stdlog.ars"
	.zero	46
	.align 32
	.type	_ZL6CRINGE, @object
	.size	_ZL6CRINGE, 4
_ZL6CRINGE:
	.long	3565
	.zero	60
	.align 32
	.type	_ZL11INDENT_SIZE, @object
	.size	_ZL11INDENT_SIZE, 4
_ZL11INDENT_SIZE:
	.long	2
	.zero	60
	.align 32
.LC0:
	.string	"program"
	.zero	56
	.align 32
.LC1:
	.string	"ASSERTLOG:: Condition (%s) is false\n"
	.zero	59
	.align 32
.LC2:
	.string	"\033[93mASSERTLOG:: \033[0mCondition\033[95m (%s) \033[0mis \033[91mfalse\n\033[0m"
	.zero	32
	.align 32
.LC3:
	.string	"int ProgramCtor(Program*, const char*)"
	.zero	57
	.align 32
.LC4:
	.string	"../Common/Structures/Program/Program.cpp"
	.zero	55
	.align 32
.LC5:
	.string	"\t%s:%d, function: %s\n"
	.zero	42
	.align 32
.LC6:
	.string	"It matches to error: (code %d) %s\n\n"
	.zero	60
	.align 32
.LC7:
	.string	"ProgramCtor"
	.zero	52
	.align 32
.LC8:
	.string	"Shutting down the system (%s:%d)"
	.zero	63
	.align 32
.LC9:
	.string	"echo LOX\n"
	.zero	54
	.align 32
.LC10:
	.string	"path_to_src_file"
	.zero	47
	.text
	.globl	_Z11ProgramCtorP7ProgramPKc
	.type	_Z11ProgramCtorP7ProgramPKc, @function
_Z11ProgramCtorP7ProgramPKc:
.LASANPC2270:
.LFB2270:
	.file 1 "../Common/Structures/Program/Program.cpp"
	.loc 1 7 5
	.cfi_startproc
	endbr64
	pushq	%rbp
	.cfi_def_cfa_offset 16
	.cfi_offset 6, -16
	movq	%rsp, %rbp
	.cfi_def_cfa_register 6
	pushq	%rbx
	subq	$24, %rsp
	.cfi_offset 3, -24
	movq	%rdi, -24(%rbp)
	movq	%rsi, -32(%rbp)
	.loc 1 8 10
	cmpq	$0, -24(%rbp)
	jne	.L2
	.loc 1 8 47 discriminator 1
	call	_ZN6Logger11getInstanceEv@PLT
	movq	%rax, %rcx
	.loc 1 8 53 discriminator 1
	leaq	.LC0(%rip), %rax
	movq	%rax, %rdx
	leaq	.LC1(%rip), %rax
	movq	%rax, %rsi
	movq	%rcx, %rdi
	movl	$0, %eax
	call	_ZN6Logger3logEPKcz@PLT
	.loc 1 8 113 discriminator 1
	leaq	.LC0(%rip), %rax
	movq	%rax, %rsi
	leaq	.LC2(%rip), %rax
	movq	%rax, %rdi
	movl	$0, %eax
	call	printf@PLT
	.loc 1 8 261 discriminator 1
	call	_ZN6Logger11getInstanceEv@PLT
	movq	%rax, %rdi
	.loc 1 8 267 discriminator 1
	leaq	.LC3(%rip), %r8
	movl	$8, %ecx
	leaq	.LC4(%rip), %rax
	movq	%rax, %rdx
	leaq	.LC5(%rip), %rax
	movq	%rax, %rsi
	movl	$0, %eax
	call	_ZN6Logger3logEPKcz@PLT
	.loc 1 8 370 discriminator 1
	leaq	.LC3(%rip), %rax
	movq	%rax, %rcx
	movl	$8, %edx
	leaq	.LC4(%rip), %rax
	movq	%rax, %rsi
	leaq	.LC5(%rip), %rax
	movq	%rax, %rdi
	movl	$0, %eax
	call	printf@PLT
	.loc 1 8 486 discriminator 1
	call	_ZN6Logger11getInstanceEv@PLT
	movq	%rax, %rbx
	.loc 1 8 492 discriminator 1
	movl	$14, %edi
	call	strerror@PLT
	movq	%rax, %rcx
	movl	$14, %edx
	leaq	.LC6(%rip), %rax
	movq	%rax, %rsi
	movq	%rbx, %rdi
	movl	$0, %eax
	call	_ZN6Logger3logEPKcz@PLT
	.loc 1 8 27 discriminator 1
	call	_ZN6Logger11getInstanceEv@PLT
	movq	%rax, %rdi
	.loc 1 8 33 discriminator 1
	movl	$8, %ecx
	leaq	.LC7(%rip), %rax
	movq	%rax, %rdx
	leaq	.LC8(%rip), %rax
	movq	%rax, %rsi
	movl	$0, %eax
	call	_ZN6Logger3logEPKcz@PLT
	.loc 1 8 90 discriminator 1
	leaq	.LC9(%rip), %rax
	movq	%rax, %rdi
	call	system@PLT
	.loc 1 8 113 discriminator 1
	movl	$-2, %eax
	jmp	.L3
.L2:
	.loc 1 9 10
	cmpq	$0, -32(%rbp)
	jne	.L4
	.loc 1 9 56 discriminator 1
	call	_ZN6Logger11getInstanceEv@PLT
	movq	%rax, %rcx
	.loc 1 9 62 discriminator 1
	leaq	.LC10(%rip), %rax
	movq	%rax, %rdx
	leaq	.LC1(%rip), %rax
	movq	%rax, %rsi
	movq	%rcx, %rdi
	movl	$0, %eax
	call	_ZN6Logger3logEPKcz@PLT
	.loc 1 9 131 discriminator 1
	leaq	.LC10(%rip), %rax
	movq	%rax, %rsi
	leaq	.LC2(%rip), %rax
	movq	%rax, %rdi
	movl	$0, %eax
	call	printf@PLT
	.loc 1 9 288 discriminator 1
	call	_ZN6Logger11getInstanceEv@PLT
	movq	%rax, %rdi
	.loc 1 9 294 discriminator 1
	leaq	.LC3(%rip), %r8
	movl	$9, %ecx
	leaq	.LC4(%rip), %rax
	movq	%rax, %rdx
	leaq	.LC5(%rip), %rax
	movq	%rax, %rsi
	movl	$0, %eax
	call	_ZN6Logger3logEPKcz@PLT
	.loc 1 9 397 discriminator 1
	leaq	.LC3(%rip), %rax
	movq	%rax, %rcx
	movl	$9, %edx
	leaq	.LC4(%rip), %rax
	movq	%rax, %rsi
	leaq	.LC5(%rip), %rax
	movq	%rax, %rdi
	movl	$0, %eax
	call	printf@PLT
	.loc 1 9 513 discriminator 1
	call	_ZN6Logger11getInstanceEv@PLT
	movq	%rax, %rbx
	.loc 1 9 519 discriminator 1
	movl	$14, %edi
	call	strerror@PLT
	movq	%rax, %rcx
	movl	$14, %edx
	leaq	.LC6(%rip), %rax
	movq	%rax, %rsi
	movq	%rbx, %rdi
	movl	$0, %eax
	call	_ZN6Logger3logEPKcz@PLT
	.loc 1 9 27 discriminator 1
	call	_ZN6Logger11getInstanceEv@PLT
	movq	%rax, %rdi
	.loc 1 9 33 discriminator 1
	movl	$9, %ecx
	leaq	.LC7(%rip), %rax
	movq	%rax, %rdx
	leaq	.LC8(%rip), %rax
	movq	%rax, %rsi
	movl	$0, %eax
	call	_ZN6Logger3logEPKcz@PLT
	.loc 1 9 90 discriminator 1
	leaq	.LC9(%rip), %rax
	movq	%rax, %rdi
	call	system@PLT
	.loc 1 9 113 discriminator 1
	movl	$-2, %eax
	jmp	.L3
.L4:
	.loc 1 11 24
	movq	-24(%rbp), %rax
	movq	%rax, %rdx
	shrq	$3, %rdx
	addq	$2147450880, %rdx
	movzbl	(%rdx), %edx
	testb	%dl, %dl
	je	.L5
	movq	%rax, %rdi
	call	__asan_report_store8@PLT
.L5:
	movq	-24(%rbp), %rax
	movq	$0, (%rax)
	.loc 1 12 31
	movq	-24(%rbp), %rax
	addq	$8, %rax
	movq	%rax, %rdx
	movq	%rdx, %rax
	shrq	$3, %rax
	addq	$2147450880, %rax
	movzbl	(%rax), %eax
	testb	%al, %al
	setne	%cl
	cmpb	$3, %al
	setle	%al
	andl	%ecx, %eax
	testb	%al, %al
	je	.L6
	movq	%rdx, %rdi
	call	__asan_report_store4@PLT
.L6:
	movq	-24(%rbp), %rax
	movl	$0, 8(%rax)
	.loc 1 14 25
	movq	-24(%rbp), %rax
	addq	$24, %rax
	movq	%rax, %rdx
	shrq	$3, %rdx
	addq	$2147450880, %rdx
	movzbl	(%rdx), %edx
	testb	%dl, %dl
	je	.L7
	movq	%rax, %rdi
	call	__asan_report_store8@PLT
.L7:
	movq	-24(%rbp), %rax
	movq	$0, 24(%rax)
	.loc 1 15 32
	movq	-24(%rbp), %rax
	addq	$32, %rax
	movq	%rax, %rdx
	movq	%rdx, %rax
	shrq	$3, %rax
	addq	$2147450880, %rax
	movzbl	(%rax), %eax
	testb	%al, %al
	setne	%cl
	cmpb	$3, %al
	setle	%al
	andl	%ecx, %eax
	testb	%al, %al
	je	.L8
	movq	%rdx, %rdi
	call	__asan_report_store4@PLT
.L8:
	movq	-24(%rbp), %rax
	movl	$0, 32(%rax)
	.loc 1 17 31
	movq	-24(%rbp), %rax
	addq	$40, %rax
	movq	%rax, %rdx
	shrq	$3, %rdx
	addq	$2147450880, %rdx
	movzbl	(%rdx), %edx
	testb	%dl, %dl
	je	.L9
	movq	%rax, %rdi
	call	__asan_report_store8@PLT
.L9:
	movq	-24(%rbp), %rax
	movq	-32(%rbp), %rdx
	movq	%rdx, 40(%rax)
	.loc 1 19 12
	movl	$0, %eax
.L3:
	.loc 1 20 5
	movq	-8(%rbp), %rbx
	leave
	.cfi_def_cfa 7, 8
	ret
	.cfi_endproc
.LFE2270:
	.size	_Z11ProgramCtorP7ProgramPKc, .-_Z11ProgramCtorP7ProgramPKc
	.globl	__asan_stack_malloc_1
	.section	.rodata
.LC11:
	.string	"1 32 24 10 func_24:24"
	.align 32
.LC12:
	.string	"ProgramDtor"
	.zero	52
	.align 32
.LC13:
	.string	"int ProgramDtor(Program*)"
	.zero	38
	.text
	.globl	_Z11ProgramDtorP7Program
	.type	_Z11ProgramDtorP7Program, @function
_Z11ProgramDtorP7Program:
.LASANPC2271:
.LFB2271:
	.loc 1 23 5
	.cfi_startproc
	.cfi_personality 0x9b,DW.ref.__gxx_personality_v0
	.cfi_lsda 0x1b,.LLSDA2271
	endbr64
	pushq	%rbp
	.cfi_def_cfa_offset 16
	.cfi_offset 6, -16
	movq	%rsp, %rbp
	.cfi_def_cfa_register 6
	pushq	%r15
	pushq	%r14
	pushq	%r13
	pushq	%r12
	pushq	%rbx
	subq	$136, %rsp
	.cfi_offset 15, -24
	.cfi_offset 14, -32
	.cfi_offset 13, -40
	.cfi_offset 12, -48
	.cfi_offset 3, -56
	movq	%rdi, -168(%rbp)
	leaq	-144(%rbp), %rbx
	movq	%rbx, %r15
	cmpl	$0, __asan_option_detect_stack_use_after_return(%rip)
	je	.L10
	movl	$96, %edi
	call	__asan_stack_malloc_1@PLT
	testq	%rax, %rax
	je	.L10
	movq	%rax, %rbx
.L10:
	leaq	96(%rbx), %rax
	movq	%rax, %r13
	movq	$1102416563, (%rbx)
	leaq	.LC11(%rip), %rax
	movq	%rax, 8(%rbx)
	leaq	.LASANPC2271(%rip), %rax
	movq	%rax, 16(%rbx)
	movq	%rbx, %r12
	shrq	$3, %r12
	movl	$-235802127, 2147450880(%r12)
	movl	$-218103808, 2147450884(%r12)
	movl	$-202116109, 2147450888(%r12)
	.loc 1 24 40
	leaq	-64(%r13), %rax
	leaq	.LC12(%rip), %rdx
	movl	$1, %esi
	movq	%rax, %rdi
.LEHB0:
	call	_ZN14FunctionLoggerC1EiPKc@PLT
.LEHE0:
	.loc 1 25 10
	cmpq	$0, -168(%rbp)
	jne	.L14
.LEHB1:
	.loc 1 25 47 discriminator 1
	call	_ZN6Logger11getInstanceEv@PLT
	movq	%rax, %rcx
	.loc 1 25 53 discriminator 1
	leaq	.LC0(%rip), %rax
	movq	%rax, %rdx
	leaq	.LC1(%rip), %rax
	movq	%rax, %rsi
	movq	%rcx, %rdi
	movl	$0, %eax
	call	_ZN6Logger3logEPKcz@PLT
	.loc 1 25 113 discriminator 3
	leaq	.LC0(%rip), %rax
	movq	%rax, %rsi
	leaq	.LC2(%rip), %rax
	movq	%rax, %rdi
	movl	$0, %eax
	call	printf@PLT
	.loc 1 25 261 discriminator 4
	call	_ZN6Logger11getInstanceEv@PLT
	movq	%rax, %rdi
	.loc 1 25 267 discriminator 4
	leaq	.LC13(%rip), %r8
	movl	$25, %ecx
	leaq	.LC4(%rip), %rax
	movq	%rax, %rdx
	leaq	.LC5(%rip), %rax
	movq	%rax, %rsi
	movl	$0, %eax
	call	_ZN6Logger3logEPKcz@PLT
	.loc 1 25 371 discriminator 6
	leaq	.LC13(%rip), %rax
	movq	%rax, %rcx
	movl	$25, %edx
	leaq	.LC4(%rip), %rax
	movq	%rax, %rsi
	leaq	.LC5(%rip), %rax
	movq	%rax, %rdi
	movl	$0, %eax
	call	printf@PLT
	.loc 1 25 488 discriminator 7
	call	_ZN6Logger11getInstanceEv@PLT
	movq	%rax, %r14
	.loc 1 25 494 discriminator 7
	movl	$14, %edi
	call	strerror@PLT
	movq	%rax, %rcx
	movl	$14, %edx
	leaq	.LC6(%rip), %rax
	movq	%rax, %rsi
	movq	%r14, %rdi
	movl	$0, %eax
	call	_ZN6Logger3logEPKcz@PLT
	.loc 1 25 27 discriminator 9
	call	_ZN6Logger11getInstanceEv@PLT
	movq	%rax, %rdi
	.loc 1 25 33 discriminator 9
	movl	$25, %ecx
	leaq	.LC12(%rip), %rax
	movq	%rax, %rdx
	leaq	.LC8(%rip), %rax
	movq	%rax, %rsi
	movl	$0, %eax
	call	_ZN6Logger3logEPKcz@PLT
	.loc 1 25 91 discriminator 11
	leaq	.LC9(%rip), %rax
	movq	%rax, %rdi
	call	system@PLT
	.loc 1 25 114 discriminator 12
	movl	$-2, %r14d
	jmp	.L15
.L14:
.LBB2:
	.loc 1 27 18
	movq	-168(%rbp), %rax
	addq	$24, %rax
	movq	%rax, %rdx
	shrq	$3, %rdx
	addq	$2147450880, %rdx
	movzbl	(%rdx), %edx
	testb	%dl, %dl
	je	.L16
	movq	%rax, %rdi
	call	__asan_report_load8@PLT
.L16:
	movq	-168(%rbp), %rax
	movq	24(%rax), %rax
	.loc 1 27 5
	testq	%rax, %rax
	je	.L17
.LBB3:
	.loc 1 29 36
	movq	-168(%rbp), %rax
	addq	$32, %rax
	movq	%rax, %rdx
	movq	%rdx, %rax
	shrq	$3, %rax
	addq	$2147450880, %rax
	movzbl	(%rax), %eax
	testb	%al, %al
	setne	%cl
	cmpb	$3, %al
	setle	%al
	andl	%ecx, %eax
	testb	%al, %al
	je	.L18
	movq	%rdx, %rdi
	call	__asan_report_load4@PLT
.L18:
	movq	-168(%rbp), %rax
	movl	32(%rax), %edx
	movq	-168(%rbp), %rax
	movq	24(%rax), %rax
	movl	%edx, %esi
	movq	%rax, %rdi
	call	_Z14CleanStringArrPPKci
	movl	%eax, -148(%rbp)
	.loc 1 30 9
	cmpl	$0, -148(%rbp)
	je	.L19
	.loc 1 31 20
	movl	$-1, %r14d
	jmp	.L15
.L19:
	.loc 1 34 28
	call	_ZN6Logger11getInstanceEv@PLT
	movq	%rax, %rdi
	.loc 1 34 50
	movq	-168(%rbp), %rax
	addq	$24, %rax
	movq	%rax, %rdx
	shrq	$3, %rdx
	addq	$2147450880, %rdx
	movzbl	(%rdx), %edx
	testb	%dl, %dl
	je	.L20
	movq	%rax, %rdi
	call	__asan_report_load8@PLT
.L20:
	.loc 1 34 50 is_stmt 0 discriminator 1
	movq	-168(%rbp), %rax
	movq	24(%rax), %rax
	.loc 1 34 40 is_stmt 1 discriminator 1
	movl	$34, %r8d
	leaq	.LC12(%rip), %rdx
	movq	%rdx, %rcx
	leaq	.LC4(%rip), %rdx
	movq	%rax, %rsi
	call	_ZN6Logger8FREE_LOGEPvPKcS2_i@PLT
.L17:
.LBE3:
.LBE2:
	.loc 1 37 18
	movq	-168(%rbp), %rax
	movq	%rax, %rdx
	shrq	$3, %rdx
	addq	$2147450880, %rdx
	movzbl	(%rdx), %edx
	testb	%dl, %dl
	je	.L21
	movq	%rax, %rdi
	call	__asan_report_load8@PLT
.L21:
	movq	-168(%rbp), %rax
	movq	(%rax), %rax
	.loc 1 37 5
	testq	%rax, %rax
	je	.L22
	.loc 1 39 28
	call	_ZN6Logger11getInstanceEv@PLT
	movq	%rax, %rdi
	.loc 1 39 50
	movq	-168(%rbp), %rax
	movq	%rax, %rdx
	shrq	$3, %rdx
	addq	$2147450880, %rdx
	movzbl	(%rdx), %edx
	testb	%dl, %dl
	je	.L23
	movq	%rax, %rdi
	call	__asan_report_load8@PLT
.L23:
	.loc 1 39 50 is_stmt 0 discriminator 1
	movq	-168(%rbp), %rax
	movq	(%rax), %rax
	.loc 1 39 40 is_stmt 1 discriminator 1
	movl	$39, %r8d
	leaq	.LC12(%rip), %rdx
	movq	%rdx, %rcx
	leaq	.LC4(%rip), %rdx
	movq	%rax, %rsi
	call	_ZN6Logger8FREE_LOGEPvPKcS2_i@PLT
.L22:
	.loc 1 42 18
	movq	-168(%rbp), %rax
	addq	$48, %rax
	movq	%rax, %rdx
	shrq	$3, %rdx
	addq	$2147450880, %rdx
	movzbl	(%rdx), %edx
	testb	%dl, %dl
	je	.L24
	movq	%rax, %rdi
	call	__asan_report_load8@PLT
.L24:
	movq	-168(%rbp), %rax
	movq	48(%rax), %rax
	.loc 1 42 5
	testq	%rax, %rax
	je	.L25
	.loc 1 44 27
	movq	-168(%rbp), %rax
	movq	48(%rax), %rax
	movq	%rax, %rdi
	call	_Z18DeleteNameTableArrP12NameTableArr@PLT
.LEHE1:
.L25:
	.loc 1 47 12
	movl	$0, %r14d
.L15:
	.loc 1 48 5
	leaq	-64(%r13), %rax
	movq	%rax, %rdi
	call	_ZN14FunctionLoggerD1Ev@PLT
	movl	%r14d, %edx
	.loc 1 23 5
	cmpq	%rbx, %r15
	je	.L11
	jmp	.L29
.L28:
	endbr64
	.loc 1 48 5
	movq	%rax, %rbx
	leaq	-64(%r13), %rax
	movq	%rax, %rdi
	call	_ZN14FunctionLoggerD1Ev@PLT
	call	__asan_handle_no_return@PLT
	movq	%rbx, %rdi
.LEHB2:
	call	_Unwind_Resume@PLT
.LEHE2:
.L29:
	.loc 1 23 5
	movq	$1172321806, (%rbx)
	movabsq	$-723401728380766731, %rax
	movq	%rax, 2147450880(%r12)
	movl	$-168430091, 2147450888(%r12)
	movq	120(%rbx), %rax
	movb	$0, (%rax)
	jmp	.L12
.L11:
	movq	$0, 2147450880(%r12)
	movl	$0, 2147450888(%r12)
.L12:
	.loc 1 48 5
	movl	%edx, %eax
	addq	$136, %rsp
	popq	%rbx
	popq	%r12
	popq	%r13
	popq	%r14
	popq	%r15
	popq	%rbp
	.cfi_def_cfa 7, 8
	ret
	.cfi_endproc
.LFE2271:
	.globl	__gxx_personality_v0
	.section	.gcc_except_table,"a",@progbits
.LLSDA2271:
	.byte	0xff
	.byte	0xff
	.byte	0x1
	.uleb128 .LLSDACSE2271-.LLSDACSB2271
.LLSDACSB2271:
	.uleb128 .LEHB0-.LFB2271
	.uleb128 .LEHE0-.LEHB0
	.uleb128 0
	.uleb128 0
	.uleb128 .LEHB1-.LFB2271
	.uleb128 .LEHE1-.LEHB1
	.uleb128 .L28-.LFB2271
	.uleb128 0
	.uleb128 .LEHB2-.LFB2271
	.uleb128 .LEHE2-.LEHB2
	.uleb128 0
	.uleb128 0
.LLSDACSE2271:
	.text
	.size	_Z11ProgramDtorP7Program, .-_Z11ProgramDtorP7Program
	.section	.rodata
	.align 32
.LC14:
	.string	"string_arr"
	.zero	53
	.align 32
.LC15:
	.string	"int CleanStringArr(const char**, int)"
	.zero	58
	.align 32
.LC16:
	.string	"CleanStringArr"
	.zero	49
	.align 32
.LC17:
	.string	"Failed (%s:%d, %s:%d)"
	.zero	42
	.align 32
.LC18:
	.string	"\t%s: "
	.zero	58
	.align 32
.LC19:
	.string	"Ebat, null pointer in string arr, position %d\n"
	.zero	49
	.align 32
.LC20:
	.string	" (%s:%d)\n"
	.zero	54
	.text
	.globl	_Z14CleanStringArrPPKci
	.type	_Z14CleanStringArrPPKci, @function
_Z14CleanStringArrPPKci:
.LASANPC2272:
.LFB2272:
	.loc 1 53 5
	.cfi_startproc
	endbr64
	pushq	%rbp
	.cfi_def_cfa_offset 16
	.cfi_offset 6, -16
	movq	%rsp, %rbp
	.cfi_def_cfa_register 6
	pushq	%rbx
	subq	$40, %rsp
	.cfi_offset 3, -24
	movq	%rdi, -40(%rbp)
	movl	%esi, -44(%rbp)
	.loc 1 54 10
	cmpq	$0, -40(%rbp)
	jne	.L31
	.loc 1 54 50 discriminator 1
	call	_ZN6Logger11getInstanceEv@PLT
	movq	%rax, %rcx
	.loc 1 54 56 discriminator 1
	leaq	.LC14(%rip), %rax
	movq	%rax, %rdx
	leaq	.LC1(%rip), %rax
	movq	%rax, %rsi
	movq	%rcx, %rdi
	movl	$0, %eax
	call	_ZN6Logger3logEPKcz@PLT
	.loc 1 54 119 discriminator 1
	leaq	.LC14(%rip), %rax
	movq	%rax, %rsi
	leaq	.LC2(%rip), %rax
	movq	%rax, %rdi
	movl	$0, %eax
	call	printf@PLT
	.loc 1 54 270 discriminator 1
	call	_ZN6Logger11getInstanceEv@PLT
	movq	%rax, %rdi
	.loc 1 54 276 discriminator 1
	leaq	.LC15(%rip), %r8
	movl	$54, %ecx
	leaq	.LC4(%rip), %rax
	movq	%rax, %rdx
	leaq	.LC5(%rip), %rax
	movq	%rax, %rsi
	movl	$0, %eax
	call	_ZN6Logger3logEPKcz@PLT
	.loc 1 54 380 discriminator 1
	leaq	.LC15(%rip), %rax
	movq	%rax, %rcx
	movl	$54, %edx
	leaq	.LC4(%rip), %rax
	movq	%rax, %rsi
	leaq	.LC5(%rip), %rax
	movq	%rax, %rdi
	movl	$0, %eax
	call	printf@PLT
	.loc 1 54 497 discriminator 1
	call	_ZN6Logger11getInstanceEv@PLT
	movq	%rax, %rbx
	.loc 1 54 503 discriminator 1
	movl	$14, %edi
	call	strerror@PLT
	movq	%rax, %rcx
	movl	$14, %edx
	leaq	.LC6(%rip), %rax
	movq	%rax, %rsi
	movq	%rbx, %rdi
	movl	$0, %eax
	call	_ZN6Logger3logEPKcz@PLT
	.loc 1 54 27 discriminator 1
	call	_ZN6Logger11getInstanceEv@PLT
	movq	%rax, %rdi
	.loc 1 54 33 discriminator 1
	movl	$54, %ecx
	leaq	.LC16(%rip), %rax
	movq	%rax, %rdx
	leaq	.LC8(%rip), %rax
	movq	%rax, %rsi
	movl	$0, %eax
	call	_ZN6Logger3logEPKcz@PLT
	.loc 1 54 91 discriminator 1
	leaq	.LC9(%rip), %rax
	movq	%rax, %rdi
	call	system@PLT
	.loc 1 54 133 discriminator 1
	call	_ZN6Logger11getInstanceEv@PLT
	.loc 1 54 155 discriminator 1
	call	_ZN6Logger11getInstanceEv@PLT
	movq	%rax, %rdi
	.loc 1 54 168 discriminator 1
	subq	$8, %rsp
	pushq	$54
	leaq	.LC16(%rip), %r9
	movl	$54, %r8d
	leaq	.LC4(%rip), %rax
	movq	%rax, %rcx
	leaq	.LC17(%rip), %rax
	movq	%rax, %rdx
	movl	$-1, %esi
	movl	$0, %eax
	call	_ZN6Logger9LogMsgRetEiPKcz@PLT
	addq	$16, %rsp
	.loc 1 54 264 discriminator 1
	jmp	.L32
.L31:
.LBB4:
	.loc 1 56 14
	movl	$0, -20(%rbp)
	.loc 1 56 5
	jmp	.L33
.L37:
	.loc 1 58 26
	movl	-20(%rbp), %eax
	cltq
	.loc 1 58 27
	leaq	0(,%rax,8), %rdx
	movq	-40(%rbp), %rax
	addq	%rdx, %rax
	movq	%rax, %rdx
	movq	%rdx, %rcx
	shrq	$3, %rcx
	addq	$2147450880, %rcx
	movzbl	(%rcx), %ecx
	testb	%cl, %cl
	je	.L34
	movq	%rdx, %rdi
	call	__asan_report_load8@PLT
.L34:
	movq	(%rax), %rax
	.loc 1 58 9
	testq	%rax, %rax
	jne	.L35
	.loc 1 60 21
	leaq	.LC16(%rip), %rax
	movq	%rax, %rsi
	leaq	.LC18(%rip), %rax
	movq	%rax, %rdi
	movl	$0, %eax
	call	printf@PLT
	.loc 1 60 49
	movl	-20(%rbp), %eax
	movl	%eax, %esi
	leaq	.LC19(%rip), %rax
	movq	%rax, %rdi
	movl	$0, %eax
	call	printf@PLT
	.loc 1 60 111
	movl	$60, %edx
	leaq	.LC4(%rip), %rax
	movq	%rax, %rsi
	leaq	.LC20(%rip), %rax
	movq	%rax, %rdi
	movl	$0, %eax
	call	printf@PLT
	.loc 1 61 20
	movl	$-1, %eax
	jmp	.L32
.L35:
	.loc 1 64 28 discriminator 2
	call	_ZN6Logger11getInstanceEv@PLT
	movq	%rax, %rdi
	.loc 1 64 60 discriminator 2
	movl	-20(%rbp), %eax
	cltq
	.loc 1 64 61 discriminator 2
	leaq	0(,%rax,8), %rdx
	movq	-40(%rbp), %rax
	addq	%rdx, %rax
	.loc 1 64 40 discriminator 2
	movq	%rax, %rdx
	movq	%rdx, %rcx
	shrq	$3, %rcx
	addq	$2147450880, %rcx
	movzbl	(%rcx), %ecx
	testb	%cl, %cl
	je	.L36
	.loc 1 64 40 is_stmt 0
	movq	%rdx, %rdi
	call	__asan_report_load8@PLT
.L36:
	.loc 1 64 40 discriminator 2
	movq	(%rax), %rax
	movl	$64, %r8d
	leaq	.LC16(%rip), %rdx
	movq	%rdx, %rcx
	leaq	.LC4(%rip), %rdx
	movq	%rax, %rsi
	call	_ZN6Logger8FREE_LOGEPvPKcS2_i@PLT
	.loc 1 56 5 is_stmt 1 discriminator 2
	addl	$1, -20(%rbp)
.L33:
	.loc 1 56 23 discriminator 1
	movl	-20(%rbp), %eax
	cmpl	-44(%rbp), %eax
	jl	.L37
.LBE4:
	.loc 1 67 12
	movl	$0, %eax
.L32:
	.loc 1 68 5
	movq	-8(%rbp), %rbx
	leave
	.cfi_def_cfa 7, 8
	ret
	.cfi_endproc
.LFE2272:
	.size	_Z14CleanStringArrPPKci, .-_Z14CleanStringArrPPKci
	.type	_Z41__static_initialization_and_destruction_0ii, @function
_Z41__static_initialization_and_destruction_0ii:
.LASANPC2939:
.LFB2939:
	.loc 1 68 5
	.cfi_startproc
	endbr64
	pushq	%rbp
	.cfi_def_cfa_offset 16
	.cfi_offset 6, -16
	movq	%rsp, %rbp
	.cfi_def_cfa_register 6
	subq	$16, %rsp
	movl	%edi, -4(%rbp)
	movl	%esi, -8(%rbp)
	.loc 1 68 5
	cmpl	$1, -4(%rbp)
	jne	.L41
	.loc 1 68 5 is_stmt 0 discriminator 1
	leaq	.LC4(%rip), %rax
	movq	%rax, %rdi
	call	__asan_before_dynamic_init@PLT
	cmpl	$65535, -8(%rbp)
	jne	.L40
	.file 2 "/usr/include/c++/11/iostream"
	.loc 2 74 25 is_stmt 1
	leaq	_ZStL8__ioinit(%rip), %rax
	movq	%rax, %rdi
	call	_ZNSt8ios_base4InitC1Ev@PLT
	leaq	__dso_handle(%rip), %rax
	movq	%rax, %rdx
	leaq	_ZStL8__ioinit(%rip), %rax
	movq	%rax, %rsi
	movq	_ZNSt8ios_base4InitD1Ev@GOTPCREL(%rip), %rax
	movq	%rax, %rdi
	call	__cxa_atexit@PLT
.L40:
	.loc 2 74 25 is_stmt 0 discriminator 1
	call	__asan_after_dynamic_init@PLT
.L41:
	.loc 1 68 5 is_stmt 1
	nop
	leave
	.cfi_def_cfa 7, 8
	ret
	.cfi_endproc
.LFE2939:
	.size	_Z41__static_initialization_and_destruction_0ii, .-_Z41__static_initialization_and_destruction_0ii
	.type	_GLOBAL__sub_I__Z11ProgramCtorP7ProgramPKc, @function
_GLOBAL__sub_I__Z11ProgramCtorP7ProgramPKc:
.LASANPC2940:
.LFB2940:
	.loc 1 68 5
	.cfi_startproc
	endbr64
	pushq	%rbp
	.cfi_def_cfa_offset 16
	.cfi_offset 6, -16
	movq	%rsp, %rbp
	.cfi_def_cfa_register 6
	.loc 1 68 5
	movl	$65535, %esi
	movl	$1, %edi
	call	_Z41__static_initialization_and_destruction_0ii
	popq	%rbp
	.cfi_def_cfa 7, 8
	ret
	.cfi_endproc
.LFE2940:
	.size	_GLOBAL__sub_I__Z11ProgramCtorP7ProgramPKc, .-_GLOBAL__sub_I__Z11ProgramCtorP7ProgramPKc
	.section	.init_array,"aw"
	.align 8
	.quad	_GLOBAL__sub_I__Z11ProgramCtorP7ProgramPKc
	.section	.rodata
.LC21:
	.string	"../ATC/Buffer/my_buffer.h"
	.section	.data.rel.local,"aw"
	.align 16
	.type	.LASANLOC1, @object
	.size	.LASANLOC1, 16
.LASANLOC1:
	.quad	.LC21
	.long	32
	.long	11
	.section	.rodata
	.align 8
.LC22:
	.string	"../ATC/RandomStuff/CommonEnums.h"
	.section	.data.rel.local
	.align 16
	.type	.LASANLOC2, @object
	.size	.LASANLOC2, 16
.LASANLOC2:
	.quad	.LC22
	.long	3
	.long	11
	.section	.rodata
.LC23:
	.string	"../ATC/Logger/LogConfig.h"
	.section	.data.rel.local
	.align 16
	.type	.LASANLOC3, @object
	.size	.LASANLOC3, 16
.LASANLOC3:
	.quad	.LC23
	.long	3
	.long	12
	.section	.rodata
.LC24:
	.string	"/usr/include/c++/11/iostream"
	.section	.data.rel.local
	.align 16
	.type	.LASANLOC4, @object
	.size	.LASANLOC4, 16
.LASANLOC4:
	.quad	.LC24
	.long	74
	.long	25
	.section	.rodata
	.align 8
.LC25:
	.string	"../Common/Structures/Tabels/Tabels.h"
	.section	.data.rel.local
	.align 16
	.type	.LASANLOC5, @object
	.size	.LASANLOC5, 16
.LASANLOC5:
	.quad	.LC25
	.long	8
	.long	11
	.align 16
	.type	.LASANLOC6, @object
	.size	.LASANLOC6, 16
.LASANLOC6:
	.quad	.LC25
	.long	7
	.long	11
	.section	.rodata
.LC26:
	.string	"INDENT_SIZE"
.LC27:
	.string	"CRINGE"
.LC28:
	.string	"STD_LOG_NAME"
.LC29:
	.string	"__ioinit"
.LC30:
	.string	"NOT_A_LABEL"
.LC31:
	.string	"NOT_DECLARED"
.LC32:
	.string	"*.LC18"
.LC33:
	.string	"*.LC12"
.LC34:
	.string	"*.LC3"
.LC35:
	.string	"*.LC8"
.LC36:
	.string	"*.LC0"
.LC37:
	.string	"*.LC19"
.LC38:
	.string	"*.LC15"
.LC39:
	.string	"*.LC5"
.LC40:
	.string	"*.LC17"
.LC41:
	.string	"*.LC14"
.LC42:
	.string	"*.LC20"
.LC43:
	.string	"*.LC7"
.LC44:
	.string	"*.LC13"
.LC45:
	.string	"*.LC10"
.LC46:
	.string	"*.LC16"
.LC47:
	.string	"*.LC4"
.LC48:
	.string	"*.LC1"
.LC49:
	.string	"*.LC2"
.LC50:
	.string	"*.LC9"
.LC51:
	.string	"*.LC6"
	.section	.data.rel.local
	.align 32
	.type	.LASAN0, @object
	.size	.LASAN0, 1664
.LASAN0:
	.quad	_ZL11INDENT_SIZE
	.quad	4
	.quad	64
	.quad	.LC26
	.quad	.LC4
	.quad	0
	.quad	.LASANLOC1
	.quad	0
	.quad	_ZL6CRINGE
	.quad	4
	.quad	64
	.quad	.LC27
	.quad	.LC4
	.quad	0
	.quad	.LASANLOC2
	.quad	0
	.quad	_ZL12STD_LOG_NAME
	.quad	18
	.quad	64
	.quad	.LC28
	.quad	.LC4
	.quad	0
	.quad	.LASANLOC3
	.quad	0
	.quad	_ZStL8__ioinit
	.quad	1
	.quad	64
	.quad	.LC29
	.quad	.LC4
	.quad	1
	.quad	.LASANLOC4
	.quad	0
	.quad	_ZL11NOT_A_LABEL
	.quad	4
	.quad	64
	.quad	.LC30
	.quad	.LC4
	.quad	0
	.quad	.LASANLOC5
	.quad	0
	.quad	_ZL12NOT_DECLARED
	.quad	4
	.quad	64
	.quad	.LC31
	.quad	.LC4
	.quad	0
	.quad	.LASANLOC6
	.quad	0
	.quad	.LC18
	.quad	6
	.quad	64
	.quad	.LC32
	.quad	.LC4
	.quad	0
	.quad	0
	.quad	0
	.quad	.LC12
	.quad	12
	.quad	64
	.quad	.LC33
	.quad	.LC4
	.quad	0
	.quad	0
	.quad	0
	.quad	.LC3
	.quad	39
	.quad	96
	.quad	.LC34
	.quad	.LC4
	.quad	0
	.quad	0
	.quad	0
	.quad	.LC8
	.quad	33
	.quad	96
	.quad	.LC35
	.quad	.LC4
	.quad	0
	.quad	0
	.quad	0
	.quad	.LC0
	.quad	8
	.quad	64
	.quad	.LC36
	.quad	.LC4
	.quad	0
	.quad	0
	.quad	0
	.quad	.LC19
	.quad	47
	.quad	96
	.quad	.LC37
	.quad	.LC4
	.quad	0
	.quad	0
	.quad	0
	.quad	.LC15
	.quad	38
	.quad	96
	.quad	.LC38
	.quad	.LC4
	.quad	0
	.quad	0
	.quad	0
	.quad	.LC5
	.quad	22
	.quad	64
	.quad	.LC39
	.quad	.LC4
	.quad	0
	.quad	0
	.quad	0
	.quad	.LC17
	.quad	22
	.quad	64
	.quad	.LC40
	.quad	.LC4
	.quad	0
	.quad	0
	.quad	0
	.quad	.LC14
	.quad	11
	.quad	64
	.quad	.LC41
	.quad	.LC4
	.quad	0
	.quad	0
	.quad	0
	.quad	.LC20
	.quad	10
	.quad	64
	.quad	.LC42
	.quad	.LC4
	.quad	0
	.quad	0
	.quad	0
	.quad	.LC7
	.quad	12
	.quad	64
	.quad	.LC43
	.quad	.LC4
	.quad	0
	.quad	0
	.quad	0
	.quad	.LC13
	.quad	26
	.quad	64
	.quad	.LC44
	.quad	.LC4
	.quad	0
	.quad	0
	.quad	0
	.quad	.LC10
	.quad	17
	.quad	64
	.quad	.LC45
	.quad	.LC4
	.quad	0
	.quad	0
	.quad	0
	.quad	.LC16
	.quad	15
	.quad	64
	.quad	.LC46
	.quad	.LC4
	.quad	0
	.quad	0
	.quad	0
	.quad	.LC4
	.quad	41
	.quad	96
	.quad	.LC47
	.quad	.LC4
	.quad	0
	.quad	0
	.quad	0
	.quad	.LC1
	.quad	37
	.quad	96
	.quad	.LC48
	.quad	.LC4
	.quad	0
	.quad	0
	.quad	0
	.quad	.LC2
	.quad	64
	.quad	96
	.quad	.LC49
	.quad	.LC4
	.quad	0
	.quad	0
	.quad	0
	.quad	.LC9
	.quad	10
	.quad	64
	.quad	.LC50
	.quad	.LC4
	.quad	0
	.quad	0
	.quad	0
	.quad	.LC6
	.quad	36
	.quad	96
	.quad	.LC51
	.quad	.LC4
	.quad	0
	.quad	0
	.quad	0
	.text
	.type	_sub_D_00099_0, @function
_sub_D_00099_0:
.LFB2941:
	.cfi_startproc
	endbr64
	pushq	%rbp
	.cfi_def_cfa_offset 16
	.cfi_offset 6, -16
	movq	%rsp, %rbp
	.cfi_def_cfa_register 6
	movl	$26, %esi
	leaq	.LASAN0(%rip), %rax
	movq	%rax, %rdi
	call	__asan_unregister_globals@PLT
	popq	%rbp
	.cfi_def_cfa 7, 8
	ret
	.cfi_endproc
.LFE2941:
	.size	_sub_D_00099_0, .-_sub_D_00099_0
	.section	.fini_array.00099,"aw"
	.align 8
	.quad	_sub_D_00099_0
	.text
	.type	_sub_I_00099_1, @function
_sub_I_00099_1:
.LFB2942:
	.cfi_startproc
	endbr64
	pushq	%rbp
	.cfi_def_cfa_offset 16
	.cfi_offset 6, -16
	movq	%rsp, %rbp
	.cfi_def_cfa_register 6
	call	__asan_init@PLT
	call	__asan_version_mismatch_check_v8@PLT
	movl	$26, %esi
	leaq	.LASAN0(%rip), %rax
	movq	%rax, %rdi
	call	__asan_register_globals@PLT
	popq	%rbp
	.cfi_def_cfa 7, 8
	ret
	.cfi_endproc
.LFE2942:
	.size	_sub_I_00099_1, .-_sub_I_00099_1
	.section	.init_array.00099,"aw"
	.align 8
	.quad	_sub_I_00099_1
	.text
.Letext0:
	.file 3 "../Common/Structures/Tabels/NameTable.h"
	.file 4 "../Common/Structures/Token/Token.h"
	.file 5 "../Common/Structures/Tabels/Tabels.h"
	.file 6 "../Common/Structures/Program/Program.h"
	.file 7 "<built-in>"
	.file 8 "/usr/lib/gcc/x86_64-linux-gnu/11/include/stddef.h"
	.file 9 "/usr/include/x86_64-linux-gnu/bits/types/wint_t.h"
	.file 10 "/usr/include/x86_64-linux-gnu/bits/types/__mbstate_t.h"
	.file 11 "/usr/include/x86_64-linux-gnu/bits/types/mbstate_t.h"
	.file 12 "/usr/include/x86_64-linux-gnu/bits/types/__FILE.h"
	.file 13 "/usr/include/x86_64-linux-gnu/bits/types/struct_FILE.h"
	.file 14 "/usr/include/x86_64-linux-gnu/bits/types/FILE.h"
	.file 15 "/usr/include/c++/11/cwchar"
	.file 16 "/usr/include/c++/11/type_traits"
	.file 17 "/usr/include/c++/11/bits/exception_ptr.h"
	.file 18 "/usr/include/x86_64-linux-gnu/c++/11/bits/c++config.h"
	.file 19 "/usr/include/c++/11/concepts"
	.file 20 "/usr/include/c++/11/bits/iterator_concepts.h"
	.file 21 "/usr/include/c++/11/bits/ranges_cmp.h"
	.file 22 "/usr/include/c++/11/compare"
	.file 23 "/usr/include/c++/11/debug/debug.h"
	.file 24 "/usr/include/c++/11/cstdint"
	.file 25 "/usr/include/c++/11/clocale"
	.file 26 "/usr/include/c++/11/cstdlib"
	.file 27 "/usr/include/c++/11/numbers"
	.file 28 "/usr/include/c++/11/cstdio"
	.file 29 "/usr/include/c++/11/bits/ios_base.h"
	.file 30 "/usr/include/c++/11/cwctype"
	.file 31 "/usr/include/c++/11/bits/std_abs.h"
	.file 32 "/usr/include/wchar.h"
	.file 33 "/usr/include/x86_64-linux-gnu/bits/types/struct_tm.h"
	.file 34 "/usr/include/c++/11/bits/predefined_ops.h"
	.file 35 "/usr/include/c++/11/bits/ptr_traits.h"
	.file 36 "/usr/include/x86_64-linux-gnu/bits/types.h"
	.file 37 "/usr/include/x86_64-linux-gnu/bits/stdint-intn.h"
	.file 38 "/usr/include/x86_64-linux-gnu/bits/stdint-uintn.h"
	.file 39 "/usr/include/stdint.h"
	.file 40 "/usr/include/locale.h"
	.file 41 "/usr/include/stdlib.h"
	.file 42 "/usr/include/x86_64-linux-gnu/bits/types/__fpos_t.h"
	.file 43 "/usr/include/stdio.h"
	.file 44 "/usr/include/x86_64-linux-gnu/bits/wctype-wchar.h"
	.file 45 "/usr/include/wctype.h"
	.file 46 "../ATC/Logger/LogConfig.h"
	.file 47 "../ATC/Logger/FunctionLogger.h"
	.file 48 "../ATC/RandomStuff/CommonEnums.h"
	.file 49 "/usr/include/c++/11/stdlib.h"
	.file 50 "../ATC/Buffer/my_buffer.h"
	.file 51 "../ATC/Logger/Logger.h"
	.file 52 "/usr/include/string.h"
	.file 53 "/usr/include/c++/11/bits/algorithmfwd.h"
	.section	.data.rel.local.DW.ref.__gxx_personality_v0,"awG",@progbits,DW.ref.__gxx_personality_v0,comdat
	.align 8
	.type	DW.ref.__gxx_personality_v0, @object
	.size	DW.ref.__gxx_personality_v0, 8
DW.ref.__gxx_personality_v0:
	.quad	__gxx_personality_v0
	.hidden	__dso_handle
	.ident	"GCC: (Ubuntu 11.3.0-1ubuntu1~22.04) 11.3.0"
	.section	.note.GNU-stack,"",@progbits
	.section	.note.gnu.property,"a"
	.align 8
	.long	1f - 0f
	.long	4f - 1f
	.long	5
0:
	.string	"GNU"
1:
	.align 8
	.long	0xc0000002
	.long	3f - 2f
2:
	.long	0x3
3:
	.align 8
4:
