	.file	"ProgramCtx.cpp"
	.text
.Ltext0:
	.file 0 "/home/arsenyfucker/Cprojects/Lang/Translator/BackEnd" "../Common/ProgramCtx/ProgramCtx.cpp"
	.section	.rodata
	.align 32
	.type	_ZL12NOT_DECLARED, @object
	.size	_ZL12NOT_DECLARED, 4
_ZL12NOT_DECLARED:
	.long	-111
	.zero	60
	.align 32
	.type	_ZL11NOT_A_LABEL, @object
	.size	_ZL11NOT_A_LABEL, 4
_ZL11NOT_A_LABEL:
	.long	-9
	.zero	60
	.align 32
	.type	_ZL13_CANARY_SIZE_, @object
	.size	_ZL13_CANARY_SIZE_, 4
_ZL13_CANARY_SIZE_:
	.long	8
	.zero	60
	.align 32
	.type	_ZL16_OPENING_CANARY_, @object
	.size	_ZL16_OPENING_CANARY_, 4
_ZL16_OPENING_CANARY_:
	.long	11259375
	.zero	60
	.align 32
	.type	_ZL16_CLOSING_CANARY_, @object
	.size	_ZL16_CLOSING_CANARY_, 4
_ZL16_CLOSING_CANARY_:
	.long	16702650
	.zero	60
	.align 32
	.type	_ZL19_HEAP_MIN_CAPACITY_, @object
	.size	_ZL19_HEAP_MIN_CAPACITY_, 8
_ZL19_HEAP_MIN_CAPACITY_:
	.quad	10
	.zero	56
	.align 32
	.type	_ZL16_ELEMENT_T_SIZE_, @object
	.size	_ZL16_ELEMENT_T_SIZE_, 8
_ZL16_ELEMENT_T_SIZE_:
	.quad	8
	.zero	56
	.align 32
	.type	_ZL11GROWTH_RATE, @object
	.size	_ZL11GROWTH_RATE, 4
_ZL11GROWTH_RATE:
	.long	2
	.zero	60
	.align 32
	.type	_ZL30START_NUMBER_OF_VAR_TABELS_STK, @object
	.size	_ZL30START_NUMBER_OF_VAR_TABELS_STK, 4
_ZL30START_NUMBER_OF_VAR_TABELS_STK:
	.long	5
	.zero	60
	.bss
	.align 32
	.type	_ZStL8__ioinit, @object
	.size	_ZStL8__ioinit, 1
_ZStL8__ioinit:
	.zero	64
	.section	.rodata
	.align 32
	.type	_ZL12STD_LOG_NAME, @object
	.size	_ZL12STD_LOG_NAME, 18
_ZL12STD_LOG_NAME:
	.string	"./logs/stdlog.ars"
	.zero	46
	.align 32
	.type	_ZL6CRINGE, @object
	.size	_ZL6CRINGE, 4
_ZL6CRINGE:
	.long	3565
	.zero	60
	.align 32
.LC0:
	.string	"program_ctx"
	.zero	52
	.align 32
.LC1:
	.string	"ASSERTLOG:: Condition (%s) is false\n"
	.zero	59
	.align 32
.LC2:
	.string	"\033[93mASSERTLOG:: \033[0mCondition\033[95m (%s) \033[0mis \033[91mfalse\n\033[0m"
	.zero	32
	.align 32
.LC3:
	.string	"int ProgramCtxCtor(ProgramCtx*, const Program*)"
	.zero	48
	.align 32
.LC4:
	.string	"../Common/ProgramCtx/ProgramCtx.cpp"
	.zero	60
	.align 32
.LC5:
	.string	"\t%s:%d, function: %s\n"
	.zero	42
	.align 32
.LC6:
	.string	"It matches to error: (code %d) %s\n\n"
	.zero	60
	.align 32
.LC7:
	.string	"ProgramCtxCtor"
	.zero	49
	.align 32
.LC8:
	.string	"Shutting down the system (%s:%d)"
	.zero	63
	.align 32
.LC9:
	.string	"echo LOX\n"
	.zero	54
	.align 32
.LC10:
	.string	"program"
	.zero	56
	.text
	.globl	_Z14ProgramCtxCtorP10ProgramCtxPK7Program
	.type	_Z14ProgramCtxCtorP10ProgramCtxPK7Program, @function
_Z14ProgramCtxCtorP10ProgramCtxPK7Program:
.LASANPC2270:
.LFB2270:
	.file 1 "../Common/ProgramCtx/ProgramCtx.cpp"
	.loc 1 6 5
	.cfi_startproc
	endbr64
	pushq	%rbp
	.cfi_def_cfa_offset 16
	.cfi_offset 6, -16
	movq	%rsp, %rbp
	.cfi_def_cfa_register 6
	pushq	%rbx
	subq	$56, %rsp
	.cfi_offset 3, -24
	movq	%rdi, -56(%rbp)
	movq	%rsi, -64(%rbp)
	.loc 1 7 10
	cmpq	$0, -56(%rbp)
	jne	.L2
	.loc 1 7 51 discriminator 1
	call	_ZN6Logger11getInstanceEv@PLT
	movq	%rax, %rcx
	.loc 1 7 57 discriminator 1
	leaq	.LC0(%rip), %rax
	movq	%rax, %rdx
	leaq	.LC1(%rip), %rax
	movq	%rax, %rsi
	movq	%rcx, %rdi
	movl	$0, %eax
	call	_ZN6Logger3logEPKcz@PLT
	.loc 1 7 121 discriminator 1
	leaq	.LC0(%rip), %rax
	movq	%rax, %rsi
	leaq	.LC2(%rip), %rax
	movq	%rax, %rdi
	movl	$0, %eax
	call	printf@PLT
	.loc 1 7 273 discriminator 1
	call	_ZN6Logger11getInstanceEv@PLT
	movq	%rax, %rdi
	.loc 1 7 279 discriminator 1
	leaq	.LC3(%rip), %r8
	movl	$7, %ecx
	leaq	.LC4(%rip), %rax
	movq	%rax, %rdx
	leaq	.LC5(%rip), %rax
	movq	%rax, %rsi
	movl	$0, %eax
	call	_ZN6Logger3logEPKcz@PLT
	.loc 1 7 377 discriminator 1
	leaq	.LC3(%rip), %rax
	movq	%rax, %rcx
	movl	$7, %edx
	leaq	.LC4(%rip), %rax
	movq	%rax, %rsi
	leaq	.LC5(%rip), %rax
	movq	%rax, %rdi
	movl	$0, %eax
	call	printf@PLT
	.loc 1 7 488 discriminator 1
	call	_ZN6Logger11getInstanceEv@PLT
	movq	%rax, %rbx
	.loc 1 7 494 discriminator 1
	movl	$14, %edi
	call	strerror@PLT
	movq	%rax, %rcx
	movl	$14, %edx
	leaq	.LC6(%rip), %rax
	movq	%rax, %rsi
	movq	%rbx, %rdi
	movl	$0, %eax
	call	_ZN6Logger3logEPKcz@PLT
	.loc 1 7 27 discriminator 1
	call	_ZN6Logger11getInstanceEv@PLT
	movq	%rax, %rdi
	.loc 1 7 33 discriminator 1
	movl	$7, %ecx
	leaq	.LC7(%rip), %rax
	movq	%rax, %rdx
	leaq	.LC8(%rip), %rax
	movq	%rax, %rsi
	movl	$0, %eax
	call	_ZN6Logger3logEPKcz@PLT
	.loc 1 7 90 discriminator 1
	leaq	.LC9(%rip), %rax
	movq	%rax, %rdi
	call	system@PLT
	.loc 1 7 113 discriminator 1
	movl	$-2, %eax
	jmp	.L3
.L2:
	.loc 1 8 10
	cmpq	$0, -64(%rbp)
	jne	.L4
	.loc 1 8 47 discriminator 1
	call	_ZN6Logger11getInstanceEv@PLT
	movq	%rax, %rcx
	.loc 1 8 53 discriminator 1
	leaq	.LC10(%rip), %rax
	movq	%rax, %rdx
	leaq	.LC1(%rip), %rax
	movq	%rax, %rsi
	movq	%rcx, %rdi
	movl	$0, %eax
	call	_ZN6Logger3logEPKcz@PLT
	.loc 1 8 113 discriminator 1
	leaq	.LC10(%rip), %rax
	movq	%rax, %rsi
	leaq	.LC2(%rip), %rax
	movq	%rax, %rdi
	movl	$0, %eax
	call	printf@PLT
	.loc 1 8 261 discriminator 1
	call	_ZN6Logger11getInstanceEv@PLT
	movq	%rax, %rdi
	.loc 1 8 267 discriminator 1
	leaq	.LC3(%rip), %r8
	movl	$8, %ecx
	leaq	.LC4(%rip), %rax
	movq	%rax, %rdx
	leaq	.LC5(%rip), %rax
	movq	%rax, %rsi
	movl	$0, %eax
	call	_ZN6Logger3logEPKcz@PLT
	.loc 1 8 365 discriminator 1
	leaq	.LC3(%rip), %rax
	movq	%rax, %rcx
	movl	$8, %edx
	leaq	.LC4(%rip), %rax
	movq	%rax, %rsi
	leaq	.LC5(%rip), %rax
	movq	%rax, %rdi
	movl	$0, %eax
	call	printf@PLT
	.loc 1 8 476 discriminator 1
	call	_ZN6Logger11getInstanceEv@PLT
	movq	%rax, %rbx
	.loc 1 8 482 discriminator 1
	movl	$14, %edi
	call	strerror@PLT
	movq	%rax, %rcx
	movl	$14, %edx
	leaq	.LC6(%rip), %rax
	movq	%rax, %rsi
	movq	%rbx, %rdi
	movl	$0, %eax
	call	_ZN6Logger3logEPKcz@PLT
	.loc 1 8 27 discriminator 1
	call	_ZN6Logger11getInstanceEv@PLT
	movq	%rax, %rdi
	.loc 1 8 33 discriminator 1
	movl	$8, %ecx
	leaq	.LC7(%rip), %rax
	movq	%rax, %rdx
	leaq	.LC8(%rip), %rax
	movq	%rax, %rsi
	movl	$0, %eax
	call	_ZN6Logger3logEPKcz@PLT
	.loc 1 8 90 discriminator 1
	leaq	.LC9(%rip), %rax
	movq	%rax, %rdi
	call	system@PLT
	.loc 1 8 113 discriminator 1
	movl	$-2, %eax
	jmp	.L3
.L4:
	.loc 1 10 67
	call	_ZN6Logger11getInstanceEv@PLT
	movq	%rax, %rdi
	.loc 1 10 78
	movl	$10, %r9d
	leaq	.LC7(%rip), %r8
	leaq	.LC4(%rip), %rax
	movq	%rax, %rcx
	movl	$56, %edx
	movl	$1, %esi
	call	_ZN6Logger7CAL_LOGEmmPKcS1_i@PLT
	movq	%rax, -40(%rbp)
	.loc 1 11 5
	cmpq	$0, -40(%rbp)
	jne	.L5
	.loc 1 12 16
	movl	$-1, %eax
	jmp	.L3
.L5:
	.loc 1 14 20
	movq	-40(%rbp), %rax
	movl	$5, %esi
	movq	%rax, %rdi
	call	_Z14SuperStackCtorP10SuperStackm@PLT
	.loc 1 16 42
	call	_Z12NewFuncTabelv@PLT
	movq	%rax, -32(%rbp)
	.loc 1 17 5
	cmpq	$0, -32(%rbp)
	jne	.L6
	.loc 1 19 24
	movq	-40(%rbp), %rax
	movq	%rax, %rdi
	call	_Z14SuperStackDtorP10SuperStack@PLT
	.loc 1 20 28
	call	_ZN6Logger11getInstanceEv@PLT
	movq	%rax, %rdi
	.loc 1 20 40
	movq	-40(%rbp), %rax
	movl	$20, %r8d
	leaq	.LC7(%rip), %rdx
	movq	%rdx, %rcx
	leaq	.LC4(%rip), %rdx
	movq	%rax, %rsi
	call	_ZN6Logger8FREE_LOGEPvPKcS2_i@PLT
	.loc 1 22 16
	movl	$-1, %eax
	jmp	.L3
.L6:
	.loc 1 25 45
	call	_Z11NewVarTabelv@PLT
	movq	%rax, -24(%rbp)
	.loc 1 26 5
	cmpq	$0, -24(%rbp)
	jne	.L7
	.loc 1 28 24
	movq	-40(%rbp), %rax
	movq	%rax, %rdi
	call	_Z14SuperStackDtorP10SuperStack@PLT
	.loc 1 29 28
	call	_ZN6Logger11getInstanceEv@PLT
	movq	%rax, %rdi
	.loc 1 29 40
	movq	-40(%rbp), %rax
	movl	$29, %r8d
	leaq	.LC7(%rip), %rdx
	movq	%rdx, %rcx
	leaq	.LC4(%rip), %rdx
	movq	%rax, %rsi
	call	_ZN6Logger8FREE_LOGEPvPKcS2_i@PLT
	.loc 1 31 23
	movq	-32(%rbp), %rax
	movq	%rax, %rdi
	call	_Z14CloseFuncTabelP9FuncTabel@PLT
	.loc 1 33 16
	movl	$-1, %eax
	jmp	.L3
.L7:
	.loc 1 36 12
	movq	-24(%rbp), %rdx
	movq	-40(%rbp), %rax
	movq	%rdx, %rsi
	movq	%rax, %rdi
	call	_Z6SSpushP10SuperStackP8VarTabel@PLT
	.loc 1 38 27
	movq	-56(%rbp), %rax
	addq	$8, %rax
	movq	%rax, %rdx
	movq	%rdx, %rax
	shrq	$3, %rax
	addq	$2147450880, %rax
	movzbl	(%rax), %eax
	testb	%al, %al
	setne	%cl
	cmpb	$3, %al
	setle	%al
	andl	%ecx, %eax
	testb	%al, %al
	je	.L8
	movq	%rdx, %rdi
	call	__asan_report_store4@PLT
.L8:
	movq	-56(%rbp), %rax
	movl	$0, 8(%rax)
	.loc 1 39 37
	movq	-56(%rbp), %rax
	addq	$12, %rax
	movq	%rax, %rdx
	shrq	$3, %rdx
	addq	$2147450880, %rdx
	movzbl	(%rdx), %edx
	testb	%dl, %dl
	setne	%sil
	movq	%rax, %rcx
	andl	$7, %ecx
	addl	$3, %ecx
	cmpb	%dl, %cl
	setge	%dl
	andl	%esi, %edx
	testb	%dl, %dl
	je	.L9
	movq	%rax, %rdi
	call	__asan_report_store4@PLT
.L9:
	movq	-56(%rbp), %rax
	movl	$0, 12(%rax)
	.loc 1 40 30
	movq	-56(%rbp), %rax
	addq	$16, %rax
	movq	%rax, %rdx
	shrq	$3, %rdx
	addq	$2147450880, %rdx
	movzbl	(%rdx), %edx
	testb	%dl, %dl
	je	.L10
	movq	%rax, %rdi
	call	__asan_report_store8@PLT
.L10:
	movq	-56(%rbp), %rax
	movq	-32(%rbp), %rdx
	movq	%rdx, 16(%rax)
	.loc 1 41 30
	movq	-56(%rbp), %rax
	addq	$24, %rax
	movq	%rax, %rdx
	shrq	$3, %rdx
	addq	$2147450880, %rdx
	movzbl	(%rdx), %edx
	testb	%dl, %dl
	je	.L11
	movq	%rax, %rdi
	call	__asan_report_store8@PLT
.L11:
	movq	-56(%rbp), %rax
	movq	-24(%rbp), %rdx
	movq	%rdx, 24(%rax)
	.loc 1 42 33
	movq	-56(%rbp), %rax
	addq	$32, %rax
	movq	%rax, %rdx
	shrq	$3, %rdx
	addq	$2147450880, %rdx
	movzbl	(%rdx), %edx
	testb	%dl, %dl
	je	.L12
	movq	%rax, %rdi
	call	__asan_report_store8@PLT
.L12:
	movq	-56(%rbp), %rax
	movq	-40(%rbp), %rdx
	movq	%rdx, 32(%rax)
	.loc 1 44 12
	movl	$0, %eax
.L3:
	.loc 1 45 5
	movq	-8(%rbp), %rbx
	leave
	.cfi_def_cfa 7, 8
	ret
	.cfi_endproc
.LFE2270:
	.size	_Z14ProgramCtxCtorP10ProgramCtxPK7Program, .-_Z14ProgramCtxCtorP10ProgramCtxPK7Program
	.section	.rodata
	.align 32
.LC11:
	.string	"int ProgramCtxDtor(ProgramCtx*)"
	.zero	32
	.align 32
.LC12:
	.string	"ProgramCtxDtor"
	.zero	49
	.text
	.globl	_Z14ProgramCtxDtorP10ProgramCtx
	.type	_Z14ProgramCtxDtorP10ProgramCtx, @function
_Z14ProgramCtxDtorP10ProgramCtx:
.LASANPC2271:
.LFB2271:
	.loc 1 48 5
	.cfi_startproc
	endbr64
	pushq	%rbp
	.cfi_def_cfa_offset 16
	.cfi_offset 6, -16
	movq	%rsp, %rbp
	.cfi_def_cfa_register 6
	pushq	%rbx
	subq	$24, %rsp
	.cfi_offset 3, -24
	movq	%rdi, -24(%rbp)
	.loc 1 49 10
	cmpq	$0, -24(%rbp)
	jne	.L14
	.loc 1 49 51 discriminator 1
	call	_ZN6Logger11getInstanceEv@PLT
	movq	%rax, %rcx
	.loc 1 49 57 discriminator 1
	leaq	.LC0(%rip), %rax
	movq	%rax, %rdx
	leaq	.LC1(%rip), %rax
	movq	%rax, %rsi
	movq	%rcx, %rdi
	movl	$0, %eax
	call	_ZN6Logger3logEPKcz@PLT
	.loc 1 49 121 discriminator 1
	leaq	.LC0(%rip), %rax
	movq	%rax, %rsi
	leaq	.LC2(%rip), %rax
	movq	%rax, %rdi
	movl	$0, %eax
	call	printf@PLT
	.loc 1 49 273 discriminator 1
	call	_ZN6Logger11getInstanceEv@PLT
	movq	%rax, %rdi
	.loc 1 49 279 discriminator 1
	leaq	.LC11(%rip), %r8
	movl	$49, %ecx
	leaq	.LC4(%rip), %rax
	movq	%rax, %rdx
	leaq	.LC5(%rip), %rax
	movq	%rax, %rsi
	movl	$0, %eax
	call	_ZN6Logger3logEPKcz@PLT
	.loc 1 49 378 discriminator 1
	leaq	.LC11(%rip), %rax
	movq	%rax, %rcx
	movl	$49, %edx
	leaq	.LC4(%rip), %rax
	movq	%rax, %rsi
	leaq	.LC5(%rip), %rax
	movq	%rax, %rdi
	movl	$0, %eax
	call	printf@PLT
	.loc 1 49 490 discriminator 1
	call	_ZN6Logger11getInstanceEv@PLT
	movq	%rax, %rbx
	.loc 1 49 496 discriminator 1
	movl	$14, %edi
	call	strerror@PLT
	movq	%rax, %rcx
	movl	$14, %edx
	leaq	.LC6(%rip), %rax
	movq	%rax, %rsi
	movq	%rbx, %rdi
	movl	$0, %eax
	call	_ZN6Logger3logEPKcz@PLT
	.loc 1 49 27 discriminator 1
	call	_ZN6Logger11getInstanceEv@PLT
	movq	%rax, %rdi
	.loc 1 49 33 discriminator 1
	movl	$49, %ecx
	leaq	.LC12(%rip), %rax
	movq	%rax, %rdx
	leaq	.LC8(%rip), %rax
	movq	%rax, %rsi
	movl	$0, %eax
	call	_ZN6Logger3logEPKcz@PLT
	.loc 1 49 91 discriminator 1
	leaq	.LC9(%rip), %rax
	movq	%rax, %rdi
	call	system@PLT
	.loc 1 49 114 discriminator 1
	movl	$-2, %eax
	jmp	.L15
.L14:
	.loc 1 51 20
	movq	-24(%rbp), %rax
	addq	$32, %rax
	movq	%rax, %rdx
	shrq	$3, %rdx
	addq	$2147450880, %rdx
	movzbl	(%rdx), %edx
	testb	%dl, %dl
	je	.L16
	movq	%rax, %rdi
	call	__asan_report_load8@PLT
.L16:
	movq	-24(%rbp), %rax
	movq	32(%rax), %rax
	movq	%rax, %rdi
	call	_Z14SuperStackDtorP10SuperStack@PLT
	.loc 1 52 24
	call	_ZN6Logger11getInstanceEv@PLT
	movq	%rax, %rdi
	.loc 1 52 50
	movq	-24(%rbp), %rax
	addq	$32, %rax
	movq	%rax, %rdx
	shrq	$3, %rdx
	addq	$2147450880, %rdx
	movzbl	(%rdx), %edx
	testb	%dl, %dl
	je	.L17
	movq	%rax, %rdi
	call	__asan_report_load8@PLT
.L17:
	movq	-24(%rbp), %rax
	movq	32(%rax), %rax
	.loc 1 52 36
	movl	$52, %r8d
	leaq	.LC12(%rip), %rdx
	movq	%rdx, %rcx
	leaq	.LC4(%rip), %rdx
	movq	%rax, %rsi
	call	_ZN6Logger8FREE_LOGEPvPKcS2_i@PLT
	.loc 1 54 19
	movq	-24(%rbp), %rax
	addq	$24, %rax
	movq	%rax, %rdx
	shrq	$3, %rdx
	addq	$2147450880, %rdx
	movzbl	(%rdx), %edx
	testb	%dl, %dl
	je	.L18
	movq	%rax, %rdi
	call	__asan_report_load8@PLT
.L18:
	movq	-24(%rbp), %rax
	movq	24(%rax), %rax
	movq	%rax, %rdi
	call	_Z13CloseVarTabelP8VarTabel@PLT
	.loc 1 55 19
	movq	-24(%rbp), %rax
	addq	$16, %rax
	movq	%rax, %rdx
	shrq	$3, %rdx
	addq	$2147450880, %rdx
	movzbl	(%rdx), %edx
	testb	%dl, %dl
	je	.L19
	movq	%rax, %rdi
	call	__asan_report_load8@PLT
.L19:
	movq	-24(%rbp), %rax
	movq	16(%rax), %rax
	movq	%rax, %rdi
	call	_Z14CloseFuncTabelP9FuncTabel@PLT
	.loc 1 57 12
	movl	$0, %eax
.L15:
	.loc 1 58 5
	movq	-8(%rbp), %rbx
	leave
	.cfi_def_cfa 7, 8
	ret
	.cfi_endproc
.LFE2271:
	.size	_Z14ProgramCtxDtorP10ProgramCtx, .-_Z14ProgramCtxDtorP10ProgramCtx
	.type	_Z41__static_initialization_and_destruction_0ii, @function
_Z41__static_initialization_and_destruction_0ii:
.LASANPC2938:
.LFB2938:
	.loc 1 58 5
	.cfi_startproc
	endbr64
	pushq	%rbp
	.cfi_def_cfa_offset 16
	.cfi_offset 6, -16
	movq	%rsp, %rbp
	.cfi_def_cfa_register 6
	subq	$16, %rsp
	movl	%edi, -4(%rbp)
	movl	%esi, -8(%rbp)
	.loc 1 58 5
	cmpl	$1, -4(%rbp)
	jne	.L23
	.loc 1 58 5 is_stmt 0 discriminator 1
	leaq	.LC4(%rip), %rax
	movq	%rax, %rdi
	call	__asan_before_dynamic_init@PLT
	cmpl	$65535, -8(%rbp)
	jne	.L22
	.file 2 "/usr/include/c++/11/iostream"
	.loc 2 74 25 is_stmt 1
	leaq	_ZStL8__ioinit(%rip), %rax
	movq	%rax, %rdi
	call	_ZNSt8ios_base4InitC1Ev@PLT
	leaq	__dso_handle(%rip), %rax
	movq	%rax, %rdx
	leaq	_ZStL8__ioinit(%rip), %rax
	movq	%rax, %rsi
	movq	_ZNSt8ios_base4InitD1Ev@GOTPCREL(%rip), %rax
	movq	%rax, %rdi
	call	__cxa_atexit@PLT
.L22:
	.loc 2 74 25 is_stmt 0 discriminator 1
	call	__asan_after_dynamic_init@PLT
.L23:
	.loc 1 58 5 is_stmt 1
	nop
	leave
	.cfi_def_cfa 7, 8
	ret
	.cfi_endproc
.LFE2938:
	.size	_Z41__static_initialization_and_destruction_0ii, .-_Z41__static_initialization_and_destruction_0ii
	.type	_GLOBAL__sub_I__Z14ProgramCtxCtorP10ProgramCtxPK7Program, @function
_GLOBAL__sub_I__Z14ProgramCtxCtorP10ProgramCtxPK7Program:
.LASANPC2939:
.LFB2939:
	.loc 1 58 5
	.cfi_startproc
	endbr64
	pushq	%rbp
	.cfi_def_cfa_offset 16
	.cfi_offset 6, -16
	movq	%rsp, %rbp
	.cfi_def_cfa_register 6
	.loc 1 58 5
	movl	$65535, %esi
	movl	$1, %edi
	call	_Z41__static_initialization_and_destruction_0ii
	popq	%rbp
	.cfi_def_cfa 7, 8
	ret
	.cfi_endproc
.LFE2939:
	.size	_GLOBAL__sub_I__Z14ProgramCtxCtorP10ProgramCtxPK7Program, .-_GLOBAL__sub_I__Z14ProgramCtxCtorP10ProgramCtxPK7Program
	.section	.init_array,"aw"
	.align 8
	.quad	_GLOBAL__sub_I__Z14ProgramCtxCtorP10ProgramCtxPK7Program
	.section	.rodata
	.align 8
.LC13:
	.string	"../ATC/RandomStuff/CommonEnums.h"
	.section	.data.rel.local,"aw"
	.align 16
	.type	.LASANLOC1, @object
	.size	.LASANLOC1, 16
.LASANLOC1:
	.quad	.LC13
	.long	3
	.long	11
	.section	.rodata
.LC14:
	.string	"../ATC/Logger/LogConfig.h"
	.section	.data.rel.local
	.align 16
	.type	.LASANLOC2, @object
	.size	.LASANLOC2, 16
.LASANLOC2:
	.quad	.LC14
	.long	3
	.long	12
	.section	.rodata
.LC15:
	.string	"/usr/include/c++/11/iostream"
	.section	.data.rel.local
	.align 16
	.type	.LASANLOC3, @object
	.size	.LASANLOC3, 16
.LASANLOC3:
	.quad	.LC15
	.long	74
	.long	25
	.section	.rodata
	.align 8
.LC16:
	.string	"../Common/ProgramCtx/ProgramCtx.h"
	.section	.data.rel.local
	.align 16
	.type	.LASANLOC4, @object
	.size	.LASANLOC4, 16
.LASANLOC4:
	.quad	.LC16
	.long	24
	.long	11
	.align 16
	.type	.LASANLOC5, @object
	.size	.LASANLOC5, 16
.LASANLOC5:
	.quad	.LC16
	.long	23
	.long	11
	.section	.rodata
	.align 8
.LC17:
	.string	"../ATC/SuperStack/SuperStack.h"
	.section	.data.rel.local
	.align 16
	.type	.LASANLOC6, @object
	.size	.LASANLOC6, 16
.LASANLOC6:
	.quad	.LC17
	.long	22
	.long	14
	.align 16
	.type	.LASANLOC7, @object
	.size	.LASANLOC7, 16
.LASANLOC7:
	.quad	.LC17
	.long	21
	.long	14
	.section	.rodata
.LC18:
	.string	"../ATC/my_safety/my_safety.h"
	.section	.data.rel.local
	.align 16
	.type	.LASANLOC8, @object
	.size	.LASANLOC8, 16
.LASANLOC8:
	.quad	.LC18
	.long	12
	.long	11
	.align 16
	.type	.LASANLOC9, @object
	.size	.LASANLOC9, 16
.LASANLOC9:
	.quad	.LC18
	.long	11
	.long	11
	.align 16
	.type	.LASANLOC10, @object
	.size	.LASANLOC10, 16
.LASANLOC10:
	.quad	.LC18
	.long	9
	.long	11
	.section	.rodata
	.align 8
.LC19:
	.string	"../Common/Structures/Tabels/Tabels.h"
	.section	.data.rel.local
	.align 16
	.type	.LASANLOC11, @object
	.size	.LASANLOC11, 16
.LASANLOC11:
	.quad	.LC19
	.long	8
	.long	11
	.align 16
	.type	.LASANLOC12, @object
	.size	.LASANLOC12, 16
.LASANLOC12:
	.quad	.LC19
	.long	7
	.long	11
	.section	.rodata
.LC20:
	.string	"CRINGE"
.LC21:
	.string	"STD_LOG_NAME"
.LC22:
	.string	"__ioinit"
	.align 8
.LC23:
	.string	"START_NUMBER_OF_VAR_TABELS_STK"
.LC24:
	.string	"GROWTH_RATE"
.LC25:
	.string	"_ELEMENT_T_SIZE_"
.LC26:
	.string	"_HEAP_MIN_CAPACITY_"
.LC27:
	.string	"_CLOSING_CANARY_"
.LC28:
	.string	"_OPENING_CANARY_"
.LC29:
	.string	"_CANARY_SIZE_"
.LC30:
	.string	"NOT_A_LABEL"
.LC31:
	.string	"NOT_DECLARED"
.LC32:
	.string	"*.LC9"
.LC33:
	.string	"*.LC5"
.LC34:
	.string	"*.LC2"
.LC35:
	.string	"*.LC10"
.LC36:
	.string	"*.LC7"
.LC37:
	.string	"*.LC1"
.LC38:
	.string	"*.LC11"
.LC39:
	.string	"*.LC12"
.LC40:
	.string	"*.LC0"
.LC41:
	.string	"*.LC3"
.LC42:
	.string	"*.LC4"
.LC43:
	.string	"*.LC6"
.LC44:
	.string	"*.LC8"
	.section	.data.rel.local
	.align 32
	.type	.LASAN0, @object
	.size	.LASAN0, 1600
.LASAN0:
	.quad	_ZL6CRINGE
	.quad	4
	.quad	64
	.quad	.LC20
	.quad	.LC4
	.quad	0
	.quad	.LASANLOC1
	.quad	0
	.quad	_ZL12STD_LOG_NAME
	.quad	18
	.quad	64
	.quad	.LC21
	.quad	.LC4
	.quad	0
	.quad	.LASANLOC2
	.quad	0
	.quad	_ZStL8__ioinit
	.quad	1
	.quad	64
	.quad	.LC22
	.quad	.LC4
	.quad	1
	.quad	.LASANLOC3
	.quad	0
	.quad	_ZL30START_NUMBER_OF_VAR_TABELS_STK
	.quad	4
	.quad	64
	.quad	.LC23
	.quad	.LC4
	.quad	0
	.quad	.LASANLOC4
	.quad	0
	.quad	_ZL11GROWTH_RATE
	.quad	4
	.quad	64
	.quad	.LC24
	.quad	.LC4
	.quad	0
	.quad	.LASANLOC5
	.quad	0
	.quad	_ZL16_ELEMENT_T_SIZE_
	.quad	8
	.quad	64
	.quad	.LC25
	.quad	.LC4
	.quad	0
	.quad	.LASANLOC6
	.quad	0
	.quad	_ZL19_HEAP_MIN_CAPACITY_
	.quad	8
	.quad	64
	.quad	.LC26
	.quad	.LC4
	.quad	0
	.quad	.LASANLOC7
	.quad	0
	.quad	_ZL16_CLOSING_CANARY_
	.quad	4
	.quad	64
	.quad	.LC27
	.quad	.LC4
	.quad	0
	.quad	.LASANLOC8
	.quad	0
	.quad	_ZL16_OPENING_CANARY_
	.quad	4
	.quad	64
	.quad	.LC28
	.quad	.LC4
	.quad	0
	.quad	.LASANLOC9
	.quad	0
	.quad	_ZL13_CANARY_SIZE_
	.quad	4
	.quad	64
	.quad	.LC29
	.quad	.LC4
	.quad	0
	.quad	.LASANLOC10
	.quad	0
	.quad	_ZL11NOT_A_LABEL
	.quad	4
	.quad	64
	.quad	.LC30
	.quad	.LC4
	.quad	0
	.quad	.LASANLOC11
	.quad	0
	.quad	_ZL12NOT_DECLARED
	.quad	4
	.quad	64
	.quad	.LC31
	.quad	.LC4
	.quad	0
	.quad	.LASANLOC12
	.quad	0
	.quad	.LC9
	.quad	10
	.quad	64
	.quad	.LC32
	.quad	.LC4
	.quad	0
	.quad	0
	.quad	0
	.quad	.LC5
	.quad	22
	.quad	64
	.quad	.LC33
	.quad	.LC4
	.quad	0
	.quad	0
	.quad	0
	.quad	.LC2
	.quad	64
	.quad	96
	.quad	.LC34
	.quad	.LC4
	.quad	0
	.quad	0
	.quad	0
	.quad	.LC10
	.quad	8
	.quad	64
	.quad	.LC35
	.quad	.LC4
	.quad	0
	.quad	0
	.quad	0
	.quad	.LC7
	.quad	15
	.quad	64
	.quad	.LC36
	.quad	.LC4
	.quad	0
	.quad	0
	.quad	0
	.quad	.LC1
	.quad	37
	.quad	96
	.quad	.LC37
	.quad	.LC4
	.quad	0
	.quad	0
	.quad	0
	.quad	.LC11
	.quad	32
	.quad	64
	.quad	.LC38
	.quad	.LC4
	.quad	0
	.quad	0
	.quad	0
	.quad	.LC12
	.quad	15
	.quad	64
	.quad	.LC39
	.quad	.LC4
	.quad	0
	.quad	0
	.quad	0
	.quad	.LC0
	.quad	12
	.quad	64
	.quad	.LC40
	.quad	.LC4
	.quad	0
	.quad	0
	.quad	0
	.quad	.LC3
	.quad	48
	.quad	96
	.quad	.LC41
	.quad	.LC4
	.quad	0
	.quad	0
	.quad	0
	.quad	.LC4
	.quad	36
	.quad	96
	.quad	.LC42
	.quad	.LC4
	.quad	0
	.quad	0
	.quad	0
	.quad	.LC6
	.quad	36
	.quad	96
	.quad	.LC43
	.quad	.LC4
	.quad	0
	.quad	0
	.quad	0
	.quad	.LC8
	.quad	33
	.quad	96
	.quad	.LC44
	.quad	.LC4
	.quad	0
	.quad	0
	.quad	0
	.text
	.type	_sub_D_00099_0, @function
_sub_D_00099_0:
.LFB2940:
	.cfi_startproc
	endbr64
	pushq	%rbp
	.cfi_def_cfa_offset 16
	.cfi_offset 6, -16
	movq	%rsp, %rbp
	.cfi_def_cfa_register 6
	movl	$25, %esi
	leaq	.LASAN0(%rip), %rax
	movq	%rax, %rdi
	call	__asan_unregister_globals@PLT
	popq	%rbp
	.cfi_def_cfa 7, 8
	ret
	.cfi_endproc
.LFE2940:
	.size	_sub_D_00099_0, .-_sub_D_00099_0
	.section	.fini_array.00099,"aw"
	.align 8
	.quad	_sub_D_00099_0
	.text
	.type	_sub_I_00099_1, @function
_sub_I_00099_1:
.LFB2941:
	.cfi_startproc
	endbr64
	pushq	%rbp
	.cfi_def_cfa_offset 16
	.cfi_offset 6, -16
	movq	%rsp, %rbp
	.cfi_def_cfa_register 6
	call	__asan_init@PLT
	call	__asan_version_mismatch_check_v8@PLT
	movl	$25, %esi
	leaq	.LASAN0(%rip), %rax
	movq	%rax, %rdi
	call	__asan_register_globals@PLT
	popq	%rbp
	.cfi_def_cfa 7, 8
	ret
	.cfi_endproc
.LFE2941:
	.size	_sub_I_00099_1, .-_sub_I_00099_1
	.section	.init_array.00099,"aw"
	.align 8
	.quad	_sub_I_00099_1
	.text
.Letext0:
	.file 3 "../Common/Structures/Token/Token.h"
	.file 4 "../Common/Structures/Tabels/Tabels.h"
	.file 5 "../Common/Structures/Program/Program.h"
	.file 6 "/usr/lib/gcc/x86_64-linux-gnu/11/include/stddef.h"
	.file 7 "../ATC/SuperStack/SuperStackConfig.h"
	.file 8 "/usr/include/x86_64-linux-gnu/bits/types.h"
	.file 9 "/usr/include/x86_64-linux-gnu/bits/stdint-intn.h"
	.file 10 "/usr/include/x86_64-linux-gnu/bits/stdint-uintn.h"
	.file 11 "/usr/include/stdint.h"
	.file 12 "../ATC/my_safety/my_safety.h"
	.file 13 "/usr/include/x86_64-linux-gnu/sys/types.h"
	.file 14 "../ATC/SuperStack/SuperStack.h"
	.file 15 "../Common/ProgramCtx/ProgramCtx.h"
	.file 16 "<built-in>"
	.file 17 "/usr/include/x86_64-linux-gnu/bits/types/wint_t.h"
	.file 18 "/usr/include/x86_64-linux-gnu/bits/types/__mbstate_t.h"
	.file 19 "/usr/include/x86_64-linux-gnu/bits/types/mbstate_t.h"
	.file 20 "/usr/include/x86_64-linux-gnu/bits/types/__FILE.h"
	.file 21 "/usr/include/x86_64-linux-gnu/bits/types/struct_FILE.h"
	.file 22 "/usr/include/x86_64-linux-gnu/bits/types/FILE.h"
	.file 23 "/usr/include/c++/11/cwchar"
	.file 24 "/usr/include/c++/11/type_traits"
	.file 25 "/usr/include/c++/11/bits/exception_ptr.h"
	.file 26 "/usr/include/x86_64-linux-gnu/c++/11/bits/c++config.h"
	.file 27 "/usr/include/c++/11/concepts"
	.file 28 "/usr/include/c++/11/bits/iterator_concepts.h"
	.file 29 "/usr/include/c++/11/bits/ranges_cmp.h"
	.file 30 "/usr/include/c++/11/compare"
	.file 31 "/usr/include/c++/11/debug/debug.h"
	.file 32 "/usr/include/c++/11/cstdint"
	.file 33 "/usr/include/c++/11/clocale"
	.file 34 "/usr/include/c++/11/cstdlib"
	.file 35 "/usr/include/c++/11/numbers"
	.file 36 "/usr/include/c++/11/cstdio"
	.file 37 "/usr/include/c++/11/bits/ios_base.h"
	.file 38 "/usr/include/c++/11/cwctype"
	.file 39 "/usr/include/wchar.h"
	.file 40 "/usr/include/x86_64-linux-gnu/bits/types/struct_tm.h"
	.file 41 "/usr/include/c++/11/bits/predefined_ops.h"
	.file 42 "/usr/include/c++/11/bits/ptr_traits.h"
	.file 43 "/usr/include/locale.h"
	.file 44 "/usr/include/stdlib.h"
	.file 45 "/usr/include/x86_64-linux-gnu/bits/types/__fpos_t.h"
	.file 46 "/usr/include/stdio.h"
	.file 47 "/usr/include/x86_64-linux-gnu/bits/wctype-wchar.h"
	.file 48 "/usr/include/wctype.h"
	.file 49 "../ATC/Logger/LogConfig.h"
	.file 50 "../ATC/RandomStuff/CommonEnums.h"
	.file 51 "../ATC/Logger/Logger.h"
	.file 52 "/usr/include/string.h"
	.file 53 "/usr/include/c++/11/bits/algorithmfwd.h"
	.section	.note.GNU-stack,"",@progbits
	.section	.note.gnu.property,"a"
	.align 8
	.long	1f - 0f
	.long	4f - 1f
	.long	5
0:
	.string	"GNU"
1:
	.align 8
	.long	0xc0000002
	.long	3f - 2f
2:
	.long	0x3
3:
	.align 8
4:
