	.file	"SetTokenTree.cpp"
	.text
.Ltext0:
	.file 0 "/home/arsenyfucker/Cprojects/Lang/Translator/BackEnd" "./src/SetTokenTree.cpp"
	.section	.rodata
	.align 32
	.type	_ZL12NOT_DECLARED, @object
	.size	_ZL12NOT_DECLARED, 4
_ZL12NOT_DECLARED:
	.long	-111
	.zero	60
	.align 32
	.type	_ZL11NOT_A_LABEL, @object
	.size	_ZL11NOT_A_LABEL, 4
_ZL11NOT_A_LABEL:
	.long	-9
	.zero	60
	.align 32
	.type	_ZL16START_RAM_ADRESS, @object
	.size	_ZL16START_RAM_ADRESS, 4
_ZL16START_RAM_ADRESS:
	.zero	4
	.zero	60
	.align 32
	.type	_ZL19MAX_RAM_USABLE_SIZE, @object
	.size	_ZL19MAX_RAM_USABLE_SIZE, 4
_ZL19MAX_RAM_USABLE_SIZE:
	.long	1024
	.zero	60
	.bss
	.align 32
	.type	_ZStL8__ioinit, @object
	.size	_ZStL8__ioinit, 1
_ZStL8__ioinit:
	.zero	64
	.section	.rodata
	.align 32
	.type	_ZL12STD_LOG_NAME, @object
	.size	_ZL12STD_LOG_NAME, 18
_ZL12STD_LOG_NAME:
	.string	"./logs/stdlog.ars"
	.zero	46
	.align 32
	.type	_ZL6CRINGE, @object
	.size	_ZL6CRINGE, 4
_ZL6CRINGE:
	.long	3565
	.zero	60
	.align 32
.LC0:
	.string	"if"
	.zero	61
	.align 32
.LC1:
	.string	"else"
	.zero	59
	.align 32
.LC2:
	.string	"while"
	.zero	58
	.align 32
.LC3:
	.string	"return"
	.zero	57
	.section	.data.rel.ro.local,"aw"
	.align 32
	.type	_ZL12INSTRUCTIONS, @object
	.size	_ZL12INSTRUCTIONS, 32
_ZL12INSTRUCTIONS:
	.quad	.LC0
	.quad	.LC1
	.quad	.LC2
	.quad	.LC3
	.zero	32
	.section	.rodata
	.align 32
.LC4:
	.string	"fout"
	.zero	59
	.align 32
.LC5:
	.string	"fin"
	.zero	60
	.align 32
.LC6:
	.string	"sin"
	.zero	60
	.align 32
.LC7:
	.string	"cos"
	.zero	60
	.section	.data.rel.ro.local
	.align 32
	.type	_ZL16NATIVE_FUNCTIONS, @object
	.size	_ZL16NATIVE_FUNCTIONS, 32
_ZL16NATIVE_FUNCTIONS:
	.quad	.LC4
	.quad	.LC5
	.quad	.LC6
	.quad	.LC7
	.zero	32
	.section	.rodata
	.align 32
.LC8:
	.string	"extern"
	.zero	57
	.align 32
.LC9:
	.string	"var"
	.zero	60
	.section	.data.rel.ro.local
	.align 32
	.type	_ZL14INITIALIZATORS, @object
	.size	_ZL14INITIALIZATORS, 16
_ZL14INITIALIZATORS:
	.quad	.LC8
	.quad	.LC9
	.zero	48
	.section	.rodata
	.align 32
.LC10:
	.string	"double"
	.zero	57
	.align 32
.LC11:
	.string	"void"
	.zero	59
	.section	.data.rel.ro.local
	.align 32
	.type	_ZL18FUNCTION_RET_TYPES, @object
	.size	_ZL18FUNCTION_RET_TYPES, 16
_ZL18FUNCTION_RET_TYPES:
	.quad	.LC10
	.quad	.LC11
	.zero	48
	.section	.rodata
	.align 32
	.type	_ZL9OPERATORS, @object
	.size	_ZL9OPERATORS, 8
_ZL9OPERATORS:
	.string	"+-/*^<<"
	.zero	56
	.align 32
	.type	_ZL7COMMENT, @object
	.size	_ZL7COMMENT, 1
_ZL7COMMENT:
	.byte	35
	.zero	63
	.align 32
.LC12:
	.string	"main"
	.zero	59
	.section	.data.rel.ro.local
	.align 32
	.type	_ZL9MAIN_NAME, @object
	.size	_ZL9MAIN_NAME, 8
_ZL9MAIN_NAME:
	.quad	.LC12
	.zero	56
	.section	.rodata
	.align 32
	.type	_ZL24MAX_FUNCTION_NAME_LENGTH, @object
	.size	_ZL24MAX_FUNCTION_NAME_LENGTH, 4
_ZL24MAX_FUNCTION_NAME_LENGTH:
	.long	16
	.zero	60
	.align 32
	.type	_ZL15MAX_WORD_LENGTH, @object
	.size	_ZL15MAX_WORD_LENGTH, 4
_ZL15MAX_WORD_LENGTH:
	.long	16
	.zero	60
	.align 32
	.type	_ZL13_CANARY_SIZE_, @object
	.size	_ZL13_CANARY_SIZE_, 4
_ZL13_CANARY_SIZE_:
	.long	8
	.zero	60
	.align 32
	.type	_ZL16_OPENING_CANARY_, @object
	.size	_ZL16_OPENING_CANARY_, 4
_ZL16_OPENING_CANARY_:
	.long	11259375
	.zero	60
	.align 32
	.type	_ZL16_CLOSING_CANARY_, @object
	.size	_ZL16_CLOSING_CANARY_, 4
_ZL16_CLOSING_CANARY_:
	.long	16702650
	.zero	60
	.align 32
	.type	_ZL19_HEAP_MIN_CAPACITY_, @object
	.size	_ZL19_HEAP_MIN_CAPACITY_, 8
_ZL19_HEAP_MIN_CAPACITY_:
	.quad	10
	.zero	56
	.align 32
	.type	_ZL16_ELEMENT_T_SIZE_, @object
	.size	_ZL16_ELEMENT_T_SIZE_, 8
_ZL16_ELEMENT_T_SIZE_:
	.quad	8
	.zero	56
	.align 32
	.type	_ZL11INDENT_SIZE, @object
	.size	_ZL11INDENT_SIZE, 4
_ZL11INDENT_SIZE:
	.long	2
	.zero	60
	.align 32
	.type	_ZL31START_NUMBER_OF_NAME_TABELS_STK, @object
	.size	_ZL31START_NUMBER_OF_NAME_TABELS_STK, 4
_ZL31START_NUMBER_OF_NAME_TABELS_STK:
	.long	5
	.zero	60
	.globl	__asan_stack_malloc_1
.LC13:
	.string	"1 32 32 3 ctx"
	.align 32
.LC14:
	.string	"program"
	.zero	56
	.align 32
.LC15:
	.string	"ASSERTLOG:: Condition (%s) is false\n"
	.zero	59
	.align 32
.LC16:
	.string	"\033[93mASSERTLOG:: \033[0mCondition\033[95m (%s) \033[0mis \033[91mfalse\n\033[0m"
	.zero	32
	.align 32
.LC17:
	.string	"int SetTokenTree(const Program*)"
	.zero	63
	.align 32
.LC18:
	.string	"./src/SetTokenTree.cpp"
	.zero	41
	.align 32
.LC19:
	.string	"\t%s:%d, function: %s\n"
	.zero	42
	.align 32
.LC20:
	.string	"It matches to error: (code %d) %s\n\n"
	.zero	60
	.align 32
.LC21:
	.string	"SetTokenTree"
	.zero	51
	.align 32
.LC22:
	.string	"Shutting down the system (%s:%d)"
	.zero	63
	.align 32
.LC23:
	.string	"echo LOX\n"
	.zero	54
	.text
	.globl	_Z12SetTokenTreePK7Program
	.type	_Z12SetTokenTreePK7Program, @function
_Z12SetTokenTreePK7Program:
.LASANPC2270:
.LFB2270:
	.file 1 "./src/SetTokenTree.cpp"
	.loc 1 40 5
	.cfi_startproc
	endbr64
	pushq	%rbp
	.cfi_def_cfa_offset 16
	.cfi_offset 6, -16
	movq	%rsp, %rbp
	.cfi_def_cfa_register 6
	pushq	%r14
	pushq	%r13
	pushq	%r12
	pushq	%rbx
	subq	$112, %rsp
	.cfi_offset 14, -24
	.cfi_offset 13, -32
	.cfi_offset 12, -40
	.cfi_offset 3, -48
	movq	%rdi, -136(%rbp)
	leaq	-128(%rbp), %rbx
	movq	%rbx, %r14
	cmpl	$0, __asan_option_detect_stack_use_after_return(%rip)
	je	.L1
	movl	$96, %edi
	call	__asan_stack_malloc_1@PLT
	testq	%rax, %rax
	je	.L1
	movq	%rax, %rbx
.L1:
	leaq	96(%rbx), %rax
	movq	%rax, %r12
	movq	$1102416563, (%rbx)
	leaq	.LC13(%rip), %rax
	movq	%rax, 8(%rbx)
	leaq	.LASANPC2270(%rip), %rax
	movq	%rax, 16(%rbx)
	movq	%rbx, %r13
	shrq	$3, %r13
	movl	$-235802127, 2147450880(%r13)
	movl	$-202116109, 2147450888(%r13)
	.loc 1 41 10
	cmpq	$0, -136(%rbp)
	jne	.L5
	.loc 1 41 47 discriminator 1
	call	_ZN6Logger11getInstanceEv@PLT
	movq	%rax, %rcx
	.loc 1 41 53 discriminator 1
	leaq	.LC14(%rip), %rax
	movq	%rax, %rdx
	leaq	.LC15(%rip), %rax
	movq	%rax, %rsi
	movq	%rcx, %rdi
	movl	$0, %eax
	call	_ZN6Logger3logEPKcz@PLT
	.loc 1 41 113 discriminator 1
	leaq	.LC14(%rip), %rax
	movq	%rax, %rsi
	leaq	.LC16(%rip), %rax
	movq	%rax, %rdi
	movl	$0, %eax
	call	printf@PLT
	.loc 1 41 261 discriminator 1
	call	_ZN6Logger11getInstanceEv@PLT
	movq	%rax, %rdi
	.loc 1 41 267 discriminator 1
	leaq	.LC17(%rip), %r8
	movl	$41, %ecx
	leaq	.LC18(%rip), %rax
	movq	%rax, %rdx
	leaq	.LC19(%rip), %rax
	movq	%rax, %rsi
	movl	$0, %eax
	call	_ZN6Logger3logEPKcz@PLT
	.loc 1 41 353 discriminator 1
	leaq	.LC17(%rip), %rax
	movq	%rax, %rcx
	movl	$41, %edx
	leaq	.LC18(%rip), %rax
	movq	%rax, %rsi
	leaq	.LC19(%rip), %rax
	movq	%rax, %rdi
	movl	$0, %eax
	call	printf@PLT
	.loc 1 41 452 discriminator 1
	call	_ZN6Logger11getInstanceEv@PLT
	movq	%rax, %r12
	.loc 1 41 458 discriminator 1
	movl	$14, %edi
	call	strerror@PLT
	movq	%rax, %rcx
	movl	$14, %edx
	leaq	.LC20(%rip), %rax
	movq	%rax, %rsi
	movq	%r12, %rdi
	movl	$0, %eax
	call	_ZN6Logger3logEPKcz@PLT
	.loc 1 41 27 discriminator 1
	call	_ZN6Logger11getInstanceEv@PLT
	movq	%rax, %rdi
	.loc 1 41 33 discriminator 1
	movl	$41, %ecx
	leaq	.LC21(%rip), %rax
	movq	%rax, %rdx
	leaq	.LC22(%rip), %rax
	movq	%rax, %rsi
	movl	$0, %eax
	call	_ZN6Logger3logEPKcz@PLT
	.loc 1 41 91 discriminator 1
	leaq	.LC23(%rip), %rax
	movq	%rax, %rdi
	call	system@PLT
	.loc 1 41 114 discriminator 1
	movl	$-2, %eax
	jmp	.L11
.L5:
	.loc 1 43 9
	leaq	-64(%r12), %rax
	movq	%rax, %rdx
	shrq	$3, %rdx
	addq	$2147450880, %rdx
	movzbl	(%rdx), %edx
	testb	%dl, %dl
	setne	%cl
	testb	%dl, %dl
	setle	%dl
	movl	%ecx, %esi
	andl	%edx, %esi
	movl	$32, %edx
	subq	$1, %rdx
	leaq	(%rax,%rdx), %rcx
	movq	%rcx, %rdx
	shrq	$3, %rdx
	addq	$2147450880, %rdx
	movzbl	(%rdx), %edx
	testb	%dl, %dl
	setne	%dil
	andl	$7, %ecx
	cmpb	%dl, %cl
	setge	%dl
	andl	%edi, %edx
	orl	%esi, %edx
	testb	%dl, %dl
	je	.L7
	movl	$32, %esi
	movq	%rax, %rdi
	call	__asan_report_store_n@PLT
.L7:
	movq	$0, -64(%r12)
	movq	$0, -56(%r12)
	movq	$0, -48(%r12)
	movq	$0, -40(%r12)
	.loc 1 45 16
	movq	-136(%rbp), %rdx
	leaq	-64(%r12), %rax
	movq	%rdx, %rsi
	movq	%rax, %rdi
	call	_ZL7CtxCtorP3CtxPK7Program
	.loc 1 45 32
	testl	%eax, %eax
	setne	%al
	.loc 1 45 5
	testb	%al, %al
	je	.L8
	.loc 1 46 16
	movl	$-1, %eax
	jmp	.L11
.L8:
	.loc 1 48 27
	movq	-136(%rbp), %rax
	addq	$16, %rax
	movq	%rax, %rdx
	shrq	$3, %rdx
	addq	$2147450880, %rdx
	movzbl	(%rdx), %edx
	testb	%dl, %dl
	je	.L9
	movq	%rax, %rdi
	call	__asan_report_load8@PLT
.L9:
	movq	-136(%rbp), %rax
	movq	16(%rax), %rax
	.loc 1 48 17
	leaq	-64(%r12), %rdx
	movq	%rdx, %rsi
	movq	%rax, %rdi
	call	_ZL8SetTokenP5TokenP3Ctx
	.loc 1 48 39
	testl	%eax, %eax
	setne	%al
	.loc 1 48 5
	testb	%al, %al
	je	.L10
	.loc 1 50 16
	leaq	-64(%r12), %rax
	movq	%rax, %rdi
	call	_ZL7CtxDtorP3Ctx
	.loc 1 51 16
	movl	$-1, %eax
	jmp	.L11
.L10:
	.loc 1 54 12
	leaq	-64(%r12), %rax
	movq	%rax, %rdi
	call	_ZL7CtxDtorP3Ctx
	.loc 1 56 12
	movl	$0, %eax
.L11:
	.loc 1 57 5 discriminator 1
	movl	%eax, %edx
	.loc 1 40 5 discriminator 1
	cmpq	%rbx, %r14
	je	.L2
	.loc 1 40 5 is_stmt 0
	movq	$1172321806, (%rbx)
	movabsq	$-723401728380766731, %rax
	movq	%rax, 2147450880(%r13)
	movl	$-168430091, 2147450888(%r13)
	movq	120(%rbx), %rax
	movb	$0, (%rax)
	jmp	.L3
.L2:
	movl	$0, 2147450880(%r13)
	movl	$0, 2147450888(%r13)
.L3:
	.loc 1 57 5 is_stmt 1
	movl	%edx, %eax
	addq	$112, %rsp
	popq	%rbx
	popq	%r12
	popq	%r13
	popq	%r14
	popq	%rbp
	.cfi_def_cfa 7, 8
	ret
	.cfi_endproc
.LFE2270:
	.size	_Z12SetTokenTreePK7Program, .-_Z12SetTokenTreePK7Program
	.globl	__asan_stack_malloc_2
	.section	.rodata
	.align 8
.LC24:
	.string	"3 32 20 10 func_label 96 20 9 var_label 160 24 10 func_61:61"
	.align 32
.LC25:
	.string	"SetToken"
	.zero	55
	.align 32
.LC26:
	.string	"ctx"
	.zero	60
	.align 32
.LC27:
	.string	"int SetToken(Token*, Ctx*)"
	.zero	37
	.align 32
.LC28:
	.string	"\t%s: "
	.zero	58
	.align 32
.LC29:
	.string	"Stack Pop returned different name table ptr, than local table = %p\n"
	.zero	60
	.align 32
.LC30:
	.string	" (%s:%d)\n"
	.zero	54
	.align 32
.LC31:
	.string	"Not a name token"
	.zero	47
	.align 32
.LC32:
	.string	"&var_label"
	.zero	53
	.align 32
.LC33:
	.string	"\t%s: %p\n"
	.zero	55
	.align 32
.LC34:
	.string	"NAME_ID(var_name)"
	.zero	46
	.align 32
.LC35:
	.string	"\t%s: %d\n"
	.zero	55
	.align 32
.LC36:
	.string	"var_name"
	.zero	55
	.align 32
.LC37:
	.string	"STRING_ARR(ctx)"
	.zero	48
	.align 32
.LC38:
	.string	"Couldn't add label, ('%s') to TOP_TABLE\n"
	.zero	55
	.align 32
.LC39:
	.string	"\033[91mFailed %s:%d (%s:%d)\n\033[0m"
	.zero	33
	.align 32
.LC40:
	.string	"Failed (%s:%d, %s:%d)"
	.zero	42
	.align 32
.LC41:
	.string	"No label for '%s'\n"
	.zero	45
	.text
	.type	_ZL8SetTokenP5TokenP3Ctx, @function
_ZL8SetTokenP5TokenP3Ctx:
.LASANPC2271:
.LFB2271:
	.loc 1 60 5
	.cfi_startproc
	.cfi_personality 0x9b,DW.ref.__gxx_personality_v0
	.cfi_lsda 0x1b,.LLSDA2271
	endbr64
	pushq	%rbp
	.cfi_def_cfa_offset 16
	.cfi_offset 6, -16
	movq	%rsp, %rbp
	.cfi_def_cfa_register 6
	pushq	%r15
	pushq	%r14
	pushq	%r13
	pushq	%r12
	pushq	%rbx
	subq	$296, %rsp
	.cfi_offset 15, -24
	.cfi_offset 14, -32
	.cfi_offset 13, -40
	.cfi_offset 12, -48
	.cfi_offset 3, -56
	movq	%rdi, -328(%rbp)
	movq	%rsi, -336(%rbp)
	leaq	-272(%rbp), %r13
	movq	%r13, %r15
	cmpl	$0, __asan_option_detect_stack_use_after_return(%rip)
	je	.L12
	movl	$224, %edi
	call	__asan_stack_malloc_2@PLT
	testq	%rax, %rax
	je	.L12
	movq	%rax, %r13
.L12:
	leaq	224(%r13), %rax
	movq	%rax, %rbx
	movq	$1102416563, 0(%r13)
	leaq	.LC24(%rip), %rax
	movq	%rax, 8(%r13)
	leaq	.LASANPC2271(%rip), %rax
	movq	%rax, 16(%r13)
	movq	%r13, %r12
	shrq	$3, %r12
	movl	$-235802127, 2147450880(%r12)
	movl	$-234618880, 2147450884(%r12)
	movl	$-218959118, 2147450888(%r12)
	movl	$-234618880, 2147450892(%r12)
	movl	$-218959118, 2147450896(%r12)
	movl	$-218103808, 2147450900(%r12)
	movl	$-202116109, 2147450904(%r12)
	.loc 1 61 40
	leaq	-64(%rbx), %rax
	leaq	.LC25(%rip), %rdx
	movl	$1, %esi
	movq	%rax, %rdi
.LEHB0:
	call	_ZN14FunctionLoggerC1EiPKc@PLT
.LEHE0:
	.loc 1 62 10
	cmpq	$0, -336(%rbp)
	jne	.L16
.LEHB1:
	.loc 1 62 43 discriminator 1
	call	_ZN6Logger11getInstanceEv@PLT
	movq	%rax, %rcx
	.loc 1 62 49 discriminator 1
	leaq	.LC26(%rip), %rax
	movq	%rax, %rdx
	leaq	.LC15(%rip), %rax
	movq	%rax, %rsi
	movq	%rcx, %rdi
	movl	$0, %eax
	call	_ZN6Logger3logEPKcz@PLT
	.loc 1 62 105 discriminator 3
	leaq	.LC26(%rip), %rax
	movq	%rax, %rsi
	leaq	.LC16(%rip), %rax
	movq	%rax, %rdi
	movl	$0, %eax
	call	printf@PLT
	.loc 1 62 249 discriminator 4
	call	_ZN6Logger11getInstanceEv@PLT
	movq	%rax, %rdi
	.loc 1 62 255 discriminator 4
	leaq	.LC27(%rip), %r8
	movl	$62, %ecx
	leaq	.LC18(%rip), %rax
	movq	%rax, %rdx
	leaq	.LC19(%rip), %rax
	movq	%rax, %rsi
	movl	$0, %eax
	call	_ZN6Logger3logEPKcz@PLT
	.loc 1 62 341 discriminator 6
	leaq	.LC27(%rip), %rax
	movq	%rax, %rcx
	movl	$62, %edx
	leaq	.LC18(%rip), %rax
	movq	%rax, %rsi
	leaq	.LC19(%rip), %rax
	movq	%rax, %rdi
	movl	$0, %eax
	call	printf@PLT
	.loc 1 62 440 discriminator 7
	call	_ZN6Logger11getInstanceEv@PLT
	movq	%rax, %r14
	.loc 1 62 446 discriminator 7
	movl	$14, %edi
	call	strerror@PLT
	movq	%rax, %rcx
	movl	$14, %edx
	leaq	.LC20(%rip), %rax
	movq	%rax, %rsi
	movq	%r14, %rdi
	movl	$0, %eax
	call	_ZN6Logger3logEPKcz@PLT
	.loc 1 62 27 discriminator 9
	call	_ZN6Logger11getInstanceEv@PLT
	movq	%rax, %rdi
	.loc 1 62 33 discriminator 9
	movl	$62, %ecx
	leaq	.LC25(%rip), %rax
	movq	%rax, %rdx
	leaq	.LC22(%rip), %rax
	movq	%rax, %rsi
	movl	$0, %eax
	call	_ZN6Logger3logEPKcz@PLT
	.loc 1 62 91 discriminator 11
	leaq	.LC23(%rip), %rax
	movq	%rax, %rdi
	call	system@PLT
.LEHE1:
	.loc 1 62 114 discriminator 12
	movl	$-2, %r14d
	jmp	.L17
.L16:
	.loc 1 64 5
	cmpq	$0, -328(%rbp)
	jne	.L18
	.loc 1 65 16
	movl	$0, %r14d
	jmp	.L17
.L18:
.LBB2:
	.loc 1 68 16
	movq	-328(%rbp), %rax
	addq	$16, %rax
	movq	%rax, %rdx
	movq	%rdx, %rax
	shrq	$3, %rax
	addq	$2147450880, %rax
	movzbl	(%rax), %eax
	testb	%al, %al
	setne	%cl
	cmpb	$3, %al
	setle	%al
	andl	%ecx, %eax
	testb	%al, %al
	je	.L19
	movq	%rdx, %rdi
	call	__asan_report_load4@PLT
.L19:
	movq	-328(%rbp), %rax
	movl	16(%rax), %eax
	.loc 1 68 5
	cmpl	$9, %eax
	jne	.L20
.LBB3:
	.loc 1 70 15
	leaq	-192(%rbx), %rax
	movq	%rax, %rdx
	shrq	$3, %rdx
	addq	$2147450880, %rdx
	movzbl	(%rdx), %edx
	testb	%dl, %dl
	setne	%cl
	testb	%dl, %dl
	setle	%dl
	movl	%ecx, %esi
	andl	%edx, %esi
	movl	$20, %edx
	subq	$1, %rdx
	leaq	(%rax,%rdx), %rcx
	movq	%rcx, %rdx
	shrq	$3, %rdx
	addq	$2147450880, %rdx
	movzbl	(%rdx), %edx
	testb	%dl, %dl
	setne	%dil
	andl	$7, %ecx
	cmpb	%dl, %cl
	setge	%dl
	andl	%edi, %edx
	orl	%esi, %edx
	testb	%dl, %dl
	je	.L21
	movl	$20, %esi
	movq	%rax, %rdi
	call	__asan_report_store_n@PLT
.L21:
	movq	$0, -192(%rbx)
	movq	$0, -184(%rbx)
	movl	$0, -176(%rbx)
	leaq	-192(%rbx), %rax
	movq	%rax, %rdx
	movq	%rdx, %rax
	shrq	$3, %rax
	addq	$2147450880, %rax
	movzbl	(%rax), %eax
	testb	%al, %al
	setne	%cl
	cmpb	$3, %al
	setle	%al
	andl	%ecx, %eax
	testb	%al, %al
	je	.L22
	movq	%rdx, %rdi
	call	__asan_report_store4@PLT
.L22:
	movl	$9, -192(%rbx)
	.loc 1 72 16
	movq	-328(%rbp), %rax
	movq	%rax, %rdx
	shrq	$3, %rdx
	addq	$2147450880, %rdx
	movzbl	(%rdx), %edx
	testb	%dl, %dl
	je	.L23
	movq	%rax, %rdi
	call	__asan_report_load8@PLT
.L23:
	movq	-328(%rbp), %rax
	movq	(%rax), %rax
	movq	%rax, -296(%rbp)
	.loc 1 73 16
	movq	-296(%rbp), %rax
	addq	$8, %rax
	movq	%rax, %rdx
	shrq	$3, %rdx
	addq	$2147450880, %rdx
	movzbl	(%rdx), %edx
	testb	%dl, %dl
	je	.L24
	movq	%rax, %rdi
	call	__asan_report_load8@PLT
.L24:
	movq	-296(%rbp), %rax
	movq	8(%rax), %rax
	movq	%rax, -288(%rbp)
	.loc 1 75 47
	movq	-296(%rbp), %rax
	addq	$24, %rax
	movq	%rax, %rdx
	movq	%rdx, %rax
	shrq	$3, %rax
	addq	$2147450880, %rax
	movzbl	(%rax), %eax
	testb	%al, %al
	setne	%cl
	cmpb	$3, %al
	setle	%al
	andl	%ecx, %eax
	testb	%al, %al
	je	.L25
	movq	%rdx, %rdi
	call	__asan_report_load4@PLT
.L25:
	movq	-296(%rbp), %rax
	movl	24(%rax), %ecx
	.loc 1 75 28
	leaq	-192(%rbx), %rax
	addq	$4, %rax
	movq	%rax, %rdx
	shrq	$3, %rdx
	addq	$2147450880, %rdx
	movzbl	(%rdx), %edx
	testb	%dl, %dl
	setne	%dil
	movq	%rax, %rsi
	andl	$7, %esi
	addl	$3, %esi
	cmpb	%dl, %sil
	setge	%dl
	andl	%edi, %edx
	testb	%dl, %dl
	je	.L26
	movq	%rax, %rdi
	call	__asan_report_store4@PLT
.L26:
	movl	%ecx, -188(%rbx)
	.loc 1 76 47
	movq	-288(%rbp), %rax
	addq	$24, %rax
	movq	%rax, %rdx
	movq	%rdx, %rax
	shrq	$3, %rax
	addq	$2147450880, %rax
	movzbl	(%rax), %eax
	testb	%al, %al
	setne	%cl
	cmpb	$3, %al
	setle	%al
	andl	%ecx, %eax
	testb	%al, %al
	je	.L27
	movq	%rdx, %rdi
	call	__asan_report_load4@PLT
.L27:
	movq	-288(%rbp), %rax
	movl	24(%rax), %ecx
	.loc 1 76 29
	leaq	-192(%rbx), %rax
	addq	$12, %rax
	movq	%rax, %rdx
	shrq	$3, %rdx
	addq	$2147450880, %rdx
	movzbl	(%rdx), %edx
	testb	%dl, %dl
	setne	%dil
	movq	%rax, %rsi
	andl	$7, %esi
	addl	$3, %esi
	cmpb	%dl, %sil
	setge	%dl
	andl	%edi, %edx
	testb	%dl, %dl
	je	.L28
	movq	%rax, %rdi
	call	__asan_report_store4@PLT
.L28:
	movl	%ecx, -180(%rbx)
	.loc 1 78 13
	movq	-336(%rbp), %rax
	addq	$16, %rax
	movq	%rax, %rdx
	movq	%rdx, %rax
	shrq	$3, %rax
	addq	$2147450880, %rax
	movzbl	(%rax), %eax
	testb	%al, %al
	setne	%cl
	cmpb	$3, %al
	setle	%al
	andl	%ecx, %eax
	testb	%al, %al
	je	.L29
	movq	%rdx, %rdi
	call	__asan_report_load4@PLT
.L29:
	movq	-336(%rbp), %rax
	movl	16(%rax), %eax
	movl	%eax, -316(%rbp)
	.loc 1 79 26
	movq	-336(%rbp), %rax
	movl	$0, 16(%rax)
.LEHB2:
	.loc 1 82 46
	call	_Z12NewNameTablev@PLT
	movq	%rax, -280(%rbp)
	.loc 1 83 16
	movq	-336(%rbp), %rax
	addq	$24, %rax
	movq	%rax, %rdx
	shrq	$3, %rdx
	addq	$2147450880, %rdx
	movzbl	(%rdx), %edx
	testb	%dl, %dl
	je	.L30
	movq	%rax, %rdi
	call	__asan_report_load8@PLT
.L30:
	.loc 1 83 16 is_stmt 0 discriminator 1
	movq	-336(%rbp), %rax
	movq	24(%rax), %rax
	movq	-280(%rbp), %rdx
	movq	%rdx, %rsi
	movq	%rax, %rdi
	call	_Z6SSpushP10SuperStackP9NameTable@PLT
	.loc 1 85 21 is_stmt 1
	movq	-296(%rbp), %rax
	movq	%rax, %rdx
	shrq	$3, %rdx
	addq	$2147450880, %rdx
	movzbl	(%rdx), %edx
	testb	%dl, %dl
	je	.L31
	movq	%rax, %rdi
	call	__asan_report_load8@PLT
.L31:
	movq	-296(%rbp), %rax
	movq	(%rax), %rax
	movq	-336(%rbp), %rdx
	movq	%rdx, %rsi
	movq	%rax, %rdi
	call	_ZL8SetTokenP5TokenP3Ctx
	.loc 1 85 50
	testl	%eax, %eax
	setne	%al
	.loc 1 85 9
	testb	%al, %al
	jne	.L89
	.loc 1 88 21
	movq	-328(%rbp), %rax
	addq	$8, %rax
	movq	%rax, %rdx
	shrq	$3, %rdx
	addq	$2147450880, %rdx
	movzbl	(%rdx), %edx
	testb	%dl, %dl
	je	.L34
	movq	%rax, %rdi
	call	__asan_report_load8@PLT
.L34:
	movq	-328(%rbp), %rax
	movq	8(%rax), %rax
	movq	-336(%rbp), %rdx
	movq	%rdx, %rsi
	movq	%rax, %rdi
	call	_ZL8SetTokenP5TokenP3Ctx
	.loc 1 88 47
	testl	%eax, %eax
	setne	%al
	.loc 1 88 9
	testb	%al, %al
	jne	.L90
	.loc 1 91 42
	movq	-336(%rbp), %rax
	addq	$16, %rax
	movq	%rax, %rdx
	movq	%rdx, %rax
	shrq	$3, %rax
	addq	$2147450880, %rax
	movzbl	(%rax), %eax
	testb	%al, %al
	setne	%cl
	cmpb	$3, %al
	setle	%al
	andl	%ecx, %eax
	testb	%al, %al
	je	.L36
	movq	%rdx, %rdi
	call	__asan_report_load4@PLT
.L36:
	movq	-336(%rbp), %rax
	movl	16(%rax), %ecx
	.loc 1 91 35
	leaq	-192(%rbx), %rax
	addq	$8, %rax
	movq	%rax, %rdx
	movq	%rdx, %rax
	shrq	$3, %rax
	addq	$2147450880, %rax
	movzbl	(%rax), %eax
	testb	%al, %al
	setne	%sil
	cmpb	$3, %al
	setle	%al
	andl	%esi, %eax
	testb	%al, %al
	je	.L37
	movq	%rdx, %rdi
	call	__asan_report_store4@PLT
.L37:
	movl	%ecx, -184(%rbx)
	.loc 1 92 51
	movq	-336(%rbp), %rax
	movl	16(%rax), %ecx
	.loc 1 92 44
	movq	-328(%rbp), %rax
	addq	$24, %rax
	movq	%rax, %rdx
	movq	%rdx, %rax
	shrq	$3, %rax
	addq	$2147450880, %rax
	movzbl	(%rax), %eax
	testb	%al, %al
	setne	%sil
	cmpb	$3, %al
	setle	%al
	andl	%esi, %eax
	testb	%al, %al
	je	.L38
	movq	%rdx, %rdi
	call	__asan_report_store4@PLT
.L38:
	movq	-328(%rbp), %rax
	movl	%ecx, 24(%rax)
	.loc 1 94 26
	movq	-336(%rbp), %rax
	movl	-316(%rbp), %edx
	movl	%edx, 16(%rax)
	.loc 1 96 19
	movq	-336(%rbp), %rax
	addq	$24, %rax
	movq	%rax, %rdx
	shrq	$3, %rdx
	addq	$2147450880, %rdx
	movzbl	(%rdx), %edx
	testb	%dl, %dl
	je	.L39
	movq	%rax, %rdi
	call	__asan_report_load8@PLT
.L39:
	movq	-336(%rbp), %rax
	movq	24(%rax), %rax
	movq	%rax, %rdi
	call	_Z5SSpopP10SuperStack@PLT
	.loc 1 96 47
	cmpq	%rax, -280(%rbp)
	setne	%al
	.loc 1 96 9
	testb	%al, %al
	je	.L40
	.loc 1 98 21
	leaq	.LC25(%rip), %rax
	movq	%rax, %rsi
	leaq	.LC28(%rip), %rax
	movq	%rax, %rdi
	movl	$0, %eax
	call	printf@PLT
	.loc 1 98 49 discriminator 1
	movq	-280(%rbp), %rax
	movq	%rax, %rsi
	leaq	.LC29(%rip), %rax
	movq	%rax, %rdi
	movl	$0, %eax
	call	printf@PLT
	.loc 1 98 150 discriminator 2
	movl	$98, %edx
	leaq	.LC18(%rip), %rax
	movq	%rax, %rsi
	leaq	.LC30(%rip), %rax
	movq	%rax, %rdi
	movl	$0, %eax
	call	printf@PLT
	.loc 1 99 18
	jmp	.L33
.L40:
	.loc 1 103 27
	movq	-280(%rbp), %rax
	movq	%rax, %rdi
	call	_Z14CloseNameTableP9NameTable@PLT
	.loc 1 103 41
	testl	%eax, %eax
	setne	%al
	.loc 1 103 9
	testb	%al, %al
	je	.L41
	.loc 1 104 20
	movl	$-1, %r14d
	jmp	.L42
.L41:
	.loc 1 106 25
	movq	-336(%rbp), %rax
	addq	$8, %rax
	movq	%rax, %rdx
	shrq	$3, %rdx
	addq	$2147450880, %rdx
	movzbl	(%rdx), %edx
	testb	%dl, %dl
	je	.L43
	movq	%rax, %rdi
	call	__asan_report_load8@PLT
.L43:
	movq	-336(%rbp), %rax
	movq	8(%rax), %rdx
	leaq	-192(%rbx), %rax
	movq	%rdx, %rsi
	movq	%rax, %rdi
	call	_Z9CopyLabelP5LabelP9NameTable@PLT
	movl	%eax, %r14d
	.loc 1 106 65
	jmp	.L42
.L89:
	.loc 1 86 18
	nop
	jmp	.L33
.L90:
	.loc 1 89 18
	nop
.L33:
	.loc 1 110 23
	movq	-280(%rbp), %rax
	movq	%rax, %rdi
	call	_Z14CloseNameTableP9NameTable@PLT
.LEHE2:
	.loc 1 111 16
	movl	$-1, %r14d
.L42:
	leaq	-192(%rbx), %rax
	shrq	$3, %rax
	addq	$2147450880, %rax
	movw	$-1800, (%rax)
	movb	$-8, 2(%rax)
	jmp	.L17
.L20:
.LBE3:
.LBE2:
.LBB5:
	.loc 1 114 16
	movq	-328(%rbp), %rax
	addq	$16, %rax
	movq	%rax, %rdx
	movq	%rdx, %rax
	shrq	$3, %rax
	addq	$2147450880, %rax
	movzbl	(%rax), %eax
	testb	%al, %al
	setne	%cl
	cmpb	$3, %al
	setle	%al
	andl	%ecx, %eax
	testb	%al, %al
	je	.L44
	movq	%rdx, %rdi
	call	__asan_report_load4@PLT
.L44:
	movq	-328(%rbp), %rax
	movl	16(%rax), %eax
	.loc 1 114 5
	cmpl	$3, %eax
	jne	.L45
.LBB6:
	.loc 1 116 15
	leaq	-128(%rbx), %rax
	movq	%rax, %rdx
	shrq	$3, %rdx
	addq	$2147450880, %rdx
	movzbl	(%rdx), %edx
	testb	%dl, %dl
	setne	%cl
	testb	%dl, %dl
	setle	%dl
	movl	%ecx, %esi
	andl	%edx, %esi
	movl	$20, %edx
	subq	$1, %rdx
	leaq	(%rax,%rdx), %rcx
	movq	%rcx, %rdx
	shrq	$3, %rdx
	addq	$2147450880, %rdx
	movzbl	(%rdx), %edx
	testb	%dl, %dl
	setne	%dil
	andl	$7, %ecx
	cmpb	%dl, %cl
	setge	%dl
	andl	%edi, %edx
	orl	%esi, %edx
	testb	%dl, %dl
	je	.L46
	movl	$20, %esi
	movq	%rax, %rdi
	call	__asan_report_store_n@PLT
.L46:
	movq	$0, -128(%rbx)
	movq	$0, -120(%rbx)
	movl	$0, -112(%rbx)
	leaq	-128(%rbx), %rax
	movq	%rax, %rdx
	movq	%rdx, %rax
	shrq	$3, %rax
	addq	$2147450880, %rax
	movzbl	(%rax), %eax
	testb	%al, %al
	setne	%cl
	cmpb	$3, %al
	setle	%al
	andl	%ecx, %eax
	testb	%al, %al
	je	.L47
	movq	%rdx, %rdi
	call	__asan_report_store4@PLT
.L47:
	movl	$7, -128(%rbx)
	.loc 1 118 16
	movq	-328(%rbp), %rax
	movq	%rax, %rdx
	shrq	$3, %rdx
	addq	$2147450880, %rdx
	movzbl	(%rdx), %edx
	testb	%dl, %dl
	je	.L48
	movq	%rax, %rdi
	call	__asan_report_load8@PLT
.L48:
	movq	-328(%rbp), %rax
	movq	(%rax), %rax
	movq	%rax, -312(%rbp)
	.loc 1 120 23
	movq	-312(%rbp), %rax
	addq	$16, %rax
	movq	%rax, %rdx
	movq	%rdx, %rax
	shrq	$3, %rax
	addq	$2147450880, %rax
	movzbl	(%rax), %eax
	testb	%al, %al
	setne	%cl
	cmpb	$3, %al
	setle	%al
	andl	%ecx, %eax
	testb	%al, %al
	je	.L49
	movq	%rdx, %rdi
	call	__asan_report_load4@PLT
.L49:
	movq	-312(%rbp), %rax
	movl	16(%rax), %eax
	.loc 1 120 9
	cmpl	$6, %eax
	je	.L50
	.loc 1 122 21
	leaq	.LC25(%rip), %rax
	movq	%rax, %rsi
	leaq	.LC28(%rip), %rax
	movq	%rax, %rdi
	movl	$0, %eax
.LEHB3:
	call	printf@PLT
	.loc 1 122 49 discriminator 1
	leaq	.LC31(%rip), %rax
	movq	%rax, %rdi
	call	puts@PLT
	.loc 1 122 79 discriminator 2
	movl	$122, %edx
	leaq	.LC18(%rip), %rax
	movq	%rax, %rsi
	leaq	.LC30(%rip), %rax
	movq	%rax, %rdi
	movl	$0, %eax
	call	printf@PLT
	.loc 1 123 20
	movl	$-1, %r14d
	movl	$0, %edx
	jmp	.L51
.L50:
	.loc 1 126 45
	movq	-312(%rbp), %rax
	addq	$24, %rax
	movq	%rax, %rdx
	movq	%rdx, %rax
	shrq	$3, %rax
	addq	$2147450880, %rax
	movzbl	(%rax), %eax
	testb	%al, %al
	setne	%cl
	cmpb	$3, %al
	setle	%al
	andl	%ecx, %eax
	testb	%al, %al
	je	.L52
	movq	%rdx, %rdi
	call	__asan_report_load4@PLT
.L52:
	movq	-312(%rbp), %rax
	movl	24(%rax), %ecx
	.loc 1 126 27
	leaq	-128(%rbx), %rax
	addq	$4, %rax
	movq	%rax, %rdx
	shrq	$3, %rdx
	addq	$2147450880, %rdx
	movzbl	(%rdx), %edx
	testb	%dl, %dl
	setne	%dil
	movq	%rax, %rsi
	andl	$7, %esi
	addl	$3, %esi
	cmpb	%dl, %sil
	setge	%dl
	andl	%edi, %edx
	testb	%dl, %dl
	je	.L53
	movq	%rax, %rdi
	call	__asan_report_store4@PLT
.L53:
	movl	%ecx, -124(%rbx)
	.loc 1 127 37
	movq	-336(%rbp), %rax
	addq	$16, %rax
	movq	%rax, %rdx
	movq	%rdx, %rax
	shrq	$3, %rax
	addq	$2147450880, %rax
	movzbl	(%rax), %eax
	testb	%al, %al
	setne	%cl
	cmpb	$3, %al
	setle	%al
	andl	%ecx, %eax
	testb	%al, %al
	je	.L54
	movq	%rdx, %rdi
	call	__asan_report_load4@PLT
.L54:
	movq	-336(%rbp), %rax
	movl	16(%rax), %eax
	.loc 1 127 48
	leal	1(%rax), %ecx
	movq	-336(%rbp), %rdx
	movl	%ecx, 16(%rdx)
	.loc 1 127 30
	leaq	-128(%rbx), %rdx
	addq	$16, %rdx
	movq	%rdx, %rcx
	movq	%rcx, %rdx
	shrq	$3, %rdx
	addq	$2147450880, %rdx
	movzbl	(%rdx), %edx
	testb	%dl, %dl
	setne	%sil
	cmpb	$3, %dl
	setle	%dl
	andl	%esi, %edx
	testb	%dl, %dl
	je	.L55
	movq	%rcx, %rdi
	call	__asan_report_store4@PLT
.L55:
	movl	%eax, -112(%rbx)
	.loc 1 129 33
	call	_ZN6Logger11getInstanceEv@PLT
	movq	%rax, %rdi
	.loc 1 129 39
	leaq	-128(%rbx), %rax
	movq	%rax, %rcx
	leaq	.LC32(%rip), %rax
	movq	%rax, %rdx
	leaq	.LC33(%rip), %rax
	movq	%rax, %rsi
	movl	$0, %eax
	call	_ZN6Logger3logEPKcz@PLT
	.loc 1 130 33
	call	_ZN6Logger11getInstanceEv@PLT
	movq	%rax, %rdi
	.loc 1 130 39
	movq	-312(%rbp), %rax
	addq	$24, %rax
	movq	%rax, %rdx
	movq	%rdx, %rax
	shrq	$3, %rax
	addq	$2147450880, %rax
	movzbl	(%rax), %eax
	testb	%al, %al
	setne	%cl
	cmpb	$3, %al
	setle	%al
	andl	%ecx, %eax
	testb	%al, %al
	je	.L56
	movq	%rdx, %rdi
	call	__asan_report_load4@PLT
.L56:
	.loc 1 130 39 is_stmt 0 discriminator 1
	movq	-312(%rbp), %rax
	movl	24(%rax), %eax
	movl	%eax, %ecx
	leaq	.LC34(%rip), %rax
	movq	%rax, %rdx
	leaq	.LC35(%rip), %rax
	movq	%rax, %rsi
	movl	$0, %eax
	call	_ZN6Logger3logEPKcz@PLT
	.loc 1 131 33 is_stmt 1
	call	_ZN6Logger11getInstanceEv@PLT
	movq	%rax, %rdi
	.loc 1 131 39
	movq	-312(%rbp), %rax
	movq	%rax, %rcx
	leaq	.LC36(%rip), %rax
	movq	%rax, %rdx
	leaq	.LC33(%rip), %rax
	movq	%rax, %rsi
	movl	$0, %eax
	call	_ZN6Logger3logEPKcz@PLT
	.loc 1 132 33
	call	_ZN6Logger11getInstanceEv@PLT
	movq	%rax, %rdi
	.loc 1 132 88
	movq	-336(%rbp), %rax
	movq	%rax, %rdx
	shrq	$3, %rdx
	addq	$2147450880, %rdx
	movzbl	(%rdx), %edx
	testb	%dl, %dl
	je	.L57
	movq	%rax, %rdi
	call	__asan_report_load8@PLT
.L57:
	.loc 1 132 88 is_stmt 0 discriminator 1
	movq	-336(%rbp), %rax
	movq	(%rax), %rax
	.loc 1 132 98 is_stmt 1 discriminator 1
	leaq	24(%rax), %rdx
	movq	%rdx, %rcx
	shrq	$3, %rcx
	addq	$2147450880, %rcx
	movzbl	(%rcx), %ecx
	testb	%cl, %cl
	je	.L58
	.loc 1 132 98 is_stmt 0
	movq	%rdx, %rdi
	call	__asan_report_load8@PLT
.L58:
	.loc 1 132 98 discriminator 1
	movq	24(%rax), %rax
	.loc 1 132 39 is_stmt 1 discriminator 1
	movq	%rax, %rcx
	leaq	.LC37(%rip), %rax
	movq	%rax, %rdx
	leaq	.LC33(%rip), %rax
	movq	%rax, %rsi
	movl	$0, %eax
	call	_ZN6Logger3logEPKcz@PLT
	.loc 1 135 22
	movq	-336(%rbp), %rax
	addq	$24, %rax
	movq	%rax, %rdx
	shrq	$3, %rdx
	addq	$2147450880, %rdx
	movzbl	(%rdx), %edx
	testb	%dl, %dl
	je	.L59
	movq	%rax, %rdi
	call	__asan_report_load8@PLT
.L59:
	movq	-336(%rbp), %rax
	movq	24(%rax), %rax
	movq	%rax, %rdi
	call	_Z5SStopP10SuperStack@PLT
	movq	%rax, %rdx
	leaq	-128(%rbx), %rax
	movq	%rdx, %rsi
	movq	%rax, %rdi
	call	_Z9CopyLabelP5LabelP9NameTable@PLT
	.loc 1 135 72 discriminator 1
	testl	%eax, %eax
	setne	%al
	.loc 1 135 9 discriminator 1
	testb	%al, %al
	je	.L60
	.loc 1 137 21
	leaq	.LC25(%rip), %rax
	movq	%rax, %rsi
	leaq	.LC28(%rip), %rax
	movq	%rax, %rdi
	movl	$0, %eax
	call	printf@PLT
	.loc 1 137 102 discriminator 1
	movq	-336(%rbp), %rax
	movq	%rax, %rdx
	shrq	$3, %rdx
	addq	$2147450880, %rdx
	movzbl	(%rdx), %edx
	testb	%dl, %dl
	je	.L61
	.loc 1 137 102 is_stmt 0
	movq	%rax, %rdi
	call	__asan_report_load8@PLT
.L61:
	.loc 1 137 102 discriminator 1
	movq	-336(%rbp), %rax
	movq	(%rax), %rax
	.loc 1 137 112 is_stmt 1 discriminator 1
	leaq	24(%rax), %rdx
	movq	%rdx, %rcx
	shrq	$3, %rcx
	addq	$2147450880, %rcx
	movzbl	(%rcx), %ecx
	testb	%cl, %cl
	je	.L62
	.loc 1 137 112 is_stmt 0
	movq	%rdx, %rdi
	call	__asan_report_load8@PLT
.L62:
	.loc 1 137 112 discriminator 1
	movq	24(%rax), %rsi
	.loc 1 137 134 is_stmt 1 discriminator 1
	leaq	-128(%rbx), %rax
	addq	$4, %rax
	movq	%rax, %rdx
	shrq	$3, %rdx
	addq	$2147450880, %rdx
	movzbl	(%rdx), %edx
	testb	%dl, %dl
	setne	%dil
	movq	%rax, %rcx
	andl	$7, %ecx
	addl	$3, %ecx
	cmpb	%dl, %cl
	setge	%dl
	andl	%edi, %edx
	testb	%dl, %dl
	je	.L63
	.loc 1 137 134 is_stmt 0
	movq	%rax, %rdi
	call	__asan_report_load4@PLT
.L63:
	.loc 1 137 134 discriminator 1
	movl	-124(%rbx), %eax
	cltq
	.loc 1 137 141 is_stmt 1 discriminator 1
	salq	$3, %rax
	addq	%rsi, %rax
	.loc 1 137 49 discriminator 1
	movq	%rax, %rdx
	movq	%rdx, %rcx
	shrq	$3, %rcx
	addq	$2147450880, %rcx
	movzbl	(%rcx), %ecx
	testb	%cl, %cl
	je	.L64
	.loc 1 137 49 is_stmt 0
	movq	%rdx, %rdi
	call	__asan_report_load8@PLT
.L64:
	.loc 1 137 49 discriminator 1
	movq	(%rax), %rax
	movq	%rax, %rsi
	leaq	.LC38(%rip), %rax
	movq	%rax, %rdi
	movl	$0, %eax
	call	printf@PLT
	.loc 1 137 151 is_stmt 1 discriminator 2
	movl	$137, %edx
	leaq	.LC18(%rip), %rax
	movq	%rax, %rsi
	leaq	.LC30(%rip), %rax
	movq	%rax, %rdi
	movl	$0, %eax
	call	printf@PLT
	.loc 1 138 39
	call	_ZN6Logger11getInstanceEv@PLT
	.loc 1 138 61
	call	_ZN6Logger11getInstanceEv@PLT
	.loc 1 138 61 is_stmt 0 discriminator 1
	movq	%rax, %r14
	.loc 1 138 74 is_stmt 1 discriminator 1
	movl	$138, %r9d
	leaq	.LC25(%rip), %r8
	movl	$138, %ecx
	leaq	.LC18(%rip), %rax
	movq	%rax, %rdx
	leaq	.LC39(%rip), %rax
	movq	%rax, %rsi
	movl	$-1, %edi
	movl	$0, %eax
	call	_Z6MsgRetiPKcz@PLT
	.loc 1 138 74 is_stmt 0 discriminator 2
	movl	%eax, %esi
	subq	$8, %rsp
	pushq	$138
	leaq	.LC25(%rip), %r9
	movl	$138, %r8d
	leaq	.LC18(%rip), %rax
	movq	%rax, %rcx
	leaq	.LC40(%rip), %rax
	movq	%rax, %rdx
	movq	%r14, %rdi
	movl	$0, %eax
	.cfi_escape 0x2e,0x10
	call	_ZN6Logger9LogMsgRetEiPKcz@PLT
.LEHE3:
	.loc 1 138 74 discriminator 3
	addq	$16, %rsp
	movl	%eax, %r14d
	.loc 1 138 255 is_stmt 1 discriminator 3
	movl	$0, %edx
	jmp	.L51
.L60:
	movl	$1, %edx
.L51:
	leaq	-128(%rbx), %rax
	shrq	$3, %rax
	addq	$2147450880, %rax
	movw	$-1800, (%rax)
	movb	$-8, 2(%rax)
	cmpl	$1, %edx
	jne	.L17
.L45:
.LBE6:
.LBE5:
.LBB8:
	.loc 1 142 16
	movq	-328(%rbp), %rax
	addq	$16, %rax
	movq	%rax, %rdx
	movq	%rdx, %rax
	shrq	$3, %rax
	addq	$2147450880, %rax
	movzbl	(%rax), %eax
	testb	%al, %al
	setne	%cl
	cmpb	$3, %al
	setle	%al
	andl	%ecx, %eax
	testb	%al, %al
	je	.L65
	movq	%rdx, %rdi
	call	__asan_report_load4@PLT
.L65:
	movq	-328(%rbp), %rax
	movl	16(%rax), %eax
	.loc 1 142 5
	cmpl	$6, %eax
	jne	.L66
.LBB9:
	.loc 1 144 36
	movq	-336(%rbp), %rax
	addq	$24, %rax
	movq	%rax, %rdx
	shrq	$3, %rdx
	addq	$2147450880, %rdx
	movzbl	(%rdx), %edx
	testb	%dl, %dl
	je	.L67
	movq	%rax, %rdi
	call	__asan_report_load8@PLT
.L67:
	movq	-336(%rbp), %rax
	movq	24(%rax), %rdx
	movq	-328(%rbp), %rax
	addq	$24, %rax
	movq	%rax, %rcx
	movq	%rcx, %rax
	shrq	$3, %rax
	addq	$2147450880, %rax
	movzbl	(%rax), %eax
	testb	%al, %al
	setne	%sil
	cmpb	$3, %al
	setle	%al
	andl	%esi, %eax
	testb	%al, %al
	je	.L68
	movq	%rcx, %rdi
	call	__asan_report_load4@PLT
.L68:
	movq	-328(%rbp), %rax
	movl	24(%rax), %eax
	movl	$7, %esi
	movl	%eax, %edi
.LEHB4:
	.cfi_escape 0x2e,0
	call	_ZL8GetLabeliiP10SuperStack
	movq	%rax, -304(%rbp)
	.loc 1 145 9
	cmpq	$0, -304(%rbp)
	jne	.L69
	.loc 1 147 21
	leaq	.LC25(%rip), %rax
	movq	%rax, %rsi
	leaq	.LC28(%rip), %rax
	movq	%rax, %rdi
	movl	$0, %eax
	call	printf@PLT
	.loc 1 147 80 discriminator 1
	movq	-336(%rbp), %rax
	movq	%rax, %rdx
	shrq	$3, %rdx
	addq	$2147450880, %rdx
	movzbl	(%rdx), %edx
	testb	%dl, %dl
	je	.L70
	.loc 1 147 80 is_stmt 0
	movq	%rax, %rdi
	call	__asan_report_load8@PLT
.L70:
	.loc 1 147 80 discriminator 1
	movq	-336(%rbp), %rax
	movq	(%rax), %rax
	.loc 1 147 90 is_stmt 1 discriminator 1
	leaq	24(%rax), %rdx
	movq	%rdx, %rcx
	shrq	$3, %rcx
	addq	$2147450880, %rcx
	movzbl	(%rcx), %ecx
	testb	%cl, %cl
	je	.L71
	.loc 1 147 90 is_stmt 0
	movq	%rdx, %rdi
	call	__asan_report_load8@PLT
.L71:
	.loc 1 147 90 discriminator 1
	movq	24(%rax), %rcx
	.loc 1 147 115 is_stmt 1 discriminator 1
	movq	-328(%rbp), %rax
	addq	$24, %rax
	movq	%rax, %rdx
	movq	%rdx, %rax
	shrq	$3, %rax
	addq	$2147450880, %rax
	movzbl	(%rax), %eax
	testb	%al, %al
	setne	%sil
	cmpb	$3, %al
	setle	%al
	andl	%esi, %eax
	testb	%al, %al
	je	.L72
	.loc 1 147 115 is_stmt 0
	movq	%rdx, %rdi
	call	__asan_report_load4@PLT
.L72:
	.loc 1 147 115 discriminator 1
	movq	-328(%rbp), %rax
	movl	24(%rax), %eax
	cltq
	.loc 1 147 124 is_stmt 1 discriminator 1
	salq	$3, %rax
	addq	%rcx, %rax
	.loc 1 147 49 discriminator 1
	movq	%rax, %rdx
	movq	%rdx, %rcx
	shrq	$3, %rcx
	addq	$2147450880, %rcx
	movzbl	(%rcx), %ecx
	testb	%cl, %cl
	je	.L73
	.loc 1 147 49 is_stmt 0
	movq	%rdx, %rdi
	call	__asan_report_load8@PLT
.L73:
	.loc 1 147 49 discriminator 1
	movq	(%rax), %rax
	movq	%rax, %rsi
	leaq	.LC41(%rip), %rax
	movq	%rax, %rdi
	movl	$0, %eax
	call	printf@PLT
	.loc 1 147 134 is_stmt 1 discriminator 2
	movl	$147, %edx
	leaq	.LC18(%rip), %rax
	movq	%rax, %rsi
	leaq	.LC30(%rip), %rax
	movq	%rax, %rdi
	movl	$0, %eax
	call	printf@PLT
	.loc 1 148 20
	movl	$-1, %r14d
	jmp	.L17
.L69:
	.loc 1 151 21
	movq	-328(%rbp), %rax
	addq	$16, %rax
	movq	%rax, %rdx
	movq	%rdx, %rax
	shrq	$3, %rax
	addq	$2147450880, %rax
	movzbl	(%rax), %eax
	testb	%al, %al
	setne	%cl
	cmpb	$3, %al
	setle	%al
	andl	%ecx, %eax
	testb	%al, %al
	je	.L74
	movq	%rdx, %rdi
	call	__asan_report_store4@PLT
.L74:
	movq	-328(%rbp), %rax
	movl	$7, 16(%rax)
	.loc 1 152 52
	movq	-304(%rbp), %rax
	addq	$16, %rax
	movq	%rax, %rdx
	shrq	$3, %rdx
	addq	$2147450880, %rdx
	movzbl	(%rdx), %edx
	testb	%dl, %dl
	setne	%sil
	movq	%rax, %rcx
	andl	$7, %ecx
	addl	$3, %ecx
	cmpb	%dl, %cl
	setge	%dl
	andl	%esi, %edx
	testb	%dl, %dl
	je	.L75
	movq	%rax, %rdi
	call	__asan_report_load4@PLT
.L75:
	movq	-304(%rbp), %rax
	movl	16(%rax), %ecx
	.loc 1 152 39
	movq	-328(%rbp), %rax
	addq	$24, %rax
	movq	%rax, %rdx
	movq	%rdx, %rax
	shrq	$3, %rax
	addq	$2147450880, %rax
	movzbl	(%rax), %eax
	testb	%al, %al
	setne	%sil
	cmpb	$3, %al
	setle	%al
	andl	%esi, %eax
	testb	%al, %al
	je	.L76
	movq	%rdx, %rdi
	call	__asan_report_store4@PLT
.L76:
	movq	-328(%rbp), %rax
	movl	%ecx, 24(%rax)
.L66:
.LBE9:
.LBE8:
	.loc 1 155 17
	movq	-328(%rbp), %rax
	movq	%rax, %rdx
	shrq	$3, %rdx
	addq	$2147450880, %rdx
	movzbl	(%rdx), %edx
	testb	%dl, %dl
	je	.L77
	movq	%rax, %rdi
	call	__asan_report_load8@PLT
.L77:
	movq	-328(%rbp), %rax
	movq	(%rax), %rax
	movq	-336(%rbp), %rdx
	movq	%rdx, %rsi
	movq	%rax, %rdi
	call	_ZL8SetTokenP5TokenP3Ctx
	.loc 1 155 43
	testl	%eax, %eax
	setne	%al
	.loc 1 155 5
	testb	%al, %al
	je	.L78
	.loc 1 156 16
	movl	$-1, %r14d
	jmp	.L17
.L78:
	.loc 1 158 17
	movq	-328(%rbp), %rax
	addq	$8, %rax
	movq	%rax, %rdx
	shrq	$3, %rdx
	addq	$2147450880, %rdx
	movzbl	(%rdx), %edx
	testb	%dl, %dl
	je	.L79
	movq	%rax, %rdi
	call	__asan_report_load8@PLT
.L79:
	movq	-328(%rbp), %rax
	movq	8(%rax), %rax
	movq	-336(%rbp), %rdx
	movq	%rdx, %rsi
	movq	%rax, %rdi
	call	_ZL8SetTokenP5TokenP3Ctx
.LEHE4:
	.loc 1 158 43
	testl	%eax, %eax
	setne	%al
	.loc 1 158 5
	testb	%al, %al
	je	.L80
	.loc 1 159 16
	movl	$-1, %r14d
	jmp	.L17
.L80:
	.loc 1 161 12
	movl	$0, %r14d
.L17:
	.loc 1 162 5
	leaq	-64(%rbx), %rax
	movq	%rax, %rdi
	call	_ZN14FunctionLoggerD1Ev@PLT
	movl	%r14d, %edx
	.loc 1 60 5
	cmpq	%r13, %r15
	je	.L13
	jmp	.L88
.L86:
	endbr64
.LBB10:
.LBB4:
	movq	%rax, %rdx
	leaq	-192(%rbx), %rax
	shrq	$3, %rax
	addq	$2147450880, %rax
	movw	$-1800, (%rax)
	movb	$-8, 2(%rax)
	movq	%rdx, %r12
	jmp	.L83
.L87:
	endbr64
.LBE4:
.LBE10:
.LBB11:
.LBB7:
	movq	%rax, %rdx
	leaq	-128(%rbx), %rax
	shrq	$3, %rax
	addq	$2147450880, %rax
	movw	$-1800, (%rax)
	movb	$-8, 2(%rax)
	movq	%rdx, %r12
	jmp	.L83
.L85:
	endbr64
.LBE7:
.LBE11:
	.loc 1 162 5
	movq	%rax, %r12
.L83:
	leaq	-64(%rbx), %rax
	movq	%rax, %rdi
	call	_ZN14FunctionLoggerD1Ev@PLT
	movq	%r12, %rbx
	call	__asan_handle_no_return@PLT
	movq	%rbx, %rdi
.LEHB5:
	call	_Unwind_Resume@PLT
.LEHE5:
.L88:
	.loc 1 60 5
	movq	$1172321806, 0(%r13)
	movabsq	$-723401728380766731, %rbx
	movabsq	$-723401728380766731, %rsi
	movq	%rbx, 2147450880(%r12)
	movq	%rsi, 2147450888(%r12)
	movabsq	$-723401728380766731, %rax
	movq	%rax, 2147450896(%r12)
	movl	$-168430091, 2147450904(%r12)
	movq	248(%r13), %rax
	movb	$0, (%rax)
	jmp	.L14
.L13:
	movq	$0, 2147450880(%r12)
	movq	$0, 2147450888(%r12)
	movq	$0, 2147450896(%r12)
	movl	$0, 2147450904(%r12)
.L14:
	.loc 1 162 5
	movl	%edx, %eax
	leaq	-40(%rbp), %rsp
	popq	%rbx
	popq	%r12
	popq	%r13
	popq	%r14
	popq	%r15
	popq	%rbp
	.cfi_def_cfa 7, 8
	ret
	.cfi_endproc
.LFE2271:
	.globl	__gxx_personality_v0
	.section	.gcc_except_table,"a",@progbits
.LLSDA2271:
	.byte	0xff
	.byte	0xff
	.byte	0x1
	.uleb128 .LLSDACSE2271-.LLSDACSB2271
.LLSDACSB2271:
	.uleb128 .LEHB0-.LFB2271
	.uleb128 .LEHE0-.LEHB0
	.uleb128 0
	.uleb128 0
	.uleb128 .LEHB1-.LFB2271
	.uleb128 .LEHE1-.LEHB1
	.uleb128 .L85-.LFB2271
	.uleb128 0
	.uleb128 .LEHB2-.LFB2271
	.uleb128 .LEHE2-.LEHB2
	.uleb128 .L86-.LFB2271
	.uleb128 0
	.uleb128 .LEHB3-.LFB2271
	.uleb128 .LEHE3-.LEHB3
	.uleb128 .L87-.LFB2271
	.uleb128 0
	.uleb128 .LEHB4-.LFB2271
	.uleb128 .LEHE4-.LEHB4
	.uleb128 .L85-.LFB2271
	.uleb128 0
	.uleb128 .LEHB5-.LFB2271
	.uleb128 .LEHE5-.LEHB5
	.uleb128 0
	.uleb128 0
.LLSDACSE2271:
	.text
	.size	_ZL8SetTokenP5TokenP3Ctx, .-_ZL8SetTokenP5TokenP3Ctx
	.section	.rodata
	.align 32
.LC42:
	.string	"int CtxCtor(Ctx*, const Program*)"
	.zero	62
	.align 32
.LC43:
	.string	"CtxCtor"
	.zero	56
	.text
	.type	_ZL7CtxCtorP3CtxPK7Program, @function
_ZL7CtxCtorP3CtxPK7Program:
.LASANPC2272:
.LFB2272:
	.loc 1 165 5
	.cfi_startproc
	endbr64
	pushq	%rbp
	.cfi_def_cfa_offset 16
	.cfi_offset 6, -16
	movq	%rsp, %rbp
	.cfi_def_cfa_register 6
	pushq	%rbx
	subq	$40, %rsp
	.cfi_offset 3, -24
	movq	%rdi, -40(%rbp)
	movq	%rsi, -48(%rbp)
	.loc 1 166 10
	cmpq	$0, -40(%rbp)
	jne	.L92
	.loc 1 166 43 discriminator 1
	call	_ZN6Logger11getInstanceEv@PLT
	movq	%rax, %rcx
	.loc 1 166 49 discriminator 1
	leaq	.LC26(%rip), %rax
	movq	%rax, %rdx
	leaq	.LC15(%rip), %rax
	movq	%rax, %rsi
	movq	%rcx, %rdi
	movl	$0, %eax
	call	_ZN6Logger3logEPKcz@PLT
	.loc 1 166 105 discriminator 1
	leaq	.LC26(%rip), %rax
	movq	%rax, %rsi
	leaq	.LC16(%rip), %rax
	movq	%rax, %rdi
	movl	$0, %eax
	call	printf@PLT
	.loc 1 166 249 discriminator 1
	call	_ZN6Logger11getInstanceEv@PLT
	movq	%rax, %rdi
	.loc 1 166 255 discriminator 1
	leaq	.LC42(%rip), %r8
	movl	$166, %ecx
	leaq	.LC18(%rip), %rax
	movq	%rax, %rdx
	leaq	.LC19(%rip), %rax
	movq	%rax, %rsi
	movl	$0, %eax
	call	_ZN6Logger3logEPKcz@PLT
	.loc 1 166 342 discriminator 1
	leaq	.LC42(%rip), %rax
	movq	%rax, %rcx
	movl	$166, %edx
	leaq	.LC18(%rip), %rax
	movq	%rax, %rsi
	leaq	.LC19(%rip), %rax
	movq	%rax, %rdi
	movl	$0, %eax
	call	printf@PLT
	.loc 1 166 442 discriminator 1
	call	_ZN6Logger11getInstanceEv@PLT
	movq	%rax, %rbx
	.loc 1 166 448 discriminator 1
	movl	$14, %edi
	call	strerror@PLT
	movq	%rax, %rcx
	movl	$14, %edx
	leaq	.LC20(%rip), %rax
	movq	%rax, %rsi
	movq	%rbx, %rdi
	movl	$0, %eax
	call	_ZN6Logger3logEPKcz@PLT
	.loc 1 166 27 discriminator 1
	call	_ZN6Logger11getInstanceEv@PLT
	movq	%rax, %rdi
	.loc 1 166 33 discriminator 1
	movl	$166, %ecx
	leaq	.LC43(%rip), %rax
	movq	%rax, %rdx
	leaq	.LC22(%rip), %rax
	movq	%rax, %rsi
	movl	$0, %eax
	call	_ZN6Logger3logEPKcz@PLT
	.loc 1 166 92 discriminator 1
	leaq	.LC23(%rip), %rax
	movq	%rax, %rdi
	call	system@PLT
	.loc 1 166 115 discriminator 1
	movl	$-2, %eax
	jmp	.L93
.L92:
	.loc 1 167 10
	cmpq	$0, -48(%rbp)
	jne	.L94
	.loc 1 167 47 discriminator 1
	call	_ZN6Logger11getInstanceEv@PLT
	movq	%rax, %rcx
	.loc 1 167 53 discriminator 1
	leaq	.LC14(%rip), %rax
	movq	%rax, %rdx
	leaq	.LC15(%rip), %rax
	movq	%rax, %rsi
	movq	%rcx, %rdi
	movl	$0, %eax
	call	_ZN6Logger3logEPKcz@PLT
	.loc 1 167 113 discriminator 1
	leaq	.LC14(%rip), %rax
	movq	%rax, %rsi
	leaq	.LC16(%rip), %rax
	movq	%rax, %rdi
	movl	$0, %eax
	call	printf@PLT
	.loc 1 167 261 discriminator 1
	call	_ZN6Logger11getInstanceEv@PLT
	movq	%rax, %rdi
	.loc 1 167 267 discriminator 1
	leaq	.LC42(%rip), %r8
	movl	$167, %ecx
	leaq	.LC18(%rip), %rax
	movq	%rax, %rdx
	leaq	.LC19(%rip), %rax
	movq	%rax, %rsi
	movl	$0, %eax
	call	_ZN6Logger3logEPKcz@PLT
	.loc 1 167 354 discriminator 1
	leaq	.LC42(%rip), %rax
	movq	%rax, %rcx
	movl	$167, %edx
	leaq	.LC18(%rip), %rax
	movq	%rax, %rsi
	leaq	.LC19(%rip), %rax
	movq	%rax, %rdi
	movl	$0, %eax
	call	printf@PLT
	.loc 1 167 454 discriminator 1
	call	_ZN6Logger11getInstanceEv@PLT
	movq	%rax, %rbx
	.loc 1 167 460 discriminator 1
	movl	$14, %edi
	call	strerror@PLT
	movq	%rax, %rcx
	movl	$14, %edx
	leaq	.LC20(%rip), %rax
	movq	%rax, %rsi
	movq	%rbx, %rdi
	movl	$0, %eax
	call	_ZN6Logger3logEPKcz@PLT
	.loc 1 167 27 discriminator 1
	call	_ZN6Logger11getInstanceEv@PLT
	movq	%rax, %rdi
	.loc 1 167 33 discriminator 1
	movl	$167, %ecx
	leaq	.LC43(%rip), %rax
	movq	%rax, %rdx
	leaq	.LC22(%rip), %rax
	movq	%rax, %rsi
	movl	$0, %eax
	call	_ZN6Logger3logEPKcz@PLT
	.loc 1 167 92 discriminator 1
	leaq	.LC23(%rip), %rax
	movq	%rax, %rdi
	call	system@PLT
	.loc 1 167 115 discriminator 1
	movl	$-2, %eax
	jmp	.L93
.L94:
	.loc 1 169 68
	call	_ZN6Logger11getInstanceEv@PLT
	movq	%rax, %rdi
	.loc 1 169 79
	movl	$169, %r9d
	leaq	.LC43(%rip), %r8
	leaq	.LC18(%rip), %rax
	movq	%rax, %rcx
	movl	$56, %edx
	movl	$1, %esi
	call	_ZN6Logger7CAL_LOGEmmPKcS1_i@PLT
	movq	%rax, -32(%rbp)
	.loc 1 170 5
	cmpq	$0, -32(%rbp)
	jne	.L95
	.loc 1 171 16
	movl	$-1, %eax
	jmp	.L93
.L95:
	.loc 1 173 20
	movq	-32(%rbp), %rax
	movl	$5, %esi
	movq	%rax, %rdi
	call	_Z14SuperStackCtorP10SuperStackm@PLT
	.loc 1 175 48
	call	_Z12NewNameTablev@PLT
	movq	%rax, -24(%rbp)
	.loc 1 176 5
	cmpq	$0, -24(%rbp)
	jne	.L96
	.loc 1 178 24
	movq	-32(%rbp), %rax
	movq	%rax, %rdi
	call	_Z14SuperStackDtorP10SuperStack@PLT
	.loc 1 179 28
	call	_ZN6Logger11getInstanceEv@PLT
	movq	%rax, %rdi
	.loc 1 179 40
	movq	-32(%rbp), %rax
	movl	$179, %r8d
	leaq	.LC43(%rip), %rdx
	movq	%rdx, %rcx
	leaq	.LC18(%rip), %rdx
	movq	%rax, %rsi
	call	_ZN6Logger8FREE_LOGEPvPKcS2_i@PLT
	.loc 1 181 16
	movl	$-1, %eax
	jmp	.L93
.L96:
	.loc 1 184 12
	movq	-24(%rbp), %rdx
	movq	-32(%rbp), %rax
	movq	%rdx, %rsi
	movq	%rax, %rdi
	call	_Z6SSpushP10SuperStackP9NameTable@PLT
	.loc 1 186 18
	movq	-40(%rbp), %rax
	movq	%rax, %rdx
	shrq	$3, %rdx
	addq	$2147450880, %rdx
	movzbl	(%rdx), %edx
	testb	%dl, %dl
	je	.L97
	movq	%rax, %rdi
	call	__asan_report_store8@PLT
.L97:
	movq	-40(%rbp), %rax
	movq	-48(%rbp), %rdx
	movq	%rdx, (%rax)
	.loc 1 187 28
	movq	-40(%rbp), %rax
	addq	$8, %rax
	movq	%rax, %rdx
	shrq	$3, %rdx
	addq	$2147450880, %rdx
	movzbl	(%rdx), %edx
	testb	%dl, %dl
	je	.L98
	movq	%rax, %rdi
	call	__asan_report_store8@PLT
.L98:
	movq	-40(%rbp), %rax
	movq	-24(%rbp), %rdx
	movq	%rdx, 8(%rax)
	.loc 1 188 26
	movq	-40(%rbp), %rax
	addq	$24, %rax
	movq	%rax, %rdx
	shrq	$3, %rdx
	addq	$2147450880, %rdx
	movzbl	(%rdx), %edx
	testb	%dl, %dl
	je	.L99
	movq	%rax, %rdi
	call	__asan_report_store8@PLT
.L99:
	movq	-40(%rbp), %rax
	movq	-32(%rbp), %rdx
	movq	%rdx, 24(%rax)
	.loc 1 190 12
	movl	$0, %eax
.L93:
	.loc 1 191 5
	movq	-8(%rbp), %rbx
	leave
	.cfi_def_cfa 7, 8
	ret
	.cfi_endproc
.LFE2272:
	.size	_ZL7CtxCtorP3CtxPK7Program, .-_ZL7CtxCtorP3CtxPK7Program
	.section	.rodata
	.align 32
.LC44:
	.string	"int CtxDtor(Ctx*)"
	.zero	46
	.align 32
.LC45:
	.string	"CtxDtor"
	.zero	56
	.text
	.type	_ZL7CtxDtorP3Ctx, @function
_ZL7CtxDtorP3Ctx:
.LASANPC2273:
.LFB2273:
	.loc 1 194 5
	.cfi_startproc
	endbr64
	pushq	%rbp
	.cfi_def_cfa_offset 16
	.cfi_offset 6, -16
	movq	%rsp, %rbp
	.cfi_def_cfa_register 6
	pushq	%rbx
	subq	$24, %rsp
	.cfi_offset 3, -24
	movq	%rdi, -24(%rbp)
	.loc 1 195 10
	cmpq	$0, -24(%rbp)
	jne	.L101
	.loc 1 195 43 discriminator 1
	call	_ZN6Logger11getInstanceEv@PLT
	movq	%rax, %rcx
	.loc 1 195 49 discriminator 1
	leaq	.LC26(%rip), %rax
	movq	%rax, %rdx
	leaq	.LC15(%rip), %rax
	movq	%rax, %rsi
	movq	%rcx, %rdi
	movl	$0, %eax
	call	_ZN6Logger3logEPKcz@PLT
	.loc 1 195 105 discriminator 1
	leaq	.LC26(%rip), %rax
	movq	%rax, %rsi
	leaq	.LC16(%rip), %rax
	movq	%rax, %rdi
	movl	$0, %eax
	call	printf@PLT
	.loc 1 195 249 discriminator 1
	call	_ZN6Logger11getInstanceEv@PLT
	movq	%rax, %rdi
	.loc 1 195 255 discriminator 1
	leaq	.LC44(%rip), %r8
	movl	$195, %ecx
	leaq	.LC18(%rip), %rax
	movq	%rax, %rdx
	leaq	.LC19(%rip), %rax
	movq	%rax, %rsi
	movl	$0, %eax
	call	_ZN6Logger3logEPKcz@PLT
	.loc 1 195 342 discriminator 1
	leaq	.LC44(%rip), %rax
	movq	%rax, %rcx
	movl	$195, %edx
	leaq	.LC18(%rip), %rax
	movq	%rax, %rsi
	leaq	.LC19(%rip), %rax
	movq	%rax, %rdi
	movl	$0, %eax
	call	printf@PLT
	.loc 1 195 442 discriminator 1
	call	_ZN6Logger11getInstanceEv@PLT
	movq	%rax, %rbx
	.loc 1 195 448 discriminator 1
	movl	$14, %edi
	call	strerror@PLT
	movq	%rax, %rcx
	movl	$14, %edx
	leaq	.LC20(%rip), %rax
	movq	%rax, %rsi
	movq	%rbx, %rdi
	movl	$0, %eax
	call	_ZN6Logger3logEPKcz@PLT
	.loc 1 195 27 discriminator 1
	call	_ZN6Logger11getInstanceEv@PLT
	movq	%rax, %rdi
	.loc 1 195 33 discriminator 1
	movl	$195, %ecx
	leaq	.LC45(%rip), %rax
	movq	%rax, %rdx
	leaq	.LC22(%rip), %rax
	movq	%rax, %rsi
	movl	$0, %eax
	call	_ZN6Logger3logEPKcz@PLT
	.loc 1 195 92 discriminator 1
	leaq	.LC23(%rip), %rax
	movq	%rax, %rdi
	call	system@PLT
	.loc 1 195 115 discriminator 1
	movl	$-2, %eax
	jmp	.L102
.L101:
	.loc 1 197 20
	movq	-24(%rbp), %rax
	addq	$24, %rax
	movq	%rax, %rdx
	shrq	$3, %rdx
	addq	$2147450880, %rdx
	movzbl	(%rdx), %edx
	testb	%dl, %dl
	je	.L103
	movq	%rax, %rdi
	call	__asan_report_load8@PLT
.L103:
	movq	-24(%rbp), %rax
	movq	24(%rax), %rax
	movq	%rax, %rdi
	call	_Z14SuperStackDtorP10SuperStack@PLT
	.loc 1 198 24
	call	_ZN6Logger11getInstanceEv@PLT
	movq	%rax, %rdi
	.loc 1 198 42
	movq	-24(%rbp), %rax
	addq	$24, %rax
	movq	%rax, %rdx
	shrq	$3, %rdx
	addq	$2147450880, %rdx
	movzbl	(%rdx), %edx
	testb	%dl, %dl
	je	.L104
	movq	%rax, %rdi
	call	__asan_report_load8@PLT
.L104:
	movq	-24(%rbp), %rax
	movq	24(%rax), %rax
	.loc 1 198 36
	movl	$198, %r8d
	leaq	.LC45(%rip), %rdx
	movq	%rdx, %rcx
	leaq	.LC18(%rip), %rdx
	movq	%rax, %rsi
	call	_ZN6Logger8FREE_LOGEPvPKcS2_i@PLT
	.loc 1 200 20
	movq	-24(%rbp), %rax
	addq	$8, %rax
	movq	%rax, %rdx
	shrq	$3, %rdx
	addq	$2147450880, %rdx
	movzbl	(%rdx), %edx
	testb	%dl, %dl
	je	.L105
	movq	%rax, %rdi
	call	__asan_report_load8@PLT
.L105:
	movq	-24(%rbp), %rax
	movq	8(%rax), %rax
	movq	%rax, %rdi
	call	_Z14CloseNameTableP9NameTable@PLT
	.loc 1 202 12
	movl	$0, %eax
.L102:
	.loc 1 203 5
	movq	-8(%rbp), %rbx
	leave
	.cfi_def_cfa 7, 8
	ret
	.cfi_endproc
.LFE2273:
	.size	_ZL7CtxDtorP3Ctx, .-_ZL7CtxDtorP3Ctx
	.section	.rodata
	.align 32
.LC46:
	.string	"name_tables_stk"
	.zero	48
	.align 32
.LC47:
	.string	"Label* GetLabel(int, int, SuperStack*)"
	.zero	57
	.align 32
.LC48:
	.string	"GetLabel"
	.zero	55
	.align 32
.LC49:
	.string	"Returnig null ptr (%s:%d)"
	.zero	38
	.align 32
.LC50:
	.string	"\033[94mReturnig null ptr %s:%d (%s:%d)\n\033[0m"
	.zero	54
	.align 32
.LC51:
	.string	"Empty var tabels stk"
	.zero	43
	.text
	.type	_ZL8GetLabeliiP10SuperStack, @function
_ZL8GetLabeliiP10SuperStack:
.LASANPC2274:
.LFB2274:
	.loc 1 206 5
	.cfi_startproc
	endbr64
	pushq	%rbp
	.cfi_def_cfa_offset 16
	.cfi_offset 6, -16
	movq	%rsp, %rbp
	.cfi_def_cfa_register 6
	pushq	%rbx
	subq	$56, %rsp
	.cfi_offset 3, -24
	movl	%edi, -52(%rbp)
	movl	%esi, -56(%rbp)
	movq	%rdx, -64(%rbp)
	.loc 1 207 10
	cmpq	$0, -64(%rbp)
	jne	.L107
	.loc 1 207 55 discriminator 1
	call	_ZN6Logger11getInstanceEv@PLT
	movq	%rax, %rcx
	.loc 1 207 61 discriminator 1
	leaq	.LC46(%rip), %rax
	movq	%rax, %rdx
	leaq	.LC15(%rip), %rax
	movq	%rax, %rsi
	movq	%rcx, %rdi
	movl	$0, %eax
	call	_ZN6Logger3logEPKcz@PLT
	.loc 1 207 129 discriminator 1
	leaq	.LC46(%rip), %rax
	movq	%rax, %rsi
	leaq	.LC16(%rip), %rax
	movq	%rax, %rdi
	movl	$0, %eax
	call	printf@PLT
	.loc 1 207 285 discriminator 1
	call	_ZN6Logger11getInstanceEv@PLT
	movq	%rax, %rdi
	.loc 1 207 291 discriminator 1
	leaq	.LC47(%rip), %r8
	movl	$207, %ecx
	leaq	.LC18(%rip), %rax
	movq	%rax, %rdx
	leaq	.LC19(%rip), %rax
	movq	%rax, %rsi
	movl	$0, %eax
	call	_ZN6Logger3logEPKcz@PLT
	.loc 1 207 378 discriminator 1
	leaq	.LC47(%rip), %rax
	movq	%rax, %rcx
	movl	$207, %edx
	leaq	.LC18(%rip), %rax
	movq	%rax, %rsi
	leaq	.LC19(%rip), %rax
	movq	%rax, %rdi
	movl	$0, %eax
	call	printf@PLT
	.loc 1 207 478 discriminator 1
	call	_ZN6Logger11getInstanceEv@PLT
	movq	%rax, %rbx
	.loc 1 207 484 discriminator 1
	movl	$14, %edi
	call	strerror@PLT
	movq	%rax, %rcx
	movl	$14, %edx
	leaq	.LC20(%rip), %rax
	movq	%rax, %rsi
	movq	%rbx, %rdi
	movl	$0, %eax
	call	_ZN6Logger3logEPKcz@PLT
	.loc 1 207 27 discriminator 1
	call	_ZN6Logger11getInstanceEv@PLT
	movq	%rax, %rdi
	.loc 1 207 33 discriminator 1
	movl	$207, %ecx
	leaq	.LC48(%rip), %rax
	movq	%rax, %rdx
	leaq	.LC22(%rip), %rax
	movq	%rax, %rsi
	movl	$0, %eax
	call	_ZN6Logger3logEPKcz@PLT
	.loc 1 207 92 discriminator 1
	leaq	.LC23(%rip), %rax
	movq	%rax, %rdi
	call	system@PLT
	.loc 1 207 134 discriminator 1
	call	_ZN6Logger11getInstanceEv@PLT
	movq	%rax, %rdi
	.loc 1 207 150 discriminator 1
	movl	$207, %ecx
	leaq	.LC48(%rip), %rax
	movq	%rax, %rdx
	leaq	.LC49(%rip), %rax
	movq	%rax, %rsi
	movl	$0, %eax
	call	_ZN6Logger13LogMsgNullRetEPKcz@PLT
	.loc 1 207 209 discriminator 1
	movl	$207, %r8d
	leaq	.LC48(%rip), %rax
	movq	%rax, %rcx
	movl	$207, %edx
	leaq	.LC18(%rip), %rax
	movq	%rax, %rsi
	leaq	.LC50(%rip), %rax
	movq	%rax, %rdi
	movl	$0, %eax
	call	_Z13LogMsgNullRetPKcz@PLT
	.loc 1 207 312 discriminator 1
	movl	$0, %eax
	jmp	.L108
.L107:
	.loc 1 209 36
	movq	-64(%rbp), %rax
	movq	%rax, %rdi
	call	_Z11StackGetTopP10SuperStack@PLT
	movq	%rax, -40(%rbp)
	.loc 1 210 5
	cmpq	$0, -40(%rbp)
	jns	.L109
	.loc 1 211 17
	leaq	.LC48(%rip), %rax
	movq	%rax, %rsi
	leaq	.LC28(%rip), %rax
	movq	%rax, %rdi
	movl	$0, %eax
	call	printf@PLT
	.loc 1 211 45
	leaq	.LC51(%rip), %rax
	movq	%rax, %rdi
	call	puts@PLT
	.loc 1 211 79
	movl	$211, %edx
	leaq	.LC18(%rip), %rax
	movq	%rax, %rsi
	leaq	.LC30(%rip), %rax
	movq	%rax, %rdi
	movl	$0, %eax
	call	printf@PLT
.L109:
.LBB12:
	.loc 1 213 18
	movq	-40(%rbp), %rax
	movq	%rax, -48(%rbp)
	.loc 1 213 5
	jmp	.L110
.L112:
.LBB13:
	.loc 1 215 38
	movq	-48(%rbp), %rdx
	movq	-64(%rbp), %rax
	movq	%rdx, %rsi
	movq	%rax, %rdi
	call	_Z9StackLookP10SuperStackl@PLT
	movq	%rax, -32(%rbp)
	.loc 1 217 30
	movq	-32(%rbp), %rdx
	movl	-56(%rbp), %ecx
	movl	-52(%rbp), %eax
	movl	%ecx, %esi
	movl	%eax, %edi
	call	_Z7IsLabeliiP9NameTable@PLT
	movq	%rax, -24(%rbp)
	.loc 1 219 9
	cmpq	$0, -24(%rbp)
	je	.L111
	.loc 1 220 20
	movq	-24(%rbp), %rax
	jmp	.L108
.L111:
.LBE13:
	.loc 1 213 5 discriminator 2
	subq	$1, -48(%rbp)
.L110:
	.loc 1 213 35 discriminator 1
	cmpq	$0, -48(%rbp)
	jns	.L112
.LBE12:
	.loc 1 223 11
	movl	$0, %eax
.L108:
	.loc 1 224 5
	movq	-8(%rbp), %rbx
	leave
	.cfi_def_cfa 7, 8
	ret
	.cfi_endproc
.LFE2274:
	.size	_ZL8GetLabeliiP10SuperStack, .-_ZL8GetLabeliiP10SuperStack
	.type	_Z41__static_initialization_and_destruction_0ii, @function
_Z41__static_initialization_and_destruction_0ii:
.LASANPC2941:
.LFB2941:
	.loc 1 224 5
	.cfi_startproc
	endbr64
	pushq	%rbp
	.cfi_def_cfa_offset 16
	.cfi_offset 6, -16
	movq	%rsp, %rbp
	.cfi_def_cfa_register 6
	subq	$16, %rsp
	movl	%edi, -4(%rbp)
	movl	%esi, -8(%rbp)
	.loc 1 224 5
	cmpl	$1, -4(%rbp)
	jne	.L116
	.loc 1 224 5 is_stmt 0 discriminator 1
	leaq	.LC18(%rip), %rax
	movq	%rax, %rdi
	call	__asan_before_dynamic_init@PLT
	cmpl	$65535, -8(%rbp)
	jne	.L115
	.file 2 "/usr/include/c++/11/iostream"
	.loc 2 74 25 is_stmt 1
	leaq	_ZStL8__ioinit(%rip), %rax
	movq	%rax, %rdi
	call	_ZNSt8ios_base4InitC1Ev@PLT
	leaq	__dso_handle(%rip), %rax
	movq	%rax, %rdx
	leaq	_ZStL8__ioinit(%rip), %rax
	movq	%rax, %rsi
	movq	_ZNSt8ios_base4InitD1Ev@GOTPCREL(%rip), %rax
	movq	%rax, %rdi
	call	__cxa_atexit@PLT
.L115:
	.loc 2 74 25 is_stmt 0 discriminator 1
	call	__asan_after_dynamic_init@PLT
.L116:
	.loc 1 224 5 is_stmt 1
	nop
	leave
	.cfi_def_cfa 7, 8
	ret
	.cfi_endproc
.LFE2941:
	.size	_Z41__static_initialization_and_destruction_0ii, .-_Z41__static_initialization_and_destruction_0ii
	.type	_GLOBAL__sub_I__Z12SetTokenTreePK7Program, @function
_GLOBAL__sub_I__Z12SetTokenTreePK7Program:
.LASANPC2942:
.LFB2942:
	.loc 1 224 5
	.cfi_startproc
	endbr64
	pushq	%rbp
	.cfi_def_cfa_offset 16
	.cfi_offset 6, -16
	movq	%rsp, %rbp
	.cfi_def_cfa_register 6
	.loc 1 224 5
	movl	$65535, %esi
	movl	$1, %edi
	call	_Z41__static_initialization_and_destruction_0ii
	popq	%rbp
	.cfi_def_cfa 7, 8
	ret
	.cfi_endproc
.LFE2942:
	.size	_GLOBAL__sub_I__Z12SetTokenTreePK7Program, .-_GLOBAL__sub_I__Z12SetTokenTreePK7Program
	.section	.init_array,"aw"
	.align 8
	.quad	_GLOBAL__sub_I__Z12SetTokenTreePK7Program
	.section	.data.rel.local,"aw"
	.align 16
	.type	.LASANLOC1, @object
	.size	.LASANLOC1, 16
.LASANLOC1:
	.quad	.LC18
	.long	24
	.long	11
	.section	.rodata
.LC52:
	.string	"../ATC/Buffer/my_buffer.h"
	.section	.data.rel.local
	.align 16
	.type	.LASANLOC2, @object
	.size	.LASANLOC2, 16
.LASANLOC2:
	.quad	.LC52
	.long	32
	.long	11
	.section	.rodata
	.align 8
.LC53:
	.string	"../ATC/SuperStack/SuperStack.h"
	.section	.data.rel.local
	.align 16
	.type	.LASANLOC3, @object
	.size	.LASANLOC3, 16
.LASANLOC3:
	.quad	.LC53
	.long	22
	.long	14
	.align 16
	.type	.LASANLOC4, @object
	.size	.LASANLOC4, 16
.LASANLOC4:
	.quad	.LC53
	.long	21
	.long	14
	.section	.rodata
.LC54:
	.string	"../ATC/my_safety/my_safety.h"
	.section	.data.rel.local
	.align 16
	.type	.LASANLOC5, @object
	.size	.LASANLOC5, 16
.LASANLOC5:
	.quad	.LC54
	.long	12
	.long	11
	.align 16
	.type	.LASANLOC6, @object
	.size	.LASANLOC6, 16
.LASANLOC6:
	.quad	.LC54
	.long	11
	.long	11
	.align 16
	.type	.LASANLOC7, @object
	.size	.LASANLOC7, 16
.LASANLOC7:
	.quad	.LC54
	.long	9
	.long	11
	.section	.rodata
.LC55:
	.string	"../Common/Grammar.h"
	.section	.data.rel.local
	.align 16
	.type	.LASANLOC8, @object
	.size	.LASANLOC8, 16
.LASANLOC8:
	.quad	.LC55
	.long	42
	.long	11
	.align 16
	.type	.LASANLOC9, @object
	.size	.LASANLOC9, 16
.LASANLOC9:
	.quad	.LC55
	.long	41
	.long	11
	.align 16
	.type	.LASANLOC10, @object
	.size	.LASANLOC10, 16
.LASANLOC10:
	.quad	.LC55
	.long	39
	.long	19
	.align 16
	.type	.LASANLOC11, @object
	.size	.LASANLOC11, 16
.LASANLOC11:
	.quad	.LC55
	.long	37
	.long	12
	.align 16
	.type	.LASANLOC12, @object
	.size	.LASANLOC12, 16
.LASANLOC12:
	.quad	.LC55
	.long	26
	.long	12
	.align 16
	.type	.LASANLOC13, @object
	.size	.LASANLOC13, 16
.LASANLOC13:
	.quad	.LC55
	.long	24
	.long	19
	.align 16
	.type	.LASANLOC14, @object
	.size	.LASANLOC14, 16
.LASANLOC14:
	.quad	.LC55
	.long	20
	.long	19
	.align 16
	.type	.LASANLOC15, @object
	.size	.LASANLOC15, 16
.LASANLOC15:
	.quad	.LC55
	.long	17
	.long	19
	.align 16
	.type	.LASANLOC16, @object
	.size	.LASANLOC16, 16
.LASANLOC16:
	.quad	.LC55
	.long	14
	.long	19
	.section	.rodata
	.align 8
.LC56:
	.string	"../ATC/RandomStuff/CommonEnums.h"
	.section	.data.rel.local
	.align 16
	.type	.LASANLOC17, @object
	.size	.LASANLOC17, 16
.LASANLOC17:
	.quad	.LC56
	.long	3
	.long	11
	.section	.rodata
.LC57:
	.string	"../ATC/Logger/LogConfig.h"
	.section	.data.rel.local
	.align 16
	.type	.LASANLOC18, @object
	.size	.LASANLOC18, 16
.LASANLOC18:
	.quad	.LC57
	.long	3
	.long	12
	.section	.rodata
.LC58:
	.string	"/usr/include/c++/11/iostream"
	.section	.data.rel.local
	.align 16
	.type	.LASANLOC19, @object
	.size	.LASANLOC19, 16
.LASANLOC19:
	.quad	.LC58
	.long	74
	.long	25
	.section	.rodata
.LC59:
	.string	"./headers/BackEndConfig.h"
	.section	.data.rel.local
	.align 16
	.type	.LASANLOC20, @object
	.size	.LASANLOC20, 16
.LASANLOC20:
	.quad	.LC59
	.long	4
	.long	11
	.align 16
	.type	.LASANLOC21, @object
	.size	.LASANLOC21, 16
.LASANLOC21:
	.quad	.LC59
	.long	3
	.long	11
	.section	.rodata
	.align 8
.LC60:
	.string	"../Common/Structures/Tabels/Tabels.h"
	.section	.data.rel.local
	.align 16
	.type	.LASANLOC22, @object
	.size	.LASANLOC22, 16
.LASANLOC22:
	.quad	.LC60
	.long	8
	.long	11
	.align 16
	.type	.LASANLOC23, @object
	.size	.LASANLOC23, 16
.LASANLOC23:
	.quad	.LC60
	.long	7
	.long	11
	.section	.rodata
	.align 8
.LC61:
	.string	"START_NUMBER_OF_NAME_TABELS_STK"
.LC62:
	.string	"INDENT_SIZE"
.LC63:
	.string	"_ELEMENT_T_SIZE_"
.LC64:
	.string	"_HEAP_MIN_CAPACITY_"
.LC65:
	.string	"_CLOSING_CANARY_"
.LC66:
	.string	"_OPENING_CANARY_"
.LC67:
	.string	"_CANARY_SIZE_"
.LC68:
	.string	"MAX_WORD_LENGTH"
.LC69:
	.string	"MAX_FUNCTION_NAME_LENGTH"
.LC70:
	.string	"MAIN_NAME"
.LC71:
	.string	"COMMENT"
.LC72:
	.string	"OPERATORS"
.LC73:
	.string	"FUNCTION_RET_TYPES"
.LC74:
	.string	"INITIALIZATORS"
.LC75:
	.string	"NATIVE_FUNCTIONS"
.LC76:
	.string	"INSTRUCTIONS"
.LC77:
	.string	"CRINGE"
.LC78:
	.string	"STD_LOG_NAME"
.LC79:
	.string	"__ioinit"
.LC80:
	.string	"MAX_RAM_USABLE_SIZE"
.LC81:
	.string	"START_RAM_ADRESS"
.LC82:
	.string	"NOT_A_LABEL"
.LC83:
	.string	"NOT_DECLARED"
.LC84:
	.string	"*.LC4"
.LC85:
	.string	"*.LC19"
.LC86:
	.string	"*.LC28"
.LC87:
	.string	"*.LC8"
.LC88:
	.string	"*.LC34"
.LC89:
	.string	"*.LC6"
.LC90:
	.string	"*.LC35"
.LC91:
	.string	"*.LC10"
.LC92:
	.string	"*.LC49"
.LC93:
	.string	"*.LC15"
.LC94:
	.string	"*.LC16"
.LC95:
	.string	"*.LC5"
.LC96:
	.string	"*.LC39"
.LC97:
	.string	"*.LC38"
.LC98:
	.string	"*.LC14"
.LC99:
	.string	"*.LC2"
.LC100:
	.string	"*.LC11"
.LC101:
	.string	"*.LC46"
.LC102:
	.string	"*.LC51"
.LC103:
	.string	"*.LC41"
.LC104:
	.string	"*.LC30"
.LC105:
	.string	"*.LC21"
.LC106:
	.string	"*.LC45"
.LC107:
	.string	"*.LC27"
.LC108:
	.string	"*.LC9"
.LC109:
	.string	"*.LC47"
.LC110:
	.string	"*.LC22"
.LC111:
	.string	"*.LC23"
.LC112:
	.string	"*.LC36"
.LC113:
	.string	"*.LC18"
.LC114:
	.string	"*.LC3"
.LC115:
	.string	"*.LC48"
.LC116:
	.string	"*.LC0"
.LC117:
	.string	"*.LC37"
.LC118:
	.string	"*.LC7"
.LC119:
	.string	"*.LC42"
.LC120:
	.string	"*.LC31"
.LC121:
	.string	"*.LC50"
.LC122:
	.string	"*.LC44"
.LC123:
	.string	"*.LC20"
.LC124:
	.string	"*.LC25"
.LC125:
	.string	"*.LC1"
.LC126:
	.string	"*.LC33"
.LC127:
	.string	"*.LC12"
.LC128:
	.string	"*.LC26"
.LC129:
	.string	"*.LC32"
.LC130:
	.string	"*.LC17"
.LC131:
	.string	"*.LC40"
.LC132:
	.string	"*.LC29"
.LC133:
	.string	"*.LC43"
	.section	.data.rel.local
	.align 32
	.type	.LASAN0, @object
	.size	.LASAN0, 4672
.LASAN0:
	.quad	_ZL31START_NUMBER_OF_NAME_TABELS_STK
	.quad	4
	.quad	64
	.quad	.LC61
	.quad	.LC18
	.quad	0
	.quad	.LASANLOC1
	.quad	0
	.quad	_ZL11INDENT_SIZE
	.quad	4
	.quad	64
	.quad	.LC62
	.quad	.LC18
	.quad	0
	.quad	.LASANLOC2
	.quad	0
	.quad	_ZL16_ELEMENT_T_SIZE_
	.quad	8
	.quad	64
	.quad	.LC63
	.quad	.LC18
	.quad	0
	.quad	.LASANLOC3
	.quad	0
	.quad	_ZL19_HEAP_MIN_CAPACITY_
	.quad	8
	.quad	64
	.quad	.LC64
	.quad	.LC18
	.quad	0
	.quad	.LASANLOC4
	.quad	0
	.quad	_ZL16_CLOSING_CANARY_
	.quad	4
	.quad	64
	.quad	.LC65
	.quad	.LC18
	.quad	0
	.quad	.LASANLOC5
	.quad	0
	.quad	_ZL16_OPENING_CANARY_
	.quad	4
	.quad	64
	.quad	.LC66
	.quad	.LC18
	.quad	0
	.quad	.LASANLOC6
	.quad	0
	.quad	_ZL13_CANARY_SIZE_
	.quad	4
	.quad	64
	.quad	.LC67
	.quad	.LC18
	.quad	0
	.quad	.LASANLOC7
	.quad	0
	.quad	_ZL15MAX_WORD_LENGTH
	.quad	4
	.quad	64
	.quad	.LC68
	.quad	.LC18
	.quad	0
	.quad	.LASANLOC8
	.quad	0
	.quad	_ZL24MAX_FUNCTION_NAME_LENGTH
	.quad	4
	.quad	64
	.quad	.LC69
	.quad	.LC18
	.quad	0
	.quad	.LASANLOC9
	.quad	0
	.quad	_ZL9MAIN_NAME
	.quad	8
	.quad	64
	.quad	.LC70
	.quad	.LC18
	.quad	0
	.quad	.LASANLOC10
	.quad	0
	.quad	_ZL7COMMENT
	.quad	1
	.quad	64
	.quad	.LC71
	.quad	.LC18
	.quad	0
	.quad	.LASANLOC11
	.quad	0
	.quad	_ZL9OPERATORS
	.quad	8
	.quad	64
	.quad	.LC72
	.quad	.LC18
	.quad	0
	.quad	.LASANLOC12
	.quad	0
	.quad	_ZL18FUNCTION_RET_TYPES
	.quad	16
	.quad	64
	.quad	.LC73
	.quad	.LC18
	.quad	0
	.quad	.LASANLOC13
	.quad	0
	.quad	_ZL14INITIALIZATORS
	.quad	16
	.quad	64
	.quad	.LC74
	.quad	.LC18
	.quad	0
	.quad	.LASANLOC14
	.quad	0
	.quad	_ZL16NATIVE_FUNCTIONS
	.quad	32
	.quad	64
	.quad	.LC75
	.quad	.LC18
	.quad	0
	.quad	.LASANLOC15
	.quad	0
	.quad	_ZL12INSTRUCTIONS
	.quad	32
	.quad	64
	.quad	.LC76
	.quad	.LC18
	.quad	0
	.quad	.LASANLOC16
	.quad	0
	.quad	_ZL6CRINGE
	.quad	4
	.quad	64
	.quad	.LC77
	.quad	.LC18
	.quad	0
	.quad	.LASANLOC17
	.quad	0
	.quad	_ZL12STD_LOG_NAME
	.quad	18
	.quad	64
	.quad	.LC78
	.quad	.LC18
	.quad	0
	.quad	.LASANLOC18
	.quad	0
	.quad	_ZStL8__ioinit
	.quad	1
	.quad	64
	.quad	.LC79
	.quad	.LC18
	.quad	1
	.quad	.LASANLOC19
	.quad	0
	.quad	_ZL19MAX_RAM_USABLE_SIZE
	.quad	4
	.quad	64
	.quad	.LC80
	.quad	.LC18
	.quad	0
	.quad	.LASANLOC20
	.quad	0
	.quad	_ZL16START_RAM_ADRESS
	.quad	4
	.quad	64
	.quad	.LC81
	.quad	.LC18
	.quad	0
	.quad	.LASANLOC21
	.quad	0
	.quad	_ZL11NOT_A_LABEL
	.quad	4
	.quad	64
	.quad	.LC82
	.quad	.LC18
	.quad	0
	.quad	.LASANLOC22
	.quad	0
	.quad	_ZL12NOT_DECLARED
	.quad	4
	.quad	64
	.quad	.LC83
	.quad	.LC18
	.quad	0
	.quad	.LASANLOC23
	.quad	0
	.quad	.LC4
	.quad	5
	.quad	64
	.quad	.LC84
	.quad	.LC18
	.quad	0
	.quad	0
	.quad	0
	.quad	.LC19
	.quad	22
	.quad	64
	.quad	.LC85
	.quad	.LC18
	.quad	0
	.quad	0
	.quad	0
	.quad	.LC28
	.quad	6
	.quad	64
	.quad	.LC86
	.quad	.LC18
	.quad	0
	.quad	0
	.quad	0
	.quad	.LC8
	.quad	7
	.quad	64
	.quad	.LC87
	.quad	.LC18
	.quad	0
	.quad	0
	.quad	0
	.quad	.LC34
	.quad	18
	.quad	64
	.quad	.LC88
	.quad	.LC18
	.quad	0
	.quad	0
	.quad	0
	.quad	.LC6
	.quad	4
	.quad	64
	.quad	.LC89
	.quad	.LC18
	.quad	0
	.quad	0
	.quad	0
	.quad	.LC35
	.quad	9
	.quad	64
	.quad	.LC90
	.quad	.LC18
	.quad	0
	.quad	0
	.quad	0
	.quad	.LC10
	.quad	7
	.quad	64
	.quad	.LC91
	.quad	.LC18
	.quad	0
	.quad	0
	.quad	0
	.quad	.LC49
	.quad	26
	.quad	64
	.quad	.LC92
	.quad	.LC18
	.quad	0
	.quad	0
	.quad	0
	.quad	.LC15
	.quad	37
	.quad	96
	.quad	.LC93
	.quad	.LC18
	.quad	0
	.quad	0
	.quad	0
	.quad	.LC16
	.quad	64
	.quad	96
	.quad	.LC94
	.quad	.LC18
	.quad	0
	.quad	0
	.quad	0
	.quad	.LC5
	.quad	4
	.quad	64
	.quad	.LC95
	.quad	.LC18
	.quad	0
	.quad	0
	.quad	0
	.quad	.LC39
	.quad	31
	.quad	64
	.quad	.LC96
	.quad	.LC18
	.quad	0
	.quad	0
	.quad	0
	.quad	.LC38
	.quad	41
	.quad	96
	.quad	.LC97
	.quad	.LC18
	.quad	0
	.quad	0
	.quad	0
	.quad	.LC14
	.quad	8
	.quad	64
	.quad	.LC98
	.quad	.LC18
	.quad	0
	.quad	0
	.quad	0
	.quad	.LC2
	.quad	6
	.quad	64
	.quad	.LC99
	.quad	.LC18
	.quad	0
	.quad	0
	.quad	0
	.quad	.LC11
	.quad	5
	.quad	64
	.quad	.LC100
	.quad	.LC18
	.quad	0
	.quad	0
	.quad	0
	.quad	.LC46
	.quad	16
	.quad	64
	.quad	.LC101
	.quad	.LC18
	.quad	0
	.quad	0
	.quad	0
	.quad	.LC51
	.quad	21
	.quad	64
	.quad	.LC102
	.quad	.LC18
	.quad	0
	.quad	0
	.quad	0
	.quad	.LC41
	.quad	19
	.quad	64
	.quad	.LC103
	.quad	.LC18
	.quad	0
	.quad	0
	.quad	0
	.quad	.LC30
	.quad	10
	.quad	64
	.quad	.LC104
	.quad	.LC18
	.quad	0
	.quad	0
	.quad	0
	.quad	.LC21
	.quad	13
	.quad	64
	.quad	.LC105
	.quad	.LC18
	.quad	0
	.quad	0
	.quad	0
	.quad	.LC45
	.quad	8
	.quad	64
	.quad	.LC106
	.quad	.LC18
	.quad	0
	.quad	0
	.quad	0
	.quad	.LC27
	.quad	27
	.quad	64
	.quad	.LC107
	.quad	.LC18
	.quad	0
	.quad	0
	.quad	0
	.quad	.LC9
	.quad	4
	.quad	64
	.quad	.LC108
	.quad	.LC18
	.quad	0
	.quad	0
	.quad	0
	.quad	.LC47
	.quad	39
	.quad	96
	.quad	.LC109
	.quad	.LC18
	.quad	0
	.quad	0
	.quad	0
	.quad	.LC22
	.quad	33
	.quad	96
	.quad	.LC110
	.quad	.LC18
	.quad	0
	.quad	0
	.quad	0
	.quad	.LC23
	.quad	10
	.quad	64
	.quad	.LC111
	.quad	.LC18
	.quad	0
	.quad	0
	.quad	0
	.quad	.LC36
	.quad	9
	.quad	64
	.quad	.LC112
	.quad	.LC18
	.quad	0
	.quad	0
	.quad	0
	.quad	.LC18
	.quad	23
	.quad	64
	.quad	.LC113
	.quad	.LC18
	.quad	0
	.quad	0
	.quad	0
	.quad	.LC3
	.quad	7
	.quad	64
	.quad	.LC114
	.quad	.LC18
	.quad	0
	.quad	0
	.quad	0
	.quad	.LC48
	.quad	9
	.quad	64
	.quad	.LC115
	.quad	.LC18
	.quad	0
	.quad	0
	.quad	0
	.quad	.LC0
	.quad	3
	.quad	64
	.quad	.LC116
	.quad	.LC18
	.quad	0
	.quad	0
	.quad	0
	.quad	.LC37
	.quad	16
	.quad	64
	.quad	.LC117
	.quad	.LC18
	.quad	0
	.quad	0
	.quad	0
	.quad	.LC7
	.quad	4
	.quad	64
	.quad	.LC118
	.quad	.LC18
	.quad	0
	.quad	0
	.quad	0
	.quad	.LC42
	.quad	34
	.quad	96
	.quad	.LC119
	.quad	.LC18
	.quad	0
	.quad	0
	.quad	0
	.quad	.LC31
	.quad	17
	.quad	64
	.quad	.LC120
	.quad	.LC18
	.quad	0
	.quad	0
	.quad	0
	.quad	.LC50
	.quad	42
	.quad	96
	.quad	.LC121
	.quad	.LC18
	.quad	0
	.quad	0
	.quad	0
	.quad	.LC44
	.quad	18
	.quad	64
	.quad	.LC122
	.quad	.LC18
	.quad	0
	.quad	0
	.quad	0
	.quad	.LC20
	.quad	36
	.quad	96
	.quad	.LC123
	.quad	.LC18
	.quad	0
	.quad	0
	.quad	0
	.quad	.LC25
	.quad	9
	.quad	64
	.quad	.LC124
	.quad	.LC18
	.quad	0
	.quad	0
	.quad	0
	.quad	.LC1
	.quad	5
	.quad	64
	.quad	.LC125
	.quad	.LC18
	.quad	0
	.quad	0
	.quad	0
	.quad	.LC33
	.quad	9
	.quad	64
	.quad	.LC126
	.quad	.LC18
	.quad	0
	.quad	0
	.quad	0
	.quad	.LC12
	.quad	5
	.quad	64
	.quad	.LC127
	.quad	.LC18
	.quad	0
	.quad	0
	.quad	0
	.quad	.LC26
	.quad	4
	.quad	64
	.quad	.LC128
	.quad	.LC18
	.quad	0
	.quad	0
	.quad	0
	.quad	.LC32
	.quad	11
	.quad	64
	.quad	.LC129
	.quad	.LC18
	.quad	0
	.quad	0
	.quad	0
	.quad	.LC17
	.quad	33
	.quad	96
	.quad	.LC130
	.quad	.LC18
	.quad	0
	.quad	0
	.quad	0
	.quad	.LC40
	.quad	22
	.quad	64
	.quad	.LC131
	.quad	.LC18
	.quad	0
	.quad	0
	.quad	0
	.quad	.LC29
	.quad	68
	.quad	128
	.quad	.LC132
	.quad	.LC18
	.quad	0
	.quad	0
	.quad	0
	.quad	.LC43
	.quad	8
	.quad	64
	.quad	.LC133
	.quad	.LC18
	.quad	0
	.quad	0
	.quad	0
	.text
	.type	_sub_D_00099_0, @function
_sub_D_00099_0:
.LFB2943:
	.cfi_startproc
	endbr64
	pushq	%rbp
	.cfi_def_cfa_offset 16
	.cfi_offset 6, -16
	movq	%rsp, %rbp
	.cfi_def_cfa_register 6
	movl	$73, %esi
	leaq	.LASAN0(%rip), %rax
	movq	%rax, %rdi
	call	__asan_unregister_globals@PLT
	popq	%rbp
	.cfi_def_cfa 7, 8
	ret
	.cfi_endproc
.LFE2943:
	.size	_sub_D_00099_0, .-_sub_D_00099_0
	.section	.fini_array.00099,"aw"
	.align 8
	.quad	_sub_D_00099_0
	.text
	.type	_sub_I_00099_1, @function
_sub_I_00099_1:
.LFB2944:
	.cfi_startproc
	endbr64
	pushq	%rbp
	.cfi_def_cfa_offset 16
	.cfi_offset 6, -16
	movq	%rsp, %rbp
	.cfi_def_cfa_register 6
	call	__asan_init@PLT
	call	__asan_version_mismatch_check_v8@PLT
	movl	$73, %esi
	leaq	.LASAN0(%rip), %rax
	movq	%rax, %rdi
	call	__asan_register_globals@PLT
	popq	%rbp
	.cfi_def_cfa 7, 8
	ret
	.cfi_endproc
.LFE2944:
	.size	_sub_I_00099_1, .-_sub_I_00099_1
	.section	.init_array.00099,"aw"
	.align 8
	.quad	_sub_I_00099_1
	.text
.Letext0:
	.file 3 "../Common/Structures/Token/Token.h"
	.file 4 "../Common/Structures/Tabels/Tabels.h"
	.file 5 "../Common/Structures/Program/Program.h"
	.file 6 "./headers/BackEndConfig.h"
	.file 7 "../Common/Structures/Tabels/NameTable.h"
	.file 8 "<built-in>"
	.file 9 "/usr/lib/gcc/x86_64-linux-gnu/11/include/stddef.h"
	.file 10 "/usr/include/x86_64-linux-gnu/bits/types/wint_t.h"
	.file 11 "/usr/include/x86_64-linux-gnu/bits/types/__mbstate_t.h"
	.file 12 "/usr/include/x86_64-linux-gnu/bits/types/mbstate_t.h"
	.file 13 "/usr/include/x86_64-linux-gnu/bits/types/__FILE.h"
	.file 14 "/usr/include/x86_64-linux-gnu/bits/types/struct_FILE.h"
	.file 15 "/usr/include/x86_64-linux-gnu/bits/types/FILE.h"
	.file 16 "/usr/include/c++/11/cwchar"
	.file 17 "/usr/include/c++/11/type_traits"
	.file 18 "/usr/include/c++/11/bits/exception_ptr.h"
	.file 19 "/usr/include/x86_64-linux-gnu/c++/11/bits/c++config.h"
	.file 20 "/usr/include/c++/11/concepts"
	.file 21 "/usr/include/c++/11/bits/iterator_concepts.h"
	.file 22 "/usr/include/c++/11/bits/ranges_cmp.h"
	.file 23 "/usr/include/c++/11/compare"
	.file 24 "/usr/include/c++/11/debug/debug.h"
	.file 25 "/usr/include/c++/11/cstdint"
	.file 26 "/usr/include/c++/11/clocale"
	.file 27 "/usr/include/c++/11/cstdlib"
	.file 28 "/usr/include/c++/11/numbers"
	.file 29 "/usr/include/c++/11/cstdio"
	.file 30 "/usr/include/c++/11/bits/ios_base.h"
	.file 31 "/usr/include/c++/11/cwctype"
	.file 32 "/usr/include/c++/11/bits/std_abs.h"
	.file 33 "/usr/include/wchar.h"
	.file 34 "/usr/include/x86_64-linux-gnu/bits/types/struct_tm.h"
	.file 35 "/usr/include/c++/11/bits/predefined_ops.h"
	.file 36 "/usr/include/c++/11/bits/ptr_traits.h"
	.file 37 "/usr/include/x86_64-linux-gnu/bits/types.h"
	.file 38 "/usr/include/x86_64-linux-gnu/bits/stdint-intn.h"
	.file 39 "/usr/include/x86_64-linux-gnu/bits/stdint-uintn.h"
	.file 40 "/usr/include/stdint.h"
	.file 41 "/usr/include/locale.h"
	.file 42 "/usr/include/stdlib.h"
	.file 43 "/usr/include/x86_64-linux-gnu/sys/types.h"
	.file 44 "/usr/include/x86_64-linux-gnu/bits/types/__fpos_t.h"
	.file 45 "/usr/include/stdio.h"
	.file 46 "/usr/include/x86_64-linux-gnu/bits/wctype-wchar.h"
	.file 47 "/usr/include/wctype.h"
	.file 48 "../ATC/Logger/LogConfig.h"
	.file 49 "../ATC/Logger/FunctionLogger.h"
	.file 50 "../ATC/RandomStuff/CommonEnums.h"
	.file 51 "../Common/Grammar.h"
	.file 52 "./headers/SuperStackConfig.h"
	.file 53 "../ATC/my_safety/my_safety.h"
	.file 54 "../ATC/SuperStack/SuperStack.h"
	.file 55 "/usr/include/c++/11/stdlib.h"
	.file 56 "../ATC/Buffer/my_buffer.h"
	.file 57 "../ATC/Utils/Utils.h"
	.file 58 "../ATC/Logger/Logger.h"
	.file 59 "/usr/include/string.h"
	.file 60 "/usr/include/c++/11/bits/algorithmfwd.h"
	.section	.data.rel.local.DW.ref.__gxx_personality_v0,"awG",@progbits,DW.ref.__gxx_personality_v0,comdat
	.align 8
	.type	DW.ref.__gxx_personality_v0, @object
	.size	DW.ref.__gxx_personality_v0, 8
DW.ref.__gxx_personality_v0:
	.quad	__gxx_personality_v0
	.hidden	__dso_handle
	.ident	"GCC: (Ubuntu 11.3.0-1ubuntu1~22.04) 11.3.0"
	.section	.note.GNU-stack,"",@progbits
	.section	.note.gnu.property,"a"
	.align 8
	.long	1f - 0f
	.long	4f - 1f
	.long	5
0:
	.string	"GNU"
1:
	.align 8
	.long	0xc0000002
	.long	3f - 2f
2:
	.long	0x3
3:
	.align 8
4:
