	.file	"Token.cpp"
	.text
.Ltext0:
	.file 0 "/home/arsenyfucker/Cprojects/Lang/Translator/BackEnd" "../Common/Structures/Token/Token.cpp"
	.bss
	.align 32
	.type	_ZStL8__ioinit, @object
	.size	_ZStL8__ioinit, 1
_ZStL8__ioinit:
	.zero	64
	.section	.rodata
	.align 32
	.type	_ZL12STD_LOG_NAME, @object
	.size	_ZL12STD_LOG_NAME, 18
_ZL12STD_LOG_NAME:
	.string	"./logs/stdlog.ars"
	.zero	46
	.align 32
	.type	_ZL6CRINGE, @object
	.size	_ZL6CRINGE, 4
_ZL6CRINGE:
	.long	3565
	.zero	60
	.globl	__asan_stack_malloc_1
	.align 8
.LC0:
	.string	"2 32 8 7 value:5 64 24 8 func_8:8"
	.align 32
.LC1:
	.string	"NewToken"
	.zero	55
	.align 32
.LC2:
	.string	"../Common/Structures/Token/Token.cpp"
	.zero	59
	.align 32
.LC3:
	.string	"%s:%d::CHECK: new_defnode is false\n"
	.zero	60
	.align 32
.LC4:
	.string	"Couldn't allocate memory for new node\n"
	.zero	57
	.align 32
.LC5:
	.string	"Returnig null ptr (%s:%d, %s)"
	.zero	34
	.text
	.globl	_Z8NewTokeni10TokenValueP5TokenS1_
	.type	_Z8NewTokeni10TokenValueP5TokenS1_, @function
_Z8NewTokeni10TokenValueP5TokenS1_:
.LASANPC2270:
.LFB2270:
	.file 1 "../Common/Structures/Token/Token.cpp"
	.loc 1 7 5
	.cfi_startproc
	.cfi_personality 0x9b,DW.ref.__gxx_personality_v0
	.cfi_lsda 0x1b,.LLSDA2270
	endbr64
	pushq	%rbp
	.cfi_def_cfa_offset 16
	.cfi_offset 6, -16
	movq	%rsp, %rbp
	.cfi_def_cfa_register 6
	pushq	%r15
	pushq	%r14
	pushq	%r13
	pushq	%r12
	pushq	%rbx
	subq	$184, %rsp
	.cfi_offset 15, -24
	.cfi_offset 14, -32
	.cfi_offset 13, -40
	.cfi_offset 12, -48
	.cfi_offset 3, -56
	movl	%edi, -196(%rbp)
	movq	%rsi, -208(%rbp)
	movq	%rdx, -216(%rbp)
	movq	%rcx, -224(%rbp)
	leaq	-176(%rbp), %rbx
	movq	%rbx, %r15
	cmpl	$0, __asan_option_detect_stack_use_after_return(%rip)
	je	.L1
	movl	$128, %edi
	call	__asan_stack_malloc_1@PLT
	testq	%rax, %rax
	je	.L1
	movq	%rax, %rbx
.L1:
	leaq	128(%rbx), %rax
	movq	%rax, %r13
	movq	$1102416563, (%rbx)
	leaq	.LC0(%rip), %rax
	movq	%rax, 8(%rbx)
	leaq	.LASANPC2270(%rip), %rax
	movq	%rax, 16(%rbx)
	movq	%rbx, %r12
	shrq	$3, %r12
	movl	$-235802127, 2147450880(%r12)
	movl	$-218959360, 2147450884(%r12)
	movl	$-218103808, 2147450888(%r12)
	movl	$-202116109, 2147450892(%r12)
	.loc 1 5 39
	movq	-208(%rbp), %rax
	movq	%rax, -96(%r13)
	.loc 1 8 47
	leaq	-64(%r13), %rax
	leaq	.LC1(%rip), %rdx
	movl	$1, %esi
	movq	%rax, %rdi
.LEHB0:
	call	_ZN14FunctionLoggerC1EiPKc@PLT
.LEHE0:
.LEHB1:
	.loc 1 10 54
	call	_ZN6Logger11getInstanceEv@PLT
	movq	%rax, %rdi
	.loc 1 10 65
	movl	$10, %r9d
	leaq	.LC1(%rip), %r8
	leaq	.LC2(%rip), %rax
	movq	%rax, %rcx
	movl	$56, %edx
	movl	$1, %esi
	call	_ZN6Logger7CAL_LOGEmmPKcS1_i@PLT
	.loc 1 10 65 is_stmt 0 discriminator 1
	movq	%rax, -184(%rbp)
	.loc 1 11 10 is_stmt 1 discriminator 1
	cmpq	$0, -184(%rbp)
	jne	.L5
	.loc 1 11 49 discriminator 1
	call	_ZN6Logger11getInstanceEv@PLT
	movq	%rax, %rdi
	.loc 1 11 55 discriminator 1
	movl	$11, %ecx
	leaq	.LC1(%rip), %rax
	movq	%rax, %rdx
	leaq	.LC3(%rip), %rax
	movq	%rax, %rsi
	movl	$0, %eax
	call	_ZN6Logger3logEPKcz@PLT
	.loc 1 11 137 discriminator 3
	call	_ZN6Logger11getInstanceEv@PLT
	movq	%rax, %rdx
	.loc 1 11 143 discriminator 3
	leaq	.LC4(%rip), %rax
	movq	%rax, %rsi
	movq	%rdx, %rdi
	movl	$0, %eax
	call	_ZN6Logger3logEPKcz@PLT
	.loc 1 11 216 discriminator 5
	call	_ZN6Logger11getInstanceEv@PLT
	movq	%rax, %rdi
	.loc 1 11 232 discriminator 5
	leaq	.LC1(%rip), %r8
	movl	$11, %ecx
	leaq	.LC2(%rip), %rax
	movq	%rax, %rdx
	leaq	.LC5(%rip), %rax
	movq	%rax, %rsi
	movl	$0, %eax
	call	_ZN6Logger13LogMsgNullRetEPKcz@PLT
.LEHE1:
	.loc 1 11 318 discriminator 7
	movl	$0, %r14d
	jmp	.L6
.L5:
	.loc 1 13 30
	movq	-184(%rbp), %rax
	movq	%rax, %rdx
	shrq	$3, %rdx
	addq	$2147450880, %rdx
	movzbl	(%rdx), %edx
	testb	%dl, %dl
	je	.L7
	movq	%rax, %rdi
	call	__asan_report_store8@PLT
.L7:
	movq	-184(%rbp), %rax
	movq	-216(%rbp), %rdx
	movq	%rdx, (%rax)
	.loc 1 14 30
	movq	-184(%rbp), %rax
	addq	$8, %rax
	movq	%rax, %rdx
	shrq	$3, %rdx
	addq	$2147450880, %rdx
	movzbl	(%rdx), %edx
	testb	%dl, %dl
	je	.L8
	movq	%rax, %rdi
	call	__asan_report_store8@PLT
.L8:
	movq	-184(%rbp), %rax
	movq	-224(%rbp), %rdx
	movq	%rdx, 8(%rax)
	.loc 1 16 23
	movq	-184(%rbp), %rax
	addq	$16, %rax
	movq	%rax, %rdx
	movq	%rdx, %rax
	shrq	$3, %rax
	addq	$2147450880, %rax
	movzbl	(%rax), %eax
	testb	%al, %al
	setne	%cl
	cmpb	$3, %al
	setle	%al
	andl	%ecx, %eax
	testb	%al, %al
	je	.L9
	movq	%rdx, %rdi
	call	__asan_report_store4@PLT
.L9:
	movq	-184(%rbp), %rax
	movl	-196(%rbp), %edx
	movl	%edx, 16(%rax)
	.loc 1 17 24
	movq	-184(%rbp), %rax
	addq	$24, %rax
	movq	%rax, %rdx
	shrq	$3, %rdx
	addq	$2147450880, %rdx
	movzbl	(%rdx), %edx
	testb	%dl, %dl
	je	.L10
	movq	%rax, %rdi
	call	__asan_report_store8@PLT
.L10:
	movq	-184(%rbp), %rax
	movq	-96(%r13), %rdx
	movq	%rdx, 24(%rax)
	.loc 1 19 12
	movq	-184(%rbp), %r14
.L6:
	.loc 1 20 5
	leaq	-64(%r13), %rax
	movq	%rax, %rdi
	call	_ZN14FunctionLoggerD1Ev@PLT
	movq	%r14, %rdx
	.loc 1 7 5
	cmpq	%rbx, %r15
	je	.L2
	jmp	.L14
.L13:
	endbr64
	.loc 1 20 5
	movq	%rax, %rbx
	leaq	-64(%r13), %rax
	movq	%rax, %rdi
	call	_ZN14FunctionLoggerD1Ev@PLT
	call	__asan_handle_no_return@PLT
	movq	%rbx, %rdi
.LEHB2:
	call	_Unwind_Resume@PLT
.LEHE2:
.L14:
	.loc 1 7 5
	movq	$1172321806, (%rbx)
	movabsq	$-723401728380766731, %rsi
	movabsq	$-723401728380766731, %rdi
	movq	%rsi, 2147450880(%r12)
	movq	%rdi, 2147450888(%r12)
	movq	120(%rbx), %rax
	movb	$0, (%rax)
	jmp	.L3
.L2:
	movq	$0, 2147450880(%r12)
	movq	$0, 2147450888(%r12)
.L3:
	.loc 1 20 5
	movq	%rdx, %rax
	addq	$184, %rsp
	popq	%rbx
	popq	%r12
	popq	%r13
	popq	%r14
	popq	%r15
	popq	%rbp
	.cfi_def_cfa 7, 8
	ret
	.cfi_endproc
.LFE2270:
	.globl	__gxx_personality_v0
	.section	.gcc_except_table,"a",@progbits
.LLSDA2270:
	.byte	0xff
	.byte	0xff
	.byte	0x1
	.uleb128 .LLSDACSE2270-.LLSDACSB2270
.LLSDACSB2270:
	.uleb128 .LEHB0-.LFB2270
	.uleb128 .LEHE0-.LEHB0
	.uleb128 0
	.uleb128 0
	.uleb128 .LEHB1-.LFB2270
	.uleb128 .LEHE1-.LEHB1
	.uleb128 .L13-.LFB2270
	.uleb128 0
	.uleb128 .LEHB2-.LFB2270
	.uleb128 .LEHE2-.LEHB2
	.uleb128 0
	.uleb128 0
.LLSDACSE2270:
	.text
	.size	_Z8NewTokeni10TokenValueP5TokenS1_, .-_Z8NewTokeni10TokenValueP5TokenS1_
	.section	.rodata
.LC6:
	.string	"1 32 24 10 func_24:24"
	.align 32
.LC7:
	.string	"DeleteBranch"
	.zero	51
	.align 32
.LC8:
	.string	"%s:%d::CHECK: DeleteBranch (def_node->left_child) == SUCCESS is false\n"
	.zero	57
	.align 32
.LC9:
	.string	"Failed (%s:%d, %s:%d)"
	.zero	42
	.align 32
.LC10:
	.string	"%s:%d::CHECK: DeleteBranch (def_node->right_child) == SUCCESS is false\n"
	.zero	56
	.text
	.globl	_Z12DeleteBranchP5Token
	.type	_Z12DeleteBranchP5Token, @function
_Z12DeleteBranchP5Token:
.LASANPC2271:
.LFB2271:
	.loc 1 23 5
	.cfi_startproc
	.cfi_personality 0x9b,DW.ref.__gxx_personality_v0
	.cfi_lsda 0x1b,.LLSDA2271
	endbr64
	pushq	%rbp
	.cfi_def_cfa_offset 16
	.cfi_offset 6, -16
	movq	%rsp, %rbp
	.cfi_def_cfa_register 6
	pushq	%r15
	pushq	%r14
	pushq	%r13
	pushq	%r12
	pushq	%rbx
	subq	$120, %rsp
	.cfi_offset 15, -24
	.cfi_offset 14, -32
	.cfi_offset 13, -40
	.cfi_offset 12, -48
	.cfi_offset 3, -56
	movq	%rdi, -152(%rbp)
	leaq	-144(%rbp), %rbx
	movq	%rbx, %r15
	cmpl	$0, __asan_option_detect_stack_use_after_return(%rip)
	je	.L15
	movl	$96, %edi
	call	__asan_stack_malloc_1@PLT
	testq	%rax, %rax
	je	.L15
	movq	%rax, %rbx
.L15:
	leaq	96(%rbx), %rax
	movq	%rax, %r14
	movq	$1102416563, (%rbx)
	leaq	.LC6(%rip), %rax
	movq	%rax, 8(%rbx)
	leaq	.LASANPC2271(%rip), %rax
	movq	%rax, 16(%rbx)
	movq	%rbx, %r12
	shrq	$3, %r12
	movl	$-235802127, 2147450880(%r12)
	movl	$-218103808, 2147450884(%r12)
	movl	$-202116109, 2147450888(%r12)
	.loc 1 24 48
	leaq	-64(%r14), %rax
	leaq	.LC7(%rip), %rdx
	movl	$1, %esi
	movq	%rax, %rdi
.LEHB3:
	call	_ZN14FunctionLoggerC1EiPKc@PLT
.LEHE3:
	.loc 1 26 5
	cmpq	$0, -152(%rbp)
	jne	.L19
	.loc 1 26 27 discriminator 1
	movl	$0, %r13d
	jmp	.L20
.L19:
	.loc 1 28 19
	movq	-152(%rbp), %rax
	movq	%rax, %rdx
	shrq	$3, %rdx
	addq	$2147450880, %rdx
	movzbl	(%rdx), %edx
	testb	%dl, %dl
	je	.L21
	movq	%rax, %rdi
	call	__asan_report_load8@PLT
.L21:
	movq	-152(%rbp), %rax
	movq	(%rax), %rax
	.loc 1 28 5
	testq	%rax, %rax
	je	.L22
	.loc 1 29 32
	movq	-152(%rbp), %rax
	movq	(%rax), %rax
	movq	%rax, %rdi
.LEHB4:
	call	_Z12DeleteBranchP5Token
	.loc 1 29 55
	testl	%eax, %eax
	setne	%al
	.loc 1 29 14
	testb	%al, %al
	je	.L22
	.loc 1 29 88 discriminator 2
	call	_ZN6Logger11getInstanceEv@PLT
	movq	%rax, %rdi
	.loc 1 29 94 discriminator 2
	movl	$29, %ecx
	leaq	.LC7(%rip), %rax
	movq	%rax, %rdx
	leaq	.LC8(%rip), %rax
	movq	%rax, %rsi
	movl	$0, %eax
	call	_ZN6Logger3logEPKcz@PLT
	.loc 1 29 218 discriminator 4
	call	_ZN6Logger11getInstanceEv@PLT
	.loc 1 29 240 discriminator 4
	call	_ZN6Logger11getInstanceEv@PLT
	.loc 1 29 240 is_stmt 0 discriminator 5
	movq	%rax, %rdi
	.loc 1 29 253 is_stmt 1 discriminator 5
	subq	$8, %rsp
	pushq	$29
	leaq	.LC7(%rip), %r9
	movl	$29, %r8d
	leaq	.LC2(%rip), %rax
	movq	%rax, %rcx
	leaq	.LC9(%rip), %rax
	movq	%rax, %rdx
	movl	$-1, %esi
	movl	$0, %eax
	.cfi_escape 0x2e,0x10
	call	_ZN6Logger9LogMsgRetEiPKcz@PLT
	.loc 1 29 253 is_stmt 0 discriminator 6
	addq	$16, %rsp
	movl	%eax, %r13d
	.loc 1 29 345 is_stmt 1 discriminator 6
	jmp	.L20
.L22:
	.loc 1 31 19
	movq	-152(%rbp), %rax
	addq	$8, %rax
	movq	%rax, %rdx
	shrq	$3, %rdx
	addq	$2147450880, %rdx
	movzbl	(%rdx), %edx
	testb	%dl, %dl
	je	.L23
	movq	%rax, %rdi
	call	__asan_report_load8@PLT
.L23:
	movq	-152(%rbp), %rax
	movq	8(%rax), %rax
	.loc 1 31 5
	testq	%rax, %rax
	je	.L24
	.loc 1 32 32
	movq	-152(%rbp), %rax
	movq	8(%rax), %rax
	movq	%rax, %rdi
	.cfi_escape 0x2e,0
	call	_Z12DeleteBranchP5Token
	.loc 1 32 56
	testl	%eax, %eax
	setne	%al
	.loc 1 32 14
	testb	%al, %al
	je	.L24
	.loc 1 32 89 discriminator 2
	call	_ZN6Logger11getInstanceEv@PLT
	movq	%rax, %rdi
	.loc 1 32 95 discriminator 2
	movl	$32, %ecx
	leaq	.LC7(%rip), %rax
	movq	%rax, %rdx
	leaq	.LC10(%rip), %rax
	movq	%rax, %rsi
	movl	$0, %eax
	call	_ZN6Logger3logEPKcz@PLT
	.loc 1 32 220 discriminator 4
	call	_ZN6Logger11getInstanceEv@PLT
	.loc 1 32 242 discriminator 4
	call	_ZN6Logger11getInstanceEv@PLT
	.loc 1 32 242 is_stmt 0 discriminator 5
	movq	%rax, %rdi
	.loc 1 32 255 is_stmt 1 discriminator 5
	subq	$8, %rsp
	pushq	$32
	leaq	.LC7(%rip), %r9
	movl	$32, %r8d
	leaq	.LC2(%rip), %rax
	movq	%rax, %rcx
	leaq	.LC9(%rip), %rax
	movq	%rax, %rdx
	movl	$-1, %esi
	movl	$0, %eax
	.cfi_escape 0x2e,0x10
	call	_ZN6Logger9LogMsgRetEiPKcz@PLT
	.loc 1 32 255 is_stmt 0 discriminator 6
	addq	$16, %rsp
	movl	%eax, %r13d
	.loc 1 32 347 is_stmt 1 discriminator 6
	jmp	.L20
.L24:
	.cfi_escape 0x2e,0
	.loc 1 34 24
	call	_ZN6Logger11getInstanceEv@PLT
	movq	%rax, %rdi
	.loc 1 34 36
	movq	-152(%rbp), %rax
	movl	$34, %r8d
	leaq	.LC7(%rip), %rdx
	movq	%rdx, %rcx
	leaq	.LC2(%rip), %rdx
	movq	%rax, %rsi
	call	_ZN6Logger8FREE_LOGEPvPKcS2_i@PLT
.LEHE4:
	.loc 1 36 12
	movl	$0, %r13d
.L20:
	.loc 1 37 5
	leaq	-64(%r14), %rax
	movq	%rax, %rdi
	call	_ZN14FunctionLoggerD1Ev@PLT
	movl	%r13d, %edx
	.loc 1 23 5
	cmpq	%rbx, %r15
	je	.L16
	jmp	.L28
.L27:
	endbr64
	.loc 1 37 5
	movq	%rax, %rbx
	leaq	-64(%r14), %rax
	movq	%rax, %rdi
	call	_ZN14FunctionLoggerD1Ev@PLT
	call	__asan_handle_no_return@PLT
	movq	%rbx, %rdi
.LEHB5:
	call	_Unwind_Resume@PLT
.LEHE5:
.L28:
	.loc 1 23 5
	movq	$1172321806, (%rbx)
	movabsq	$-723401728380766731, %rax
	movq	%rax, 2147450880(%r12)
	movl	$-168430091, 2147450888(%r12)
	movq	120(%rbx), %rax
	movb	$0, (%rax)
	jmp	.L17
.L16:
	movq	$0, 2147450880(%r12)
	movl	$0, 2147450888(%r12)
.L17:
	.loc 1 37 5
	movl	%edx, %eax
	leaq	-40(%rbp), %rsp
	popq	%rbx
	popq	%r12
	popq	%r13
	popq	%r14
	popq	%r15
	popq	%rbp
	.cfi_def_cfa 7, 8
	ret
	.cfi_endproc
.LFE2271:
	.section	.gcc_except_table
.LLSDA2271:
	.byte	0xff
	.byte	0xff
	.byte	0x1
	.uleb128 .LLSDACSE2271-.LLSDACSB2271
.LLSDACSB2271:
	.uleb128 .LEHB3-.LFB2271
	.uleb128 .LEHE3-.LEHB3
	.uleb128 0
	.uleb128 0
	.uleb128 .LEHB4-.LFB2271
	.uleb128 .LEHE4-.LEHB4
	.uleb128 .L27-.LFB2271
	.uleb128 0
	.uleb128 .LEHB5-.LFB2271
	.uleb128 .LEHE5-.LEHB5
	.uleb128 0
	.uleb128 0
.LLSDACSE2271:
	.text
	.size	_Z12DeleteBranchP5Token, .-_Z12DeleteBranchP5Token
	.type	_Z41__static_initialization_and_destruction_0ii, @function
_Z41__static_initialization_and_destruction_0ii:
.LASANPC2938:
.LFB2938:
	.loc 1 37 5
	.cfi_startproc
	endbr64
	pushq	%rbp
	.cfi_def_cfa_offset 16
	.cfi_offset 6, -16
	movq	%rsp, %rbp
	.cfi_def_cfa_register 6
	subq	$16, %rsp
	movl	%edi, -4(%rbp)
	movl	%esi, -8(%rbp)
	.loc 1 37 5
	cmpl	$1, -4(%rbp)
	jne	.L32
	.loc 1 37 5 is_stmt 0 discriminator 1
	leaq	.LC2(%rip), %rax
	movq	%rax, %rdi
	call	__asan_before_dynamic_init@PLT
	cmpl	$65535, -8(%rbp)
	jne	.L31
	.file 2 "/usr/include/c++/11/iostream"
	.loc 2 74 25 is_stmt 1
	leaq	_ZStL8__ioinit(%rip), %rax
	movq	%rax, %rdi
	call	_ZNSt8ios_base4InitC1Ev@PLT
	leaq	__dso_handle(%rip), %rax
	movq	%rax, %rdx
	leaq	_ZStL8__ioinit(%rip), %rax
	movq	%rax, %rsi
	movq	_ZNSt8ios_base4InitD1Ev@GOTPCREL(%rip), %rax
	movq	%rax, %rdi
	call	__cxa_atexit@PLT
.L31:
	.loc 2 74 25 is_stmt 0 discriminator 1
	call	__asan_after_dynamic_init@PLT
.L32:
	.loc 1 37 5 is_stmt 1
	nop
	leave
	.cfi_def_cfa 7, 8
	ret
	.cfi_endproc
.LFE2938:
	.size	_Z41__static_initialization_and_destruction_0ii, .-_Z41__static_initialization_and_destruction_0ii
	.type	_GLOBAL__sub_I__Z8NewTokeni10TokenValueP5TokenS1_, @function
_GLOBAL__sub_I__Z8NewTokeni10TokenValueP5TokenS1_:
.LASANPC2939:
.LFB2939:
	.loc 1 37 5
	.cfi_startproc
	endbr64
	pushq	%rbp
	.cfi_def_cfa_offset 16
	.cfi_offset 6, -16
	movq	%rsp, %rbp
	.cfi_def_cfa_register 6
	.loc 1 37 5
	movl	$65535, %esi
	movl	$1, %edi
	call	_Z41__static_initialization_and_destruction_0ii
	popq	%rbp
	.cfi_def_cfa 7, 8
	ret
	.cfi_endproc
.LFE2939:
	.size	_GLOBAL__sub_I__Z8NewTokeni10TokenValueP5TokenS1_, .-_GLOBAL__sub_I__Z8NewTokeni10TokenValueP5TokenS1_
	.section	.init_array,"aw"
	.align 8
	.quad	_GLOBAL__sub_I__Z8NewTokeni10TokenValueP5TokenS1_
	.section	.rodata
	.align 8
.LC11:
	.string	"../ATC/RandomStuff/CommonEnums.h"
	.section	.data.rel.local,"aw"
	.align 16
	.type	.LASANLOC1, @object
	.size	.LASANLOC1, 16
.LASANLOC1:
	.quad	.LC11
	.long	3
	.long	11
	.section	.rodata
.LC12:
	.string	"../ATC/Logger/LogConfig.h"
	.section	.data.rel.local
	.align 16
	.type	.LASANLOC2, @object
	.size	.LASANLOC2, 16
.LASANLOC2:
	.quad	.LC12
	.long	3
	.long	12
	.section	.rodata
.LC13:
	.string	"/usr/include/c++/11/iostream"
	.section	.data.rel.local
	.align 16
	.type	.LASANLOC3, @object
	.size	.LASANLOC3, 16
.LASANLOC3:
	.quad	.LC13
	.long	74
	.long	25
	.section	.rodata
.LC14:
	.string	"CRINGE"
.LC15:
	.string	"STD_LOG_NAME"
.LC16:
	.string	"__ioinit"
.LC17:
	.string	"*.LC10"
.LC18:
	.string	"*.LC7"
.LC19:
	.string	"*.LC9"
.LC20:
	.string	"*.LC8"
.LC21:
	.string	"*.LC1"
.LC22:
	.string	"*.LC2"
.LC23:
	.string	"*.LC5"
.LC24:
	.string	"*.LC4"
.LC25:
	.string	"*.LC3"
	.section	.data.rel.local
	.align 32
	.type	.LASAN0, @object
	.size	.LASAN0, 768
.LASAN0:
	.quad	_ZL6CRINGE
	.quad	4
	.quad	64
	.quad	.LC14
	.quad	.LC2
	.quad	0
	.quad	.LASANLOC1
	.quad	0
	.quad	_ZL12STD_LOG_NAME
	.quad	18
	.quad	64
	.quad	.LC15
	.quad	.LC2
	.quad	0
	.quad	.LASANLOC2
	.quad	0
	.quad	_ZStL8__ioinit
	.quad	1
	.quad	64
	.quad	.LC16
	.quad	.LC2
	.quad	1
	.quad	.LASANLOC3
	.quad	0
	.quad	.LC10
	.quad	72
	.quad	128
	.quad	.LC17
	.quad	.LC2
	.quad	0
	.quad	0
	.quad	0
	.quad	.LC7
	.quad	13
	.quad	64
	.quad	.LC18
	.quad	.LC2
	.quad	0
	.quad	0
	.quad	0
	.quad	.LC9
	.quad	22
	.quad	64
	.quad	.LC19
	.quad	.LC2
	.quad	0
	.quad	0
	.quad	0
	.quad	.LC8
	.quad	71
	.quad	128
	.quad	.LC20
	.quad	.LC2
	.quad	0
	.quad	0
	.quad	0
	.quad	.LC1
	.quad	9
	.quad	64
	.quad	.LC21
	.quad	.LC2
	.quad	0
	.quad	0
	.quad	0
	.quad	.LC2
	.quad	37
	.quad	96
	.quad	.LC22
	.quad	.LC2
	.quad	0
	.quad	0
	.quad	0
	.quad	.LC5
	.quad	30
	.quad	64
	.quad	.LC23
	.quad	.LC2
	.quad	0
	.quad	0
	.quad	0
	.quad	.LC4
	.quad	39
	.quad	96
	.quad	.LC24
	.quad	.LC2
	.quad	0
	.quad	0
	.quad	0
	.quad	.LC3
	.quad	36
	.quad	96
	.quad	.LC25
	.quad	.LC2
	.quad	0
	.quad	0
	.quad	0
	.text
	.type	_sub_D_00099_0, @function
_sub_D_00099_0:
.LFB2940:
	.cfi_startproc
	endbr64
	pushq	%rbp
	.cfi_def_cfa_offset 16
	.cfi_offset 6, -16
	movq	%rsp, %rbp
	.cfi_def_cfa_register 6
	movl	$12, %esi
	leaq	.LASAN0(%rip), %rax
	movq	%rax, %rdi
	call	__asan_unregister_globals@PLT
	popq	%rbp
	.cfi_def_cfa 7, 8
	ret
	.cfi_endproc
.LFE2940:
	.size	_sub_D_00099_0, .-_sub_D_00099_0
	.section	.fini_array.00099,"aw"
	.align 8
	.quad	_sub_D_00099_0
	.text
	.type	_sub_I_00099_1, @function
_sub_I_00099_1:
.LFB2941:
	.cfi_startproc
	endbr64
	pushq	%rbp
	.cfi_def_cfa_offset 16
	.cfi_offset 6, -16
	movq	%rsp, %rbp
	.cfi_def_cfa_register 6
	call	__asan_init@PLT
	call	__asan_version_mismatch_check_v8@PLT
	movl	$12, %esi
	leaq	.LASAN0(%rip), %rax
	movq	%rax, %rdi
	call	__asan_register_globals@PLT
	popq	%rbp
	.cfi_def_cfa 7, 8
	ret
	.cfi_endproc
.LFE2941:
	.size	_sub_I_00099_1, .-_sub_I_00099_1
	.section	.init_array.00099,"aw"
	.align 8
	.quad	_sub_I_00099_1
	.text
.Letext0:
	.file 3 "../Common/Structures/Tabels/NameTable.h"
	.file 4 "../Common/Structures/Token/Token.h"
	.file 5 "<built-in>"
	.file 6 "/usr/lib/gcc/x86_64-linux-gnu/11/include/stddef.h"
	.file 7 "/usr/include/x86_64-linux-gnu/bits/types/wint_t.h"
	.file 8 "/usr/include/x86_64-linux-gnu/bits/types/__mbstate_t.h"
	.file 9 "/usr/include/x86_64-linux-gnu/bits/types/mbstate_t.h"
	.file 10 "/usr/include/x86_64-linux-gnu/bits/types/__FILE.h"
	.file 11 "/usr/include/x86_64-linux-gnu/bits/types/struct_FILE.h"
	.file 12 "/usr/include/x86_64-linux-gnu/bits/types/FILE.h"
	.file 13 "/usr/include/c++/11/cwchar"
	.file 14 "/usr/include/c++/11/type_traits"
	.file 15 "/usr/include/c++/11/bits/exception_ptr.h"
	.file 16 "/usr/include/x86_64-linux-gnu/c++/11/bits/c++config.h"
	.file 17 "/usr/include/c++/11/concepts"
	.file 18 "/usr/include/c++/11/bits/iterator_concepts.h"
	.file 19 "/usr/include/c++/11/bits/ranges_cmp.h"
	.file 20 "/usr/include/c++/11/compare"
	.file 21 "/usr/include/c++/11/debug/debug.h"
	.file 22 "/usr/include/c++/11/cstdint"
	.file 23 "/usr/include/c++/11/clocale"
	.file 24 "/usr/include/c++/11/cstdlib"
	.file 25 "/usr/include/c++/11/numbers"
	.file 26 "/usr/include/c++/11/cstdio"
	.file 27 "/usr/include/c++/11/bits/ios_base.h"
	.file 28 "/usr/include/c++/11/cwctype"
	.file 29 "/usr/include/wchar.h"
	.file 30 "/usr/include/x86_64-linux-gnu/bits/types/struct_tm.h"
	.file 31 "/usr/include/c++/11/bits/predefined_ops.h"
	.file 32 "/usr/include/c++/11/bits/ptr_traits.h"
	.file 33 "/usr/include/x86_64-linux-gnu/bits/types.h"
	.file 34 "/usr/include/x86_64-linux-gnu/bits/stdint-intn.h"
	.file 35 "/usr/include/x86_64-linux-gnu/bits/stdint-uintn.h"
	.file 36 "/usr/include/stdint.h"
	.file 37 "/usr/include/locale.h"
	.file 38 "/usr/include/stdlib.h"
	.file 39 "/usr/include/x86_64-linux-gnu/bits/types/__fpos_t.h"
	.file 40 "/usr/include/stdio.h"
	.file 41 "/usr/include/x86_64-linux-gnu/bits/wctype-wchar.h"
	.file 42 "/usr/include/wctype.h"
	.file 43 "../ATC/Logger/LogConfig.h"
	.file 44 "../ATC/Logger/FunctionLogger.h"
	.file 45 "../ATC/RandomStuff/CommonEnums.h"
	.file 46 "../ATC/Logger/Logger.h"
	.file 47 "/usr/include/c++/11/bits/algorithmfwd.h"
	.section	.data.rel.local.DW.ref.__gxx_personality_v0,"awG",@progbits,DW.ref.__gxx_personality_v0,comdat
	.align 8
	.type	DW.ref.__gxx_personality_v0, @object
	.size	DW.ref.__gxx_personality_v0, 8
DW.ref.__gxx_personality_v0:
	.quad	__gxx_personality_v0
	.hidden	__dso_handle
	.ident	"GCC: (Ubuntu 11.3.0-1ubuntu1~22.04) 11.3.0"
	.section	.note.GNU-stack,"",@progbits
	.section	.note.gnu.property,"a"
	.align 8
	.long	1f - 0f
	.long	4f - 1f
	.long	5
0:
	.string	"GNU"
1:
	.align 8
	.long	0xc0000002
	.long	3f - 2f
2:
	.long	0x3
3:
	.align 8
4:
