	.file	"TranslateToAsm.cpp"
	.text
.Ltext0:
	.file 0 "/home/arsenyfucker/Cprojects/Lang/Translator/BackEnd" "./src/TranslateToAsm.cpp"
	.section	.rodata
	.align 32
	.type	_ZL12NOT_DECLARED, @object
	.size	_ZL12NOT_DECLARED, 4
_ZL12NOT_DECLARED:
	.long	-111
	.zero	60
	.align 32
	.type	_ZL11NOT_A_LABEL, @object
	.size	_ZL11NOT_A_LABEL, 4
_ZL11NOT_A_LABEL:
	.long	-9
	.zero	60
	.bss
	.align 32
	.type	_ZStL8__ioinit, @object
	.size	_ZStL8__ioinit, 1
_ZStL8__ioinit:
	.zero	64
	.section	.rodata
	.align 32
	.type	_ZL12STD_LOG_NAME, @object
	.size	_ZL12STD_LOG_NAME, 18
_ZL12STD_LOG_NAME:
	.string	"./logs/stdlog.ars"
	.zero	46
	.align 32
	.type	_ZL6CRINGE, @object
	.size	_ZL6CRINGE, 4
_ZL6CRINGE:
	.long	3565
	.zero	60
	.align 32
.LC0:
	.string	"if"
	.zero	61
	.align 32
.LC1:
	.string	"else"
	.zero	59
	.align 32
.LC2:
	.string	"while"
	.zero	58
	.align 32
.LC3:
	.string	"return"
	.zero	57
	.section	.data.rel.ro.local,"aw"
	.align 32
	.type	_ZL12INSTRUCTIONS, @object
	.size	_ZL12INSTRUCTIONS, 32
_ZL12INSTRUCTIONS:
	.quad	.LC0
	.quad	.LC1
	.quad	.LC2
	.quad	.LC3
	.zero	32
	.section	.rodata
	.align 32
.LC4:
	.string	"fout"
	.zero	59
	.align 32
.LC5:
	.string	"fin"
	.zero	60
	.align 32
.LC6:
	.string	"sin"
	.zero	60
	.align 32
.LC7:
	.string	"cos"
	.zero	60
	.section	.data.rel.ro.local
	.align 32
	.type	_ZL16NATIVE_FUNCTIONS, @object
	.size	_ZL16NATIVE_FUNCTIONS, 32
_ZL16NATIVE_FUNCTIONS:
	.quad	.LC4
	.quad	.LC5
	.quad	.LC6
	.quad	.LC7
	.zero	32
	.section	.rodata
	.align 32
.LC8:
	.string	"extern"
	.zero	57
	.align 32
.LC9:
	.string	"var"
	.zero	60
	.section	.data.rel.ro.local
	.align 32
	.type	_ZL14INITIALIZATORS, @object
	.size	_ZL14INITIALIZATORS, 16
_ZL14INITIALIZATORS:
	.quad	.LC8
	.quad	.LC9
	.zero	48
	.section	.rodata
	.align 32
.LC10:
	.string	"double"
	.zero	57
	.align 32
.LC11:
	.string	"void"
	.zero	59
	.section	.data.rel.ro.local
	.align 32
	.type	_ZL18FUNCTION_RET_TYPES, @object
	.size	_ZL18FUNCTION_RET_TYPES, 16
_ZL18FUNCTION_RET_TYPES:
	.quad	.LC10
	.quad	.LC11
	.zero	48
	.section	.rodata
	.align 32
	.type	_ZL9OPERATORS, @object
	.size	_ZL9OPERATORS, 8
_ZL9OPERATORS:
	.string	"+-/*^<<"
	.zero	56
	.align 32
	.type	_ZL7COMMENT, @object
	.size	_ZL7COMMENT, 1
_ZL7COMMENT:
	.byte	35
	.zero	63
	.align 32
.LC12:
	.string	"main"
	.zero	59
	.section	.data.rel.ro.local
	.align 32
	.type	_ZL9MAIN_NAME, @object
	.size	_ZL9MAIN_NAME, 8
_ZL9MAIN_NAME:
	.quad	.LC12
	.zero	56
	.section	.rodata
	.align 32
	.type	_ZL24MAX_FUNCTION_NAME_LENGTH, @object
	.size	_ZL24MAX_FUNCTION_NAME_LENGTH, 4
_ZL24MAX_FUNCTION_NAME_LENGTH:
	.long	16
	.zero	60
	.align 32
	.type	_ZL15MAX_WORD_LENGTH, @object
	.size	_ZL15MAX_WORD_LENGTH, 4
_ZL15MAX_WORD_LENGTH:
	.long	16
	.zero	60
	.align 32
	.type	_ZL13_CANARY_SIZE_, @object
	.size	_ZL13_CANARY_SIZE_, 4
_ZL13_CANARY_SIZE_:
	.long	8
	.zero	60
	.align 32
	.type	_ZL16_OPENING_CANARY_, @object
	.size	_ZL16_OPENING_CANARY_, 4
_ZL16_OPENING_CANARY_:
	.long	11259375
	.zero	60
	.align 32
	.type	_ZL16_CLOSING_CANARY_, @object
	.size	_ZL16_CLOSING_CANARY_, 4
_ZL16_CLOSING_CANARY_:
	.long	16702650
	.zero	60
	.align 32
	.type	_ZL19_HEAP_MIN_CAPACITY_, @object
	.size	_ZL19_HEAP_MIN_CAPACITY_, 8
_ZL19_HEAP_MIN_CAPACITY_:
	.quad	10
	.zero	56
	.align 32
	.type	_ZL16_ELEMENT_T_SIZE_, @object
	.size	_ZL16_ELEMENT_T_SIZE_, 8
_ZL16_ELEMENT_T_SIZE_:
	.quad	8
	.zero	56
	.align 32
	.type	_ZL11INDENT_SIZE, @object
	.size	_ZL11INDENT_SIZE, 4
_ZL11INDENT_SIZE:
	.long	2
	.zero	60
.LC13:
	.string	"./src/TranslateToAsm.cpp"
	.text
	.type	_Z41__static_initialization_and_destruction_0ii, @function
_Z41__static_initialization_and_destruction_0ii:
.LASANPC3648:
.LFB3648:
	.file 1 "../ATC/RandomStuff/SomeStuff.h"
	.loc 1 8 47
	.cfi_startproc
	endbr64
	pushq	%rbp
	.cfi_def_cfa_offset 16
	.cfi_offset 6, -16
	movq	%rsp, %rbp
	.cfi_def_cfa_register 6
	subq	$16, %rsp
	movl	%edi, -4(%rbp)
	movl	%esi, -8(%rbp)
	.loc 1 8 47
	cmpl	$1, -4(%rbp)
	jne	.L4
	.loc 1 8 47 is_stmt 0 discriminator 1
	leaq	.LC13(%rip), %rax
	movq	%rax, %rdi
	call	__asan_before_dynamic_init@PLT
	cmpl	$65535, -8(%rbp)
	jne	.L3
	.file 2 "/usr/include/c++/11/iostream"
	.loc 2 74 25 is_stmt 1
	leaq	_ZStL8__ioinit(%rip), %rax
	movq	%rax, %rdi
	call	_ZNSt8ios_base4InitC1Ev@PLT
	leaq	__dso_handle(%rip), %rax
	movq	%rax, %rdx
	leaq	_ZStL8__ioinit(%rip), %rax
	movq	%rax, %rsi
	movq	_ZNSt8ios_base4InitD1Ev@GOTPCREL(%rip), %rax
	movq	%rax, %rdi
	call	__cxa_atexit@PLT
.L3:
	.loc 2 74 25 is_stmt 0 discriminator 1
	call	__asan_after_dynamic_init@PLT
.L4:
	.loc 1 8 47 is_stmt 1
	nop
	leave
	.cfi_def_cfa 7, 8
	ret
	.cfi_endproc
.LFE3648:
	.size	_Z41__static_initialization_and_destruction_0ii, .-_Z41__static_initialization_and_destruction_0ii
	.type	_GLOBAL__sub_I_TranslateToAsm.cpp, @function
_GLOBAL__sub_I_TranslateToAsm.cpp:
.LASANPC3649:
.LFB3649:
	.loc 1 8 47
	.cfi_startproc
	endbr64
	pushq	%rbp
	.cfi_def_cfa_offset 16
	.cfi_offset 6, -16
	movq	%rsp, %rbp
	.cfi_def_cfa_register 6
	.loc 1 8 47
	movl	$65535, %esi
	movl	$1, %edi
	call	_Z41__static_initialization_and_destruction_0ii
	popq	%rbp
	.cfi_def_cfa 7, 8
	ret
	.cfi_endproc
.LFE3649:
	.size	_GLOBAL__sub_I_TranslateToAsm.cpp, .-_GLOBAL__sub_I_TranslateToAsm.cpp
	.section	.init_array,"aw"
	.align 8
	.quad	_GLOBAL__sub_I_TranslateToAsm.cpp
	.section	.rodata
.LC14:
	.string	"../ATC/Buffer/my_buffer.h"
	.section	.data.rel.local,"aw"
	.align 16
	.type	.LASANLOC1, @object
	.size	.LASANLOC1, 16
.LASANLOC1:
	.quad	.LC14
	.long	32
	.long	11
	.section	.rodata
	.align 8
.LC15:
	.string	"../ATC/SuperStack/SuperStack.h"
	.section	.data.rel.local
	.align 16
	.type	.LASANLOC2, @object
	.size	.LASANLOC2, 16
.LASANLOC2:
	.quad	.LC15
	.long	22
	.long	14
	.align 16
	.type	.LASANLOC3, @object
	.size	.LASANLOC3, 16
.LASANLOC3:
	.quad	.LC15
	.long	21
	.long	14
	.section	.rodata
.LC16:
	.string	"../ATC/my_safety/my_safety.h"
	.section	.data.rel.local
	.align 16
	.type	.LASANLOC4, @object
	.size	.LASANLOC4, 16
.LASANLOC4:
	.quad	.LC16
	.long	12
	.long	11
	.align 16
	.type	.LASANLOC5, @object
	.size	.LASANLOC5, 16
.LASANLOC5:
	.quad	.LC16
	.long	11
	.long	11
	.align 16
	.type	.LASANLOC6, @object
	.size	.LASANLOC6, 16
.LASANLOC6:
	.quad	.LC16
	.long	9
	.long	11
	.section	.rodata
.LC17:
	.string	"../Common/Grammar.h"
	.section	.data.rel.local
	.align 16
	.type	.LASANLOC7, @object
	.size	.LASANLOC7, 16
.LASANLOC7:
	.quad	.LC17
	.long	42
	.long	11
	.align 16
	.type	.LASANLOC8, @object
	.size	.LASANLOC8, 16
.LASANLOC8:
	.quad	.LC17
	.long	41
	.long	11
	.align 16
	.type	.LASANLOC9, @object
	.size	.LASANLOC9, 16
.LASANLOC9:
	.quad	.LC17
	.long	39
	.long	19
	.align 16
	.type	.LASANLOC10, @object
	.size	.LASANLOC10, 16
.LASANLOC10:
	.quad	.LC17
	.long	37
	.long	12
	.align 16
	.type	.LASANLOC11, @object
	.size	.LASANLOC11, 16
.LASANLOC11:
	.quad	.LC17
	.long	26
	.long	12
	.align 16
	.type	.LASANLOC12, @object
	.size	.LASANLOC12, 16
.LASANLOC12:
	.quad	.LC17
	.long	24
	.long	19
	.align 16
	.type	.LASANLOC13, @object
	.size	.LASANLOC13, 16
.LASANLOC13:
	.quad	.LC17
	.long	20
	.long	19
	.align 16
	.type	.LASANLOC14, @object
	.size	.LASANLOC14, 16
.LASANLOC14:
	.quad	.LC17
	.long	17
	.long	19
	.align 16
	.type	.LASANLOC15, @object
	.size	.LASANLOC15, 16
.LASANLOC15:
	.quad	.LC17
	.long	14
	.long	19
	.section	.rodata
	.align 8
.LC18:
	.string	"../ATC/RandomStuff/CommonEnums.h"
	.section	.data.rel.local
	.align 16
	.type	.LASANLOC16, @object
	.size	.LASANLOC16, 16
.LASANLOC16:
	.quad	.LC18
	.long	3
	.long	11
	.section	.rodata
.LC19:
	.string	"../ATC/Logger/LogConfig.h"
	.section	.data.rel.local
	.align 16
	.type	.LASANLOC17, @object
	.size	.LASANLOC17, 16
.LASANLOC17:
	.quad	.LC19
	.long	3
	.long	12
	.section	.rodata
.LC20:
	.string	"/usr/include/c++/11/iostream"
	.section	.data.rel.local
	.align 16
	.type	.LASANLOC18, @object
	.size	.LASANLOC18, 16
.LASANLOC18:
	.quad	.LC20
	.long	74
	.long	25
	.section	.rodata
	.align 8
.LC21:
	.string	"../Common/Structures/Tabels/Tabels.h"
	.section	.data.rel.local
	.align 16
	.type	.LASANLOC19, @object
	.size	.LASANLOC19, 16
.LASANLOC19:
	.quad	.LC21
	.long	8
	.long	11
	.align 16
	.type	.LASANLOC20, @object
	.size	.LASANLOC20, 16
.LASANLOC20:
	.quad	.LC21
	.long	7
	.long	11
	.section	.rodata
.LC22:
	.string	"INDENT_SIZE"
.LC23:
	.string	"_ELEMENT_T_SIZE_"
.LC24:
	.string	"_HEAP_MIN_CAPACITY_"
.LC25:
	.string	"_CLOSING_CANARY_"
.LC26:
	.string	"_OPENING_CANARY_"
.LC27:
	.string	"_CANARY_SIZE_"
.LC28:
	.string	"MAX_WORD_LENGTH"
.LC29:
	.string	"MAX_FUNCTION_NAME_LENGTH"
.LC30:
	.string	"MAIN_NAME"
.LC31:
	.string	"COMMENT"
.LC32:
	.string	"OPERATORS"
.LC33:
	.string	"FUNCTION_RET_TYPES"
.LC34:
	.string	"INITIALIZATORS"
.LC35:
	.string	"NATIVE_FUNCTIONS"
.LC36:
	.string	"INSTRUCTIONS"
.LC37:
	.string	"CRINGE"
.LC38:
	.string	"STD_LOG_NAME"
.LC39:
	.string	"__ioinit"
.LC40:
	.string	"NOT_A_LABEL"
.LC41:
	.string	"NOT_DECLARED"
.LC42:
	.string	"*.LC7"
.LC43:
	.string	"*.LC9"
.LC44:
	.string	"*.LC2"
.LC45:
	.string	"*.LC12"
.LC46:
	.string	"*.LC11"
.LC47:
	.string	"*.LC4"
.LC48:
	.string	"*.LC10"
.LC49:
	.string	"*.LC3"
.LC50:
	.string	"*.LC1"
.LC51:
	.string	"*.LC0"
.LC52:
	.string	"*.LC5"
.LC53:
	.string	"*.LC6"
.LC54:
	.string	"*.LC8"
	.section	.data.rel.local
	.align 32
	.type	.LASAN0, @object
	.size	.LASAN0, 2112
.LASAN0:
	.quad	_ZL11INDENT_SIZE
	.quad	4
	.quad	64
	.quad	.LC22
	.quad	.LC13
	.quad	0
	.quad	.LASANLOC1
	.quad	0
	.quad	_ZL16_ELEMENT_T_SIZE_
	.quad	8
	.quad	64
	.quad	.LC23
	.quad	.LC13
	.quad	0
	.quad	.LASANLOC2
	.quad	0
	.quad	_ZL19_HEAP_MIN_CAPACITY_
	.quad	8
	.quad	64
	.quad	.LC24
	.quad	.LC13
	.quad	0
	.quad	.LASANLOC3
	.quad	0
	.quad	_ZL16_CLOSING_CANARY_
	.quad	4
	.quad	64
	.quad	.LC25
	.quad	.LC13
	.quad	0
	.quad	.LASANLOC4
	.quad	0
	.quad	_ZL16_OPENING_CANARY_
	.quad	4
	.quad	64
	.quad	.LC26
	.quad	.LC13
	.quad	0
	.quad	.LASANLOC5
	.quad	0
	.quad	_ZL13_CANARY_SIZE_
	.quad	4
	.quad	64
	.quad	.LC27
	.quad	.LC13
	.quad	0
	.quad	.LASANLOC6
	.quad	0
	.quad	_ZL15MAX_WORD_LENGTH
	.quad	4
	.quad	64
	.quad	.LC28
	.quad	.LC13
	.quad	0
	.quad	.LASANLOC7
	.quad	0
	.quad	_ZL24MAX_FUNCTION_NAME_LENGTH
	.quad	4
	.quad	64
	.quad	.LC29
	.quad	.LC13
	.quad	0
	.quad	.LASANLOC8
	.quad	0
	.quad	_ZL9MAIN_NAME
	.quad	8
	.quad	64
	.quad	.LC30
	.quad	.LC13
	.quad	0
	.quad	.LASANLOC9
	.quad	0
	.quad	_ZL7COMMENT
	.quad	1
	.quad	64
	.quad	.LC31
	.quad	.LC13
	.quad	0
	.quad	.LASANLOC10
	.quad	0
	.quad	_ZL9OPERATORS
	.quad	8
	.quad	64
	.quad	.LC32
	.quad	.LC13
	.quad	0
	.quad	.LASANLOC11
	.quad	0
	.quad	_ZL18FUNCTION_RET_TYPES
	.quad	16
	.quad	64
	.quad	.LC33
	.quad	.LC13
	.quad	0
	.quad	.LASANLOC12
	.quad	0
	.quad	_ZL14INITIALIZATORS
	.quad	16
	.quad	64
	.quad	.LC34
	.quad	.LC13
	.quad	0
	.quad	.LASANLOC13
	.quad	0
	.quad	_ZL16NATIVE_FUNCTIONS
	.quad	32
	.quad	64
	.quad	.LC35
	.quad	.LC13
	.quad	0
	.quad	.LASANLOC14
	.quad	0
	.quad	_ZL12INSTRUCTIONS
	.quad	32
	.quad	64
	.quad	.LC36
	.quad	.LC13
	.quad	0
	.quad	.LASANLOC15
	.quad	0
	.quad	_ZL6CRINGE
	.quad	4
	.quad	64
	.quad	.LC37
	.quad	.LC13
	.quad	0
	.quad	.LASANLOC16
	.quad	0
	.quad	_ZL12STD_LOG_NAME
	.quad	18
	.quad	64
	.quad	.LC38
	.quad	.LC13
	.quad	0
	.quad	.LASANLOC17
	.quad	0
	.quad	_ZStL8__ioinit
	.quad	1
	.quad	64
	.quad	.LC39
	.quad	.LC13
	.quad	1
	.quad	.LASANLOC18
	.quad	0
	.quad	_ZL11NOT_A_LABEL
	.quad	4
	.quad	64
	.quad	.LC40
	.quad	.LC13
	.quad	0
	.quad	.LASANLOC19
	.quad	0
	.quad	_ZL12NOT_DECLARED
	.quad	4
	.quad	64
	.quad	.LC41
	.quad	.LC13
	.quad	0
	.quad	.LASANLOC20
	.quad	0
	.quad	.LC7
	.quad	4
	.quad	64
	.quad	.LC42
	.quad	.LC13
	.quad	0
	.quad	0
	.quad	0
	.quad	.LC9
	.quad	4
	.quad	64
	.quad	.LC43
	.quad	.LC13
	.quad	0
	.quad	0
	.quad	0
	.quad	.LC2
	.quad	6
	.quad	64
	.quad	.LC44
	.quad	.LC13
	.quad	0
	.quad	0
	.quad	0
	.quad	.LC12
	.quad	5
	.quad	64
	.quad	.LC45
	.quad	.LC13
	.quad	0
	.quad	0
	.quad	0
	.quad	.LC11
	.quad	5
	.quad	64
	.quad	.LC46
	.quad	.LC13
	.quad	0
	.quad	0
	.quad	0
	.quad	.LC4
	.quad	5
	.quad	64
	.quad	.LC47
	.quad	.LC13
	.quad	0
	.quad	0
	.quad	0
	.quad	.LC10
	.quad	7
	.quad	64
	.quad	.LC48
	.quad	.LC13
	.quad	0
	.quad	0
	.quad	0
	.quad	.LC3
	.quad	7
	.quad	64
	.quad	.LC49
	.quad	.LC13
	.quad	0
	.quad	0
	.quad	0
	.quad	.LC1
	.quad	5
	.quad	64
	.quad	.LC50
	.quad	.LC13
	.quad	0
	.quad	0
	.quad	0
	.quad	.LC0
	.quad	3
	.quad	64
	.quad	.LC51
	.quad	.LC13
	.quad	0
	.quad	0
	.quad	0
	.quad	.LC5
	.quad	4
	.quad	64
	.quad	.LC52
	.quad	.LC13
	.quad	0
	.quad	0
	.quad	0
	.quad	.LC6
	.quad	4
	.quad	64
	.quad	.LC53
	.quad	.LC13
	.quad	0
	.quad	0
	.quad	0
	.quad	.LC8
	.quad	7
	.quad	64
	.quad	.LC54
	.quad	.LC13
	.quad	0
	.quad	0
	.quad	0
	.text
	.type	_sub_D_00099_0, @function
_sub_D_00099_0:
.LFB3650:
	.cfi_startproc
	endbr64
	pushq	%rbp
	.cfi_def_cfa_offset 16
	.cfi_offset 6, -16
	movq	%rsp, %rbp
	.cfi_def_cfa_register 6
	movl	$33, %esi
	leaq	.LASAN0(%rip), %rax
	movq	%rax, %rdi
	call	__asan_unregister_globals@PLT
	popq	%rbp
	.cfi_def_cfa 7, 8
	ret
	.cfi_endproc
.LFE3650:
	.size	_sub_D_00099_0, .-_sub_D_00099_0
	.section	.fini_array.00099,"aw"
	.align 8
	.quad	_sub_D_00099_0
	.text
	.type	_sub_I_00099_1, @function
_sub_I_00099_1:
.LFB3651:
	.cfi_startproc
	endbr64
	pushq	%rbp
	.cfi_def_cfa_offset 16
	.cfi_offset 6, -16
	movq	%rsp, %rbp
	.cfi_def_cfa_register 6
	call	__asan_init@PLT
	call	__asan_version_mismatch_check_v8@PLT
	movl	$33, %esi
	leaq	.LASAN0(%rip), %rax
	movq	%rax, %rdi
	call	__asan_register_globals@PLT
	popq	%rbp
	.cfi_def_cfa 7, 8
	ret
	.cfi_endproc
.LFE3651:
	.size	_sub_I_00099_1, .-_sub_I_00099_1
	.section	.init_array.00099,"aw"
	.align 8
	.quad	_sub_I_00099_1
	.text
.Letext0:
	.file 3 "../Common/Structures/Tabels/Tabels.h"
	.file 4 "<built-in>"
	.file 5 "/usr/lib/gcc/x86_64-linux-gnu/11/include/stddef.h"
	.file 6 "/usr/include/x86_64-linux-gnu/bits/types.h"
	.file 7 "/usr/include/x86_64-linux-gnu/bits/types/__mbstate_t.h"
	.file 8 "/usr/include/x86_64-linux-gnu/bits/types/__fpos_t.h"
	.file 9 "/usr/include/x86_64-linux-gnu/bits/types/__FILE.h"
	.file 10 "/usr/include/x86_64-linux-gnu/bits/types/struct_FILE.h"
	.file 11 "/usr/include/x86_64-linux-gnu/bits/types/FILE.h"
	.file 12 "/usr/include/stdio.h"
	.file 13 "/usr/include/c++/11/cmath"
	.file 14 "/usr/include/c++/11/type_traits"
	.file 15 "/usr/include/c++/11/concepts"
	.file 16 "/usr/include/c++/11/bits/iterator_concepts.h"
	.file 17 "/usr/include/c++/11/bits/ranges_cmp.h"
	.file 18 "/usr/include/c++/11/compare"
	.file 19 "/usr/include/c++/11/debug/debug.h"
	.file 20 "/usr/include/c++/11/bits/std_abs.h"
	.file 21 "/usr/include/c++/11/cwchar"
	.file 22 "/usr/include/c++/11/bits/exception_ptr.h"
	.file 23 "/usr/include/x86_64-linux-gnu/c++/11/bits/c++config.h"
	.file 24 "/usr/include/c++/11/cstdint"
	.file 25 "/usr/include/c++/11/clocale"
	.file 26 "/usr/include/c++/11/cstdlib"
	.file 27 "/usr/include/c++/11/numbers"
	.file 28 "/usr/include/c++/11/cstdio"
	.file 29 "/usr/include/c++/11/bits/ios_base.h"
	.file 30 "/usr/include/c++/11/cwctype"
	.file 31 "/usr/include/c++/11/bits/predefined_ops.h"
	.file 32 "/usr/include/math.h"
	.file 33 "/usr/include/stdlib.h"
	.file 34 "/usr/include/x86_64-linux-gnu/bits/stdint-intn.h"
	.file 35 "/usr/include/c++/11/bits/ptr_traits.h"
	.file 36 "/usr/include/c++/11/math.h"
	.file 37 "/usr/include/x86_64-linux-gnu/bits/types/struct_tm.h"
	.file 38 "/usr/include/x86_64-linux-gnu/bits/types/wint_t.h"
	.file 39 "/usr/include/x86_64-linux-gnu/bits/types/mbstate_t.h"
	.file 40 "/usr/include/wchar.h"
	.file 41 "/usr/include/x86_64-linux-gnu/bits/stdint-uintn.h"
	.file 42 "/usr/include/stdint.h"
	.file 43 "/usr/include/locale.h"
	.file 44 "/usr/include/x86_64-linux-gnu/bits/wctype-wchar.h"
	.file 45 "/usr/include/wctype.h"
	.file 46 "../ATC/Logger/LogConfig.h"
	.file 47 "../ATC/RandomStuff/CommonEnums.h"
	.file 48 "../Common/Grammar.h"
	.file 49 "../ATC/my_safety/my_safety.h"
	.file 50 "../ATC/SuperStack/SuperStack.h"
	.file 51 "/usr/include/c++/11/stdlib.h"
	.file 52 "../ATC/Buffer/my_buffer.h"
	.file 53 "/usr/include/c++/11/bits/algorithmfwd.h"
	.section	.note.GNU-stack,"",@progbits
	.section	.note.gnu.property,"a"
	.align 8
	.long	1f - 0f
	.long	4f - 1f
	.long	5
0:
	.string	"GNU"
1:
	.align 8
	.long	0xc0000002
	.long	3f - 2f
2:
	.long	0x3
3:
	.align 8
4:
