	.file	"GraphVis.cpp"
	.text
.Ltext0:
	.file 0 "/home/arsenyfucker/Cprojects/Lang/Translator/FrontEnd" "../Common/Utils/GraphVis.cpp"
	.section	.rodata
	.align 4
	.type	_ZL12NOT_DECLARED, @object
	.size	_ZL12NOT_DECLARED, 4
_ZL12NOT_DECLARED:
	.long	-111
	.align 4
	.type	_ZL21MAX_GRAPH_NAME_LENGTH, @object
	.size	_ZL21MAX_GRAPH_NAME_LENGTH, 4
_ZL21MAX_GRAPH_NAME_LENGTH:
	.long	128
	.align 4
	.type	_ZL17IMAGE_NAME_LENGTH, @object
	.size	_ZL17IMAGE_NAME_LENGTH, 4
_ZL17IMAGE_NAME_LENGTH:
	.long	128
	.align 16
	.type	_ZL12PATH_FOR_DOT, @object
	.size	_ZL12PATH_FOR_DOT, 16
_ZL12PATH_FOR_DOT:
	.string	"./graphics/dot/"
	.align 8
	.type	_ZL12PATH_FOR_IMG, @object
	.size	_ZL12PATH_FOR_IMG, 12
_ZL12PATH_FOR_IMG:
	.string	"./graphics/"
	.type	_ZL9EXTENSION, @object
	.size	_ZL9EXTENSION, 4
_ZL9EXTENSION:
	.string	"png"
	.type	_ZL7RANKDIR, @object
	.size	_ZL7RANKDIR, 3
_ZL7RANKDIR:
	.string	"TB"
	.align 4
	.type	_ZL21SYSTEM_COMMAND_LENGTH, @object
	.size	_ZL21SYSTEM_COMMAND_LENGTH, 4
_ZL21SYSTEM_COMMAND_LENGTH:
	.long	512
	.align 4
	.type	_ZL21NUMBER_OF_INSTUCTIONS, @object
	.size	_ZL21NUMBER_OF_INSTUCTIONS, 4
_ZL21NUMBER_OF_INSTUCTIONS:
	.long	5
.LC0:
	.string	"if"
.LC1:
	.string	"else"
.LC2:
	.string	"while"
.LC3:
	.string	"fout"
.LC4:
	.string	"return"
	.section	.data.rel.ro.local,"aw"
	.align 32
	.type	_ZL12INSTRUCTIONS, @object
	.size	_ZL12INSTRUCTIONS, 40
_ZL12INSTRUCTIONS:
	.quad	.LC0
	.quad	.LC1
	.quad	.LC2
	.quad	.LC3
	.quad	.LC4
	.section	.rodata
	.align 4
	.type	_ZL24NUMBER_OF_INITIALIZATORS, @object
	.size	_ZL24NUMBER_OF_INITIALIZATORS, 4
_ZL24NUMBER_OF_INITIALIZATORS:
	.long	2
.LC5:
	.string	"func"
.LC6:
	.string	"var"
	.section	.data.rel.ro.local
	.align 16
	.type	_ZL14INITIALIZATORS, @object
	.size	_ZL14INITIALIZATORS, 16
_ZL14INITIALIZATORS:
	.quad	.LC5
	.quad	.LC6
	.section	.rodata
	.align 4
	.type	_ZL28NUMBER_OF_FUNCTION_RET_TYPES, @object
	.size	_ZL28NUMBER_OF_FUNCTION_RET_TYPES, 4
_ZL28NUMBER_OF_FUNCTION_RET_TYPES:
	.long	2
.LC7:
	.string	"double"
.LC8:
	.string	"void"
	.section	.data.rel.ro.local
	.align 16
	.type	_ZL18FUNCTION_RET_TYPES, @object
	.size	_ZL18FUNCTION_RET_TYPES, 16
_ZL18FUNCTION_RET_TYPES:
	.quad	.LC7
	.quad	.LC8
	.section	.rodata
	.align 8
	.type	_ZL9OPERATORS, @object
	.size	_ZL9OPERATORS, 8
_ZL9OPERATORS:
	.string	"+-/*^<<"
	.type	_ZL7COMMENT, @object
	.size	_ZL7COMMENT, 1
_ZL7COMMENT:
	.byte	35
	.align 4
	.type	_ZL24MAX_FUNCTION_NAME_LENGTH, @object
	.size	_ZL24MAX_FUNCTION_NAME_LENGTH, 4
_ZL24MAX_FUNCTION_NAME_LENGTH:
	.long	16
	.align 4
	.type	_ZL15MAX_WORD_LENGTH, @object
	.size	_ZL15MAX_WORD_LENGTH, 4
_ZL15MAX_WORD_LENGTH:
	.long	16
	.local	_ZStL8__ioinit
	.comm	_ZStL8__ioinit,1,1
	.align 16
	.type	_ZL12STD_LOG_NAME, @object
	.size	_ZL12STD_LOG_NAME, 18
_ZL12STD_LOG_NAME:
	.string	"./logs/stdlog.ars"
	.align 4
	.type	_ZL6CRINGE, @object
	.size	_ZL6CRINGE, 4
_ZL6CRINGE:
	.long	3565
	.align 4
	.type	_ZL11INDENT_SIZE, @object
	.size	_ZL11INDENT_SIZE, 4
_ZL11INDENT_SIZE:
	.long	2
	.align 32
	.type	_ZL16GRAPH_VIS_COLORS, @object
	.size	_ZL16GRAPH_VIS_COLORS, 32
_ZL16GRAPH_VIS_COLORS:
	.long	16777215
	.long	14745568
	.long	16769248
	.long	14737663
	.long	16777184
	.long	16769279
	.long	14745599
	.long	14737632
	.local	_ZL3Dot
	.comm	_ZL3Dot,8,8
	.local	_ZL10STRING_ARR
	.comm	_ZL10STRING_ARR,8,8
	.local	_ZZ7MakeImgPKcPK7ProgramE13full_img_name
	.comm	_ZZ7MakeImgPKcPK7ProgramE13full_img_name,144,32
.LC9:
	.string	"MakeImg"
.LC10:
	.string	"img_name"
	.align 8
.LC11:
	.string	"\033[91mASSERT\033[0m %s: Dyrachok, (%s) - is wrong condition (in line %d)\n"
.LC12:
	.string	"program"
.LC13:
	.string	"%s%s.dot"
.LC14:
	.string	"%s%s.%s"
.LC15:
	.string	"dot -T %s -o %s %s"
	.text
	.globl	_Z7MakeImgPKcPK7Program
	.type	_Z7MakeImgPKcPK7Program, @function
_Z7MakeImgPKcPK7Program:
.LFB2270:
	.file 1 "../Common/Utils/GraphVis.cpp"
	.loc 1 31 5
	.cfi_startproc
	.cfi_personality 0x9b,DW.ref.__gxx_personality_v0
	.cfi_lsda 0x1b,.LLSDA2270
	endbr64
	pushq	%rbp
	.cfi_def_cfa_offset 16
	.cfi_offset 6, -16
	movq	%rsp, %rbp
	.cfi_def_cfa_register 6
	pushq	%rbx
	subq	$744, %rsp
	.cfi_offset 3, -24
	movq	%rdi, -744(%rbp)
	movq	%rsi, -752(%rbp)
	.loc 1 31 5
	movq	%fs:40, %rax
	movq	%rax, -24(%rbp)
	xorl	%eax, %eax
	.loc 1 32 40
	leaq	-736(%rbp), %rax
	leaq	.LC9(%rip), %rdx
	movl	$2, %esi
	movq	%rax, %rdi
.LEHB0:
	call	_ZN14FunctionLoggerC1EiPKc@PLT
.LEHE0:
	.loc 1 34 10
	cmpq	$0, -744(%rbp)
	jne	.L2
	.loc 1 34 34 discriminator 1
	movl	$34, %ecx
	leaq	.LC10(%rip), %rax
	movq	%rax, %rdx
	leaq	.LC9(%rip), %rax
	movq	%rax, %rsi
	leaq	.LC11(%rip), %rax
	movq	%rax, %rdi
	movl	$0, %eax
.LEHB1:
	call	printf@PLT
.L2:
	.loc 1 35 10
	cmpq	$0, -752(%rbp)
	jne	.L3
	.loc 1 35 33 discriminator 1
	movl	$35, %ecx
	leaq	.LC12(%rip), %rax
	movq	%rax, %rdx
	leaq	.LC9(%rip), %rax
	movq	%rax, %rsi
	leaq	.LC11(%rip), %rax
	movq	%rax, %rdi
	movl	$0, %eax
	call	printf@PLT
.L3:
	.loc 1 37 10
	movq	$0, -704(%rbp)
	movq	$0, -696(%rbp)
	movq	$0, -688(%rbp)
	movq	$0, -680(%rbp)
	movq	$0, -672(%rbp)
	movq	$0, -664(%rbp)
	movq	$0, -656(%rbp)
	movq	$0, -648(%rbp)
	movq	$0, -640(%rbp)
	movq	$0, -632(%rbp)
	movq	$0, -624(%rbp)
	movq	$0, -616(%rbp)
	movq	$0, -608(%rbp)
	movq	$0, -600(%rbp)
	movq	$0, -592(%rbp)
	movq	$0, -584(%rbp)
	movq	$0, -576(%rbp)
	movq	$0, -568(%rbp)
	.loc 1 38 14
	movq	-744(%rbp), %rdx
	leaq	-704(%rbp), %rax
	movq	%rdx, %r8
	leaq	_ZL12PATH_FOR_DOT(%rip), %rdx
	movq	%rdx, %rcx
	leaq	.LC13(%rip), %rdx
	movl	$128, %esi
	movq	%rax, %rdi
	movl	$0, %eax
	call	snprintf@PLT
	.loc 1 43 17
	leaq	-704(%rbp), %rax
	movq	%rax, %rdi
	call	_Z11OpenDotFilePKc
	.loc 1 44 9
	movq	_ZL3Dot(%rip), %rax
	.loc 1 44 5
	testq	%rax, %rax
	jne	.L4
	.loc 1 44 21 discriminator 1
	movl	$0, %ebx
	jmp	.L5
.L4:
	.loc 1 46 12
	call	_ZL6SetDotv
	.loc 1 50 27
	movq	-752(%rbp), %rax
	movq	24(%rax), %rax
	.loc 1 50 16
	movq	%rax, _ZL10STRING_ARR(%rip)
	.loc 1 52 29
	movq	-752(%rbp), %rax
	movq	16(%rax), %rax
	.loc 1 52 19
	movq	%rax, %rdi
	call	_ZL13DotTreeBranchPK5Token
	.loc 1 55 15
	call	_ZL9SetEndDotv
	.loc 1 58 14
	movq	-744(%rbp), %rax
	leaq	_ZL9EXTENSION(%rip), %r9
	movq	%rax, %r8
	leaq	_ZL12PATH_FOR_IMG(%rip), %rax
	movq	%rax, %rcx
	leaq	.LC14(%rip), %rax
	movq	%rax, %rdx
	movl	$128, %esi
	leaq	_ZZ7MakeImgPKcPK7ProgramE13full_img_name(%rip), %rax
	movq	%rax, %rdi
	movl	$0, %eax
	call	snprintf@PLT
	.loc 1 61 10
	movq	$0, -560(%rbp)
	movq	$0, -552(%rbp)
	leaq	-544(%rbp), %rdx
	movl	$0, %eax
	movl	$64, %ecx
	movq	%rdx, %rdi
	rep stosq
	.loc 1 62 14
	leaq	-704(%rbp), %rdx
	leaq	-560(%rbp), %rax
	movq	%rdx, %r9
	leaq	_ZZ7MakeImgPKcPK7ProgramE13full_img_name(%rip), %r8
	leaq	_ZL9EXTENSION(%rip), %rdx
	movq	%rdx, %rcx
	leaq	.LC15(%rip), %rdx
	movl	$512, %esi
	movq	%rax, %rdi
	movl	$0, %eax
	call	snprintf@PLT
	.loc 1 65 12
	leaq	-560(%rbp), %rax
	movq	%rax, %rdi
	call	system@PLT
	.loc 1 67 18
	call	_Z12CloseDotFilev
.LEHE1:
	.loc 1 68 12
	leaq	_ZZ7MakeImgPKcPK7ProgramE13full_img_name(%rip), %rbx
.L5:
	.loc 1 70 5
	leaq	-736(%rbp), %rax
	movq	%rax, %rdi
	call	_ZN14FunctionLoggerD1Ev@PLT
	movq	%rbx, %rax
	movq	-24(%rbp), %rdx
	subq	%fs:40, %rdx
	je	.L8
	jmp	.L10
.L9:
	endbr64
	movq	%rax, %rbx
	leaq	-736(%rbp), %rax
	movq	%rax, %rdi
	call	_ZN14FunctionLoggerD1Ev@PLT
	movq	%rbx, %rax
	movq	%rax, %rdi
.LEHB2:
	call	_Unwind_Resume@PLT
.LEHE2:
.L10:
	call	__stack_chk_fail@PLT
.L8:
	movq	-8(%rbp), %rbx
	leave
	.cfi_def_cfa 7, 8
	ret
	.cfi_endproc
.LFE2270:
	.globl	__gxx_personality_v0
	.section	.gcc_except_table,"a",@progbits
.LLSDA2270:
	.byte	0xff
	.byte	0xff
	.byte	0x1
	.uleb128 .LLSDACSE2270-.LLSDACSB2270
.LLSDACSB2270:
	.uleb128 .LEHB0-.LFB2270
	.uleb128 .LEHE0-.LEHB0
	.uleb128 0
	.uleb128 0
	.uleb128 .LEHB1-.LFB2270
	.uleb128 .LEHE1-.LEHB1
	.uleb128 .L9-.LFB2270
	.uleb128 0
	.uleb128 .LEHB2-.LFB2270
	.uleb128 .LEHE2-.LEHB2
	.uleb128 0
	.uleb128 0
.LLSDACSE2270:
	.text
	.size	_Z7MakeImgPKcPK7Program, .-_Z7MakeImgPKcPK7Program
	.section	.rodata
.LC16:
	.string	"SetDot"
	.align 8
.LC17:
	.string	"########################################################### %s\n"
.LC18:
	.string	"digraph \n{\n"
.LC19:
	.string	"rankdir = %s # RANKDIR\n"
	.text
	.type	_ZL6SetDotv, @function
_ZL6SetDotv:
.LFB2271:
	.loc 1 74 5
	.cfi_startproc
	endbr64
	pushq	%rbp
	.cfi_def_cfa_offset 16
	.cfi_offset 6, -16
	movq	%rsp, %rbp
	.cfi_def_cfa_register 6
	.loc 1 75 9
	movq	_ZL3Dot(%rip), %rax
	.loc 1 75 5
	testq	%rax, %rax
	je	.L14
	.loc 1 77 13
	movq	_ZL3Dot(%rip), %rax
	leaq	.LC16(%rip), %rdx
	leaq	.LC17(%rip), %rcx
	movq	%rcx, %rsi
	movq	%rax, %rdi
	movl	$0, %eax
	call	fprintf@PLT
	.loc 1 79 13
	leaq	.LC18(%rip), %rax
	movq	%rax, %rdi
	movl	$0, %eax
	call	_ZL8DotPrintPKcz
	.loc 1 80 13
	leaq	_ZL7RANKDIR(%rip), %rax
	movq	%rax, %rsi
	leaq	.LC19(%rip), %rax
	movq	%rax, %rdi
	movl	$0, %eax
	call	_ZL8DotPrintPKcz
	.loc 1 82 5
	jmp	.L11
.L14:
	.loc 1 75 15
	nop
.L11:
	.loc 1 83 5
	popq	%rbp
	.cfi_def_cfa 7, 8
	ret
	.cfi_endproc
.LFE2271:
	.size	_ZL6SetDotv, .-_ZL6SetDotv
	.section	.rodata
.LC20:
	.string	"SetEndDot"
.LC21:
	.string	"\n}"
	.text
	.type	_ZL9SetEndDotv, @function
_ZL9SetEndDotv:
.LFB2272:
	.loc 1 86 5
	.cfi_startproc
	endbr64
	pushq	%rbp
	.cfi_def_cfa_offset 16
	.cfi_offset 6, -16
	movq	%rsp, %rbp
	.cfi_def_cfa_register 6
	.loc 1 87 9
	movq	_ZL3Dot(%rip), %rax
	.loc 1 87 5
	testq	%rax, %rax
	je	.L18
	.loc 1 89 13
	movq	_ZL3Dot(%rip), %rax
	leaq	.LC20(%rip), %rdx
	leaq	.LC17(%rip), %rcx
	movq	%rcx, %rsi
	movq	%rax, %rdi
	movl	$0, %eax
	call	fprintf@PLT
	.loc 1 91 13
	leaq	.LC21(%rip), %rax
	movq	%rax, %rdi
	movl	$0, %eax
	call	_ZL8DotPrintPKcz
	.loc 1 92 11
	movq	_ZL3Dot(%rip), %rax
	movq	%rax, %rdi
	call	fflush@PLT
	.loc 1 94 5
	jmp	.L15
.L18:
	.loc 1 87 15
	nop
.L15:
	.loc 1 95 5
	popq	%rbp
	.cfi_def_cfa 7, 8
	ret
	.cfi_endproc
.LFE2272:
	.size	_ZL9SetEndDotv, .-_ZL9SetEndDotv
	.type	_ZL8DotPrintPKcz, @function
_ZL8DotPrintPKcz:
.LFB2273:
	.loc 1 99 5
	.cfi_startproc
	endbr64
	pushq	%rbp
	.cfi_def_cfa_offset 16
	.cfi_offset 6, -16
	movq	%rsp, %rbp
	.cfi_def_cfa_register 6
	subq	$224, %rsp
	movq	%rdi, -216(%rbp)
	movq	%rsi, -168(%rbp)
	movq	%rdx, -160(%rbp)
	movq	%rcx, -152(%rbp)
	movq	%r8, -144(%rbp)
	movq	%r9, -136(%rbp)
	testb	%al, %al
	je	.L22
	movaps	%xmm0, -128(%rbp)
	movaps	%xmm1, -112(%rbp)
	movaps	%xmm2, -96(%rbp)
	movaps	%xmm3, -80(%rbp)
	movaps	%xmm4, -64(%rbp)
	movaps	%xmm5, -48(%rbp)
	movaps	%xmm6, -32(%rbp)
	movaps	%xmm7, -16(%rbp)
.L22:
	.loc 1 101 22
	movl	$8, -200(%rbp)
	movl	$48, -196(%rbp)
	leaq	16(%rbp), %rax
	movq	%rax, -192(%rbp)
	leaq	-176(%rbp), %rax
	movq	%rax, -184(%rbp)
	.loc 1 103 14
	movq	_ZL3Dot(%rip), %rax
	leaq	-200(%rbp), %rdx
	movq	-216(%rbp), %rcx
	movq	%rcx, %rsi
	movq	%rax, %rdi
	call	vfprintf@PLT
	.loc 1 107 5
	nop
	.loc 1 108 5
	leave
	.cfi_def_cfa 7, 8
	ret
	.cfi_endproc
.LFE2273:
	.size	_ZL8DotPrintPKcz, .-_ZL8DotPrintPKcz
	.section	.rodata
.LC22:
	.string	"wb"
.LC23:
	.string	"Couldn't open file %s\n"
	.text
	.globl	_Z11OpenDotFilePKc
	.type	_Z11OpenDotFilePKc, @function
_Z11OpenDotFilePKc:
.LFB2274:
	.loc 1 111 5
	.cfi_startproc
	endbr64
	pushq	%rbp
	.cfi_def_cfa_offset 16
	.cfi_offset 6, -16
	movq	%rsp, %rbp
	.cfi_def_cfa_register 6
	subq	$16, %rsp
	movq	%rdi, -8(%rbp)
	.loc 1 112 5
	cmpq	$0, -8(%rbp)
	jne	.L24
	.loc 1 112 23 discriminator 1
	movl	$0, %eax
	jmp	.L25
.L24:
	.loc 1 114 17
	movq	-8(%rbp), %rax
	leaq	.LC22(%rip), %rdx
	movq	%rdx, %rsi
	movq	%rax, %rdi
	call	fopen@PLT
	.loc 1 114 9
	movq	%rax, _ZL3Dot(%rip)
	.loc 1 116 9
	movq	_ZL3Dot(%rip), %rax
	.loc 1 116 5
	testq	%rax, %rax
	jne	.L26
	.loc 1 117 15
	movq	-8(%rbp), %rax
	movq	%rax, %rsi
	leaq	.LC23(%rip), %rax
	movq	%rax, %rdi
	movl	$0, %eax
	call	printf@PLT
.L26:
	.loc 1 119 12
	movq	_ZL3Dot(%rip), %rax
.L25:
	.loc 1 120 5
	leave
	.cfi_def_cfa 7, 8
	ret
	.cfi_endproc
.LFE2274:
	.size	_Z11OpenDotFilePKc, .-_Z11OpenDotFilePKc
	.globl	_Z12CloseDotFilev
	.type	_Z12CloseDotFilev, @function
_Z12CloseDotFilev:
.LFB2275:
	.loc 1 123 5
	.cfi_startproc
	endbr64
	pushq	%rbp
	.cfi_def_cfa_offset 16
	.cfi_offset 6, -16
	movq	%rsp, %rbp
	.cfi_def_cfa_register 6
	.loc 1 124 12
	movq	_ZL3Dot(%rip), %rax
	movq	%rax, %rdi
	call	fclose@PLT
	.loc 1 126 9
	movq	$0, _ZL3Dot(%rip)
	.loc 1 127 5
	nop
	.loc 1 128 5
	popq	%rbp
	.cfi_def_cfa 7, 8
	ret
	.cfi_endproc
.LFE2275:
	.size	_Z12CloseDotFilev, .-_Z12CloseDotFilev
	.section	.rodata
.LC24:
	.string	"node"
	.align 8
.LC25:
	.string	"ASSERTLOG:: Condition (%s) is false\n"
	.align 8
.LC26:
	.string	"\033[93mASSERTLOG:: \033[0mCondition\033[95m (%s) \033[0mis \033[91mfalse\n\033[0m"
	.align 8
.LC27:
	.string	"void DotTreeBranch(const Token*)"
.LC28:
	.string	"../Common/Utils/GraphVis.cpp"
.LC29:
	.string	"\t%s:%d, function: %s\n"
	.align 8
.LC30:
	.string	"It matches to error: (code %d) %s\n\n"
.LC31:
	.string	"DotTreeBranch"
	.align 8
.LC32:
	.string	"Shutting down the system (%s:%d)"
.LC33:
	.string	"echo LOX\n"
.LC34:
	.string	"\t\tnode_%p -> node_%p \n"
	.text
	.type	_ZL13DotTreeBranchPK5Token, @function
_ZL13DotTreeBranchPK5Token:
.LFB2276:
	.loc 1 131 5
	.cfi_startproc
	endbr64
	pushq	%rbp
	.cfi_def_cfa_offset 16
	.cfi_offset 6, -16
	movq	%rsp, %rbp
	.cfi_def_cfa_register 6
	pushq	%rbx
	subq	$24, %rsp
	.cfi_offset 3, -24
	movq	%rdi, -24(%rbp)
	.loc 1 132 10
	cmpq	$0, -24(%rbp)
	jne	.L30
	.loc 1 132 44 discriminator 1
	call	_ZN6Logger11getInstanceEv@PLT
	movq	%rax, %rcx
	.loc 1 132 50 discriminator 1
	leaq	.LC24(%rip), %rax
	movq	%rax, %rdx
	leaq	.LC25(%rip), %rax
	movq	%rax, %rsi
	movq	%rcx, %rdi
	movl	$0, %eax
	call	_ZN6Logger3logEPKcz@PLT
	.loc 1 132 107 discriminator 1
	leaq	.LC24(%rip), %rax
	movq	%rax, %rsi
	leaq	.LC26(%rip), %rax
	movq	%rax, %rdi
	movl	$0, %eax
	call	printf@PLT
	.loc 1 132 252 discriminator 1
	call	_ZN6Logger11getInstanceEv@PLT
	movq	%rax, %rdi
	.loc 1 132 258 discriminator 1
	leaq	.LC27(%rip), %r8
	movl	$132, %ecx
	leaq	.LC28(%rip), %rax
	movq	%rax, %rdx
	leaq	.LC29(%rip), %rax
	movq	%rax, %rsi
	movl	$0, %eax
	call	_ZN6Logger3logEPKcz@PLT
	.loc 1 132 351 discriminator 1
	leaq	.LC27(%rip), %rax
	movq	%rax, %rcx
	movl	$132, %edx
	leaq	.LC28(%rip), %rax
	movq	%rax, %rsi
	leaq	.LC29(%rip), %rax
	movq	%rax, %rdi
	movl	$0, %eax
	call	printf@PLT
	.loc 1 132 457 discriminator 1
	call	_ZN6Logger11getInstanceEv@PLT
	movq	%rax, %rbx
	.loc 1 132 463 discriminator 1
	movl	$14, %edi
	call	strerror@PLT
	movq	%rax, %rcx
	movl	$14, %edx
	leaq	.LC30(%rip), %rax
	movq	%rax, %rsi
	movq	%rbx, %rdi
	movl	$0, %eax
	call	_ZN6Logger3logEPKcz@PLT
	.loc 1 132 27 discriminator 1
	call	_ZN6Logger11getInstanceEv@PLT
	movq	%rax, %rdi
	.loc 1 132 33 discriminator 1
	movl	$132, %ecx
	leaq	.LC31(%rip), %rax
	movq	%rax, %rdx
	leaq	.LC32(%rip), %rax
	movq	%rax, %rsi
	movl	$0, %eax
	call	_ZN6Logger3logEPKcz@PLT
	.loc 1 132 92 discriminator 1
	leaq	.LC33(%rip), %rax
	movq	%rax, %rdi
	call	system@PLT
	.loc 1 132 113 discriminator 1
	call	abort@PLT
.L30:
	.loc 1 134 15
	movq	-24(%rbp), %rax
	movq	%rax, %rdi
	call	_ZL9PrintNodePK5Token
	.loc 1 138 15
	movq	-24(%rbp), %rax
	movq	(%rax), %rax
	.loc 1 138 5
	testq	%rax, %rax
	je	.L31
	.loc 1 140 26
	movq	-24(%rbp), %rax
	movq	(%rax), %rax
	.loc 1 140 19
	movq	%rax, %rdi
	call	_ZL9PrintNodePK5Token
	.loc 1 142 60
	movq	-24(%rbp), %rax
	movq	(%rax), %rdx
	.loc 1 142 18
	movq	-24(%rbp), %rax
	movq	%rax, %rsi
	leaq	.LC34(%rip), %rax
	movq	%rax, %rdi
	movl	$0, %eax
	call	_ZL8DotPrintPKcz
	.loc 1 144 30
	movq	-24(%rbp), %rax
	movq	(%rax), %rax
	.loc 1 144 23
	movq	%rax, %rdi
	call	_ZL13DotTreeBranchPK5Token
.L31:
	.loc 1 147 15
	movq	-24(%rbp), %rax
	movq	8(%rax), %rax
	.loc 1 147 5
	testq	%rax, %rax
	je	.L34
	.loc 1 149 26
	movq	-24(%rbp), %rax
	movq	8(%rax), %rax
	.loc 1 149 19
	movq	%rax, %rdi
	call	_ZL9PrintNodePK5Token
	.loc 1 151 60
	movq	-24(%rbp), %rax
	movq	8(%rax), %rdx
	.loc 1 151 18
	movq	-24(%rbp), %rax
	movq	%rax, %rsi
	leaq	.LC34(%rip), %rax
	movq	%rax, %rdi
	movl	$0, %eax
	call	_ZL8DotPrintPKcz
	.loc 1 153 30
	movq	-24(%rbp), %rax
	movq	8(%rax), %rax
	.loc 1 153 23
	movq	%rax, %rdi
	call	_ZL13DotTreeBranchPK5Token
	.loc 1 156 5
	nop
.L34:
	nop
	.loc 1 157 5
	movq	-8(%rbp), %rbx
	leave
	.cfi_def_cfa 7, 8
	ret
	.cfi_endproc
.LFE2276:
	.size	_ZL13DotTreeBranchPK5Token, .-_ZL13DotTreeBranchPK5Token
	.section	.rodata
.LC35:
	.string	"PrintNode"
.LC36:
	.string	"void PrintNode(const Token*)"
.LC37:
	.string	"STATEMENT | {%c}"
.LC38:
	.string	"INSTRUCTION | {%s}"
.LC39:
	.string	"INITIALIZATOR | {%s}"
.LC40:
	.string	"FUNCTION_RET_TYPE | {%s}"
.LC41:
	.string	"OPERATOR | {%c}"
.LC42:
	.string	"NAME | {%s}"
.LC43:
	.string	"VARIABLE | {%s}"
.LC44:
	.string	"CONSTANT | {%lg}"
.LC45:
	.string	"FUNCTION | {%c}"
.LC46:
	.string	" "
.LC47:
	.string	"CALL | {%s}"
.LC48:
	.string	"ASSIGMENT | {%c}"
.LC49:
	.string	"BLOCK_OPENING_BRACKET | {%c}"
.LC50:
	.string	"BLOCK_CLOSING_BRACKET | {%c}"
	.align 8
.LC51:
	.string	"EXPRESSION_OPENING_BRACKET | {%c}"
	.align 8
.LC52:
	.string	"EXPRESSION_CLOSING_BRACKET | {%c}"
.LC53:
	.string	"END_OF_STATEMENT | {%c}"
.LC54:
	.string	"UNCKNOW_NAME\n"
	.align 8
.LC55:
	.string	"\t\tnode_%p [style = filled, fillcolor = \"#%06X\", shape = Mrecord label =  \"%s\"]\n"
	.text
	.type	_ZL9PrintNodePK5Token, @function
_ZL9PrintNodePK5Token:
.LFB2277:
	.loc 1 161 5
	.cfi_startproc
	.cfi_personality 0x9b,DW.ref.__gxx_personality_v0
	.cfi_lsda 0x1b,.LLSDA2277
	endbr64
	pushq	%rbp
	.cfi_def_cfa_offset 16
	.cfi_offset 6, -16
	movq	%rsp, %rbp
	.cfi_def_cfa_register 6
	pushq	%rbx
	subq	$408, %rsp
	.cfi_offset 3, -24
	movq	%rdi, -408(%rbp)
	.loc 1 161 5
	movq	%fs:40, %rax
	movq	%rax, -24(%rbp)
	xorl	%eax, %eax
	.loc 1 162 41
	leaq	-400(%rbp), %rax
	leaq	.LC35(%rip), %rdx
	movl	$1, %esi
	movq	%rax, %rdi
.LEHB3:
	call	_ZN14FunctionLoggerC1EiPKc@PLT
.LEHE3:
	.loc 1 163 10
	cmpq	$0, -408(%rbp)
	jne	.L36
.LEHB4:
	.loc 1 163 44 discriminator 1
	call	_ZN6Logger11getInstanceEv@PLT
	movq	%rax, %rcx
	.loc 1 163 50 discriminator 1
	leaq	.LC24(%rip), %rax
	movq	%rax, %rdx
	leaq	.LC25(%rip), %rax
	movq	%rax, %rsi
	movq	%rcx, %rdi
	movl	$0, %eax
	call	_ZN6Logger3logEPKcz@PLT
	.loc 1 163 107 discriminator 3
	leaq	.LC24(%rip), %rax
	movq	%rax, %rsi
	leaq	.LC26(%rip), %rax
	movq	%rax, %rdi
	movl	$0, %eax
	call	printf@PLT
	.loc 1 163 252 discriminator 4
	call	_ZN6Logger11getInstanceEv@PLT
	movq	%rax, %rdi
	.loc 1 163 258 discriminator 4
	leaq	.LC36(%rip), %r8
	movl	$163, %ecx
	leaq	.LC28(%rip), %rax
	movq	%rax, %rdx
	leaq	.LC29(%rip), %rax
	movq	%rax, %rsi
	movl	$0, %eax
	call	_ZN6Logger3logEPKcz@PLT
	.loc 1 163 351 discriminator 6
	leaq	.LC36(%rip), %rax
	movq	%rax, %rcx
	movl	$163, %edx
	leaq	.LC28(%rip), %rax
	movq	%rax, %rsi
	leaq	.LC29(%rip), %rax
	movq	%rax, %rdi
	movl	$0, %eax
	call	printf@PLT
	.loc 1 163 457 discriminator 7
	call	_ZN6Logger11getInstanceEv@PLT
	movq	%rax, %rbx
	.loc 1 163 463 discriminator 7
	movl	$14, %edi
	call	strerror@PLT
	movq	%rax, %rcx
	movl	$14, %edx
	leaq	.LC30(%rip), %rax
	movq	%rax, %rsi
	movq	%rbx, %rdi
	movl	$0, %eax
	call	_ZN6Logger3logEPKcz@PLT
	.loc 1 163 27 discriminator 9
	call	_ZN6Logger11getInstanceEv@PLT
	movq	%rax, %rdi
	.loc 1 163 33 discriminator 9
	movl	$163, %ecx
	leaq	.LC35(%rip), %rax
	movq	%rax, %rdx
	leaq	.LC32(%rip), %rax
	movq	%rax, %rsi
	movl	$0, %eax
	call	_ZN6Logger3logEPKcz@PLT
	.loc 1 163 92 discriminator 11
	leaq	.LC33(%rip), %rax
	movq	%rax, %rdi
	call	system@PLT
	.loc 1 163 113 discriminator 12
	call	abort@PLT
.L36:
	.loc 1 164 13
	movq	_ZL10STRING_ARR(%rip), %rdx
	movq	-408(%rbp), %rax
	leaq	.LC24(%rip), %rcx
	movq	%rcx, %rsi
	movq	%rax, %rdi
	call	_Z8LogTokenPK5TokenPKcPS3_@PLT
	.loc 1 166 10
	movq	$0, -368(%rbp)
	movq	$0, -360(%rbp)
	leaq	-352(%rbp), %rdx
	movl	$0, %eax
	movl	$39, %ecx
	movq	%rdx, %rdi
	rep stosq
	movq	%rdi, %rdx
	movl	%eax, (%rdx)
	addq	$4, %rdx
	movb	%al, (%rdx)
	addq	$1, %rdx
	.loc 1 168 19
	movq	-408(%rbp), %rax
	movl	16(%rax), %eax
	.loc 1 168 5
	cmpl	$125, %eax
	ja	.L37
	movl	%eax, %eax
	leaq	0(,%rax,4), %rdx
	leaq	.L39(%rip), %rax
	movl	(%rdx,%rax), %eax
	cltq
	leaq	.L39(%rip), %rdx
	addq	%rdx, %rax
	notrack jmp	*%rax
	.section	.rodata
	.align 4
	.align 4
.L39:
	.long	.L37-.L39
	.long	.L54-.L39
	.long	.L53-.L39
	.long	.L52-.L39
	.long	.L51-.L39
	.long	.L50-.L39
	.long	.L49-.L39
	.long	.L48-.L39
	.long	.L47-.L39
	.long	.L46-.L39
	.long	.L45-.L39
	.long	.L37-.L39
	.long	.L37-.L39
	.long	.L37-.L39
	.long	.L37-.L39
	.long	.L37-.L39
	.long	.L37-.L39
	.long	.L37-.L39
	.long	.L37-.L39
	.long	.L37-.L39
	.long	.L37-.L39
	.long	.L37-.L39
	.long	.L37-.L39
	.long	.L37-.L39
	.long	.L37-.L39
	.long	.L37-.L39
	.long	.L37-.L39
	.long	.L37-.L39
	.long	.L37-.L39
	.long	.L37-.L39
	.long	.L37-.L39
	.long	.L37-.L39
	.long	.L37-.L39
	.long	.L37-.L39
	.long	.L37-.L39
	.long	.L37-.L39
	.long	.L37-.L39
	.long	.L37-.L39
	.long	.L37-.L39
	.long	.L37-.L39
	.long	.L44-.L39
	.long	.L43-.L39
	.long	.L37-.L39
	.long	.L37-.L39
	.long	.L37-.L39
	.long	.L37-.L39
	.long	.L37-.L39
	.long	.L37-.L39
	.long	.L37-.L39
	.long	.L37-.L39
	.long	.L37-.L39
	.long	.L37-.L39
	.long	.L37-.L39
	.long	.L37-.L39
	.long	.L37-.L39
	.long	.L37-.L39
	.long	.L37-.L39
	.long	.L37-.L39
	.long	.L37-.L39
	.long	.L42-.L39
	.long	.L37-.L39
	.long	.L41-.L39
	.long	.L37-.L39
	.long	.L37-.L39
	.long	.L37-.L39
	.long	.L37-.L39
	.long	.L37-.L39
	.long	.L37-.L39
	.long	.L37-.L39
	.long	.L37-.L39
	.long	.L37-.L39
	.long	.L37-.L39
	.long	.L37-.L39
	.long	.L37-.L39
	.long	.L37-.L39
	.long	.L37-.L39
	.long	.L37-.L39
	.long	.L37-.L39
	.long	.L37-.L39
	.long	.L37-.L39
	.long	.L37-.L39
	.long	.L37-.L39
	.long	.L37-.L39
	.long	.L37-.L39
	.long	.L37-.L39
	.long	.L37-.L39
	.long	.L37-.L39
	.long	.L37-.L39
	.long	.L37-.L39
	.long	.L37-.L39
	.long	.L37-.L39
	.long	.L37-.L39
	.long	.L37-.L39
	.long	.L37-.L39
	.long	.L37-.L39
	.long	.L37-.L39
	.long	.L37-.L39
	.long	.L37-.L39
	.long	.L37-.L39
	.long	.L37-.L39
	.long	.L37-.L39
	.long	.L37-.L39
	.long	.L37-.L39
	.long	.L37-.L39
	.long	.L37-.L39
	.long	.L37-.L39
	.long	.L37-.L39
	.long	.L37-.L39
	.long	.L37-.L39
	.long	.L37-.L39
	.long	.L37-.L39
	.long	.L37-.L39
	.long	.L37-.L39
	.long	.L37-.L39
	.long	.L37-.L39
	.long	.L37-.L39
	.long	.L37-.L39
	.long	.L37-.L39
	.long	.L37-.L39
	.long	.L37-.L39
	.long	.L37-.L39
	.long	.L37-.L39
	.long	.L37-.L39
	.long	.L40-.L39
	.long	.L37-.L39
	.long	.L38-.L39
	.text
.L54:
	.file 2 "../Common/Structures/TokenTypes.h"
	.loc 2 4 76
	movq	-408(%rbp), %rax
	movzbl	24(%rax), %eax
	.loc 2 4 24
	cmpb	$123, %al
	je	.L55
	.loc 2 4 114 discriminator 1
	movq	-408(%rbp), %rax
	movzbl	24(%rax), %eax
	.loc 2 4 94 discriminator 1
	cmpb	$125, %al
	je	.L56
	.loc 2 4 152 discriminator 3
	movq	-408(%rbp), %rax
	movzbl	24(%rax), %eax
	.loc 2 4 94 discriminator 3
	movsbl	%al, %eax
	jmp	.L58
.L56:
	.loc 2 4 94 is_stmt 0 discriminator 4
	movl	$93, %eax
	jmp	.L58
.L55:
	.loc 2 4 24 is_stmt 1 discriminator 2
	movl	$91, %eax
.L58:
	.loc 2 4 24 is_stmt 0 discriminator 8
	leaq	-368(%rbp), %rcx
	movl	%eax, %edx
	leaq	.LC37(%rip), %rax
	movq	%rax, %rsi
	movq	%rcx, %rdi
	movl	$0, %eax
	call	sprintf@PLT
	.loc 2 4 165 is_stmt 1 discriminator 8
	jmp	.L59
.L53:
	.loc 2 5 93
	movq	-408(%rbp), %rax
	movl	24(%rax), %eax
	.loc 2 5 106
	cltq
	leaq	0(,%rax,8), %rdx
	leaq	_ZL12INSTRUCTIONS(%rip), %rax
	movq	(%rdx,%rax), %rdx
	.loc 2 5 26
	leaq	-368(%rbp), %rax
	leaq	.LC38(%rip), %rcx
	movq	%rcx, %rsi
	movq	%rax, %rdi
	movl	$0, %eax
	call	sprintf@PLT
	.loc 2 5 110
	jmp	.L59
.L52:
	.loc 2 6 99
	movq	-408(%rbp), %rax
	movl	24(%rax), %eax
	.loc 2 6 114
	cltq
	leaq	0(,%rax,8), %rdx
	leaq	_ZL14INITIALIZATORS(%rip), %rax
	movq	(%rdx,%rax), %rdx
	.loc 2 6 28
	leaq	-368(%rbp), %rax
	leaq	.LC39(%rip), %rcx
	movq	%rcx, %rsi
	movq	%rax, %rdi
	movl	$0, %eax
	call	sprintf@PLT
	.loc 2 6 118
	jmp	.L59
.L51:
	.loc 2 7 111
	movq	-408(%rbp), %rax
	movl	24(%rax), %eax
	.loc 2 7 130
	cltq
	leaq	0(,%rax,8), %rdx
	leaq	_ZL18FUNCTION_RET_TYPES(%rip), %rax
	movq	(%rdx,%rax), %rdx
	.loc 2 7 32
	leaq	-368(%rbp), %rax
	leaq	.LC40(%rip), %rcx
	movq	%rcx, %rsi
	movq	%rax, %rdi
	movl	$0, %eax
	call	sprintf@PLT
	.loc 2 7 134
	jmp	.L59
.L50:
	.loc 2 8 74
	movq	-408(%rbp), %rax
	movzbl	24(%rax), %eax
	.loc 2 8 23
	movsbl	%al, %edx
	leaq	-368(%rbp), %rax
	leaq	.LC41(%rip), %rcx
	movq	%rcx, %rsi
	movq	%rax, %rdi
	movl	$0, %eax
	call	sprintf@PLT
	.loc 2 8 87
	jmp	.L59
.L49:
	.loc 2 10 86
	movq	_ZL10STRING_ARR(%rip), %rdx
	.loc 2 10 77
	movq	-408(%rbp), %rax
	movl	24(%rax), %eax
	cltq
	.loc 2 10 86
	salq	$3, %rax
	addq	%rdx, %rax
	.loc 2 10 19
	movq	(%rax), %rdx
	leaq	-368(%rbp), %rax
	leaq	.LC42(%rip), %rcx
	movq	%rcx, %rsi
	movq	%rax, %rdi
	movl	$0, %eax
	call	sprintf@PLT
	.loc 2 10 90
	jmp	.L59
.L48:
	.loc 2 11 94
	movq	_ZL10STRING_ARR(%rip), %rdx
	.loc 2 11 85
	movq	-408(%rbp), %rax
	movl	24(%rax), %eax
	cltq
	.loc 2 11 94
	salq	$3, %rax
	addq	%rdx, %rax
	.loc 2 11 23
	movq	(%rax), %rdx
	leaq	-368(%rbp), %rax
	leaq	.LC43(%rip), %rcx
	movq	%rcx, %rsi
	movq	%rax, %rdi
	movl	$0, %eax
	call	sprintf@PLT
	.loc 2 11 98
	jmp	.L59
.L47:
	.loc 2 12 75
	movq	-408(%rbp), %rax
	movq	24(%rax), %rdx
	.loc 2 12 23
	leaq	-368(%rbp), %rax
	movq	%rdx, %xmm0
	leaq	.LC44(%rip), %rdx
	movq	%rdx, %rsi
	movq	%rax, %rdi
	movl	$1, %eax
	call	sprintf@PLT
	.loc 2 12 88
	jmp	.L59
.L46:
	.loc 2 13 74
	movq	-408(%rbp), %rax
	movzbl	24(%rax), %eax
	.loc 2 13 23
	cmpb	$123, %al
	je	.L60
	.loc 2 13 112 discriminator 1
	movq	-408(%rbp), %rax
	movzbl	24(%rax), %eax
	.loc 2 13 92 discriminator 1
	cmpb	$125, %al
	je	.L61
	.loc 2 13 150 discriminator 3
	movq	-408(%rbp), %rax
	movzbl	24(%rax), %eax
	.loc 2 13 92 discriminator 3
	movsbl	%al, %eax
	jmp	.L63
.L61:
	.loc 2 13 92 is_stmt 0 discriminator 4
	movl	$93, %eax
	jmp	.L63
.L60:
	.loc 2 13 23 is_stmt 1 discriminator 2
	movl	$91, %eax
.L63:
	.loc 2 13 23 is_stmt 0 discriminator 8
	leaq	-368(%rbp), %rcx
	movl	%eax, %edx
	leaq	.LC45(%rip), %rax
	movq	%rax, %rsi
	movq	%rcx, %rdi
	movl	$0, %eax
	call	sprintf@PLT
	.loc 2 13 163 is_stmt 1 discriminator 8
	jmp	.L59
.L45:
	.loc 2 14 19
	leaq	-368(%rbp), %rax
	leaq	.LC46(%rip), %rdx
	leaq	.LC47(%rip), %rcx
	movq	%rcx, %rsi
	movq	%rax, %rdi
	movl	$0, %eax
	call	sprintf@PLT
	.loc 2 14 60
	jmp	.L59
.L41:
	.loc 2 16 76
	movq	-408(%rbp), %rax
	movzbl	24(%rax), %eax
	.loc 2 16 24
	movsbl	%al, %edx
	leaq	-368(%rbp), %rax
	leaq	.LC48(%rip), %rcx
	movq	%rcx, %rsi
	movq	%rax, %rdi
	movl	$0, %eax
	call	sprintf@PLT
	.loc 2 16 89
	jmp	.L59
.L40:
	.loc 2 17 100
	movq	-408(%rbp), %rax
	movzbl	24(%rax), %eax
	.loc 2 17 36
	movsbl	%al, %edx
	leaq	-368(%rbp), %rax
	leaq	.LC49(%rip), %rcx
	movq	%rcx, %rsi
	movq	%rax, %rdi
	movl	$0, %eax
	call	sprintf@PLT
	.loc 2 17 113
	jmp	.L59
.L38:
	.loc 2 18 100
	movq	-408(%rbp), %rax
	movzbl	24(%rax), %eax
	.loc 2 18 36
	movsbl	%al, %edx
	leaq	-368(%rbp), %rax
	leaq	.LC50(%rip), %rcx
	movq	%rcx, %rsi
	movq	%rax, %rdi
	movl	$0, %eax
	call	sprintf@PLT
	.loc 2 18 113
	jmp	.L59
.L44:
	.loc 2 19 110
	movq	-408(%rbp), %rax
	movzbl	24(%rax), %eax
	.loc 2 19 41
	movsbl	%al, %edx
	leaq	-368(%rbp), %rax
	leaq	.LC51(%rip), %rcx
	movq	%rcx, %rsi
	movq	%rax, %rdi
	movl	$0, %eax
	call	sprintf@PLT
	.loc 2 19 123
	jmp	.L59
.L43:
	.loc 2 20 110
	movq	-408(%rbp), %rax
	movzbl	24(%rax), %eax
	.loc 2 20 41
	movsbl	%al, %edx
	leaq	-368(%rbp), %rax
	leaq	.LC52(%rip), %rcx
	movq	%rcx, %rsi
	movq	%rax, %rdi
	movl	$0, %eax
	call	sprintf@PLT
	.loc 2 20 123
	jmp	.L59
.L42:
	.loc 2 21 90
	movq	-408(%rbp), %rax
	movzbl	24(%rax), %eax
	.loc 2 21 31
	movsbl	%al, %edx
	leaq	-368(%rbp), %rax
	leaq	.LC53(%rip), %rcx
	movq	%rcx, %rsi
	movq	%rax, %rdi
	movl	$0, %eax
	call	sprintf@PLT
	.loc 2 21 103
	jmp	.L59
.L37:
	.loc 1 181 25
	leaq	-368(%rbp), %rax
	leaq	.LC54(%rip), %rdx
	movq	%rdx, %rsi
	movq	%rax, %rdi
	movl	$0, %eax
	call	sprintf@PLT
	.loc 1 182 18
	nop
.L59:
	.loc 1 185 142
	movq	-408(%rbp), %rax
	movl	16(%rax), %eax
	.loc 1 185 147
	cltd
	shrl	$29, %edx
	addl	%edx, %eax
	andl	$7, %eax
	subl	%edx, %eax
	.loc 1 185 150
	cltq
	leaq	0(,%rax,4), %rdx
	leaq	_ZL16GRAPH_VIS_COLORS(%rip), %rax
	movl	(%rdx,%rax), %edx
	.loc 1 185 14
	leaq	-368(%rbp), %rcx
	movq	-408(%rbp), %rax
	movq	%rax, %rsi
	leaq	.LC55(%rip), %rax
	movq	%rax, %rdi
	movl	$0, %eax
	call	_ZL8DotPrintPKcz
.LEHE4:
	.loc 1 187 5
	nop
	.loc 1 188 5
	leaq	-400(%rbp), %rax
	movq	%rax, %rdi
	call	_ZN14FunctionLoggerD1Ev@PLT
	.loc 1 187 5
	nop
	.loc 1 188 5
	movq	-24(%rbp), %rax
	subq	%fs:40, %rax
	je	.L66
	jmp	.L68
.L67:
	endbr64
	movq	%rax, %rbx
	leaq	-400(%rbp), %rax
	movq	%rax, %rdi
	call	_ZN14FunctionLoggerD1Ev@PLT
	movq	%rbx, %rax
	movq	%rax, %rdi
.LEHB5:
	call	_Unwind_Resume@PLT
.LEHE5:
.L68:
	call	__stack_chk_fail@PLT
.L66:
	movq	-8(%rbp), %rbx
	leave
	.cfi_def_cfa 7, 8
	ret
	.cfi_endproc
.LFE2277:
	.section	.gcc_except_table
.LLSDA2277:
	.byte	0xff
	.byte	0xff
	.byte	0x1
	.uleb128 .LLSDACSE2277-.LLSDACSB2277
.LLSDACSB2277:
	.uleb128 .LEHB3-.LFB2277
	.uleb128 .LEHE3-.LEHB3
	.uleb128 0
	.uleb128 0
	.uleb128 .LEHB4-.LFB2277
	.uleb128 .LEHE4-.LEHB4
	.uleb128 .L67-.LFB2277
	.uleb128 0
	.uleb128 .LEHB5-.LFB2277
	.uleb128 .LEHE5-.LEHB5
	.uleb128 0
	.uleb128 0
.LLSDACSE2277:
	.text
	.size	_ZL9PrintNodePK5Token, .-_ZL9PrintNodePK5Token
	.type	_Z41__static_initialization_and_destruction_0ii, @function
_Z41__static_initialization_and_destruction_0ii:
.LFB2944:
	.loc 1 188 5
	.cfi_startproc
	endbr64
	pushq	%rbp
	.cfi_def_cfa_offset 16
	.cfi_offset 6, -16
	movq	%rsp, %rbp
	.cfi_def_cfa_register 6
	subq	$16, %rsp
	movl	%edi, -4(%rbp)
	movl	%esi, -8(%rbp)
	.loc 1 188 5
	cmpl	$1, -4(%rbp)
	jne	.L71
	.loc 1 188 5 is_stmt 0 discriminator 1
	cmpl	$65535, -8(%rbp)
	jne	.L71
	.file 3 "/usr/include/c++/11/iostream"
	.loc 3 74 25 is_stmt 1
	leaq	_ZStL8__ioinit(%rip), %rax
	movq	%rax, %rdi
	call	_ZNSt8ios_base4InitC1Ev@PLT
	leaq	__dso_handle(%rip), %rax
	movq	%rax, %rdx
	leaq	_ZStL8__ioinit(%rip), %rax
	movq	%rax, %rsi
	movq	_ZNSt8ios_base4InitD1Ev@GOTPCREL(%rip), %rax
	movq	%rax, %rdi
	call	__cxa_atexit@PLT
.L71:
	.loc 1 188 5
	nop
	leave
	.cfi_def_cfa 7, 8
	ret
	.cfi_endproc
.LFE2944:
	.size	_Z41__static_initialization_and_destruction_0ii, .-_Z41__static_initialization_and_destruction_0ii
	.type	_GLOBAL__sub_I__Z7MakeImgPKcPK7Program, @function
_GLOBAL__sub_I__Z7MakeImgPKcPK7Program:
.LFB2945:
	.loc 1 188 5
	.cfi_startproc
	endbr64
	pushq	%rbp
	.cfi_def_cfa_offset 16
	.cfi_offset 6, -16
	movq	%rsp, %rbp
	.cfi_def_cfa_register 6
	.loc 1 188 5
	movl	$65535, %esi
	movl	$1, %edi
	call	_Z41__static_initialization_and_destruction_0ii
	popq	%rbp
	.cfi_def_cfa 7, 8
	ret
	.cfi_endproc
.LFE2945:
	.size	_GLOBAL__sub_I__Z7MakeImgPKcPK7Program, .-_GLOBAL__sub_I__Z7MakeImgPKcPK7Program
	.section	.init_array,"aw"
	.align 8
	.quad	_GLOBAL__sub_I__Z7MakeImgPKcPK7Program
	.text
.Letext0:
	.file 4 "/usr/lib/gcc/x86_64-linux-gnu/11/include/stddef.h"
	.file 5 "/usr/include/stdlib.h"
	.file 6 "/usr/include/x86_64-linux-gnu/bits/types.h"
	.file 7 "/usr/include/x86_64-linux-gnu/bits/stdint-intn.h"
	.file 8 "/usr/include/c++/11/cstdlib"
	.file 9 "/usr/include/c++/11/bits/std_abs.h"
	.file 10 "/usr/include/c++/11/cwchar"
	.file 11 "/usr/include/c++/11/type_traits"
	.file 12 "/usr/include/c++/11/bits/exception_ptr.h"
	.file 13 "/usr/include/x86_64-linux-gnu/c++/11/bits/c++config.h"
	.file 14 "/usr/include/c++/11/concepts"
	.file 15 "/usr/include/c++/11/bits/iterator_concepts.h"
	.file 16 "/usr/include/c++/11/bits/ranges_cmp.h"
	.file 17 "/usr/include/c++/11/compare"
	.file 18 "/usr/include/c++/11/debug/debug.h"
	.file 19 "/usr/include/c++/11/cstdint"
	.file 20 "/usr/include/c++/11/clocale"
	.file 21 "/usr/include/c++/11/numbers"
	.file 22 "/usr/include/c++/11/cstdio"
	.file 23 "/usr/include/c++/11/bits/ios_base.h"
	.file 24 "/usr/include/c++/11/cwctype"
	.file 25 "/usr/include/c++/11/bits/predefined_ops.h"
	.file 26 "/usr/include/c++/11/stdlib.h"
	.file 27 "/usr/lib/gcc/x86_64-linux-gnu/11/include/stdarg.h"
	.file 28 "<built-in>"
	.file 29 "/usr/include/x86_64-linux-gnu/bits/types/__mbstate_t.h"
	.file 30 "/usr/include/x86_64-linux-gnu/bits/types/__fpos_t.h"
	.file 31 "/usr/include/x86_64-linux-gnu/bits/types/__FILE.h"
	.file 32 "/usr/include/x86_64-linux-gnu/bits/types/struct_FILE.h"
	.file 33 "/usr/include/x86_64-linux-gnu/bits/types/FILE.h"
	.file 34 "/usr/include/stdio.h"
	.file 35 "../Common/Structures/Token/Token.h"
	.file 36 "../Common/Structures/Tabels/Tabels.h"
	.file 37 "../Common/Structures/Program/Program.h"
	.file 38 "../ATC/GraphVis/GVConfig.h"
	.file 39 "../Common/Grammar.h"
	.file 40 "/usr/include/x86_64-linux-gnu/bits/types/wint_t.h"
	.file 41 "/usr/include/x86_64-linux-gnu/bits/types/mbstate_t.h"
	.file 42 "/usr/include/wchar.h"
	.file 43 "/usr/include/x86_64-linux-gnu/bits/types/struct_tm.h"
	.file 44 "/usr/include/c++/11/bits/ptr_traits.h"
	.file 45 "/usr/include/x86_64-linux-gnu/bits/stdint-uintn.h"
	.file 46 "/usr/include/stdint.h"
	.file 47 "/usr/include/locale.h"
	.file 48 "/usr/include/x86_64-linux-gnu/bits/wctype-wchar.h"
	.file 49 "/usr/include/wctype.h"
	.file 50 "../ATC/Logger/LogConfig.h"
	.file 51 "../ATC/Logger/FunctionLogger.h"
	.file 52 "../ATC/RandomStuff/CommonEnums.h"
	.file 53 "../ATC/Buffer/my_buffer.h"
	.file 54 "../Common/Utils/LangUtils.h"
	.file 55 "/usr/include/string.h"
	.file 56 "/usr/include/c++/11/bits/algorithmfwd.h"
	.file 57 "../ATC/Logger/Logger.h"
	.section	.data.rel.local.DW.ref.__gxx_personality_v0,"awG",@progbits,DW.ref.__gxx_personality_v0,comdat
	.align 8
	.type	DW.ref.__gxx_personality_v0, @object
	.size	DW.ref.__gxx_personality_v0, 8
DW.ref.__gxx_personality_v0:
	.quad	__gxx_personality_v0
	.hidden	__dso_handle
	.ident	"GCC: (Ubuntu 11.3.0-1ubuntu1~22.04) 11.3.0"
	.section	.note.GNU-stack,"",@progbits
	.section	.note.gnu.property,"a"
	.align 8
	.long	1f - 0f
	.long	4f - 1f
	.long	5
0:
	.string	"GNU"
1:
	.align 8
	.long	0xc0000002
	.long	3f - 2f
2:
	.long	0x3
3:
	.align 8
4:
