	.file	"LangUtils.cpp"
	.text
.Ltext0:
	.file 0 "/home/arsenyfucker/Cprojects/Lang/Translator/FrontEnd" "../Common/Utils/LangUtils.cpp"
	.section	.rodata
	.align 32
	.type	_ZL12NOT_DECLARED, @object
	.size	_ZL12NOT_DECLARED, 4
_ZL12NOT_DECLARED:
	.long	-111
	.zero	60
	.align 32
	.type	_ZL11NOT_A_LABEL, @object
	.size	_ZL11NOT_A_LABEL, 4
_ZL11NOT_A_LABEL:
	.long	-9
	.zero	60
	.align 32
	.type	_ZL21NUMBER_OF_INSTUCTIONS, @object
	.size	_ZL21NUMBER_OF_INSTUCTIONS, 4
_ZL21NUMBER_OF_INSTUCTIONS:
	.long	4
	.zero	60
	.align 32
.LC0:
	.string	"if"
	.zero	61
	.align 32
.LC1:
	.string	"else"
	.zero	59
	.align 32
.LC2:
	.string	"while"
	.zero	58
	.align 32
.LC3:
	.string	"return"
	.zero	57
	.section	.data.rel.ro.local,"aw"
	.align 32
	.type	_ZL12INSTRUCTIONS, @object
	.size	_ZL12INSTRUCTIONS, 32
_ZL12INSTRUCTIONS:
	.quad	.LC0
	.quad	.LC1
	.quad	.LC2
	.quad	.LC3
	.zero	32
	.section	.rodata
	.align 32
	.type	_ZL26NUMBER_OF_NATIVE_FUNCTIONS, @object
	.size	_ZL26NUMBER_OF_NATIVE_FUNCTIONS, 4
_ZL26NUMBER_OF_NATIVE_FUNCTIONS:
	.long	4
	.zero	60
	.align 32
.LC4:
	.string	"fout"
	.zero	59
	.align 32
.LC5:
	.string	"fin"
	.zero	60
	.align 32
.LC6:
	.string	"sin"
	.zero	60
	.align 32
.LC7:
	.string	"cos"
	.zero	60
	.section	.data.rel.ro.local
	.align 32
	.type	_ZL16NATIVE_FUNCTIONS, @object
	.size	_ZL16NATIVE_FUNCTIONS, 32
_ZL16NATIVE_FUNCTIONS:
	.quad	.LC4
	.quad	.LC5
	.quad	.LC6
	.quad	.LC7
	.zero	32
	.section	.rodata
	.align 32
	.type	_ZL24NUMBER_OF_INITIALIZATORS, @object
	.size	_ZL24NUMBER_OF_INITIALIZATORS, 4
_ZL24NUMBER_OF_INITIALIZATORS:
	.long	2
	.zero	60
	.align 32
.LC8:
	.string	"extern"
	.zero	57
	.align 32
.LC9:
	.string	"var"
	.zero	60
	.section	.data.rel.ro.local
	.align 32
	.type	_ZL14INITIALIZATORS, @object
	.size	_ZL14INITIALIZATORS, 16
_ZL14INITIALIZATORS:
	.quad	.LC8
	.quad	.LC9
	.zero	48
	.section	.rodata
	.align 32
	.type	_ZL28NUMBER_OF_FUNCTION_RET_TYPES, @object
	.size	_ZL28NUMBER_OF_FUNCTION_RET_TYPES, 4
_ZL28NUMBER_OF_FUNCTION_RET_TYPES:
	.long	2
	.zero	60
	.align 32
.LC10:
	.string	"double"
	.zero	57
	.align 32
.LC11:
	.string	"void"
	.zero	59
	.section	.data.rel.ro.local
	.align 32
	.type	_ZL18FUNCTION_RET_TYPES, @object
	.size	_ZL18FUNCTION_RET_TYPES, 16
_ZL18FUNCTION_RET_TYPES:
	.quad	.LC10
	.quad	.LC11
	.zero	48
	.section	.rodata
	.align 32
	.type	_ZL9OPERATORS, @object
	.size	_ZL9OPERATORS, 8
_ZL9OPERATORS:
	.string	"+-/*^<<"
	.zero	56
	.align 32
	.type	_ZL7COMMENT, @object
	.size	_ZL7COMMENT, 1
_ZL7COMMENT:
	.byte	35
	.zero	63
	.align 32
.LC12:
	.string	"main"
	.zero	59
	.section	.data.rel.ro.local
	.align 32
	.type	_ZL9MAIN_NAME, @object
	.size	_ZL9MAIN_NAME, 8
_ZL9MAIN_NAME:
	.quad	.LC12
	.zero	56
	.section	.rodata
	.align 32
	.type	_ZL24MAX_FUNCTION_NAME_LENGTH, @object
	.size	_ZL24MAX_FUNCTION_NAME_LENGTH, 4
_ZL24MAX_FUNCTION_NAME_LENGTH:
	.long	16
	.zero	60
	.align 32
	.type	_ZL15MAX_WORD_LENGTH, @object
	.size	_ZL15MAX_WORD_LENGTH, 4
_ZL15MAX_WORD_LENGTH:
	.long	16
	.zero	60
	.bss
	.align 32
	.type	_ZStL8__ioinit, @object
	.size	_ZStL8__ioinit, 1
_ZStL8__ioinit:
	.zero	64
	.section	.rodata
	.align 32
	.type	_ZL12STD_LOG_NAME, @object
	.size	_ZL12STD_LOG_NAME, 18
_ZL12STD_LOG_NAME:
	.string	"./logs/stdlog.ars"
	.zero	46
	.align 32
	.type	_ZL6CRINGE, @object
	.size	_ZL6CRINGE, 4
_ZL6CRINGE:
	.long	3565
	.zero	60
	.align 32
.LC13:
	.string	"Token address %p\n"
	.zero	46
	.align 32
.LC14:
	.string	"type: (%d) "
	.zero	52
	.align 32
.LC15:
	.string	"STATEMENT | {'%c'}\n"
	.zero	44
	.align 32
.LC16:
	.string	"INSTRUCTION | {'%s'}\n"
	.zero	42
	.align 32
.LC17:
	.string	"INITIALIZATOR | {'%s'}\n"
	.zero	40
	.align 32
.LC18:
	.string	"FUNCTION_RET_TYPE | {'%s'}\n"
	.zero	36
	.align 32
.LC19:
	.string	"OPERATOR | {'%c'}\n"
	.zero	45
	.align 32
.LC20:
	.string	"NAME | {'%s'}\n"
	.zero	49
	.align 32
.LC21:
	.string	"VARIABLE | {'%s'}\n"
	.zero	45
	.align 32
.LC22:
	.string	"CONSTANT | {'%lg'}\n"
	.zero	44
	.align 32
.LC23:
	.string	"FUNCTION | {'%c'}\n"
	.zero	45
	.align 32
.LC24:
	.string	"CALL | {'%c'}\n"
	.zero	49
	.align 32
.LC25:
	.string	"NATIVE_FUNCTION | {'%s'}\n"
	.zero	38
	.align 32
.LC26:
	.string	"ASSIGMENT | {'%c'}\n"
	.zero	44
	.align 32
.LC27:
	.string	"BLOCK_OPENING_BRACKET | {'%c'}\n"
	.zero	32
	.align 32
.LC28:
	.string	"BLOCK_CLOSING_BRACKET | {'%c'}\n"
	.zero	32
	.align 32
.LC29:
	.string	"EXPRESSION_OPENING_BRACKET | {'%c'}\n"
	.zero	59
	.align 32
.LC30:
	.string	"EXPRESSION_CLOSING_BRACKET | {'%c'}\n"
	.zero	59
	.align 32
.LC31:
	.string	"END_OF_STATEMENT | {'%c'}\n"
	.zero	37
	.align 32
.LC32:
	.string	"UNCKNOWN TYPE"
	.zero	50
	.align 32
.LC33:
	.string	"Line: %d, Indent: %d\n"
	.zero	42
	.align 32
.LC34:
	.string	"Source ptr to code in buffer: %p\n"
	.zero	62
	.text
	.globl	_Z10PrintTokenPK5TokenPPKc
	.type	_Z10PrintTokenPK5TokenPPKc, @function
_Z10PrintTokenPK5TokenPPKc:
.LASANPC2270:
.LFB2270:
	.file 1 "../Common/Utils/LangUtils.cpp"
	.loc 1 11 5
	.cfi_startproc
	endbr64
	pushq	%rbp
	.cfi_def_cfa_offset 16
	.cfi_offset 6, -16
	movq	%rsp, %rbp
	.cfi_def_cfa_register 6
	subq	$16, %rsp
	movq	%rdi, -8(%rbp)
	movq	%rsi, -16(%rbp)
	.loc 1 12 5
	cmpq	$0, -8(%rbp)
	je	.L60
	.loc 1 14 11
	movq	-8(%rbp), %rax
	movq	%rax, %rsi
	leaq	.LC13(%rip), %rax
	movq	%rax, %rdi
	movl	$0, %eax
	call	printf@PLT
	.loc 1 15 34
	movq	-8(%rbp), %rax
	addq	$16, %rax
	movq	%rax, %rdx
	movq	%rdx, %rax
	shrq	$3, %rax
	addq	$2147450880, %rax
	movzbl	(%rax), %eax
	testb	%al, %al
	setne	%cl
	cmpb	$3, %al
	setle	%al
	andl	%ecx, %eax
	testb	%al, %al
	je	.L4
	movq	%rdx, %rdi
	call	__asan_report_load4@PLT
.L4:
	movq	-8(%rbp), %rax
	movl	16(%rax), %eax
	.loc 1 15 11
	movl	%eax, %esi
	leaq	.LC14(%rip), %rax
	movq	%rax, %rdi
	movl	$0, %eax
	call	printf@PLT
	.loc 1 17 20
	movq	-8(%rbp), %rax
	addq	$16, %rax
	movq	%rax, %rdx
	movq	%rdx, %rax
	shrq	$3, %rax
	addq	$2147450880, %rax
	movzbl	(%rax), %eax
	testb	%al, %al
	setne	%cl
	cmpb	$3, %al
	setle	%al
	andl	%ecx, %eax
	testb	%al, %al
	je	.L5
	movq	%rdx, %rdi
	call	__asan_report_load4@PLT
.L5:
	movq	-8(%rbp), %rax
	movl	16(%rax), %eax
	.loc 1 17 5
	cmpl	$125, %eax
	ja	.L6
	movl	%eax, %eax
	leaq	0(,%rax,4), %rdx
	leaq	.L8(%rip), %rax
	movl	(%rdx,%rax), %eax
	cltq
	leaq	.L8(%rip), %rdx
	addq	%rdx, %rax
	notrack jmp	*%rax
	.section	.rodata
	.align 4
	.align 4
.L8:
	.long	.L6-.L8
	.long	.L24-.L8
	.long	.L23-.L8
	.long	.L22-.L8
	.long	.L21-.L8
	.long	.L20-.L8
	.long	.L19-.L8
	.long	.L18-.L8
	.long	.L17-.L8
	.long	.L16-.L8
	.long	.L15-.L8
	.long	.L14-.L8
	.long	.L6-.L8
	.long	.L6-.L8
	.long	.L6-.L8
	.long	.L6-.L8
	.long	.L6-.L8
	.long	.L6-.L8
	.long	.L6-.L8
	.long	.L6-.L8
	.long	.L6-.L8
	.long	.L6-.L8
	.long	.L6-.L8
	.long	.L6-.L8
	.long	.L6-.L8
	.long	.L6-.L8
	.long	.L6-.L8
	.long	.L6-.L8
	.long	.L6-.L8
	.long	.L6-.L8
	.long	.L6-.L8
	.long	.L6-.L8
	.long	.L6-.L8
	.long	.L6-.L8
	.long	.L6-.L8
	.long	.L6-.L8
	.long	.L6-.L8
	.long	.L6-.L8
	.long	.L6-.L8
	.long	.L6-.L8
	.long	.L13-.L8
	.long	.L12-.L8
	.long	.L6-.L8
	.long	.L6-.L8
	.long	.L6-.L8
	.long	.L6-.L8
	.long	.L6-.L8
	.long	.L6-.L8
	.long	.L6-.L8
	.long	.L6-.L8
	.long	.L6-.L8
	.long	.L6-.L8
	.long	.L6-.L8
	.long	.L6-.L8
	.long	.L6-.L8
	.long	.L6-.L8
	.long	.L6-.L8
	.long	.L6-.L8
	.long	.L6-.L8
	.long	.L11-.L8
	.long	.L6-.L8
	.long	.L10-.L8
	.long	.L6-.L8
	.long	.L6-.L8
	.long	.L6-.L8
	.long	.L6-.L8
	.long	.L6-.L8
	.long	.L6-.L8
	.long	.L6-.L8
	.long	.L6-.L8
	.long	.L6-.L8
	.long	.L6-.L8
	.long	.L6-.L8
	.long	.L6-.L8
	.long	.L6-.L8
	.long	.L6-.L8
	.long	.L6-.L8
	.long	.L6-.L8
	.long	.L6-.L8
	.long	.L6-.L8
	.long	.L6-.L8
	.long	.L6-.L8
	.long	.L6-.L8
	.long	.L6-.L8
	.long	.L6-.L8
	.long	.L6-.L8
	.long	.L6-.L8
	.long	.L6-.L8
	.long	.L6-.L8
	.long	.L6-.L8
	.long	.L6-.L8
	.long	.L6-.L8
	.long	.L6-.L8
	.long	.L6-.L8
	.long	.L6-.L8
	.long	.L6-.L8
	.long	.L6-.L8
	.long	.L6-.L8
	.long	.L6-.L8
	.long	.L6-.L8
	.long	.L6-.L8
	.long	.L6-.L8
	.long	.L6-.L8
	.long	.L6-.L8
	.long	.L6-.L8
	.long	.L6-.L8
	.long	.L6-.L8
	.long	.L6-.L8
	.long	.L6-.L8
	.long	.L6-.L8
	.long	.L6-.L8
	.long	.L6-.L8
	.long	.L6-.L8
	.long	.L6-.L8
	.long	.L6-.L8
	.long	.L6-.L8
	.long	.L6-.L8
	.long	.L6-.L8
	.long	.L6-.L8
	.long	.L6-.L8
	.long	.L6-.L8
	.long	.L6-.L8
	.long	.L6-.L8
	.long	.L9-.L8
	.long	.L6-.L8
	.long	.L7-.L8
	.text
.L24:
	.file 2 "../Common/Structures/TokenTypes.h"
	.loc 2 4 71
	movq	-8(%rbp), %rax
	addq	$24, %rax
	movq	%rax, %rdx
	movq	%rdx, %rax
	shrq	$3, %rax
	addq	$2147450880, %rax
	movzbl	(%rax), %eax
	testb	%al, %al
	setne	%cl
	testb	%al, %al
	setle	%al
	andl	%ecx, %eax
	testb	%al, %al
	je	.L25
	movq	%rdx, %rdi
	call	__asan_report_load1@PLT
.L25:
	movq	-8(%rbp), %rax
	movzbl	24(%rax), %eax
	.loc 2 4 24
	cmpb	$123, %al
	je	.L26
	.loc 2 4 110 discriminator 1
	movq	-8(%rbp), %rax
	movzbl	24(%rax), %eax
	.loc 2 4 89 discriminator 1
	cmpb	$125, %al
	je	.L27
	.loc 2 4 149 discriminator 3
	movq	-8(%rbp), %rax
	movzbl	24(%rax), %eax
	.loc 2 4 89 discriminator 3
	movsbl	%al, %eax
	jmp	.L29
.L27:
	.loc 2 4 89 is_stmt 0 discriminator 4
	movl	$93, %eax
	jmp	.L29
.L26:
	.loc 2 4 24 is_stmt 1 discriminator 2
	movl	$91, %eax
.L29:
	.loc 2 4 24 is_stmt 0 discriminator 8
	movl	%eax, %esi
	leaq	.LC15(%rip), %rax
	movq	%rax, %rdi
	movl	$0, %eax
	call	printf@PLT
	.loc 2 4 162 is_stmt 1 discriminator 8
	jmp	.L30
.L23:
	.loc 2 5 88
	movq	-8(%rbp), %rax
	addq	$24, %rax
	movq	%rax, %rdx
	movq	%rdx, %rax
	shrq	$3, %rax
	addq	$2147450880, %rax
	movzbl	(%rax), %eax
	testb	%al, %al
	setne	%cl
	cmpb	$3, %al
	setle	%al
	andl	%ecx, %eax
	testb	%al, %al
	je	.L31
	movq	%rdx, %rdi
	call	__asan_report_load4@PLT
.L31:
	movq	-8(%rbp), %rax
	movl	24(%rax), %eax
	.loc 2 5 101
	movslq	%eax, %rdx
	leaq	0(,%rdx,8), %rcx
	leaq	_ZL12INSTRUCTIONS(%rip), %rdx
	addq	%rcx, %rdx
	movq	%rdx, %rcx
	shrq	$3, %rcx
	addq	$2147450880, %rcx
	movzbl	(%rcx), %ecx
	testb	%cl, %cl
	je	.L32
	movq	%rdx, %rdi
	call	__asan_report_load8@PLT
.L32:
	cltq
	leaq	0(,%rax,8), %rdx
	leaq	_ZL12INSTRUCTIONS(%rip), %rax
	movq	(%rdx,%rax), %rax
	.loc 2 5 26
	movq	%rax, %rsi
	leaq	.LC16(%rip), %rax
	movq	%rax, %rdi
	movl	$0, %eax
	call	printf@PLT
	.loc 2 5 105
	jmp	.L30
.L22:
	.loc 2 6 94
	movq	-8(%rbp), %rax
	addq	$24, %rax
	movq	%rax, %rdx
	movq	%rdx, %rax
	shrq	$3, %rax
	addq	$2147450880, %rax
	movzbl	(%rax), %eax
	testb	%al, %al
	setne	%cl
	cmpb	$3, %al
	setle	%al
	andl	%ecx, %eax
	testb	%al, %al
	je	.L33
	movq	%rdx, %rdi
	call	__asan_report_load4@PLT
.L33:
	movq	-8(%rbp), %rax
	movl	24(%rax), %eax
	.loc 2 6 109
	movslq	%eax, %rdx
	leaq	0(,%rdx,8), %rcx
	leaq	_ZL14INITIALIZATORS(%rip), %rdx
	addq	%rcx, %rdx
	movq	%rdx, %rcx
	shrq	$3, %rcx
	addq	$2147450880, %rcx
	movzbl	(%rcx), %ecx
	testb	%cl, %cl
	je	.L34
	movq	%rdx, %rdi
	call	__asan_report_load8@PLT
.L34:
	cltq
	leaq	0(,%rax,8), %rdx
	leaq	_ZL14INITIALIZATORS(%rip), %rax
	movq	(%rdx,%rax), %rax
	.loc 2 6 28
	movq	%rax, %rsi
	leaq	.LC17(%rip), %rax
	movq	%rax, %rdi
	movl	$0, %eax
	call	printf@PLT
	.loc 2 6 113
	jmp	.L30
.L21:
	.loc 2 7 106
	movq	-8(%rbp), %rax
	addq	$24, %rax
	movq	%rax, %rdx
	movq	%rdx, %rax
	shrq	$3, %rax
	addq	$2147450880, %rax
	movzbl	(%rax), %eax
	testb	%al, %al
	setne	%cl
	cmpb	$3, %al
	setle	%al
	andl	%ecx, %eax
	testb	%al, %al
	je	.L35
	movq	%rdx, %rdi
	call	__asan_report_load4@PLT
.L35:
	movq	-8(%rbp), %rax
	movl	24(%rax), %eax
	.loc 2 7 125
	movslq	%eax, %rdx
	leaq	0(,%rdx,8), %rcx
	leaq	_ZL18FUNCTION_RET_TYPES(%rip), %rdx
	addq	%rcx, %rdx
	movq	%rdx, %rcx
	shrq	$3, %rcx
	addq	$2147450880, %rcx
	movzbl	(%rcx), %ecx
	testb	%cl, %cl
	je	.L36
	movq	%rdx, %rdi
	call	__asan_report_load8@PLT
.L36:
	cltq
	leaq	0(,%rax,8), %rdx
	leaq	_ZL18FUNCTION_RET_TYPES(%rip), %rax
	movq	(%rdx,%rax), %rax
	.loc 2 7 32
	movq	%rax, %rsi
	leaq	.LC18(%rip), %rax
	movq	%rax, %rdi
	movl	$0, %eax
	call	printf@PLT
	.loc 2 7 129
	jmp	.L30
.L20:
	.loc 2 8 69
	movq	-8(%rbp), %rax
	addq	$24, %rax
	movq	%rax, %rdx
	movq	%rdx, %rax
	shrq	$3, %rax
	addq	$2147450880, %rax
	movzbl	(%rax), %eax
	testb	%al, %al
	setne	%cl
	testb	%al, %al
	setle	%al
	andl	%ecx, %eax
	testb	%al, %al
	je	.L37
	movq	%rdx, %rdi
	call	__asan_report_load1@PLT
.L37:
	movq	-8(%rbp), %rax
	movzbl	24(%rax), %eax
	.loc 2 8 23
	movsbl	%al, %eax
	movl	%eax, %esi
	leaq	.LC19(%rip), %rax
	movq	%rax, %rdi
	movl	$0, %eax
	call	printf@PLT
	.loc 2 8 82
	jmp	.L30
.L19:
	.loc 2 10 72
	movq	-8(%rbp), %rax
	addq	$24, %rax
	movq	%rax, %rdx
	movq	%rdx, %rax
	shrq	$3, %rax
	addq	$2147450880, %rax
	movzbl	(%rax), %eax
	testb	%al, %al
	setne	%cl
	cmpb	$3, %al
	setle	%al
	andl	%ecx, %eax
	testb	%al, %al
	je	.L38
	movq	%rdx, %rdi
	call	__asan_report_load4@PLT
.L38:
	movq	-8(%rbp), %rax
	movl	24(%rax), %eax
	cltq
	.loc 2 10 81
	leaq	0(,%rax,8), %rdx
	movq	-16(%rbp), %rax
	addq	%rdx, %rax
	.loc 2 10 19
	movq	%rax, %rdx
	movq	%rdx, %rcx
	shrq	$3, %rcx
	addq	$2147450880, %rcx
	movzbl	(%rcx), %ecx
	testb	%cl, %cl
	je	.L39
	movq	%rdx, %rdi
	call	__asan_report_load8@PLT
.L39:
	movq	(%rax), %rax
	movq	%rax, %rsi
	leaq	.LC20(%rip), %rax
	movq	%rax, %rdi
	movl	$0, %eax
	call	printf@PLT
	.loc 2 10 85
	jmp	.L30
.L18:
	.loc 2 11 80
	movq	-8(%rbp), %rax
	addq	$24, %rax
	movq	%rax, %rdx
	movq	%rdx, %rax
	shrq	$3, %rax
	addq	$2147450880, %rax
	movzbl	(%rax), %eax
	testb	%al, %al
	setne	%cl
	cmpb	$3, %al
	setle	%al
	andl	%ecx, %eax
	testb	%al, %al
	je	.L40
	movq	%rdx, %rdi
	call	__asan_report_load4@PLT
.L40:
	movq	-8(%rbp), %rax
	movl	24(%rax), %eax
	cltq
	.loc 2 11 89
	leaq	0(,%rax,8), %rdx
	movq	-16(%rbp), %rax
	addq	%rdx, %rax
	.loc 2 11 23
	movq	%rax, %rdx
	movq	%rdx, %rcx
	shrq	$3, %rcx
	addq	$2147450880, %rcx
	movzbl	(%rcx), %ecx
	testb	%cl, %cl
	je	.L41
	movq	%rdx, %rdi
	call	__asan_report_load8@PLT
.L41:
	movq	(%rax), %rax
	movq	%rax, %rsi
	leaq	.LC21(%rip), %rax
	movq	%rax, %rdi
	movl	$0, %eax
	call	printf@PLT
	.loc 2 11 93
	jmp	.L30
.L17:
	.loc 2 12 70
	movq	-8(%rbp), %rax
	addq	$24, %rax
	movq	%rax, %rdx
	shrq	$3, %rdx
	addq	$2147450880, %rdx
	movzbl	(%rdx), %edx
	testb	%dl, %dl
	je	.L42
	movq	%rax, %rdi
	call	__asan_report_load8@PLT
.L42:
	movq	-8(%rbp), %rax
	movq	24(%rax), %rax
	.loc 2 12 23
	movq	%rax, %xmm0
	leaq	.LC22(%rip), %rax
	movq	%rax, %rdi
	movl	$1, %eax
	call	printf@PLT
	.loc 2 12 83
	jmp	.L30
.L16:
	.loc 2 13 69
	movq	-8(%rbp), %rax
	addq	$24, %rax
	movq	%rax, %rdx
	movq	%rdx, %rax
	shrq	$3, %rax
	addq	$2147450880, %rax
	movzbl	(%rax), %eax
	testb	%al, %al
	setne	%cl
	testb	%al, %al
	setle	%al
	andl	%ecx, %eax
	testb	%al, %al
	je	.L43
	movq	%rdx, %rdi
	call	__asan_report_load1@PLT
.L43:
	movq	-8(%rbp), %rax
	movzbl	24(%rax), %eax
	.loc 2 13 23
	cmpb	$123, %al
	je	.L44
	.loc 2 13 108 discriminator 1
	movq	-8(%rbp), %rax
	movzbl	24(%rax), %eax
	.loc 2 13 87 discriminator 1
	cmpb	$125, %al
	je	.L45
	.loc 2 13 147 discriminator 3
	movq	-8(%rbp), %rax
	movzbl	24(%rax), %eax
	.loc 2 13 87 discriminator 3
	movsbl	%al, %eax
	jmp	.L47
.L45:
	.loc 2 13 87 is_stmt 0 discriminator 4
	movl	$93, %eax
	jmp	.L47
.L44:
	.loc 2 13 23 is_stmt 1 discriminator 2
	movl	$91, %eax
.L47:
	.loc 2 13 23 is_stmt 0 discriminator 8
	movl	%eax, %esi
	leaq	.LC23(%rip), %rax
	movq	%rax, %rdi
	movl	$0, %eax
	call	printf@PLT
	.loc 2 13 160 is_stmt 1 discriminator 8
	jmp	.L30
.L15:
	.loc 2 14 61
	movq	-8(%rbp), %rax
	addq	$24, %rax
	movq	%rax, %rdx
	movq	%rdx, %rax
	shrq	$3, %rax
	addq	$2147450880, %rax
	movzbl	(%rax), %eax
	testb	%al, %al
	setne	%cl
	testb	%al, %al
	setle	%al
	andl	%ecx, %eax
	testb	%al, %al
	je	.L48
	movq	%rdx, %rdi
	call	__asan_report_load1@PLT
.L48:
	movq	-8(%rbp), %rax
	movzbl	24(%rax), %eax
	.loc 2 14 19
	movsbl	%al, %eax
	movl	%eax, %esi
	leaq	.LC24(%rip), %rax
	movq	%rax, %rdi
	movl	$0, %eax
	call	printf@PLT
	.loc 2 14 74
	jmp	.L30
.L14:
	.loc 2 15 100
	movq	-8(%rbp), %rax
	addq	$24, %rax
	movq	%rax, %rdx
	movq	%rdx, %rax
	shrq	$3, %rax
	addq	$2147450880, %rax
	movzbl	(%rax), %eax
	testb	%al, %al
	setne	%cl
	cmpb	$3, %al
	setle	%al
	andl	%ecx, %eax
	testb	%al, %al
	je	.L49
	movq	%rdx, %rdi
	call	__asan_report_load4@PLT
.L49:
	movq	-8(%rbp), %rax
	movl	24(%rax), %eax
	.loc 2 15 117
	movslq	%eax, %rdx
	leaq	0(,%rdx,8), %rcx
	leaq	_ZL16NATIVE_FUNCTIONS(%rip), %rdx
	addq	%rcx, %rdx
	movq	%rdx, %rcx
	shrq	$3, %rcx
	addq	$2147450880, %rcx
	movzbl	(%rcx), %ecx
	testb	%cl, %cl
	je	.L50
	movq	%rdx, %rdi
	call	__asan_report_load8@PLT
.L50:
	cltq
	leaq	0(,%rax,8), %rdx
	leaq	_ZL16NATIVE_FUNCTIONS(%rip), %rax
	movq	(%rdx,%rax), %rax
	.loc 2 15 30
	movq	%rax, %rsi
	leaq	.LC25(%rip), %rax
	movq	%rax, %rdi
	movl	$0, %eax
	call	printf@PLT
	.loc 2 15 121
	jmp	.L30
.L10:
	.loc 2 17 71
	movq	-8(%rbp), %rax
	addq	$24, %rax
	movq	%rax, %rdx
	movq	%rdx, %rax
	shrq	$3, %rax
	addq	$2147450880, %rax
	movzbl	(%rax), %eax
	testb	%al, %al
	setne	%cl
	testb	%al, %al
	setle	%al
	andl	%ecx, %eax
	testb	%al, %al
	je	.L51
	movq	%rdx, %rdi
	call	__asan_report_load1@PLT
.L51:
	movq	-8(%rbp), %rax
	movzbl	24(%rax), %eax
	.loc 2 17 24
	movsbl	%al, %eax
	movl	%eax, %esi
	leaq	.LC26(%rip), %rax
	movq	%rax, %rdi
	movl	$0, %eax
	call	printf@PLT
	.loc 2 17 84
	jmp	.L30
.L9:
	.loc 2 18 95
	movq	-8(%rbp), %rax
	addq	$24, %rax
	movq	%rax, %rdx
	movq	%rdx, %rax
	shrq	$3, %rax
	addq	$2147450880, %rax
	movzbl	(%rax), %eax
	testb	%al, %al
	setne	%cl
	testb	%al, %al
	setle	%al
	andl	%ecx, %eax
	testb	%al, %al
	je	.L52
	movq	%rdx, %rdi
	call	__asan_report_load1@PLT
.L52:
	movq	-8(%rbp), %rax
	movzbl	24(%rax), %eax
	.loc 2 18 36
	movsbl	%al, %eax
	movl	%eax, %esi
	leaq	.LC27(%rip), %rax
	movq	%rax, %rdi
	movl	$0, %eax
	call	printf@PLT
	.loc 2 18 108
	jmp	.L30
.L7:
	.loc 2 19 95
	movq	-8(%rbp), %rax
	addq	$24, %rax
	movq	%rax, %rdx
	movq	%rdx, %rax
	shrq	$3, %rax
	addq	$2147450880, %rax
	movzbl	(%rax), %eax
	testb	%al, %al
	setne	%cl
	testb	%al, %al
	setle	%al
	andl	%ecx, %eax
	testb	%al, %al
	je	.L53
	movq	%rdx, %rdi
	call	__asan_report_load1@PLT
.L53:
	movq	-8(%rbp), %rax
	movzbl	24(%rax), %eax
	.loc 2 19 36
	movsbl	%al, %eax
	movl	%eax, %esi
	leaq	.LC28(%rip), %rax
	movq	%rax, %rdi
	movl	$0, %eax
	call	printf@PLT
	.loc 2 19 108
	jmp	.L30
.L13:
	.loc 2 20 105
	movq	-8(%rbp), %rax
	addq	$24, %rax
	movq	%rax, %rdx
	movq	%rdx, %rax
	shrq	$3, %rax
	addq	$2147450880, %rax
	movzbl	(%rax), %eax
	testb	%al, %al
	setne	%cl
	testb	%al, %al
	setle	%al
	andl	%ecx, %eax
	testb	%al, %al
	je	.L54
	movq	%rdx, %rdi
	call	__asan_report_load1@PLT
.L54:
	movq	-8(%rbp), %rax
	movzbl	24(%rax), %eax
	.loc 2 20 41
	movsbl	%al, %eax
	movl	%eax, %esi
	leaq	.LC29(%rip), %rax
	movq	%rax, %rdi
	movl	$0, %eax
	call	printf@PLT
	.loc 2 20 118
	jmp	.L30
.L12:
	.loc 2 21 105
	movq	-8(%rbp), %rax
	addq	$24, %rax
	movq	%rax, %rdx
	movq	%rdx, %rax
	shrq	$3, %rax
	addq	$2147450880, %rax
	movzbl	(%rax), %eax
	testb	%al, %al
	setne	%cl
	testb	%al, %al
	setle	%al
	andl	%ecx, %eax
	testb	%al, %al
	je	.L55
	movq	%rdx, %rdi
	call	__asan_report_load1@PLT
.L55:
	movq	-8(%rbp), %rax
	movzbl	24(%rax), %eax
	.loc 2 21 41
	movsbl	%al, %eax
	movl	%eax, %esi
	leaq	.LC30(%rip), %rax
	movq	%rax, %rdi
	movl	$0, %eax
	call	printf@PLT
	.loc 2 21 118
	jmp	.L30
.L11:
	.loc 2 22 85
	movq	-8(%rbp), %rax
	addq	$24, %rax
	movq	%rax, %rdx
	movq	%rdx, %rax
	shrq	$3, %rax
	addq	$2147450880, %rax
	movzbl	(%rax), %eax
	testb	%al, %al
	setne	%cl
	testb	%al, %al
	setle	%al
	andl	%ecx, %eax
	testb	%al, %al
	je	.L56
	movq	%rdx, %rdi
	call	__asan_report_load1@PLT
.L56:
	movq	-8(%rbp), %rax
	movzbl	24(%rax), %eax
	.loc 2 22 31
	movsbl	%al, %eax
	movl	%eax, %esi
	leaq	.LC31(%rip), %rax
	movq	%rax, %rdi
	movl	$0, %eax
	call	printf@PLT
	.loc 2 22 98
	jmp	.L30
.L6:
	.loc 1 30 20
	leaq	.LC32(%rip), %rax
	movq	%rax, %rdi
	call	puts@PLT
	.loc 1 30 41
	nop
.L30:
	.loc 1 35 58
	movq	-8(%rbp), %rax
	addq	$44, %rax
	movq	%rax, %rdx
	shrq	$3, %rdx
	addq	$2147450880, %rdx
	movzbl	(%rdx), %edx
	testb	%dl, %dl
	setne	%sil
	movq	%rax, %rcx
	andl	$7, %ecx
	addl	$3, %ecx
	cmpb	%dl, %cl
	setge	%dl
	andl	%esi, %edx
	testb	%dl, %dl
	je	.L57
	movq	%rax, %rdi
	call	__asan_report_load4@PLT
.L57:
	movq	-8(%rbp), %rax
	movl	44(%rax), %edx
	.loc 1 35 45
	movq	-8(%rbp), %rax
	addq	$40, %rax
	movq	%rax, %rcx
	movq	%rcx, %rax
	shrq	$3, %rax
	addq	$2147450880, %rax
	movzbl	(%rax), %eax
	testb	%al, %al
	setne	%sil
	cmpb	$3, %al
	setle	%al
	andl	%esi, %eax
	testb	%al, %al
	je	.L58
	movq	%rcx, %rdi
	call	__asan_report_load4@PLT
.L58:
	movq	-8(%rbp), %rax
	movl	40(%rax), %eax
	.loc 1 35 11
	movl	%eax, %esi
	leaq	.LC33(%rip), %rax
	movq	%rax, %rdi
	movl	$0, %eax
	call	printf@PLT
	.loc 1 36 57
	movq	-8(%rbp), %rax
	addq	$32, %rax
	movq	%rax, %rdx
	shrq	$3, %rdx
	addq	$2147450880, %rdx
	movzbl	(%rdx), %edx
	testb	%dl, %dl
	je	.L59
	movq	%rax, %rdi
	call	__asan_report_load8@PLT
.L59:
	movq	-8(%rbp), %rax
	movq	32(%rax), %rax
	.loc 1 36 11
	movq	%rax, %rsi
	leaq	.LC34(%rip), %rax
	movq	%rax, %rdi
	movl	$0, %eax
	call	printf@PLT
	.loc 1 40 5
	jmp	.L1
.L60:
	.loc 1 12 17
	nop
.L1:
	.loc 1 41 5
	leave
	.cfi_def_cfa 7, 8
	ret
	.cfi_endproc
.LFE2270:
	.size	_Z10PrintTokenPK5TokenPPKc, .-_Z10PrintTokenPK5TokenPPKc
	.section	.rodata
	.align 32
.LC35:
	.string	"Token %s\n"
	.zero	54
	.align 32
.LC36:
	.string	"(%p)::::::::::::::::\n"
	.zero	42
	.align 32
.LC37:
	.string	"\t\t  left_child: %p\n"
	.zero	44
	.align 32
.LC38:
	.string	"\t\t right_child: %p\n"
	.zero	44
	.align 32
.LC39:
	.string	"\t\t        type: "
	.zero	47
	.align 32
.LC40:
	.string	"UNCKNOWN TYPE\n"
	.zero	49
	.align 32
.LC41:
	.string	"\t\t\t  Line: %d\n"
	.zero	49
	.align 32
.LC42:
	.string	"\t\t\tIndent: %d\n"
	.zero	49
	.align 32
.LC43:
	.string	"\n"
	.zero	62
	.text
	.globl	_Z8LogTokenPK5TokenPKcPS3_
	.type	_Z8LogTokenPK5TokenPKcPS3_, @function
_Z8LogTokenPK5TokenPKcPS3_:
.LASANPC2271:
.LFB2271:
	.loc 1 44 5
	.cfi_startproc
	endbr64
	pushq	%rbp
	.cfi_def_cfa_offset 16
	.cfi_offset 6, -16
	movq	%rsp, %rbp
	.cfi_def_cfa_register 6
	subq	$32, %rsp
	movq	%rdi, -8(%rbp)
	movq	%rsi, -16(%rbp)
	movq	%rdx, -24(%rbp)
	.loc 1 45 5
	cmpq	$0, -8(%rbp)
	je	.L120
	.loc 1 47 24
	call	_ZN6Logger11getInstanceEv@PLT
	movq	%rax, %rcx
	.loc 1 47 30
	movq	-16(%rbp), %rax
	movq	%rax, %rdx
	leaq	.LC35(%rip), %rax
	movq	%rax, %rsi
	movq	%rcx, %rdi
	movl	$0, %eax
	call	_ZN6Logger3logEPKcz@PLT
	.loc 1 48 24
	call	_ZN6Logger11getInstanceEv@PLT
	movq	%rax, %rcx
	.loc 1 48 30
	movq	-8(%rbp), %rax
	movq	%rax, %rdx
	leaq	.LC36(%rip), %rax
	movq	%rax, %rsi
	movq	%rcx, %rdi
	movl	$0, %eax
	call	_ZN6Logger3logEPKcz@PLT
	.loc 1 49 24
	call	_ZN6Logger11getInstanceEv@PLT
	movq	%rax, %rcx
	.loc 1 49 65
	movq	-8(%rbp), %rax
	movq	%rax, %rdx
	shrq	$3, %rdx
	addq	$2147450880, %rdx
	movzbl	(%rdx), %edx
	testb	%dl, %dl
	je	.L64
	movq	%rax, %rdi
	call	__asan_report_load8@PLT
.L64:
	movq	-8(%rbp), %rax
	movq	(%rax), %rax
	.loc 1 49 30
	movq	%rax, %rdx
	leaq	.LC37(%rip), %rax
	movq	%rax, %rsi
	movq	%rcx, %rdi
	movl	$0, %eax
	call	_ZN6Logger3logEPKcz@PLT
	.loc 1 50 24
	call	_ZN6Logger11getInstanceEv@PLT
	movq	%rax, %rcx
	.loc 1 50 65
	movq	-8(%rbp), %rax
	addq	$8, %rax
	movq	%rax, %rdx
	shrq	$3, %rdx
	addq	$2147450880, %rdx
	movzbl	(%rdx), %edx
	testb	%dl, %dl
	je	.L65
	movq	%rax, %rdi
	call	__asan_report_load8@PLT
.L65:
	movq	-8(%rbp), %rax
	movq	8(%rax), %rax
	.loc 1 50 30
	movq	%rax, %rdx
	leaq	.LC38(%rip), %rax
	movq	%rax, %rsi
	movq	%rcx, %rdi
	movl	$0, %eax
	call	_ZN6Logger3logEPKcz@PLT
	.loc 1 51 24
	call	_ZN6Logger11getInstanceEv@PLT
	movq	%rax, %rdx
	.loc 1 51 30
	leaq	.LC39(%rip), %rax
	movq	%rax, %rsi
	movq	%rdx, %rdi
	movl	$0, %eax
	call	_ZN6Logger3logEPKcz@PLT
	.loc 1 53 20
	movq	-8(%rbp), %rax
	addq	$16, %rax
	movq	%rax, %rdx
	movq	%rdx, %rax
	shrq	$3, %rax
	addq	$2147450880, %rax
	movzbl	(%rax), %eax
	testb	%al, %al
	setne	%cl
	cmpb	$3, %al
	setle	%al
	andl	%ecx, %eax
	testb	%al, %al
	je	.L66
	movq	%rdx, %rdi
	call	__asan_report_load4@PLT
.L66:
	movq	-8(%rbp), %rax
	movl	16(%rax), %eax
	.loc 1 53 5
	cmpl	$125, %eax
	ja	.L67
	movl	%eax, %eax
	leaq	0(,%rax,4), %rdx
	leaq	.L69(%rip), %rax
	movl	(%rdx,%rax), %eax
	cltq
	leaq	.L69(%rip), %rdx
	addq	%rdx, %rax
	notrack jmp	*%rax
	.section	.rodata
	.align 4
	.align 4
.L69:
	.long	.L67-.L69
	.long	.L85-.L69
	.long	.L84-.L69
	.long	.L83-.L69
	.long	.L82-.L69
	.long	.L81-.L69
	.long	.L80-.L69
	.long	.L79-.L69
	.long	.L78-.L69
	.long	.L77-.L69
	.long	.L76-.L69
	.long	.L75-.L69
	.long	.L67-.L69
	.long	.L67-.L69
	.long	.L67-.L69
	.long	.L67-.L69
	.long	.L67-.L69
	.long	.L67-.L69
	.long	.L67-.L69
	.long	.L67-.L69
	.long	.L67-.L69
	.long	.L67-.L69
	.long	.L67-.L69
	.long	.L67-.L69
	.long	.L67-.L69
	.long	.L67-.L69
	.long	.L67-.L69
	.long	.L67-.L69
	.long	.L67-.L69
	.long	.L67-.L69
	.long	.L67-.L69
	.long	.L67-.L69
	.long	.L67-.L69
	.long	.L67-.L69
	.long	.L67-.L69
	.long	.L67-.L69
	.long	.L67-.L69
	.long	.L67-.L69
	.long	.L67-.L69
	.long	.L67-.L69
	.long	.L74-.L69
	.long	.L73-.L69
	.long	.L67-.L69
	.long	.L67-.L69
	.long	.L67-.L69
	.long	.L67-.L69
	.long	.L67-.L69
	.long	.L67-.L69
	.long	.L67-.L69
	.long	.L67-.L69
	.long	.L67-.L69
	.long	.L67-.L69
	.long	.L67-.L69
	.long	.L67-.L69
	.long	.L67-.L69
	.long	.L67-.L69
	.long	.L67-.L69
	.long	.L67-.L69
	.long	.L67-.L69
	.long	.L72-.L69
	.long	.L67-.L69
	.long	.L71-.L69
	.long	.L67-.L69
	.long	.L67-.L69
	.long	.L67-.L69
	.long	.L67-.L69
	.long	.L67-.L69
	.long	.L67-.L69
	.long	.L67-.L69
	.long	.L67-.L69
	.long	.L67-.L69
	.long	.L67-.L69
	.long	.L67-.L69
	.long	.L67-.L69
	.long	.L67-.L69
	.long	.L67-.L69
	.long	.L67-.L69
	.long	.L67-.L69
	.long	.L67-.L69
	.long	.L67-.L69
	.long	.L67-.L69
	.long	.L67-.L69
	.long	.L67-.L69
	.long	.L67-.L69
	.long	.L67-.L69
	.long	.L67-.L69
	.long	.L67-.L69
	.long	.L67-.L69
	.long	.L67-.L69
	.long	.L67-.L69
	.long	.L67-.L69
	.long	.L67-.L69
	.long	.L67-.L69
	.long	.L67-.L69
	.long	.L67-.L69
	.long	.L67-.L69
	.long	.L67-.L69
	.long	.L67-.L69
	.long	.L67-.L69
	.long	.L67-.L69
	.long	.L67-.L69
	.long	.L67-.L69
	.long	.L67-.L69
	.long	.L67-.L69
	.long	.L67-.L69
	.long	.L67-.L69
	.long	.L67-.L69
	.long	.L67-.L69
	.long	.L67-.L69
	.long	.L67-.L69
	.long	.L67-.L69
	.long	.L67-.L69
	.long	.L67-.L69
	.long	.L67-.L69
	.long	.L67-.L69
	.long	.L67-.L69
	.long	.L67-.L69
	.long	.L67-.L69
	.long	.L67-.L69
	.long	.L67-.L69
	.long	.L67-.L69
	.long	.L67-.L69
	.long	.L67-.L69
	.long	.L70-.L69
	.long	.L67-.L69
	.long	.L68-.L69
	.text
.L85:
	.loc 2 4 36
	call	_ZN6Logger11getInstanceEv@PLT
	movq	%rax, %rcx
	.loc 2 4 100
	movq	-8(%rbp), %rax
	addq	$24, %rax
	movq	%rax, %rdx
	movq	%rdx, %rax
	shrq	$3, %rax
	addq	$2147450880, %rax
	movzbl	(%rax), %eax
	testb	%al, %al
	setne	%sil
	testb	%al, %al
	setle	%al
	andl	%esi, %eax
	testb	%al, %al
	je	.L86
	movq	%rdx, %rdi
	call	__asan_report_load1@PLT
.L86:
	movq	-8(%rbp), %rax
	movzbl	24(%rax), %eax
	.loc 2 4 52
	cmpb	$123, %al
	je	.L87
	.loc 2 4 139 discriminator 1
	movq	-8(%rbp), %rax
	movzbl	24(%rax), %eax
	.loc 2 4 118 discriminator 1
	cmpb	$125, %al
	je	.L88
	.loc 2 4 178 discriminator 3
	movq	-8(%rbp), %rax
	movzbl	24(%rax), %eax
	.loc 2 4 118 discriminator 3
	movsbl	%al, %eax
	jmp	.L90
.L88:
	.loc 2 4 118 is_stmt 0 discriminator 4
	movl	$93, %eax
	jmp	.L90
.L87:
	.loc 2 4 52 is_stmt 1 discriminator 2
	movl	$91, %eax
.L90:
	.loc 2 4 52 is_stmt 0 discriminator 8
	movl	%eax, %edx
	leaq	.LC15(%rip), %rax
	movq	%rax, %rsi
	movq	%rcx, %rdi
	movl	$0, %eax
	call	_ZN6Logger13log_no_indentEPKcz@PLT
	.loc 2 4 191 is_stmt 1 discriminator 8
	jmp	.L91
.L84:
	.loc 2 5 38
	call	_ZN6Logger11getInstanceEv@PLT
	movq	%rax, %rdi
	.loc 2 5 117
	movq	-8(%rbp), %rax
	addq	$24, %rax
	movq	%rax, %rdx
	movq	%rdx, %rax
	shrq	$3, %rax
	addq	$2147450880, %rax
	movzbl	(%rax), %eax
	testb	%al, %al
	setne	%cl
	cmpb	$3, %al
	setle	%al
	andl	%ecx, %eax
	testb	%al, %al
	je	.L92
	movq	%rdx, %rdi
	call	__asan_report_load4@PLT
.L92:
	movq	-8(%rbp), %rax
	movl	24(%rax), %eax
	.loc 2 5 130
	movslq	%eax, %rdx
	leaq	0(,%rdx,8), %rcx
	leaq	_ZL12INSTRUCTIONS(%rip), %rdx
	addq	%rcx, %rdx
	movq	%rdx, %rcx
	shrq	$3, %rcx
	addq	$2147450880, %rcx
	movzbl	(%rcx), %ecx
	testb	%cl, %cl
	je	.L93
	movq	%rdx, %rdi
	call	__asan_report_load8@PLT
.L93:
	cltq
	leaq	0(,%rax,8), %rdx
	leaq	_ZL12INSTRUCTIONS(%rip), %rax
	movq	(%rdx,%rax), %rax
	.loc 2 5 54
	movq	%rax, %rdx
	leaq	.LC16(%rip), %rax
	movq	%rax, %rsi
	movl	$0, %eax
	call	_ZN6Logger13log_no_indentEPKcz@PLT
	.loc 2 5 134
	jmp	.L91
.L83:
	.loc 2 6 40
	call	_ZN6Logger11getInstanceEv@PLT
	movq	%rax, %rdi
	.loc 2 6 123
	movq	-8(%rbp), %rax
	addq	$24, %rax
	movq	%rax, %rdx
	movq	%rdx, %rax
	shrq	$3, %rax
	addq	$2147450880, %rax
	movzbl	(%rax), %eax
	testb	%al, %al
	setne	%cl
	cmpb	$3, %al
	setle	%al
	andl	%ecx, %eax
	testb	%al, %al
	je	.L94
	movq	%rdx, %rdi
	call	__asan_report_load4@PLT
.L94:
	movq	-8(%rbp), %rax
	movl	24(%rax), %eax
	.loc 2 6 138
	movslq	%eax, %rdx
	leaq	0(,%rdx,8), %rcx
	leaq	_ZL14INITIALIZATORS(%rip), %rdx
	addq	%rcx, %rdx
	movq	%rdx, %rcx
	shrq	$3, %rcx
	addq	$2147450880, %rcx
	movzbl	(%rcx), %ecx
	testb	%cl, %cl
	je	.L95
	movq	%rdx, %rdi
	call	__asan_report_load8@PLT
.L95:
	cltq
	leaq	0(,%rax,8), %rdx
	leaq	_ZL14INITIALIZATORS(%rip), %rax
	movq	(%rdx,%rax), %rax
	.loc 2 6 56
	movq	%rax, %rdx
	leaq	.LC17(%rip), %rax
	movq	%rax, %rsi
	movl	$0, %eax
	call	_ZN6Logger13log_no_indentEPKcz@PLT
	.loc 2 6 142
	jmp	.L91
.L82:
	.loc 2 7 44
	call	_ZN6Logger11getInstanceEv@PLT
	movq	%rax, %rdi
	.loc 2 7 135
	movq	-8(%rbp), %rax
	addq	$24, %rax
	movq	%rax, %rdx
	movq	%rdx, %rax
	shrq	$3, %rax
	addq	$2147450880, %rax
	movzbl	(%rax), %eax
	testb	%al, %al
	setne	%cl
	cmpb	$3, %al
	setle	%al
	andl	%ecx, %eax
	testb	%al, %al
	je	.L96
	movq	%rdx, %rdi
	call	__asan_report_load4@PLT
.L96:
	movq	-8(%rbp), %rax
	movl	24(%rax), %eax
	.loc 2 7 154
	movslq	%eax, %rdx
	leaq	0(,%rdx,8), %rcx
	leaq	_ZL18FUNCTION_RET_TYPES(%rip), %rdx
	addq	%rcx, %rdx
	movq	%rdx, %rcx
	shrq	$3, %rcx
	addq	$2147450880, %rcx
	movzbl	(%rcx), %ecx
	testb	%cl, %cl
	je	.L97
	movq	%rdx, %rdi
	call	__asan_report_load8@PLT
.L97:
	cltq
	leaq	0(,%rax,8), %rdx
	leaq	_ZL18FUNCTION_RET_TYPES(%rip), %rax
	movq	(%rdx,%rax), %rax
	.loc 2 7 60
	movq	%rax, %rdx
	leaq	.LC18(%rip), %rax
	movq	%rax, %rsi
	movl	$0, %eax
	call	_ZN6Logger13log_no_indentEPKcz@PLT
	.loc 2 7 158
	jmp	.L91
.L81:
	.loc 2 8 35
	call	_ZN6Logger11getInstanceEv@PLT
	movq	%rax, %rcx
	.loc 2 8 98
	movq	-8(%rbp), %rax
	addq	$24, %rax
	movq	%rax, %rdx
	movq	%rdx, %rax
	shrq	$3, %rax
	addq	$2147450880, %rax
	movzbl	(%rax), %eax
	testb	%al, %al
	setne	%sil
	testb	%al, %al
	setle	%al
	andl	%esi, %eax
	testb	%al, %al
	je	.L98
	movq	%rdx, %rdi
	call	__asan_report_load1@PLT
.L98:
	movq	-8(%rbp), %rax
	movzbl	24(%rax), %eax
	.loc 2 8 51
	movsbl	%al, %eax
	movl	%eax, %edx
	leaq	.LC19(%rip), %rax
	movq	%rax, %rsi
	movq	%rcx, %rdi
	movl	$0, %eax
	call	_ZN6Logger13log_no_indentEPKcz@PLT
	.loc 2 8 111
	jmp	.L91
.L80:
	.loc 2 10 31
	call	_ZN6Logger11getInstanceEv@PLT
	movq	%rax, %rdi
	.loc 2 10 101
	movq	-8(%rbp), %rax
	addq	$24, %rax
	movq	%rax, %rdx
	movq	%rdx, %rax
	shrq	$3, %rax
	addq	$2147450880, %rax
	movzbl	(%rax), %eax
	testb	%al, %al
	setne	%cl
	cmpb	$3, %al
	setle	%al
	andl	%ecx, %eax
	testb	%al, %al
	je	.L99
	movq	%rdx, %rdi
	call	__asan_report_load4@PLT
.L99:
	movq	-8(%rbp), %rax
	movl	24(%rax), %eax
	cltq
	.loc 2 10 110
	leaq	0(,%rax,8), %rdx
	movq	-24(%rbp), %rax
	addq	%rdx, %rax
	.loc 2 10 47
	movq	%rax, %rdx
	movq	%rdx, %rcx
	shrq	$3, %rcx
	addq	$2147450880, %rcx
	movzbl	(%rcx), %ecx
	testb	%cl, %cl
	je	.L100
	movq	%rdx, %rdi
	call	__asan_report_load8@PLT
.L100:
	movq	(%rax), %rax
	movq	%rax, %rdx
	leaq	.LC20(%rip), %rax
	movq	%rax, %rsi
	movl	$0, %eax
	call	_ZN6Logger13log_no_indentEPKcz@PLT
	.loc 2 10 114
	jmp	.L91
.L79:
	.loc 2 11 35
	call	_ZN6Logger11getInstanceEv@PLT
	movq	%rax, %rdi
	.loc 2 11 109
	movq	-8(%rbp), %rax
	addq	$24, %rax
	movq	%rax, %rdx
	movq	%rdx, %rax
	shrq	$3, %rax
	addq	$2147450880, %rax
	movzbl	(%rax), %eax
	testb	%al, %al
	setne	%cl
	cmpb	$3, %al
	setle	%al
	andl	%ecx, %eax
	testb	%al, %al
	je	.L101
	movq	%rdx, %rdi
	call	__asan_report_load4@PLT
.L101:
	movq	-8(%rbp), %rax
	movl	24(%rax), %eax
	cltq
	.loc 2 11 118
	leaq	0(,%rax,8), %rdx
	movq	-24(%rbp), %rax
	addq	%rdx, %rax
	.loc 2 11 51
	movq	%rax, %rdx
	movq	%rdx, %rcx
	shrq	$3, %rcx
	addq	$2147450880, %rcx
	movzbl	(%rcx), %ecx
	testb	%cl, %cl
	je	.L102
	movq	%rdx, %rdi
	call	__asan_report_load8@PLT
.L102:
	movq	(%rax), %rax
	movq	%rax, %rdx
	leaq	.LC21(%rip), %rax
	movq	%rax, %rsi
	movl	$0, %eax
	call	_ZN6Logger13log_no_indentEPKcz@PLT
	.loc 2 11 122
	jmp	.L91
.L78:
	.loc 2 12 35
	call	_ZN6Logger11getInstanceEv@PLT
	movq	%rax, %rcx
	.loc 2 12 99
	movq	-8(%rbp), %rax
	addq	$24, %rax
	movq	%rax, %rdx
	shrq	$3, %rdx
	addq	$2147450880, %rdx
	movzbl	(%rdx), %edx
	testb	%dl, %dl
	je	.L103
	movq	%rax, %rdi
	call	__asan_report_load8@PLT
.L103:
	movq	-8(%rbp), %rax
	movq	24(%rax), %rax
	.loc 2 12 51
	movq	%rax, %xmm0
	leaq	.LC22(%rip), %rax
	movq	%rax, %rsi
	movq	%rcx, %rdi
	movl	$1, %eax
	call	_ZN6Logger13log_no_indentEPKcz@PLT
	.loc 2 12 112
	jmp	.L91
.L77:
	.loc 2 13 35
	call	_ZN6Logger11getInstanceEv@PLT
	movq	%rax, %rcx
	.loc 2 13 98
	movq	-8(%rbp), %rax
	addq	$24, %rax
	movq	%rax, %rdx
	movq	%rdx, %rax
	shrq	$3, %rax
	addq	$2147450880, %rax
	movzbl	(%rax), %eax
	testb	%al, %al
	setne	%sil
	testb	%al, %al
	setle	%al
	andl	%esi, %eax
	testb	%al, %al
	je	.L104
	movq	%rdx, %rdi
	call	__asan_report_load1@PLT
.L104:
	movq	-8(%rbp), %rax
	movzbl	24(%rax), %eax
	.loc 2 13 51
	cmpb	$123, %al
	je	.L105
	.loc 2 13 137 discriminator 1
	movq	-8(%rbp), %rax
	movzbl	24(%rax), %eax
	.loc 2 13 116 discriminator 1
	cmpb	$125, %al
	je	.L106
	.loc 2 13 176 discriminator 3
	movq	-8(%rbp), %rax
	movzbl	24(%rax), %eax
	.loc 2 13 116 discriminator 3
	movsbl	%al, %eax
	jmp	.L108
.L106:
	.loc 2 13 116 is_stmt 0 discriminator 4
	movl	$93, %eax
	jmp	.L108
.L105:
	.loc 2 13 51 is_stmt 1 discriminator 2
	movl	$91, %eax
.L108:
	.loc 2 13 51 is_stmt 0 discriminator 8
	movl	%eax, %edx
	leaq	.LC23(%rip), %rax
	movq	%rax, %rsi
	movq	%rcx, %rdi
	movl	$0, %eax
	call	_ZN6Logger13log_no_indentEPKcz@PLT
	.loc 2 13 189 is_stmt 1 discriminator 8
	jmp	.L91
.L76:
	.loc 2 14 31
	call	_ZN6Logger11getInstanceEv@PLT
	movq	%rax, %rcx
	.loc 2 14 90
	movq	-8(%rbp), %rax
	addq	$24, %rax
	movq	%rax, %rdx
	movq	%rdx, %rax
	shrq	$3, %rax
	addq	$2147450880, %rax
	movzbl	(%rax), %eax
	testb	%al, %al
	setne	%sil
	testb	%al, %al
	setle	%al
	andl	%esi, %eax
	testb	%al, %al
	je	.L109
	movq	%rdx, %rdi
	call	__asan_report_load1@PLT
.L109:
	movq	-8(%rbp), %rax
	movzbl	24(%rax), %eax
	.loc 2 14 47
	movsbl	%al, %eax
	movl	%eax, %edx
	leaq	.LC24(%rip), %rax
	movq	%rax, %rsi
	movq	%rcx, %rdi
	movl	$0, %eax
	call	_ZN6Logger13log_no_indentEPKcz@PLT
	.loc 2 14 103
	jmp	.L91
.L75:
	.loc 2 15 42
	call	_ZN6Logger11getInstanceEv@PLT
	movq	%rax, %rdi
	.loc 2 15 129
	movq	-8(%rbp), %rax
	addq	$24, %rax
	movq	%rax, %rdx
	movq	%rdx, %rax
	shrq	$3, %rax
	addq	$2147450880, %rax
	movzbl	(%rax), %eax
	testb	%al, %al
	setne	%cl
	cmpb	$3, %al
	setle	%al
	andl	%ecx, %eax
	testb	%al, %al
	je	.L110
	movq	%rdx, %rdi
	call	__asan_report_load4@PLT
.L110:
	movq	-8(%rbp), %rax
	movl	24(%rax), %eax
	.loc 2 15 146
	movslq	%eax, %rdx
	leaq	0(,%rdx,8), %rcx
	leaq	_ZL16NATIVE_FUNCTIONS(%rip), %rdx
	addq	%rcx, %rdx
	movq	%rdx, %rcx
	shrq	$3, %rcx
	addq	$2147450880, %rcx
	movzbl	(%rcx), %ecx
	testb	%cl, %cl
	je	.L111
	movq	%rdx, %rdi
	call	__asan_report_load8@PLT
.L111:
	cltq
	leaq	0(,%rax,8), %rdx
	leaq	_ZL16NATIVE_FUNCTIONS(%rip), %rax
	movq	(%rdx,%rax), %rax
	.loc 2 15 58
	movq	%rax, %rdx
	leaq	.LC25(%rip), %rax
	movq	%rax, %rsi
	movl	$0, %eax
	call	_ZN6Logger13log_no_indentEPKcz@PLT
	.loc 2 15 150
	jmp	.L91
.L71:
	.loc 2 17 36
	call	_ZN6Logger11getInstanceEv@PLT
	movq	%rax, %rcx
	.loc 2 17 100
	movq	-8(%rbp), %rax
	addq	$24, %rax
	movq	%rax, %rdx
	movq	%rdx, %rax
	shrq	$3, %rax
	addq	$2147450880, %rax
	movzbl	(%rax), %eax
	testb	%al, %al
	setne	%sil
	testb	%al, %al
	setle	%al
	andl	%esi, %eax
	testb	%al, %al
	je	.L112
	movq	%rdx, %rdi
	call	__asan_report_load1@PLT
.L112:
	movq	-8(%rbp), %rax
	movzbl	24(%rax), %eax
	.loc 2 17 52
	movsbl	%al, %eax
	movl	%eax, %edx
	leaq	.LC26(%rip), %rax
	movq	%rax, %rsi
	movq	%rcx, %rdi
	movl	$0, %eax
	call	_ZN6Logger13log_no_indentEPKcz@PLT
	.loc 2 17 113
	jmp	.L91
.L70:
	.loc 2 18 48
	call	_ZN6Logger11getInstanceEv@PLT
	movq	%rax, %rcx
	.loc 2 18 124
	movq	-8(%rbp), %rax
	addq	$24, %rax
	movq	%rax, %rdx
	movq	%rdx, %rax
	shrq	$3, %rax
	addq	$2147450880, %rax
	movzbl	(%rax), %eax
	testb	%al, %al
	setne	%sil
	testb	%al, %al
	setle	%al
	andl	%esi, %eax
	testb	%al, %al
	je	.L113
	movq	%rdx, %rdi
	call	__asan_report_load1@PLT
.L113:
	movq	-8(%rbp), %rax
	movzbl	24(%rax), %eax
	.loc 2 18 64
	movsbl	%al, %eax
	movl	%eax, %edx
	leaq	.LC27(%rip), %rax
	movq	%rax, %rsi
	movq	%rcx, %rdi
	movl	$0, %eax
	call	_ZN6Logger13log_no_indentEPKcz@PLT
	.loc 2 18 137
	jmp	.L91
.L68:
	.loc 2 19 48
	call	_ZN6Logger11getInstanceEv@PLT
	movq	%rax, %rcx
	.loc 2 19 124
	movq	-8(%rbp), %rax
	addq	$24, %rax
	movq	%rax, %rdx
	movq	%rdx, %rax
	shrq	$3, %rax
	addq	$2147450880, %rax
	movzbl	(%rax), %eax
	testb	%al, %al
	setne	%sil
	testb	%al, %al
	setle	%al
	andl	%esi, %eax
	testb	%al, %al
	je	.L114
	movq	%rdx, %rdi
	call	__asan_report_load1@PLT
.L114:
	movq	-8(%rbp), %rax
	movzbl	24(%rax), %eax
	.loc 2 19 64
	movsbl	%al, %eax
	movl	%eax, %edx
	leaq	.LC28(%rip), %rax
	movq	%rax, %rsi
	movq	%rcx, %rdi
	movl	$0, %eax
	call	_ZN6Logger13log_no_indentEPKcz@PLT
	.loc 2 19 137
	jmp	.L91
.L74:
	.loc 2 20 53
	call	_ZN6Logger11getInstanceEv@PLT
	movq	%rax, %rcx
	.loc 2 20 134
	movq	-8(%rbp), %rax
	addq	$24, %rax
	movq	%rax, %rdx
	movq	%rdx, %rax
	shrq	$3, %rax
	addq	$2147450880, %rax
	movzbl	(%rax), %eax
	testb	%al, %al
	setne	%sil
	testb	%al, %al
	setle	%al
	andl	%esi, %eax
	testb	%al, %al
	je	.L115
	movq	%rdx, %rdi
	call	__asan_report_load1@PLT
.L115:
	movq	-8(%rbp), %rax
	movzbl	24(%rax), %eax
	.loc 2 20 69
	movsbl	%al, %eax
	movl	%eax, %edx
	leaq	.LC29(%rip), %rax
	movq	%rax, %rsi
	movq	%rcx, %rdi
	movl	$0, %eax
	call	_ZN6Logger13log_no_indentEPKcz@PLT
	.loc 2 20 147
	jmp	.L91
.L73:
	.loc 2 21 53
	call	_ZN6Logger11getInstanceEv@PLT
	movq	%rax, %rcx
	.loc 2 21 134
	movq	-8(%rbp), %rax
	addq	$24, %rax
	movq	%rax, %rdx
	movq	%rdx, %rax
	shrq	$3, %rax
	addq	$2147450880, %rax
	movzbl	(%rax), %eax
	testb	%al, %al
	setne	%sil
	testb	%al, %al
	setle	%al
	andl	%esi, %eax
	testb	%al, %al
	je	.L116
	movq	%rdx, %rdi
	call	__asan_report_load1@PLT
.L116:
	movq	-8(%rbp), %rax
	movzbl	24(%rax), %eax
	.loc 2 21 69
	movsbl	%al, %eax
	movl	%eax, %edx
	leaq	.LC30(%rip), %rax
	movq	%rax, %rsi
	movq	%rcx, %rdi
	movl	$0, %eax
	call	_ZN6Logger13log_no_indentEPKcz@PLT
	.loc 2 21 147
	jmp	.L91
.L72:
	.loc 2 22 43
	call	_ZN6Logger11getInstanceEv@PLT
	movq	%rax, %rcx
	.loc 2 22 114
	movq	-8(%rbp), %rax
	addq	$24, %rax
	movq	%rax, %rdx
	movq	%rdx, %rax
	shrq	$3, %rax
	addq	$2147450880, %rax
	movzbl	(%rax), %eax
	testb	%al, %al
	setne	%sil
	testb	%al, %al
	setle	%al
	andl	%esi, %eax
	testb	%al, %al
	je	.L117
	movq	%rdx, %rdi
	call	__asan_report_load1@PLT
.L117:
	movq	-8(%rbp), %rax
	movzbl	24(%rax), %eax
	.loc 2 22 59
	movsbl	%al, %eax
	movl	%eax, %edx
	leaq	.LC31(%rip), %rax
	movq	%rax, %rsi
	movq	%rcx, %rdi
	movl	$0, %eax
	call	_ZN6Logger13log_no_indentEPKcz@PLT
	.loc 2 22 127
	jmp	.L91
.L67:
	.loc 1 66 37
	call	_ZN6Logger11getInstanceEv@PLT
	movq	%rax, %rdx
	.loc 1 66 53
	leaq	.LC40(%rip), %rax
	movq	%rax, %rsi
	movq	%rdx, %rdi
	movl	$0, %eax
	call	_ZN6Logger13log_no_indentEPKcz@PLT
	.loc 1 67 18
	nop
.L91:
	.loc 1 72 24
	call	_ZN6Logger11getInstanceEv@PLT
	movq	%rax, %rcx
	.loc 1 72 61
	movq	-8(%rbp), %rax
	addq	$40, %rax
	movq	%rax, %rdx
	movq	%rdx, %rax
	shrq	$3, %rax
	addq	$2147450880, %rax
	movzbl	(%rax), %eax
	testb	%al, %al
	setne	%sil
	cmpb	$3, %al
	setle	%al
	andl	%esi, %eax
	testb	%al, %al
	je	.L118
	movq	%rdx, %rdi
	call	__asan_report_load4@PLT
.L118:
	movq	-8(%rbp), %rax
	movl	40(%rax), %eax
	.loc 1 72 30
	movl	%eax, %edx
	leaq	.LC41(%rip), %rax
	movq	%rax, %rsi
	movq	%rcx, %rdi
	movl	$0, %eax
	call	_ZN6Logger3logEPKcz@PLT
	.loc 1 73 24
	call	_ZN6Logger11getInstanceEv@PLT
	movq	%rax, %rcx
	.loc 1 73 61
	movq	-8(%rbp), %rax
	addq	$44, %rax
	movq	%rax, %rdx
	shrq	$3, %rdx
	addq	$2147450880, %rdx
	movzbl	(%rdx), %edx
	testb	%dl, %dl
	setne	%dil
	movq	%rax, %rsi
	andl	$7, %esi
	addl	$3, %esi
	cmpb	%dl, %sil
	setge	%dl
	andl	%edi, %edx
	testb	%dl, %dl
	je	.L119
	movq	%rax, %rdi
	call	__asan_report_load4@PLT
.L119:
	movq	-8(%rbp), %rax
	movl	44(%rax), %eax
	.loc 1 73 30
	movl	%eax, %edx
	leaq	.LC42(%rip), %rax
	movq	%rax, %rsi
	movq	%rcx, %rdi
	movl	$0, %eax
	call	_ZN6Logger3logEPKcz@PLT
	.loc 1 78 24
	call	_ZN6Logger11getInstanceEv@PLT
	movq	%rax, %rdx
	.loc 1 78 30
	leaq	.LC43(%rip), %rax
	movq	%rax, %rsi
	movq	%rdx, %rdi
	movl	$0, %eax
	call	_ZN6Logger3logEPKcz@PLT
	.loc 1 80 5
	jmp	.L61
.L120:
	.loc 1 45 17
	nop
.L61:
	.loc 1 81 5
	leave
	.cfi_def_cfa 7, 8
	ret
	.cfi_endproc
.LFE2271:
	.size	_Z8LogTokenPK5TokenPKcPS3_, .-_Z8LogTokenPK5TokenPKcPS3_
	.section	.rodata
.LC44:
	.string	"../Common/Utils/LangUtils.cpp"
	.text
	.type	_Z41__static_initialization_and_destruction_0ii, @function
_Z41__static_initialization_and_destruction_0ii:
.LASANPC2938:
.LFB2938:
	.loc 1 81 5
	.cfi_startproc
	endbr64
	pushq	%rbp
	.cfi_def_cfa_offset 16
	.cfi_offset 6, -16
	movq	%rsp, %rbp
	.cfi_def_cfa_register 6
	subq	$16, %rsp
	movl	%edi, -4(%rbp)
	movl	%esi, -8(%rbp)
	.loc 1 81 5
	cmpl	$1, -4(%rbp)
	jne	.L124
	.loc 1 81 5 is_stmt 0 discriminator 1
	leaq	.LC44(%rip), %rax
	movq	%rax, %rdi
	call	__asan_before_dynamic_init@PLT
	cmpl	$65535, -8(%rbp)
	jne	.L123
	.file 3 "/usr/include/c++/11/iostream"
	.loc 3 74 25 is_stmt 1
	leaq	_ZStL8__ioinit(%rip), %rax
	movq	%rax, %rdi
	call	_ZNSt8ios_base4InitC1Ev@PLT
	leaq	__dso_handle(%rip), %rax
	movq	%rax, %rdx
	leaq	_ZStL8__ioinit(%rip), %rax
	movq	%rax, %rsi
	movq	_ZNSt8ios_base4InitD1Ev@GOTPCREL(%rip), %rax
	movq	%rax, %rdi
	call	__cxa_atexit@PLT
.L123:
	.loc 3 74 25 is_stmt 0 discriminator 1
	call	__asan_after_dynamic_init@PLT
.L124:
	.loc 1 81 5 is_stmt 1
	nop
	leave
	.cfi_def_cfa 7, 8
	ret
	.cfi_endproc
.LFE2938:
	.size	_Z41__static_initialization_and_destruction_0ii, .-_Z41__static_initialization_and_destruction_0ii
	.type	_GLOBAL__sub_I__Z10PrintTokenPK5TokenPPKc, @function
_GLOBAL__sub_I__Z10PrintTokenPK5TokenPPKc:
.LASANPC2939:
.LFB2939:
	.loc 1 81 5
	.cfi_startproc
	endbr64
	pushq	%rbp
	.cfi_def_cfa_offset 16
	.cfi_offset 6, -16
	movq	%rsp, %rbp
	.cfi_def_cfa_register 6
	.loc 1 81 5
	movl	$65535, %esi
	movl	$1, %edi
	call	_Z41__static_initialization_and_destruction_0ii
	popq	%rbp
	.cfi_def_cfa 7, 8
	ret
	.cfi_endproc
.LFE2939:
	.size	_GLOBAL__sub_I__Z10PrintTokenPK5TokenPPKc, .-_GLOBAL__sub_I__Z10PrintTokenPK5TokenPPKc
	.section	.init_array,"aw"
	.align 8
	.quad	_GLOBAL__sub_I__Z10PrintTokenPK5TokenPPKc
	.section	.rodata
	.align 8
.LC45:
	.string	"../ATC/RandomStuff/CommonEnums.h"
	.section	.data.rel.local,"aw"
	.align 16
	.type	.LASANLOC1, @object
	.size	.LASANLOC1, 16
.LASANLOC1:
	.quad	.LC45
	.long	3
	.long	11
	.section	.rodata
.LC46:
	.string	"../ATC/Logger/LogConfig.h"
	.section	.data.rel.local
	.align 16
	.type	.LASANLOC2, @object
	.size	.LASANLOC2, 16
.LASANLOC2:
	.quad	.LC46
	.long	3
	.long	12
	.section	.rodata
.LC47:
	.string	"/usr/include/c++/11/iostream"
	.section	.data.rel.local
	.align 16
	.type	.LASANLOC3, @object
	.size	.LASANLOC3, 16
.LASANLOC3:
	.quad	.LC47
	.long	74
	.long	25
	.section	.rodata
.LC48:
	.string	"../Common/Grammar.h"
	.section	.data.rel.local
	.align 16
	.type	.LASANLOC4, @object
	.size	.LASANLOC4, 16
.LASANLOC4:
	.quad	.LC48
	.long	65
	.long	11
	.align 16
	.type	.LASANLOC5, @object
	.size	.LASANLOC5, 16
.LASANLOC5:
	.quad	.LC48
	.long	64
	.long	11
	.align 16
	.type	.LASANLOC6, @object
	.size	.LASANLOC6, 16
.LASANLOC6:
	.quad	.LC48
	.long	62
	.long	19
	.align 16
	.type	.LASANLOC7, @object
	.size	.LASANLOC7, 16
.LASANLOC7:
	.quad	.LC48
	.long	60
	.long	12
	.align 16
	.type	.LASANLOC8, @object
	.size	.LASANLOC8, 16
.LASANLOC8:
	.quad	.LC48
	.long	49
	.long	12
	.align 16
	.type	.LASANLOC9, @object
	.size	.LASANLOC9, 16
.LASANLOC9:
	.quad	.LC48
	.long	42
	.long	19
	.align 16
	.type	.LASANLOC10, @object
	.size	.LASANLOC10, 16
.LASANLOC10:
	.quad	.LC48
	.long	41
	.long	11
	.align 16
	.type	.LASANLOC11, @object
	.size	.LASANLOC11, 16
.LASANLOC11:
	.quad	.LC48
	.long	34
	.long	19
	.align 16
	.type	.LASANLOC12, @object
	.size	.LASANLOC12, 16
.LASANLOC12:
	.quad	.LC48
	.long	33
	.long	11
	.align 16
	.type	.LASANLOC13, @object
	.size	.LASANLOC13, 16
.LASANLOC13:
	.quad	.LC48
	.long	24
	.long	19
	.align 16
	.type	.LASANLOC14, @object
	.size	.LASANLOC14, 16
.LASANLOC14:
	.quad	.LC48
	.long	23
	.long	11
	.align 16
	.type	.LASANLOC15, @object
	.size	.LASANLOC15, 16
.LASANLOC15:
	.quad	.LC48
	.long	14
	.long	19
	.align 16
	.type	.LASANLOC16, @object
	.size	.LASANLOC16, 16
.LASANLOC16:
	.quad	.LC48
	.long	13
	.long	11
	.section	.rodata
	.align 8
.LC49:
	.string	"../Common/Structures/Tabels/Tabels.h"
	.section	.data.rel.local
	.align 16
	.type	.LASANLOC17, @object
	.size	.LASANLOC17, 16
.LASANLOC17:
	.quad	.LC49
	.long	8
	.long	11
	.align 16
	.type	.LASANLOC18, @object
	.size	.LASANLOC18, 16
.LASANLOC18:
	.quad	.LC49
	.long	7
	.long	11
	.section	.rodata
.LC50:
	.string	"CRINGE"
.LC51:
	.string	"STD_LOG_NAME"
.LC52:
	.string	"__ioinit"
.LC53:
	.string	"MAX_WORD_LENGTH"
.LC54:
	.string	"MAX_FUNCTION_NAME_LENGTH"
.LC55:
	.string	"MAIN_NAME"
.LC56:
	.string	"COMMENT"
.LC57:
	.string	"OPERATORS"
.LC58:
	.string	"FUNCTION_RET_TYPES"
.LC59:
	.string	"NUMBER_OF_FUNCTION_RET_TYPES"
.LC60:
	.string	"INITIALIZATORS"
.LC61:
	.string	"NUMBER_OF_INITIALIZATORS"
.LC62:
	.string	"NATIVE_FUNCTIONS"
.LC63:
	.string	"NUMBER_OF_NATIVE_FUNCTIONS"
.LC64:
	.string	"INSTRUCTIONS"
.LC65:
	.string	"NUMBER_OF_INSTUCTIONS"
.LC66:
	.string	"NOT_A_LABEL"
.LC67:
	.string	"NOT_DECLARED"
.LC68:
	.string	"*.LC4"
.LC69:
	.string	"*.LC31"
.LC70:
	.string	"*.LC33"
.LC71:
	.string	"*.LC6"
.LC72:
	.string	"*.LC13"
.LC73:
	.string	"*.LC10"
.LC74:
	.string	"*.LC5"
.LC75:
	.string	"*.LC17"
.LC76:
	.string	"*.LC2"
.LC77:
	.string	"*.LC39"
.LC78:
	.string	"*.LC11"
.LC79:
	.string	"*.LC25"
.LC80:
	.string	"*.LC29"
.LC81:
	.string	"*.LC23"
.LC82:
	.string	"*.LC9"
.LC83:
	.string	"*.LC15"
.LC84:
	.string	"*.LC41"
.LC85:
	.string	"*.LC34"
.LC86:
	.string	"*.LC28"
.LC87:
	.string	"*.LC36"
.LC88:
	.string	"*.LC32"
.LC89:
	.string	"*.LC30"
.LC90:
	.string	"*.LC20"
.LC91:
	.string	"*.LC3"
.LC92:
	.string	"*.LC18"
.LC93:
	.string	"*.LC21"
.LC94:
	.string	"*.LC0"
.LC95:
	.string	"*.LC24"
.LC96:
	.string	"*.LC40"
.LC97:
	.string	"*.LC7"
.LC98:
	.string	"*.LC37"
.LC99:
	.string	"*.LC14"
.LC100:
	.string	"*.LC22"
.LC101:
	.string	"*.LC16"
.LC102:
	.string	"*.LC8"
.LC103:
	.string	"*.LC1"
.LC104:
	.string	"*.LC19"
.LC105:
	.string	"*.LC12"
.LC106:
	.string	"*.LC43"
.LC107:
	.string	"*.LC27"
.LC108:
	.string	"*.LC35"
.LC109:
	.string	"*.LC38"
.LC110:
	.string	"*.LC26"
.LC111:
	.string	"*.LC42"
	.section	.data.rel.local
	.align 32
	.type	.LASAN0, @object
	.size	.LASAN0, 3968
.LASAN0:
	.quad	_ZL6CRINGE
	.quad	4
	.quad	64
	.quad	.LC50
	.quad	.LC44
	.quad	0
	.quad	.LASANLOC1
	.quad	0
	.quad	_ZL12STD_LOG_NAME
	.quad	18
	.quad	64
	.quad	.LC51
	.quad	.LC44
	.quad	0
	.quad	.LASANLOC2
	.quad	0
	.quad	_ZStL8__ioinit
	.quad	1
	.quad	64
	.quad	.LC52
	.quad	.LC44
	.quad	1
	.quad	.LASANLOC3
	.quad	0
	.quad	_ZL15MAX_WORD_LENGTH
	.quad	4
	.quad	64
	.quad	.LC53
	.quad	.LC44
	.quad	0
	.quad	.LASANLOC4
	.quad	0
	.quad	_ZL24MAX_FUNCTION_NAME_LENGTH
	.quad	4
	.quad	64
	.quad	.LC54
	.quad	.LC44
	.quad	0
	.quad	.LASANLOC5
	.quad	0
	.quad	_ZL9MAIN_NAME
	.quad	8
	.quad	64
	.quad	.LC55
	.quad	.LC44
	.quad	0
	.quad	.LASANLOC6
	.quad	0
	.quad	_ZL7COMMENT
	.quad	1
	.quad	64
	.quad	.LC56
	.quad	.LC44
	.quad	0
	.quad	.LASANLOC7
	.quad	0
	.quad	_ZL9OPERATORS
	.quad	8
	.quad	64
	.quad	.LC57
	.quad	.LC44
	.quad	0
	.quad	.LASANLOC8
	.quad	0
	.quad	_ZL18FUNCTION_RET_TYPES
	.quad	16
	.quad	64
	.quad	.LC58
	.quad	.LC44
	.quad	0
	.quad	.LASANLOC9
	.quad	0
	.quad	_ZL28NUMBER_OF_FUNCTION_RET_TYPES
	.quad	4
	.quad	64
	.quad	.LC59
	.quad	.LC44
	.quad	0
	.quad	.LASANLOC10
	.quad	0
	.quad	_ZL14INITIALIZATORS
	.quad	16
	.quad	64
	.quad	.LC60
	.quad	.LC44
	.quad	0
	.quad	.LASANLOC11
	.quad	0
	.quad	_ZL24NUMBER_OF_INITIALIZATORS
	.quad	4
	.quad	64
	.quad	.LC61
	.quad	.LC44
	.quad	0
	.quad	.LASANLOC12
	.quad	0
	.quad	_ZL16NATIVE_FUNCTIONS
	.quad	32
	.quad	64
	.quad	.LC62
	.quad	.LC44
	.quad	0
	.quad	.LASANLOC13
	.quad	0
	.quad	_ZL26NUMBER_OF_NATIVE_FUNCTIONS
	.quad	4
	.quad	64
	.quad	.LC63
	.quad	.LC44
	.quad	0
	.quad	.LASANLOC14
	.quad	0
	.quad	_ZL12INSTRUCTIONS
	.quad	32
	.quad	64
	.quad	.LC64
	.quad	.LC44
	.quad	0
	.quad	.LASANLOC15
	.quad	0
	.quad	_ZL21NUMBER_OF_INSTUCTIONS
	.quad	4
	.quad	64
	.quad	.LC65
	.quad	.LC44
	.quad	0
	.quad	.LASANLOC16
	.quad	0
	.quad	_ZL11NOT_A_LABEL
	.quad	4
	.quad	64
	.quad	.LC66
	.quad	.LC44
	.quad	0
	.quad	.LASANLOC17
	.quad	0
	.quad	_ZL12NOT_DECLARED
	.quad	4
	.quad	64
	.quad	.LC67
	.quad	.LC44
	.quad	0
	.quad	.LASANLOC18
	.quad	0
	.quad	.LC4
	.quad	5
	.quad	64
	.quad	.LC68
	.quad	.LC44
	.quad	0
	.quad	0
	.quad	0
	.quad	.LC31
	.quad	27
	.quad	64
	.quad	.LC69
	.quad	.LC44
	.quad	0
	.quad	0
	.quad	0
	.quad	.LC33
	.quad	22
	.quad	64
	.quad	.LC70
	.quad	.LC44
	.quad	0
	.quad	0
	.quad	0
	.quad	.LC6
	.quad	4
	.quad	64
	.quad	.LC71
	.quad	.LC44
	.quad	0
	.quad	0
	.quad	0
	.quad	.LC13
	.quad	18
	.quad	64
	.quad	.LC72
	.quad	.LC44
	.quad	0
	.quad	0
	.quad	0
	.quad	.LC10
	.quad	7
	.quad	64
	.quad	.LC73
	.quad	.LC44
	.quad	0
	.quad	0
	.quad	0
	.quad	.LC5
	.quad	4
	.quad	64
	.quad	.LC74
	.quad	.LC44
	.quad	0
	.quad	0
	.quad	0
	.quad	.LC17
	.quad	24
	.quad	64
	.quad	.LC75
	.quad	.LC44
	.quad	0
	.quad	0
	.quad	0
	.quad	.LC2
	.quad	6
	.quad	64
	.quad	.LC76
	.quad	.LC44
	.quad	0
	.quad	0
	.quad	0
	.quad	.LC39
	.quad	17
	.quad	64
	.quad	.LC77
	.quad	.LC44
	.quad	0
	.quad	0
	.quad	0
	.quad	.LC11
	.quad	5
	.quad	64
	.quad	.LC78
	.quad	.LC44
	.quad	0
	.quad	0
	.quad	0
	.quad	.LC25
	.quad	26
	.quad	64
	.quad	.LC79
	.quad	.LC44
	.quad	0
	.quad	0
	.quad	0
	.quad	.LC29
	.quad	37
	.quad	96
	.quad	.LC80
	.quad	.LC44
	.quad	0
	.quad	0
	.quad	0
	.quad	.LC23
	.quad	19
	.quad	64
	.quad	.LC81
	.quad	.LC44
	.quad	0
	.quad	0
	.quad	0
	.quad	.LC9
	.quad	4
	.quad	64
	.quad	.LC82
	.quad	.LC44
	.quad	0
	.quad	0
	.quad	0
	.quad	.LC15
	.quad	20
	.quad	64
	.quad	.LC83
	.quad	.LC44
	.quad	0
	.quad	0
	.quad	0
	.quad	.LC41
	.quad	15
	.quad	64
	.quad	.LC84
	.quad	.LC44
	.quad	0
	.quad	0
	.quad	0
	.quad	.LC34
	.quad	34
	.quad	96
	.quad	.LC85
	.quad	.LC44
	.quad	0
	.quad	0
	.quad	0
	.quad	.LC28
	.quad	32
	.quad	64
	.quad	.LC86
	.quad	.LC44
	.quad	0
	.quad	0
	.quad	0
	.quad	.LC36
	.quad	22
	.quad	64
	.quad	.LC87
	.quad	.LC44
	.quad	0
	.quad	0
	.quad	0
	.quad	.LC32
	.quad	14
	.quad	64
	.quad	.LC88
	.quad	.LC44
	.quad	0
	.quad	0
	.quad	0
	.quad	.LC30
	.quad	37
	.quad	96
	.quad	.LC89
	.quad	.LC44
	.quad	0
	.quad	0
	.quad	0
	.quad	.LC20
	.quad	15
	.quad	64
	.quad	.LC90
	.quad	.LC44
	.quad	0
	.quad	0
	.quad	0
	.quad	.LC3
	.quad	7
	.quad	64
	.quad	.LC91
	.quad	.LC44
	.quad	0
	.quad	0
	.quad	0
	.quad	.LC18
	.quad	28
	.quad	64
	.quad	.LC92
	.quad	.LC44
	.quad	0
	.quad	0
	.quad	0
	.quad	.LC21
	.quad	19
	.quad	64
	.quad	.LC93
	.quad	.LC44
	.quad	0
	.quad	0
	.quad	0
	.quad	.LC0
	.quad	3
	.quad	64
	.quad	.LC94
	.quad	.LC44
	.quad	0
	.quad	0
	.quad	0
	.quad	.LC24
	.quad	15
	.quad	64
	.quad	.LC95
	.quad	.LC44
	.quad	0
	.quad	0
	.quad	0
	.quad	.LC40
	.quad	15
	.quad	64
	.quad	.LC96
	.quad	.LC44
	.quad	0
	.quad	0
	.quad	0
	.quad	.LC7
	.quad	4
	.quad	64
	.quad	.LC97
	.quad	.LC44
	.quad	0
	.quad	0
	.quad	0
	.quad	.LC37
	.quad	20
	.quad	64
	.quad	.LC98
	.quad	.LC44
	.quad	0
	.quad	0
	.quad	0
	.quad	.LC14
	.quad	12
	.quad	64
	.quad	.LC99
	.quad	.LC44
	.quad	0
	.quad	0
	.quad	0
	.quad	.LC22
	.quad	20
	.quad	64
	.quad	.LC100
	.quad	.LC44
	.quad	0
	.quad	0
	.quad	0
	.quad	.LC16
	.quad	22
	.quad	64
	.quad	.LC101
	.quad	.LC44
	.quad	0
	.quad	0
	.quad	0
	.quad	.LC8
	.quad	7
	.quad	64
	.quad	.LC102
	.quad	.LC44
	.quad	0
	.quad	0
	.quad	0
	.quad	.LC1
	.quad	5
	.quad	64
	.quad	.LC103
	.quad	.LC44
	.quad	0
	.quad	0
	.quad	0
	.quad	.LC19
	.quad	19
	.quad	64
	.quad	.LC104
	.quad	.LC44
	.quad	0
	.quad	0
	.quad	0
	.quad	.LC12
	.quad	5
	.quad	64
	.quad	.LC105
	.quad	.LC44
	.quad	0
	.quad	0
	.quad	0
	.quad	.LC43
	.quad	2
	.quad	64
	.quad	.LC106
	.quad	.LC44
	.quad	0
	.quad	0
	.quad	0
	.quad	.LC27
	.quad	32
	.quad	64
	.quad	.LC107
	.quad	.LC44
	.quad	0
	.quad	0
	.quad	0
	.quad	.LC35
	.quad	10
	.quad	64
	.quad	.LC108
	.quad	.LC44
	.quad	0
	.quad	0
	.quad	0
	.quad	.LC38
	.quad	20
	.quad	64
	.quad	.LC109
	.quad	.LC44
	.quad	0
	.quad	0
	.quad	0
	.quad	.LC26
	.quad	20
	.quad	64
	.quad	.LC110
	.quad	.LC44
	.quad	0
	.quad	0
	.quad	0
	.quad	.LC42
	.quad	15
	.quad	64
	.quad	.LC111
	.quad	.LC44
	.quad	0
	.quad	0
	.quad	0
	.text
	.type	_sub_D_00099_0, @function
_sub_D_00099_0:
.LFB2940:
	.cfi_startproc
	endbr64
	pushq	%rbp
	.cfi_def_cfa_offset 16
	.cfi_offset 6, -16
	movq	%rsp, %rbp
	.cfi_def_cfa_register 6
	movl	$62, %esi
	leaq	.LASAN0(%rip), %rax
	movq	%rax, %rdi
	call	__asan_unregister_globals@PLT
	popq	%rbp
	.cfi_def_cfa 7, 8
	ret
	.cfi_endproc
.LFE2940:
	.size	_sub_D_00099_0, .-_sub_D_00099_0
	.section	.fini_array.00099,"aw"
	.align 8
	.quad	_sub_D_00099_0
	.text
	.type	_sub_I_00099_1, @function
_sub_I_00099_1:
.LFB2941:
	.cfi_startproc
	endbr64
	pushq	%rbp
	.cfi_def_cfa_offset 16
	.cfi_offset 6, -16
	movq	%rsp, %rbp
	.cfi_def_cfa_register 6
	call	__asan_init@PLT
	call	__asan_version_mismatch_check_v8@PLT
	movl	$62, %esi
	leaq	.LASAN0(%rip), %rax
	movq	%rax, %rdi
	call	__asan_register_globals@PLT
	popq	%rbp
	.cfi_def_cfa 7, 8
	ret
	.cfi_endproc
.LFE2941:
	.size	_sub_I_00099_1, .-_sub_I_00099_1
	.section	.init_array.00099,"aw"
	.align 8
	.quad	_sub_I_00099_1
	.text
.Letext0:
	.file 4 "../Common/Structures/Token/Token.h"
	.file 5 "../Common/Structures/Tabels/Tabels.h"
	.file 6 "<built-in>"
	.file 7 "/usr/lib/gcc/x86_64-linux-gnu/11/include/stddef.h"
	.file 8 "/usr/include/x86_64-linux-gnu/bits/types.h"
	.file 9 "/usr/include/x86_64-linux-gnu/bits/types/__mbstate_t.h"
	.file 10 "/usr/include/x86_64-linux-gnu/bits/types/__fpos_t.h"
	.file 11 "/usr/include/x86_64-linux-gnu/bits/types/__FILE.h"
	.file 12 "/usr/include/x86_64-linux-gnu/bits/types/struct_FILE.h"
	.file 13 "/usr/include/x86_64-linux-gnu/bits/types/FILE.h"
	.file 14 "/usr/include/stdio.h"
	.file 15 "../Common/Grammar.h"
	.file 16 "/usr/include/x86_64-linux-gnu/bits/types/wint_t.h"
	.file 17 "/usr/include/x86_64-linux-gnu/bits/types/mbstate_t.h"
	.file 18 "/usr/include/c++/11/cwchar"
	.file 19 "/usr/include/c++/11/type_traits"
	.file 20 "/usr/include/c++/11/bits/exception_ptr.h"
	.file 21 "/usr/include/x86_64-linux-gnu/c++/11/bits/c++config.h"
	.file 22 "/usr/include/c++/11/concepts"
	.file 23 "/usr/include/c++/11/bits/iterator_concepts.h"
	.file 24 "/usr/include/c++/11/bits/ranges_cmp.h"
	.file 25 "/usr/include/c++/11/compare"
	.file 26 "/usr/include/c++/11/debug/debug.h"
	.file 27 "/usr/include/c++/11/cstdint"
	.file 28 "/usr/include/c++/11/clocale"
	.file 29 "/usr/include/c++/11/cstdlib"
	.file 30 "/usr/include/c++/11/numbers"
	.file 31 "/usr/include/c++/11/cstdio"
	.file 32 "/usr/include/c++/11/bits/ios_base.h"
	.file 33 "/usr/include/c++/11/cwctype"
	.file 34 "/usr/include/wchar.h"
	.file 35 "/usr/include/x86_64-linux-gnu/bits/types/struct_tm.h"
	.file 36 "/usr/include/c++/11/bits/predefined_ops.h"
	.file 37 "/usr/include/c++/11/bits/ptr_traits.h"
	.file 38 "/usr/include/x86_64-linux-gnu/bits/stdint-intn.h"
	.file 39 "/usr/include/x86_64-linux-gnu/bits/stdint-uintn.h"
	.file 40 "/usr/include/stdint.h"
	.file 41 "/usr/include/locale.h"
	.file 42 "/usr/include/stdlib.h"
	.file 43 "/usr/include/x86_64-linux-gnu/bits/wctype-wchar.h"
	.file 44 "/usr/include/wctype.h"
	.file 45 "../ATC/Logger/LogConfig.h"
	.file 46 "../ATC/RandomStuff/CommonEnums.h"
	.file 47 "../ATC/Logger/Logger.h"
	.file 48 "/usr/include/c++/11/bits/algorithmfwd.h"
	.section	.note.GNU-stack,"",@progbits
	.section	.note.gnu.property,"a"
	.align 8
	.long	1f - 0f
	.long	4f - 1f
	.long	5
0:
	.string	"GNU"
1:
	.align 8
	.long	0xc0000002
	.long	3f - 2f
2:
	.long	0x3
3:
	.align 8
4:
