	.file	"LexicalCtx.cpp"
	.text
.Ltext0:
	.file 0 "/home/arsenyfucker/Cprojects/Lang/Translator/FrontEnd" "../Common/LexicalCtx/LexicalCtx.cpp"
	.section	.rodata
	.align 32
	.type	_ZL11INDENT_SIZE, @object
	.size	_ZL11INDENT_SIZE, 4
_ZL11INDENT_SIZE:
	.long	2
	.zero	60
	.align 32
	.type	_ZL10NOT_A_NAME, @object
	.size	_ZL10NOT_A_NAME, 4
_ZL10NOT_A_NAME:
	.long	-555
	.zero	60
	.align 32
	.type	_ZL17NOT_A_INSTRUCTION, @object
	.size	_ZL17NOT_A_INSTRUCTION, 4
_ZL17NOT_A_INSTRUCTION:
	.long	-666
	.zero	60
	.align 32
	.type	_ZL19NOT_A_INITIALIZATOR, @object
	.size	_ZL19NOT_A_INITIALIZATOR, 4
_ZL19NOT_A_INITIALIZATOR:
	.long	-111
	.zero	60
	.align 32
	.type	_ZL14NOT_A_RET_TYPE, @object
	.size	_ZL14NOT_A_RET_TYPE, 4
_ZL14NOT_A_RET_TYPE:
	.long	-333
	.zero	60
	.align 32
	.type	_ZL21NOT_A_NATIVE_FUNCTION, @object
	.size	_ZL21NOT_A_NATIVE_FUNCTION, 4
_ZL21NOT_A_NATIVE_FUNCTION:
	.long	-222
	.zero	60
	.align 32
	.type	_ZL22START_NUMBER_OF_TOKENS, @object
	.size	_ZL22START_NUMBER_OF_TOKENS, 4
_ZL22START_NUMBER_OF_TOKENS:
	.long	20
	.zero	60
	.align 32
	.type	_ZL23START_NUMBER_OF_STRINGS, @object
	.size	_ZL23START_NUMBER_OF_STRINGS, 4
_ZL23START_NUMBER_OF_STRINGS:
	.long	16
	.zero	60
	.bss
	.align 32
	.type	_ZStL8__ioinit, @object
	.size	_ZStL8__ioinit, 1
_ZStL8__ioinit:
	.zero	64
	.section	.rodata
	.align 32
	.type	_ZL12STD_LOG_NAME, @object
	.size	_ZL12STD_LOG_NAME, 18
_ZL12STD_LOG_NAME:
	.string	"./logs/stdlog.ars"
	.zero	46
	.align 32
	.type	_ZL6CRINGE, @object
	.size	_ZL6CRINGE, 4
_ZL6CRINGE:
	.long	3565
	.zero	60
	.align 32
.LC0:
	.string	"ctx"
	.zero	60
	.align 32
.LC1:
	.string	"ASSERTLOG:: Condition (%s) is false\n"
	.zero	59
	.align 32
.LC2:
	.string	"\033[93mASSERTLOG:: \033[0mCondition\033[95m (%s) \033[0mis \033[91mfalse\n\033[0m"
	.zero	32
	.align 32
.LC3:
	.string	"int LexicalCtxCtor(LexicalCtx*, const char*)"
	.zero	51
	.align 32
.LC4:
	.string	"../Common/LexicalCtx/LexicalCtx.cpp"
	.zero	60
	.align 32
.LC5:
	.string	"\t%s:%d, function: %s\n"
	.zero	42
	.align 32
.LC6:
	.string	"It matches to error: (code %d) %s\n\n"
	.zero	60
	.align 32
.LC7:
	.string	"LexicalCtxCtor"
	.zero	49
	.align 32
.LC8:
	.string	"Shutting down the system (%s:%d)"
	.zero	63
	.align 32
.LC9:
	.string	"echo LOX\n"
	.zero	54
	.align 32
.LC10:
	.string	"buffer"
	.zero	57
	.align 32
.LC11:
	.string	"%s:%d::CHECK: BufferCtor(ctx->buf, buffer) == SUCCESS is false\n"
	.zero	32
	.text
	.globl	_Z14LexicalCtxCtorP10LexicalCtxPKc
	.type	_Z14LexicalCtxCtorP10LexicalCtxPKc, @function
_Z14LexicalCtxCtorP10LexicalCtxPKc:
.LASANPC2270:
.LFB2270:
	.file 1 "../Common/LexicalCtx/LexicalCtx.cpp"
	.loc 1 10 5
	.cfi_startproc
	endbr64
	pushq	%rbp
	.cfi_def_cfa_offset 16
	.cfi_offset 6, -16
	movq	%rsp, %rbp
	.cfi_def_cfa_register 6
	pushq	%rbx
	subq	$40, %rsp
	.cfi_offset 3, -24
	movq	%rdi, -40(%rbp)
	movq	%rsi, -48(%rbp)
	.loc 1 11 10
	cmpq	$0, -40(%rbp)
	jne	.L2
	.loc 1 11 43 discriminator 1
	call	_ZN6Logger11getInstanceEv@PLT
	movq	%rax, %rcx
	.loc 1 11 49 discriminator 1
	leaq	.LC0(%rip), %rax
	movq	%rax, %rdx
	leaq	.LC1(%rip), %rax
	movq	%rax, %rsi
	movq	%rcx, %rdi
	movl	$0, %eax
	call	_ZN6Logger3logEPKcz@PLT
	.loc 1 11 105 discriminator 1
	leaq	.LC0(%rip), %rax
	movq	%rax, %rsi
	leaq	.LC2(%rip), %rax
	movq	%rax, %rdi
	movl	$0, %eax
	call	printf@PLT
	.loc 1 11 249 discriminator 1
	call	_ZN6Logger11getInstanceEv@PLT
	movq	%rax, %rdi
	.loc 1 11 255 discriminator 1
	leaq	.LC3(%rip), %r8
	movl	$11, %ecx
	leaq	.LC4(%rip), %rax
	movq	%rax, %rdx
	leaq	.LC5(%rip), %rax
	movq	%rax, %rsi
	movl	$0, %eax
	call	_ZN6Logger3logEPKcz@PLT
	.loc 1 11 354 discriminator 1
	leaq	.LC3(%rip), %rax
	movq	%rax, %rcx
	movl	$11, %edx
	leaq	.LC4(%rip), %rax
	movq	%rax, %rsi
	leaq	.LC5(%rip), %rax
	movq	%rax, %rdi
	movl	$0, %eax
	call	printf@PLT
	.loc 1 11 466 discriminator 1
	call	_ZN6Logger11getInstanceEv@PLT
	movq	%rax, %rbx
	.loc 1 11 472 discriminator 1
	movl	$14, %edi
	call	strerror@PLT
	movq	%rax, %rcx
	movl	$14, %edx
	leaq	.LC6(%rip), %rax
	movq	%rax, %rsi
	movq	%rbx, %rdi
	movl	$0, %eax
	call	_ZN6Logger3logEPKcz@PLT
	.loc 1 11 27 discriminator 1
	call	_ZN6Logger11getInstanceEv@PLT
	movq	%rax, %rdi
	.loc 1 11 33 discriminator 1
	movl	$11, %ecx
	leaq	.LC7(%rip), %rax
	movq	%rax, %rdx
	leaq	.LC8(%rip), %rax
	movq	%rax, %rsi
	movl	$0, %eax
	call	_ZN6Logger3logEPKcz@PLT
	.loc 1 11 91 discriminator 1
	leaq	.LC9(%rip), %rax
	movq	%rax, %rdi
	call	system@PLT
	.loc 1 11 114 discriminator 1
	movl	$-2, %eax
	jmp	.L3
.L2:
	.loc 1 12 10
	cmpq	$0, -48(%rbp)
	jne	.L4
	.loc 1 12 46 discriminator 1
	call	_ZN6Logger11getInstanceEv@PLT
	movq	%rax, %rcx
	.loc 1 12 52 discriminator 1
	leaq	.LC10(%rip), %rax
	movq	%rax, %rdx
	leaq	.LC1(%rip), %rax
	movq	%rax, %rsi
	movq	%rcx, %rdi
	movl	$0, %eax
	call	_ZN6Logger3logEPKcz@PLT
	.loc 1 12 111 discriminator 1
	leaq	.LC10(%rip), %rax
	movq	%rax, %rsi
	leaq	.LC2(%rip), %rax
	movq	%rax, %rdi
	movl	$0, %eax
	call	printf@PLT
	.loc 1 12 258 discriminator 1
	call	_ZN6Logger11getInstanceEv@PLT
	movq	%rax, %rdi
	.loc 1 12 264 discriminator 1
	leaq	.LC3(%rip), %r8
	movl	$12, %ecx
	leaq	.LC4(%rip), %rax
	movq	%rax, %rdx
	leaq	.LC5(%rip), %rax
	movq	%rax, %rsi
	movl	$0, %eax
	call	_ZN6Logger3logEPKcz@PLT
	.loc 1 12 363 discriminator 1
	leaq	.LC3(%rip), %rax
	movq	%rax, %rcx
	movl	$12, %edx
	leaq	.LC4(%rip), %rax
	movq	%rax, %rsi
	leaq	.LC5(%rip), %rax
	movq	%rax, %rdi
	movl	$0, %eax
	call	printf@PLT
	.loc 1 12 475 discriminator 1
	call	_ZN6Logger11getInstanceEv@PLT
	movq	%rax, %rbx
	.loc 1 12 481 discriminator 1
	movl	$14, %edi
	call	strerror@PLT
	movq	%rax, %rcx
	movl	$14, %edx
	leaq	.LC6(%rip), %rax
	movq	%rax, %rsi
	movq	%rbx, %rdi
	movl	$0, %eax
	call	_ZN6Logger3logEPKcz@PLT
	.loc 1 12 27 discriminator 1
	call	_ZN6Logger11getInstanceEv@PLT
	movq	%rax, %rdi
	.loc 1 12 33 discriminator 1
	movl	$12, %ecx
	leaq	.LC7(%rip), %rax
	movq	%rax, %rdx
	leaq	.LC8(%rip), %rax
	movq	%rax, %rsi
	movl	$0, %eax
	call	_ZN6Logger3logEPKcz@PLT
	.loc 1 12 91 discriminator 1
	leaq	.LC9(%rip), %rax
	movq	%rax, %rdi
	call	system@PLT
	.loc 1 12 114 discriminator 1
	movl	$-2, %eax
	jmp	.L3
.L4:
	.loc 1 14 46
	call	_ZN6Logger11getInstanceEv@PLT
	movq	%rax, %rdi
	.loc 1 14 57
	movl	$14, %r9d
	leaq	.LC7(%rip), %r8
	leaq	.LC4(%rip), %rax
	movq	%rax, %rcx
	movl	$48, %edx
	movl	$20, %esi
	call	_ZN6Logger7CAL_LOGEmmPKcS1_i@PLT
	movq	%rax, -32(%rbp)
	.loc 1 15 5
	cmpq	$0, -32(%rbp)
	jne	.L5
	.loc 1 16 16
	movl	$-1, %eax
	jmp	.L3
.L5:
	.loc 1 18 25
	movq	-40(%rbp), %rax
	addq	$16, %rax
	movq	%rax, %rdx
	shrq	$3, %rdx
	addq	$2147450880, %rdx
	movzbl	(%rdx), %edx
	testb	%dl, %dl
	je	.L6
	movq	%rax, %rdi
	call	__asan_report_store8@PLT
.L6:
	movq	-40(%rbp), %rax
	movq	$20, 16(%rax)
	.loc 1 20 65
	call	_ZN6Logger11getInstanceEv@PLT
	movq	%rax, %rdi
	.loc 1 20 76
	movl	$20, %r9d
	leaq	.LC7(%rip), %r8
	leaq	.LC4(%rip), %rax
	movq	%rax, %rcx
	movl	$8, %edx
	movl	$16, %esi
	call	_ZN6Logger7CAL_LOGEmmPKcS1_i@PLT
	movq	%rax, -24(%rbp)
	.loc 1 21 5
	cmpq	$0, -24(%rbp)
	je	.L25
	.loc 1 25 26
	movq	-40(%rbp), %rax
	addq	$40, %rax
	movq	%rax, %rdx
	shrq	$3, %rdx
	addq	$2147450880, %rdx
	movzbl	(%rdx), %edx
	testb	%dl, %dl
	je	.L9
	movq	%rax, %rdi
	call	__asan_report_store8@PLT
.L9:
	movq	-40(%rbp), %rax
	movq	$16, 40(%rax)
	.loc 1 27 45
	call	_ZN6Logger11getInstanceEv@PLT
	movq	%rax, %rdi
	.loc 1 27 56
	movl	$27, %r9d
	leaq	.LC7(%rip), %r8
	leaq	.LC4(%rip), %rax
	movq	%rax, %rcx
	movl	$24, %edx
	movl	$1, %esi
	call	_ZN6Logger7CAL_LOGEmmPKcS1_i@PLT
	.loc 1 27 14
	movq	-40(%rbp), %rdx
	movq	%rdx, %rcx
	shrq	$3, %rcx
	addq	$2147450880, %rcx
	movzbl	(%rcx), %ecx
	testb	%cl, %cl
	je	.L10
	movq	%rdx, %rdi
	call	__asan_report_store8@PLT
.L10:
	movq	-40(%rbp), %rdx
	movq	%rax, (%rdx)
	.loc 1 28 15
	movq	-40(%rbp), %rax
	movq	(%rax), %rax
	.loc 1 28 5
	testq	%rax, %rax
	je	.L26
	.loc 1 31 25
	movq	-40(%rbp), %rax
	movq	%rax, %rdx
	shrq	$3, %rdx
	addq	$2147450880, %rdx
	movzbl	(%rdx), %edx
	testb	%dl, %dl
	je	.L12
	movq	%rax, %rdi
	call	__asan_report_load8@PLT
.L12:
	movq	-40(%rbp), %rax
	movq	(%rax), %rax
	movq	-48(%rbp), %rdx
	movq	%rdx, %rsi
	movq	%rax, %rdi
	call	_Z10BufferCtorP6BufferPKc@PLT
	.loc 1 31 44
	testl	%eax, %eax
	setne	%al
	.loc 1 31 10
	testb	%al, %al
	je	.L13
	.loc 1 31 77 discriminator 1
	call	_ZN6Logger11getInstanceEv@PLT
	movq	%rax, %rdi
	.loc 1 31 83 discriminator 1
	movl	$31, %ecx
	leaq	.LC7(%rip), %rax
	movq	%rax, %rdx
	leaq	.LC11(%rip), %rax
	movq	%rax, %rsi
	movl	$0, %eax
	call	_ZN6Logger3logEPKcz@PLT
	.loc 1 31 179 discriminator 1
	jmp	.L8
.L13:
	.loc 1 33 27
	movq	-40(%rbp), %rax
	addq	$24, %rax
	movq	%rax, %rdx
	shrq	$3, %rdx
	addq	$2147450880, %rdx
	movzbl	(%rdx), %edx
	testb	%dl, %dl
	je	.L14
	movq	%rax, %rdi
	call	__asan_report_store8@PLT
.L14:
	movq	-40(%rbp), %rax
	movq	$0, 24(%rax)
	.loc 1 34 28
	movq	-40(%rbp), %rax
	addq	$48, %rax
	movq	%rax, %rdx
	shrq	$3, %rdx
	addq	$2147450880, %rdx
	movzbl	(%rdx), %edx
	testb	%dl, %dl
	je	.L15
	movq	%rax, %rdi
	call	__asan_report_store8@PLT
.L15:
	movq	-40(%rbp), %rax
	movq	$0, 48(%rax)
	.loc 1 36 20
	movq	-40(%rbp), %rax
	addq	$8, %rax
	movq	%rax, %rdx
	shrq	$3, %rdx
	addq	$2147450880, %rdx
	movzbl	(%rdx), %edx
	testb	%dl, %dl
	je	.L16
	movq	%rax, %rdi
	call	__asan_report_store8@PLT
.L16:
	movq	-40(%rbp), %rax
	movq	-32(%rbp), %rdx
	movq	%rdx, 8(%rax)
	.loc 1 37 25
	movq	-40(%rbp), %rax
	addq	$16, %rax
	movq	%rax, %rdx
	shrq	$3, %rdx
	addq	$2147450880, %rdx
	movzbl	(%rdx), %edx
	testb	%dl, %dl
	je	.L17
	movq	%rax, %rdi
	call	__asan_report_store8@PLT
.L17:
	movq	-40(%rbp), %rax
	movq	$20, 16(%rax)
	.loc 1 38 27
	movq	-40(%rbp), %rax
	movq	$0, 24(%rax)
	.loc 1 40 21
	movq	-40(%rbp), %rax
	addq	$32, %rax
	movq	%rax, %rdx
	shrq	$3, %rdx
	addq	$2147450880, %rdx
	movzbl	(%rdx), %edx
	testb	%dl, %dl
	je	.L18
	movq	%rax, %rdi
	call	__asan_report_store8@PLT
.L18:
	movq	-40(%rbp), %rax
	movq	-24(%rbp), %rdx
	movq	%rdx, 32(%rax)
	.loc 1 41 26
	movq	-40(%rbp), %rax
	addq	$40, %rax
	movq	%rax, %rdx
	shrq	$3, %rdx
	addq	$2147450880, %rdx
	movzbl	(%rdx), %edx
	testb	%dl, %dl
	je	.L19
	movq	%rax, %rdi
	call	__asan_report_store8@PLT
.L19:
	movq	-40(%rbp), %rax
	movq	$16, 40(%rax)
	.loc 1 42 28
	movq	-40(%rbp), %rax
	movq	$0, 48(%rax)
	.loc 1 45 12
	movl	$0, %eax
	jmp	.L3
.L25:
	.loc 1 22 14
	nop
	jmp	.L8
.L26:
	.loc 1 29 14
	nop
.L8:
	.loc 1 49 6
	cmpq	$0, -32(%rbp)
	je	.L20
	.loc 1 50 28
	call	_ZN6Logger11getInstanceEv@PLT
	movq	%rax, %rdi
	.loc 1 50 40
	movq	-32(%rbp), %rax
	movl	$50, %r8d
	leaq	.LC7(%rip), %rdx
	movq	%rdx, %rcx
	leaq	.LC4(%rip), %rdx
	movq	%rax, %rsi
	call	_ZN6Logger8FREE_LOGEPvPKcS2_i@PLT
.L20:
	.loc 1 52 5
	cmpq	$0, -24(%rbp)
	je	.L21
	.loc 1 53 28
	call	_ZN6Logger11getInstanceEv@PLT
	movq	%rax, %rdi
	.loc 1 53 40
	movq	-24(%rbp), %rax
	movl	$53, %r8d
	leaq	.LC7(%rip), %rdx
	movq	%rdx, %rcx
	leaq	.LC4(%rip), %rdx
	movq	%rax, %rsi
	call	_ZN6Logger8FREE_LOGEPvPKcS2_i@PLT
.L21:
	.loc 1 55 14
	movq	-40(%rbp), %rax
	movq	%rax, %rdx
	shrq	$3, %rdx
	addq	$2147450880, %rdx
	movzbl	(%rdx), %edx
	testb	%dl, %dl
	je	.L22
	movq	%rax, %rdi
	call	__asan_report_load8@PLT
.L22:
	movq	-40(%rbp), %rax
	movq	(%rax), %rax
	.loc 1 55 5
	testq	%rax, %rax
	je	.L23
	.loc 1 56 28
	call	_ZN6Logger11getInstanceEv@PLT
	movq	%rax, %rdi
	.loc 1 56 46
	movq	-40(%rbp), %rax
	movq	%rax, %rdx
	shrq	$3, %rdx
	addq	$2147450880, %rdx
	movzbl	(%rdx), %edx
	testb	%dl, %dl
	je	.L24
	movq	%rax, %rdi
	call	__asan_report_load8@PLT
.L24:
	movq	-40(%rbp), %rax
	movq	(%rax), %rax
	.loc 1 56 40
	movl	$56, %r8d
	leaq	.LC7(%rip), %rdx
	movq	%rdx, %rcx
	leaq	.LC4(%rip), %rdx
	movq	%rax, %rsi
	call	_ZN6Logger8FREE_LOGEPvPKcS2_i@PLT
.L23:
	.loc 1 58 12
	movl	$-1, %eax
.L3:
	.loc 1 59 5
	movq	-8(%rbp), %rbx
	leave
	.cfi_def_cfa 7, 8
	ret
	.cfi_endproc
.LFE2270:
	.size	_Z14LexicalCtxCtorP10LexicalCtxPKc, .-_Z14LexicalCtxCtorP10LexicalCtxPKc
	.section	.rodata
	.align 32
.LC12:
	.string	"int LexicalCtxFailDtor(LexicalCtx*)"
	.zero	60
	.align 32
.LC13:
	.string	"LexicalCtxFailDtor"
	.zero	45
	.text
	.globl	_Z18LexicalCtxFailDtorP10LexicalCtx
	.type	_Z18LexicalCtxFailDtorP10LexicalCtx, @function
_Z18LexicalCtxFailDtorP10LexicalCtx:
.LASANPC2271:
.LFB2271:
	.loc 1 62 5
	.cfi_startproc
	endbr64
	pushq	%rbp
	.cfi_def_cfa_offset 16
	.cfi_offset 6, -16
	movq	%rsp, %rbp
	.cfi_def_cfa_register 6
	pushq	%rbx
	subq	$24, %rsp
	.cfi_offset 3, -24
	movq	%rdi, -24(%rbp)
	.loc 1 63 10
	cmpq	$0, -24(%rbp)
	jne	.L28
	.loc 1 63 43 discriminator 1
	call	_ZN6Logger11getInstanceEv@PLT
	movq	%rax, %rcx
	.loc 1 63 49 discriminator 1
	leaq	.LC0(%rip), %rax
	movq	%rax, %rdx
	leaq	.LC1(%rip), %rax
	movq	%rax, %rsi
	movq	%rcx, %rdi
	movl	$0, %eax
	call	_ZN6Logger3logEPKcz@PLT
	.loc 1 63 105 discriminator 1
	leaq	.LC0(%rip), %rax
	movq	%rax, %rsi
	leaq	.LC2(%rip), %rax
	movq	%rax, %rdi
	movl	$0, %eax
	call	printf@PLT
	.loc 1 63 249 discriminator 1
	call	_ZN6Logger11getInstanceEv@PLT
	movq	%rax, %rdi
	.loc 1 63 255 discriminator 1
	leaq	.LC12(%rip), %r8
	movl	$63, %ecx
	leaq	.LC4(%rip), %rax
	movq	%rax, %rdx
	leaq	.LC5(%rip), %rax
	movq	%rax, %rsi
	movl	$0, %eax
	call	_ZN6Logger3logEPKcz@PLT
	.loc 1 63 354 discriminator 1
	leaq	.LC12(%rip), %rax
	movq	%rax, %rcx
	movl	$63, %edx
	leaq	.LC4(%rip), %rax
	movq	%rax, %rsi
	leaq	.LC5(%rip), %rax
	movq	%rax, %rdi
	movl	$0, %eax
	call	printf@PLT
	.loc 1 63 466 discriminator 1
	call	_ZN6Logger11getInstanceEv@PLT
	movq	%rax, %rbx
	.loc 1 63 472 discriminator 1
	movl	$14, %edi
	call	strerror@PLT
	movq	%rax, %rcx
	movl	$14, %edx
	leaq	.LC6(%rip), %rax
	movq	%rax, %rsi
	movq	%rbx, %rdi
	movl	$0, %eax
	call	_ZN6Logger3logEPKcz@PLT
	.loc 1 63 27 discriminator 1
	call	_ZN6Logger11getInstanceEv@PLT
	movq	%rax, %rdi
	.loc 1 63 33 discriminator 1
	movl	$63, %ecx
	leaq	.LC13(%rip), %rax
	movq	%rax, %rdx
	leaq	.LC8(%rip), %rax
	movq	%rax, %rsi
	movl	$0, %eax
	call	_ZN6Logger3logEPKcz@PLT
	.loc 1 63 91 discriminator 1
	leaq	.LC9(%rip), %rax
	movq	%rax, %rdi
	call	system@PLT
	.loc 1 63 114 discriminator 1
	movl	$-2, %eax
	jmp	.L29
.L28:
	.loc 1 65 14
	movq	-24(%rbp), %rax
	addq	$8, %rax
	movq	%rax, %rdx
	shrq	$3, %rdx
	addq	$2147450880, %rdx
	movzbl	(%rdx), %edx
	testb	%dl, %dl
	je	.L30
	movq	%rax, %rdi
	call	__asan_report_load8@PLT
.L30:
	movq	-24(%rbp), %rax
	movq	8(%rax), %rax
	.loc 1 65 5
	testq	%rax, %rax
	je	.L31
	.loc 1 66 28
	call	_ZN6Logger11getInstanceEv@PLT
	movq	%rax, %rdi
	.loc 1 66 46
	movq	-24(%rbp), %rax
	addq	$8, %rax
	movq	%rax, %rdx
	shrq	$3, %rdx
	addq	$2147450880, %rdx
	movzbl	(%rdx), %edx
	testb	%dl, %dl
	je	.L32
	movq	%rax, %rdi
	call	__asan_report_load8@PLT
.L32:
	movq	-24(%rbp), %rax
	movq	8(%rax), %rax
	.loc 1 66 40
	movl	$66, %r8d
	leaq	.LC13(%rip), %rdx
	movq	%rdx, %rcx
	leaq	.LC4(%rip), %rdx
	movq	%rax, %rsi
	call	_ZN6Logger8FREE_LOGEPvPKcS2_i@PLT
.L31:
	.loc 1 68 14
	movq	-24(%rbp), %rax
	addq	$32, %rax
	movq	%rax, %rdx
	shrq	$3, %rdx
	addq	$2147450880, %rdx
	movzbl	(%rdx), %edx
	testb	%dl, %dl
	je	.L33
	movq	%rax, %rdi
	call	__asan_report_load8@PLT
.L33:
	movq	-24(%rbp), %rax
	movq	32(%rax), %rax
	.loc 1 68 5
	testq	%rax, %rax
	je	.L34
	.loc 1 69 28
	call	_ZN6Logger11getInstanceEv@PLT
	movq	%rax, %rdi
	.loc 1 69 46
	movq	-24(%rbp), %rax
	addq	$8, %rax
	movq	%rax, %rdx
	shrq	$3, %rdx
	addq	$2147450880, %rdx
	movzbl	(%rdx), %edx
	testb	%dl, %dl
	je	.L35
	movq	%rax, %rdi
	call	__asan_report_load8@PLT
.L35:
	movq	-24(%rbp), %rax
	movq	8(%rax), %rax
	.loc 1 69 40
	movl	$69, %r8d
	leaq	.LC13(%rip), %rdx
	movq	%rdx, %rcx
	leaq	.LC4(%rip), %rdx
	movq	%rax, %rsi
	call	_ZN6Logger8FREE_LOGEPvPKcS2_i@PLT
.L34:
	.loc 1 71 14
	movq	-24(%rbp), %rax
	movq	%rax, %rdx
	shrq	$3, %rdx
	addq	$2147450880, %rdx
	movzbl	(%rdx), %edx
	testb	%dl, %dl
	je	.L36
	movq	%rax, %rdi
	call	__asan_report_load8@PLT
.L36:
	movq	-24(%rbp), %rax
	movq	(%rax), %rax
	.loc 1 71 5
	testq	%rax, %rax
	je	.L37
	.loc 1 72 28
	call	_ZN6Logger11getInstanceEv@PLT
	movq	%rax, %rdi
	.loc 1 72 46
	movq	-24(%rbp), %rax
	movq	%rax, %rdx
	shrq	$3, %rdx
	addq	$2147450880, %rdx
	movzbl	(%rdx), %edx
	testb	%dl, %dl
	je	.L38
	movq	%rax, %rdi
	call	__asan_report_load8@PLT
.L38:
	movq	-24(%rbp), %rax
	movq	(%rax), %rax
	.loc 1 72 40
	movl	$72, %r8d
	leaq	.LC13(%rip), %rdx
	movq	%rdx, %rcx
	leaq	.LC4(%rip), %rdx
	movq	%rax, %rsi
	call	_ZN6Logger8FREE_LOGEPvPKcS2_i@PLT
.L37:
	.loc 1 74 12
	movl	$0, %eax
.L29:
	.loc 1 75 5
	movq	-8(%rbp), %rbx
	leave
	.cfi_def_cfa 7, 8
	ret
	.cfi_endproc
.LFE2271:
	.size	_Z18LexicalCtxFailDtorP10LexicalCtx, .-_Z18LexicalCtxFailDtorP10LexicalCtx
	.section	.rodata
	.align 32
.LC14:
	.string	"Token* GetToken(LexicalCtx*)"
	.zero	35
	.align 32
.LC15:
	.string	"GetToken"
	.zero	55
	.text
	.globl	_Z8GetTokenP10LexicalCtx
	.type	_Z8GetTokenP10LexicalCtx, @function
_Z8GetTokenP10LexicalCtx:
.LASANPC2272:
.LFB2272:
	.loc 1 78 5
	.cfi_startproc
	endbr64
	pushq	%rbp
	.cfi_def_cfa_offset 16
	.cfi_offset 6, -16
	movq	%rsp, %rbp
	.cfi_def_cfa_register 6
	pushq	%rbx
	subq	$40, %rsp
	.cfi_offset 3, -24
	movq	%rdi, -40(%rbp)
	.loc 1 79 10
	cmpq	$0, -40(%rbp)
	jne	.L40
	.loc 1 79 43 discriminator 1
	call	_ZN6Logger11getInstanceEv@PLT
	movq	%rax, %rcx
	.loc 1 79 49 discriminator 1
	leaq	.LC0(%rip), %rax
	movq	%rax, %rdx
	leaq	.LC1(%rip), %rax
	movq	%rax, %rsi
	movq	%rcx, %rdi
	movl	$0, %eax
	call	_ZN6Logger3logEPKcz@PLT
	.loc 1 79 105 discriminator 1
	leaq	.LC0(%rip), %rax
	movq	%rax, %rsi
	leaq	.LC2(%rip), %rax
	movq	%rax, %rdi
	movl	$0, %eax
	call	printf@PLT
	.loc 1 79 249 discriminator 1
	call	_ZN6Logger11getInstanceEv@PLT
	movq	%rax, %rdi
	.loc 1 79 255 discriminator 1
	leaq	.LC14(%rip), %r8
	movl	$79, %ecx
	leaq	.LC4(%rip), %rax
	movq	%rax, %rdx
	leaq	.LC5(%rip), %rax
	movq	%rax, %rsi
	movl	$0, %eax
	call	_ZN6Logger3logEPKcz@PLT
	.loc 1 79 354 discriminator 1
	leaq	.LC14(%rip), %rax
	movq	%rax, %rcx
	movl	$79, %edx
	leaq	.LC4(%rip), %rax
	movq	%rax, %rsi
	leaq	.LC5(%rip), %rax
	movq	%rax, %rdi
	movl	$0, %eax
	call	printf@PLT
	.loc 1 79 466 discriminator 1
	call	_ZN6Logger11getInstanceEv@PLT
	movq	%rax, %rbx
	.loc 1 79 472 discriminator 1
	movl	$14, %edi
	call	strerror@PLT
	movq	%rax, %rcx
	movl	$14, %edx
	leaq	.LC6(%rip), %rax
	movq	%rax, %rsi
	movq	%rbx, %rdi
	movl	$0, %eax
	call	_ZN6Logger3logEPKcz@PLT
	.loc 1 79 27 discriminator 1
	call	_ZN6Logger11getInstanceEv@PLT
	movq	%rax, %rdi
	.loc 1 79 33 discriminator 1
	movl	$79, %ecx
	leaq	.LC15(%rip), %rax
	movq	%rax, %rdx
	leaq	.LC8(%rip), %rax
	movq	%rax, %rsi
	movl	$0, %eax
	call	_ZN6Logger3logEPKcz@PLT
	.loc 1 79 91 discriminator 1
	leaq	.LC9(%rip), %rax
	movq	%rax, %rdi
	call	system@PLT
	.loc 1 79 4 discriminator 1
	movl	$0, %eax
	jmp	.L41
.L40:
.LBB2:
	.loc 1 82 14
	movq	-40(%rbp), %rax
	addq	$24, %rax
	movq	%rax, %rdx
	shrq	$3, %rdx
	addq	$2147450880, %rdx
	movzbl	(%rdx), %edx
	testb	%dl, %dl
	je	.L42
	movq	%rax, %rdi
	call	__asan_report_load8@PLT
.L42:
	movq	-40(%rbp), %rax
	movq	24(%rax), %rcx
	.loc 1 82 39
	movq	-40(%rbp), %rax
	addq	$16, %rax
	movq	%rax, %rdx
	shrq	$3, %rdx
	addq	$2147450880, %rdx
	movzbl	(%rdx), %edx
	testb	%dl, %dl
	je	.L43
	movq	%rax, %rdi
	call	__asan_report_load8@PLT
.L43:
	movq	-40(%rbp), %rax
	movq	16(%rax), %rax
	.loc 1 82 5
	cmpq	%rax, %rcx
	jne	.L44
.LBB3:
	.loc 1 84 29
	movq	-40(%rbp), %rax
	movq	16(%rax), %rax
	leaq	(%rax,%rax), %rdx
	movq	-40(%rbp), %rax
	movq	%rdx, 16(%rax)
	.loc 1 85 51
	call	_ZN6Logger11getInstanceEv@PLT
	movq	%rax, %rdi
	.loc 1 85 86
	movq	-40(%rbp), %rax
	addq	$16, %rax
	movq	%rax, %rdx
	shrq	$3, %rdx
	addq	$2147450880, %rdx
	movzbl	(%rdx), %edx
	testb	%dl, %dl
	je	.L45
	movq	%rax, %rdi
	call	__asan_report_load8@PLT
.L45:
	movq	-40(%rbp), %rax
	movq	16(%rax), %rdx
	.loc 1 85 64
	movq	%rdx, %rax
	addq	%rax, %rax
	addq	%rdx, %rax
	salq	$4, %rax
	movq	%rax, %rsi
	.loc 1 85 70
	movq	-40(%rbp), %rax
	addq	$8, %rax
	movq	%rax, %rdx
	shrq	$3, %rdx
	addq	$2147450880, %rdx
	movzbl	(%rdx), %edx
	testb	%dl, %dl
	je	.L46
	movq	%rax, %rdi
	call	__asan_report_load8@PLT
.L46:
	movq	-40(%rbp), %rax
	movq	8(%rax), %rax
	.loc 1 85 64
	movl	$85, %r9d
	leaq	.LC15(%rip), %r8
	leaq	.LC4(%rip), %rdx
	movq	%rdx, %rcx
	movq	%rsi, %rdx
	movq	%rax, %rsi
	call	_ZN6Logger9RECAL_LOGEPvmPKcS2_i@PLT
	movq	%rax, -24(%rbp)
	.loc 1 86 9
	cmpq	$0, -24(%rbp)
	jne	.L47
	.loc 1 87 19
	movl	$0, %eax
	jmp	.L41
.L47:
	.loc 1 89 24
	movq	-40(%rbp), %rax
	addq	$8, %rax
	movq	%rax, %rdx
	shrq	$3, %rdx
	addq	$2147450880, %rdx
	movzbl	(%rdx), %edx
	testb	%dl, %dl
	je	.L48
	movq	%rax, %rdi
	call	__asan_report_store8@PLT
.L48:
	movq	-40(%rbp), %rax
	movq	-24(%rbp), %rdx
	movq	%rdx, 8(%rax)
.L44:
.LBE3:
.LBE2:
	.loc 1 92 17
	movq	-40(%rbp), %rax
	addq	$8, %rax
	movq	%rax, %rdx
	shrq	$3, %rdx
	addq	$2147450880, %rdx
	movzbl	(%rdx), %edx
	testb	%dl, %dl
	je	.L49
	movq	%rax, %rdi
	call	__asan_report_load8@PLT
.L49:
	movq	-40(%rbp), %rax
	movq	8(%rax), %rsi
	.loc 1 92 34
	movq	-40(%rbp), %rax
	addq	$24, %rax
	movq	%rax, %rdx
	shrq	$3, %rdx
	addq	$2147450880, %rdx
	movzbl	(%rdx), %edx
	testb	%dl, %dl
	je	.L50
	movq	%rax, %rdi
	call	__asan_report_load8@PLT
.L50:
	movq	-40(%rbp), %rax
	movq	24(%rax), %rdx
	.loc 1 92 50
	leaq	1(%rdx), %rcx
	movq	-40(%rbp), %rax
	movq	%rcx, 24(%rax)
	.loc 1 92 27
	movq	%rdx, %rax
	addq	%rax, %rax
	addq	%rdx, %rax
	salq	$4, %rax
	.loc 1 92 50
	addq	%rsi, %rax
.L41:
	.loc 1 93 5
	movq	-8(%rbp), %rbx
	leave
	.cfi_def_cfa 7, 8
	ret
	.cfi_endproc
.LFE2272:
	.size	_Z8GetTokenP10LexicalCtx, .-_Z8GetTokenP10LexicalCtx
	.section	.rodata
	.align 32
.LC16:
	.string	"str"
	.zero	60
	.align 32
.LC17:
	.string	"int IsName(const char*, LexicalCtx*)"
	.zero	59
	.align 32
.LC18:
	.string	"IsName"
	.zero	57
	.text
	.globl	_Z6IsNamePKcP10LexicalCtx
	.type	_Z6IsNamePKcP10LexicalCtx, @function
_Z6IsNamePKcP10LexicalCtx:
.LASANPC2273:
.LFB2273:
	.loc 1 96 5
	.cfi_startproc
	endbr64
	pushq	%rbp
	.cfi_def_cfa_offset 16
	.cfi_offset 6, -16
	movq	%rsp, %rbp
	.cfi_def_cfa_register 6
	pushq	%rbx
	subq	$40, %rsp
	.cfi_offset 3, -24
	movq	%rdi, -40(%rbp)
	movq	%rsi, -48(%rbp)
	.loc 1 97 10
	cmpq	$0, -40(%rbp)
	jne	.L52
	.loc 1 97 43 discriminator 1
	call	_ZN6Logger11getInstanceEv@PLT
	movq	%rax, %rcx
	.loc 1 97 49 discriminator 1
	leaq	.LC16(%rip), %rax
	movq	%rax, %rdx
	leaq	.LC1(%rip), %rax
	movq	%rax, %rsi
	movq	%rcx, %rdi
	movl	$0, %eax
	call	_ZN6Logger3logEPKcz@PLT
	.loc 1 97 105 discriminator 1
	leaq	.LC16(%rip), %rax
	movq	%rax, %rsi
	leaq	.LC2(%rip), %rax
	movq	%rax, %rdi
	movl	$0, %eax
	call	printf@PLT
	.loc 1 97 249 discriminator 1
	call	_ZN6Logger11getInstanceEv@PLT
	movq	%rax, %rdi
	.loc 1 97 255 discriminator 1
	leaq	.LC17(%rip), %r8
	movl	$97, %ecx
	leaq	.LC4(%rip), %rax
	movq	%rax, %rdx
	leaq	.LC5(%rip), %rax
	movq	%rax, %rsi
	movl	$0, %eax
	call	_ZN6Logger3logEPKcz@PLT
	.loc 1 97 354 discriminator 1
	leaq	.LC17(%rip), %rax
	movq	%rax, %rcx
	movl	$97, %edx
	leaq	.LC4(%rip), %rax
	movq	%rax, %rsi
	leaq	.LC5(%rip), %rax
	movq	%rax, %rdi
	movl	$0, %eax
	call	printf@PLT
	.loc 1 97 466 discriminator 1
	call	_ZN6Logger11getInstanceEv@PLT
	movq	%rax, %rbx
	.loc 1 97 472 discriminator 1
	movl	$14, %edi
	call	strerror@PLT
	movq	%rax, %rcx
	movl	$14, %edx
	leaq	.LC6(%rip), %rax
	movq	%rax, %rsi
	movq	%rbx, %rdi
	movl	$0, %eax
	call	_ZN6Logger3logEPKcz@PLT
	.loc 1 97 27 discriminator 1
	call	_ZN6Logger11getInstanceEv@PLT
	movq	%rax, %rdi
	.loc 1 97 33 discriminator 1
	movl	$97, %ecx
	leaq	.LC18(%rip), %rax
	movq	%rax, %rdx
	leaq	.LC8(%rip), %rax
	movq	%rax, %rsi
	movl	$0, %eax
	call	_ZN6Logger3logEPKcz@PLT
	.loc 1 97 91 discriminator 1
	leaq	.LC9(%rip), %rax
	movq	%rax, %rdi
	call	system@PLT
	.loc 1 97 114 discriminator 1
	movl	$-555, %eax
	jmp	.L53
.L52:
	.loc 1 98 10
	cmpq	$0, -48(%rbp)
	jne	.L54
	.loc 1 98 43 discriminator 1
	call	_ZN6Logger11getInstanceEv@PLT
	movq	%rax, %rcx
	.loc 1 98 49 discriminator 1
	leaq	.LC0(%rip), %rax
	movq	%rax, %rdx
	leaq	.LC1(%rip), %rax
	movq	%rax, %rsi
	movq	%rcx, %rdi
	movl	$0, %eax
	call	_ZN6Logger3logEPKcz@PLT
	.loc 1 98 105 discriminator 1
	leaq	.LC0(%rip), %rax
	movq	%rax, %rsi
	leaq	.LC2(%rip), %rax
	movq	%rax, %rdi
	movl	$0, %eax
	call	printf@PLT
	.loc 1 98 249 discriminator 1
	call	_ZN6Logger11getInstanceEv@PLT
	movq	%rax, %rdi
	.loc 1 98 255 discriminator 1
	leaq	.LC17(%rip), %r8
	movl	$98, %ecx
	leaq	.LC4(%rip), %rax
	movq	%rax, %rdx
	leaq	.LC5(%rip), %rax
	movq	%rax, %rsi
	movl	$0, %eax
	call	_ZN6Logger3logEPKcz@PLT
	.loc 1 98 354 discriminator 1
	leaq	.LC17(%rip), %rax
	movq	%rax, %rcx
	movl	$98, %edx
	leaq	.LC4(%rip), %rax
	movq	%rax, %rsi
	leaq	.LC5(%rip), %rax
	movq	%rax, %rdi
	movl	$0, %eax
	call	printf@PLT
	.loc 1 98 466 discriminator 1
	call	_ZN6Logger11getInstanceEv@PLT
	movq	%rax, %rbx
	.loc 1 98 472 discriminator 1
	movl	$14, %edi
	call	strerror@PLT
	movq	%rax, %rcx
	movl	$14, %edx
	leaq	.LC6(%rip), %rax
	movq	%rax, %rsi
	movq	%rbx, %rdi
	movl	$0, %eax
	call	_ZN6Logger3logEPKcz@PLT
	.loc 1 98 27 discriminator 1
	call	_ZN6Logger11getInstanceEv@PLT
	movq	%rax, %rdi
	.loc 1 98 33 discriminator 1
	movl	$98, %ecx
	leaq	.LC18(%rip), %rax
	movq	%rax, %rdx
	leaq	.LC8(%rip), %rax
	movq	%rax, %rsi
	movl	$0, %eax
	call	_ZN6Logger3logEPKcz@PLT
	.loc 1 98 91 discriminator 1
	leaq	.LC9(%rip), %rax
	movq	%rax, %rdi
	call	system@PLT
	.loc 1 98 114 discriminator 1
	movl	$-555, %eax
	jmp	.L53
.L54:
.LBB4:
	.loc 1 100 17
	movq	$0, -24(%rbp)
	.loc 1 100 5
	jmp	.L55
.L60:
	.loc 1 101 33
	movq	-48(%rbp), %rax
	addq	$32, %rax
	movq	%rax, %rdx
	shrq	$3, %rdx
	addq	$2147450880, %rdx
	movzbl	(%rdx), %edx
	testb	%dl, %dl
	je	.L56
	movq	%rax, %rdi
	call	__asan_report_load8@PLT
.L56:
	movq	-48(%rbp), %rax
	movq	32(%rax), %rdx
	.loc 1 101 44
	movq	-24(%rbp), %rax
	salq	$3, %rax
	addq	%rdx, %rax
	.loc 1 101 20
	movq	%rax, %rdx
	movq	%rdx, %rcx
	shrq	$3, %rcx
	addq	$2147450880, %rcx
	movzbl	(%rcx), %ecx
	testb	%cl, %cl
	je	.L57
	movq	%rdx, %rdi
	call	__asan_report_load8@PLT
.L57:
	movq	(%rax), %rdx
	movq	-40(%rbp), %rax
	movq	%rdx, %rsi
	movq	%rax, %rdi
	call	strcmp@PLT
	.loc 1 101 9
	testl	%eax, %eax
	jne	.L58
	.loc 1 102 26
	movq	-24(%rbp), %rax
	jmp	.L53
.L58:
	.loc 1 100 5 discriminator 2
	addq	$1, -24(%rbp)
.L55:
	.loc 1 100 33 discriminator 1
	movq	-48(%rbp), %rax
	addq	$48, %rax
	movq	%rax, %rdx
	shrq	$3, %rdx
	addq	$2147450880, %rdx
	movzbl	(%rdx), %edx
	testb	%dl, %dl
	je	.L59
	.loc 1 100 33 is_stmt 0
	movq	%rax, %rdi
	call	__asan_report_load8@PLT
.L59:
	.loc 1 100 33 discriminator 1
	movq	-48(%rbp), %rax
	movq	48(%rax), %rax
	.loc 1 100 26 is_stmt 1 discriminator 1
	cmpq	%rax, -24(%rbp)
	jb	.L60
.LBE4:
	.loc 1 104 12
	movl	$-555, %eax
.L53:
	.loc 1 105 5
	movq	-8(%rbp), %rbx
	leave
	.cfi_def_cfa 7, 8
	ret
	.cfi_endproc
.LFE2273:
	.size	_Z6IsNamePKcP10LexicalCtx, .-_Z6IsNamePKcP10LexicalCtx
	.section	.rodata
	.align 32
.LC19:
	.string	"int AddString(LexicalCtx*, Token*)"
	.zero	61
	.align 32
.LC20:
	.string	"AddString"
	.zero	54
	.text
	.globl	_Z9AddStringP10LexicalCtxP5Token
	.type	_Z9AddStringP10LexicalCtxP5Token, @function
_Z9AddStringP10LexicalCtxP5Token:
.LASANPC2274:
.LFB2274:
	.loc 1 108 5
	.cfi_startproc
	endbr64
	pushq	%rbp
	.cfi_def_cfa_offset 16
	.cfi_offset 6, -16
	movq	%rsp, %rbp
	.cfi_def_cfa_register 6
	pushq	%rbx
	subq	$40, %rsp
	.cfi_offset 3, -24
	movq	%rdi, -40(%rbp)
	movq	%rsi, -48(%rbp)
	.loc 1 109 10
	cmpq	$0, -40(%rbp)
	jne	.L62
	.loc 1 109 43 discriminator 1
	call	_ZN6Logger11getInstanceEv@PLT
	movq	%rax, %rcx
	.loc 1 109 49 discriminator 1
	leaq	.LC0(%rip), %rax
	movq	%rax, %rdx
	leaq	.LC1(%rip), %rax
	movq	%rax, %rsi
	movq	%rcx, %rdi
	movl	$0, %eax
	call	_ZN6Logger3logEPKcz@PLT
	.loc 1 109 105 discriminator 1
	leaq	.LC0(%rip), %rax
	movq	%rax, %rsi
	leaq	.LC2(%rip), %rax
	movq	%rax, %rdi
	movl	$0, %eax
	call	printf@PLT
	.loc 1 109 249 discriminator 1
	call	_ZN6Logger11getInstanceEv@PLT
	movq	%rax, %rdi
	.loc 1 109 255 discriminator 1
	leaq	.LC19(%rip), %r8
	movl	$109, %ecx
	leaq	.LC4(%rip), %rax
	movq	%rax, %rdx
	leaq	.LC5(%rip), %rax
	movq	%rax, %rsi
	movl	$0, %eax
	call	_ZN6Logger3logEPKcz@PLT
	.loc 1 109 355 discriminator 1
	leaq	.LC19(%rip), %rax
	movq	%rax, %rcx
	movl	$109, %edx
	leaq	.LC4(%rip), %rax
	movq	%rax, %rsi
	leaq	.LC5(%rip), %rax
	movq	%rax, %rdi
	movl	$0, %eax
	call	printf@PLT
	.loc 1 109 468 discriminator 1
	call	_ZN6Logger11getInstanceEv@PLT
	movq	%rax, %rbx
	.loc 1 109 474 discriminator 1
	movl	$14, %edi
	call	strerror@PLT
	movq	%rax, %rcx
	movl	$14, %edx
	leaq	.LC6(%rip), %rax
	movq	%rax, %rsi
	movq	%rbx, %rdi
	movl	$0, %eax
	call	_ZN6Logger3logEPKcz@PLT
	.loc 1 109 27 discriminator 1
	call	_ZN6Logger11getInstanceEv@PLT
	movq	%rax, %rdi
	.loc 1 109 33 discriminator 1
	movl	$109, %ecx
	leaq	.LC20(%rip), %rax
	movq	%rax, %rdx
	leaq	.LC8(%rip), %rax
	movq	%rax, %rsi
	movl	$0, %eax
	call	_ZN6Logger3logEPKcz@PLT
	.loc 1 109 92 discriminator 1
	leaq	.LC9(%rip), %rax
	movq	%rax, %rdi
	call	system@PLT
	.loc 1 109 115 discriminator 1
	movl	$-2, %eax
	jmp	.L63
.L62:
	.loc 1 110 10
	cmpq	$0, -40(%rbp)
	jne	.L64
	.loc 1 110 43 discriminator 1
	call	_ZN6Logger11getInstanceEv@PLT
	movq	%rax, %rcx
	.loc 1 110 49 discriminator 1
	leaq	.LC0(%rip), %rax
	movq	%rax, %rdx
	leaq	.LC1(%rip), %rax
	movq	%rax, %rsi
	movq	%rcx, %rdi
	movl	$0, %eax
	call	_ZN6Logger3logEPKcz@PLT
	.loc 1 110 105 discriminator 1
	leaq	.LC0(%rip), %rax
	movq	%rax, %rsi
	leaq	.LC2(%rip), %rax
	movq	%rax, %rdi
	movl	$0, %eax
	call	printf@PLT
	.loc 1 110 249 discriminator 1
	call	_ZN6Logger11getInstanceEv@PLT
	movq	%rax, %rdi
	.loc 1 110 255 discriminator 1
	leaq	.LC19(%rip), %r8
	movl	$110, %ecx
	leaq	.LC4(%rip), %rax
	movq	%rax, %rdx
	leaq	.LC5(%rip), %rax
	movq	%rax, %rsi
	movl	$0, %eax
	call	_ZN6Logger3logEPKcz@PLT
	.loc 1 110 355 discriminator 1
	leaq	.LC19(%rip), %rax
	movq	%rax, %rcx
	movl	$110, %edx
	leaq	.LC4(%rip), %rax
	movq	%rax, %rsi
	leaq	.LC5(%rip), %rax
	movq	%rax, %rdi
	movl	$0, %eax
	call	printf@PLT
	.loc 1 110 468 discriminator 1
	call	_ZN6Logger11getInstanceEv@PLT
	movq	%rax, %rbx
	.loc 1 110 474 discriminator 1
	movl	$14, %edi
	call	strerror@PLT
	movq	%rax, %rcx
	movl	$14, %edx
	leaq	.LC6(%rip), %rax
	movq	%rax, %rsi
	movq	%rbx, %rdi
	movl	$0, %eax
	call	_ZN6Logger3logEPKcz@PLT
	.loc 1 110 27 discriminator 1
	call	_ZN6Logger11getInstanceEv@PLT
	movq	%rax, %rdi
	.loc 1 110 33 discriminator 1
	movl	$110, %ecx
	leaq	.LC20(%rip), %rax
	movq	%rax, %rdx
	leaq	.LC8(%rip), %rax
	movq	%rax, %rsi
	movl	$0, %eax
	call	_ZN6Logger3logEPKcz@PLT
	.loc 1 110 92 discriminator 1
	leaq	.LC9(%rip), %rax
	movq	%rax, %rdi
	call	system@PLT
	.loc 1 110 115 discriminator 1
	movl	$-2, %eax
	jmp	.L63
.L64:
.LBB5:
	.loc 1 112 14
	movq	-40(%rbp), %rax
	addq	$48, %rax
	movq	%rax, %rdx
	shrq	$3, %rdx
	addq	$2147450880, %rdx
	movzbl	(%rdx), %edx
	testb	%dl, %dl
	je	.L65
	movq	%rax, %rdi
	call	__asan_report_load8@PLT
.L65:
	movq	-40(%rbp), %rax
	movq	48(%rax), %rcx
	.loc 1 112 40
	movq	-40(%rbp), %rax
	addq	$40, %rax
	movq	%rax, %rdx
	shrq	$3, %rdx
	addq	$2147450880, %rdx
	movzbl	(%rdx), %edx
	testb	%dl, %dl
	je	.L66
	movq	%rax, %rdi
	call	__asan_report_load8@PLT
.L66:
	movq	-40(%rbp), %rax
	movq	40(%rax), %rax
	.loc 1 112 5
	cmpq	%rax, %rcx
	jne	.L67
.LBB6:
	.loc 1 114 30
	movq	-40(%rbp), %rax
	movq	40(%rax), %rax
	leaq	(%rax,%rax), %rdx
	movq	-40(%rbp), %rax
	movq	%rdx, 40(%rax)
	.loc 1 115 62
	call	_ZN6Logger11getInstanceEv@PLT
	movq	%rax, %rdi
	.loc 1 115 98
	movq	-40(%rbp), %rax
	addq	$40, %rax
	movq	%rax, %rdx
	shrq	$3, %rdx
	addq	$2147450880, %rdx
	movzbl	(%rdx), %edx
	testb	%dl, %dl
	je	.L68
	movq	%rax, %rdi
	call	__asan_report_load8@PLT
.L68:
	movq	-40(%rbp), %rax
	movq	40(%rax), %rax
	.loc 1 115 75
	leaq	0(,%rax,8), %rdx
	.loc 1 115 81
	movq	-40(%rbp), %rax
	addq	$32, %rax
	movq	%rax, %rcx
	shrq	$3, %rcx
	addq	$2147450880, %rcx
	movzbl	(%rcx), %ecx
	testb	%cl, %cl
	je	.L69
	movq	%rax, %rdi
	call	__asan_report_load8@PLT
.L69:
	movq	-40(%rbp), %rax
	movq	32(%rax), %rax
	.loc 1 115 75
	movl	$115, %r9d
	leaq	.LC20(%rip), %r8
	leaq	.LC4(%rip), %rcx
	movq	%rax, %rsi
	call	_ZN6Logger9RECAL_LOGEPvmPKcS2_i@PLT
	movq	%rax, -24(%rbp)
	.loc 1 116 9
	cmpq	$0, -24(%rbp)
	jne	.L70
	.loc 1 117 20
	movl	$-1, %eax
	jmp	.L63
.L70:
	.loc 1 119 25
	movq	-40(%rbp), %rax
	addq	$32, %rax
	movq	%rax, %rdx
	shrq	$3, %rdx
	addq	$2147450880, %rdx
	movzbl	(%rdx), %edx
	testb	%dl, %dl
	je	.L71
	movq	%rax, %rdi
	call	__asan_report_store8@PLT
.L71:
	movq	-40(%rbp), %rax
	movq	-24(%rbp), %rdx
	movq	%rdx, 32(%rax)
.L67:
.LBE6:
.LBE5:
	.loc 1 123 71
	movq	-48(%rbp), %rax
	addq	$24, %rax
	movq	%rax, %rdx
	shrq	$3, %rdx
	addq	$2147450880, %rdx
	movzbl	(%rdx), %edx
	testb	%dl, %dl
	je	.L72
	movq	%rax, %rdi
	call	__asan_report_load8@PLT
.L72:
	movq	-48(%rbp), %rax
	movq	24(%rax), %rax
	.loc 1 123 12
	movq	-40(%rbp), %rdx
	addq	$32, %rdx
	movq	%rdx, %rcx
	shrq	$3, %rcx
	addq	$2147450880, %rcx
	movzbl	(%rcx), %ecx
	testb	%cl, %cl
	je	.L73
	movq	%rdx, %rdi
	call	__asan_report_load8@PLT
.L73:
	movq	-40(%rbp), %rdx
	movq	32(%rdx), %rsi
	.loc 1 123 30
	movq	-40(%rbp), %rdx
	addq	$48, %rdx
	movq	%rdx, %rcx
	shrq	$3, %rcx
	addq	$2147450880, %rcx
	movzbl	(%rcx), %ecx
	testb	%cl, %cl
	je	.L74
	movq	%rdx, %rdi
	call	__asan_report_load8@PLT
.L74:
	movq	-40(%rbp), %rdx
	movq	48(%rdx), %rdx
	.loc 1 123 23
	salq	$3, %rdx
	leaq	(%rsi,%rdx), %rbx
	.loc 1 123 57
	movq	%rax, %rdi
	call	strdup@PLT
	movq	%rax, %rcx
	.loc 1 123 49
	movq	%rbx, %rax
	movq	%rax, %rdx
	shrq	$3, %rdx
	addq	$2147450880, %rdx
	movzbl	(%rdx), %edx
	testb	%dl, %dl
	je	.L75
	movq	%rax, %rdi
	call	__asan_report_store8@PLT
.L75:
	movq	%rcx, (%rbx)
	.loc 1 127 41
	movq	-40(%rbp), %rax
	addq	$48, %rax
	movq	%rax, %rdx
	shrq	$3, %rdx
	addq	$2147450880, %rdx
	movzbl	(%rdx), %edx
	testb	%dl, %dl
	je	.L76
	movq	%rax, %rdi
	call	__asan_report_load8@PLT
.L76:
	movq	-40(%rbp), %rax
	movq	48(%rax), %rax
	.loc 1 127 58
	leaq	1(%rax), %rcx
	movq	-40(%rbp), %rdx
	movq	%rcx, 48(%rdx)
	.loc 1 127 28
	movl	%eax, %ecx
	movq	-48(%rbp), %rax
	addq	$24, %rax
	movq	%rax, %rdx
	movq	%rdx, %rax
	shrq	$3, %rax
	addq	$2147450880, %rax
	movzbl	(%rax), %eax
	testb	%al, %al
	setne	%sil
	cmpb	$3, %al
	setle	%al
	andl	%esi, %eax
	testb	%al, %al
	je	.L77
	movq	%rdx, %rdi
	call	__asan_report_store4@PLT
.L77:
	movq	-48(%rbp), %rax
	movl	%ecx, 24(%rax)
	.loc 1 129 12
	movl	$0, %eax
.L63:
	.loc 1 130 5
	movq	-8(%rbp), %rbx
	leave
	.cfi_def_cfa 7, 8
	ret
	.cfi_endproc
.LFE2274:
	.size	_Z9AddStringP10LexicalCtxP5Token, .-_Z9AddStringP10LexicalCtxP5Token
	.type	_Z41__static_initialization_and_destruction_0ii, @function
_Z41__static_initialization_and_destruction_0ii:
.LASANPC2941:
.LFB2941:
	.loc 1 130 5
	.cfi_startproc
	endbr64
	pushq	%rbp
	.cfi_def_cfa_offset 16
	.cfi_offset 6, -16
	movq	%rsp, %rbp
	.cfi_def_cfa_register 6
	subq	$16, %rsp
	movl	%edi, -4(%rbp)
	movl	%esi, -8(%rbp)
	.loc 1 130 5
	cmpl	$1, -4(%rbp)
	jne	.L81
	.loc 1 130 5 is_stmt 0 discriminator 1
	leaq	.LC4(%rip), %rax
	movq	%rax, %rdi
	call	__asan_before_dynamic_init@PLT
	cmpl	$65535, -8(%rbp)
	jne	.L80
	.file 2 "/usr/include/c++/11/iostream"
	.loc 2 74 25 is_stmt 1
	leaq	_ZStL8__ioinit(%rip), %rax
	movq	%rax, %rdi
	call	_ZNSt8ios_base4InitC1Ev@PLT
	leaq	__dso_handle(%rip), %rax
	movq	%rax, %rdx
	leaq	_ZStL8__ioinit(%rip), %rax
	movq	%rax, %rsi
	movq	_ZNSt8ios_base4InitD1Ev@GOTPCREL(%rip), %rax
	movq	%rax, %rdi
	call	__cxa_atexit@PLT
.L80:
	.loc 2 74 25 is_stmt 0 discriminator 1
	call	__asan_after_dynamic_init@PLT
.L81:
	.loc 1 130 5 is_stmt 1
	nop
	leave
	.cfi_def_cfa 7, 8
	ret
	.cfi_endproc
.LFE2941:
	.size	_Z41__static_initialization_and_destruction_0ii, .-_Z41__static_initialization_and_destruction_0ii
	.type	_GLOBAL__sub_I__Z14LexicalCtxCtorP10LexicalCtxPKc, @function
_GLOBAL__sub_I__Z14LexicalCtxCtorP10LexicalCtxPKc:
.LASANPC2942:
.LFB2942:
	.loc 1 130 5
	.cfi_startproc
	endbr64
	pushq	%rbp
	.cfi_def_cfa_offset 16
	.cfi_offset 6, -16
	movq	%rsp, %rbp
	.cfi_def_cfa_register 6
	.loc 1 130 5
	movl	$65535, %esi
	movl	$1, %edi
	call	_Z41__static_initialization_and_destruction_0ii
	popq	%rbp
	.cfi_def_cfa 7, 8
	ret
	.cfi_endproc
.LFE2942:
	.size	_GLOBAL__sub_I__Z14LexicalCtxCtorP10LexicalCtxPKc, .-_GLOBAL__sub_I__Z14LexicalCtxCtorP10LexicalCtxPKc
	.section	.init_array,"aw"
	.align 8
	.quad	_GLOBAL__sub_I__Z14LexicalCtxCtorP10LexicalCtxPKc
	.section	.rodata
	.align 8
.LC21:
	.string	"../ATC/RandomStuff/CommonEnums.h"
	.section	.data.rel.local,"aw"
	.align 16
	.type	.LASANLOC1, @object
	.size	.LASANLOC1, 16
.LASANLOC1:
	.quad	.LC21
	.long	3
	.long	11
	.section	.rodata
.LC22:
	.string	"../ATC/Logger/LogConfig.h"
	.section	.data.rel.local
	.align 16
	.type	.LASANLOC2, @object
	.size	.LASANLOC2, 16
.LASANLOC2:
	.quad	.LC22
	.long	3
	.long	12
	.section	.rodata
.LC23:
	.string	"/usr/include/c++/11/iostream"
	.section	.data.rel.local
	.align 16
	.type	.LASANLOC3, @object
	.size	.LASANLOC3, 16
.LASANLOC3:
	.quad	.LC23
	.long	74
	.long	25
	.section	.rodata
	.align 8
.LC24:
	.string	"../Common/LexicalCtx/LexicalCtx.h"
	.section	.data.rel.local
	.align 16
	.type	.LASANLOC4, @object
	.size	.LASANLOC4, 16
.LASANLOC4:
	.quad	.LC24
	.long	28
	.long	11
	.align 16
	.type	.LASANLOC5, @object
	.size	.LASANLOC5, 16
.LASANLOC5:
	.quad	.LC24
	.long	27
	.long	11
	.align 16
	.type	.LASANLOC6, @object
	.size	.LASANLOC6, 16
.LASANLOC6:
	.quad	.LC24
	.long	25
	.long	11
	.align 16
	.type	.LASANLOC7, @object
	.size	.LASANLOC7, 16
.LASANLOC7:
	.quad	.LC24
	.long	24
	.long	11
	.align 16
	.type	.LASANLOC8, @object
	.size	.LASANLOC8, 16
.LASANLOC8:
	.quad	.LC24
	.long	23
	.long	11
	.align 16
	.type	.LASANLOC9, @object
	.size	.LASANLOC9, 16
.LASANLOC9:
	.quad	.LC24
	.long	22
	.long	11
	.align 16
	.type	.LASANLOC10, @object
	.size	.LASANLOC10, 16
.LASANLOC10:
	.quad	.LC24
	.long	21
	.long	11
	.section	.rodata
.LC25:
	.string	"../ATC/Buffer/my_buffer.h"
	.section	.data.rel.local
	.align 16
	.type	.LASANLOC11, @object
	.size	.LASANLOC11, 16
.LASANLOC11:
	.quad	.LC25
	.long	32
	.long	11
	.section	.rodata
.LC26:
	.string	"CRINGE"
.LC27:
	.string	"STD_LOG_NAME"
.LC28:
	.string	"__ioinit"
.LC29:
	.string	"START_NUMBER_OF_STRINGS"
.LC30:
	.string	"START_NUMBER_OF_TOKENS"
.LC31:
	.string	"NOT_A_NATIVE_FUNCTION"
.LC32:
	.string	"NOT_A_RET_TYPE"
.LC33:
	.string	"NOT_A_INITIALIZATOR"
.LC34:
	.string	"NOT_A_INSTRUCTION"
.LC35:
	.string	"NOT_A_NAME"
.LC36:
	.string	"INDENT_SIZE"
.LC37:
	.string	"*.LC15"
.LC38:
	.string	"*.LC0"
.LC39:
	.string	"*.LC14"
.LC40:
	.string	"*.LC13"
.LC41:
	.string	"*.LC18"
.LC42:
	.string	"*.LC8"
.LC43:
	.string	"*.LC10"
.LC44:
	.string	"*.LC20"
.LC45:
	.string	"*.LC12"
.LC46:
	.string	"*.LC9"
.LC47:
	.string	"*.LC4"
.LC48:
	.string	"*.LC11"
.LC49:
	.string	"*.LC5"
.LC50:
	.string	"*.LC7"
.LC51:
	.string	"*.LC17"
.LC52:
	.string	"*.LC1"
.LC53:
	.string	"*.LC2"
.LC54:
	.string	"*.LC19"
.LC55:
	.string	"*.LC3"
.LC56:
	.string	"*.LC16"
.LC57:
	.string	"*.LC6"
	.section	.data.rel.local
	.align 32
	.type	.LASAN0, @object
	.size	.LASAN0, 2048
.LASAN0:
	.quad	_ZL6CRINGE
	.quad	4
	.quad	64
	.quad	.LC26
	.quad	.LC4
	.quad	0
	.quad	.LASANLOC1
	.quad	0
	.quad	_ZL12STD_LOG_NAME
	.quad	18
	.quad	64
	.quad	.LC27
	.quad	.LC4
	.quad	0
	.quad	.LASANLOC2
	.quad	0
	.quad	_ZStL8__ioinit
	.quad	1
	.quad	64
	.quad	.LC28
	.quad	.LC4
	.quad	1
	.quad	.LASANLOC3
	.quad	0
	.quad	_ZL23START_NUMBER_OF_STRINGS
	.quad	4
	.quad	64
	.quad	.LC29
	.quad	.LC4
	.quad	0
	.quad	.LASANLOC4
	.quad	0
	.quad	_ZL22START_NUMBER_OF_TOKENS
	.quad	4
	.quad	64
	.quad	.LC30
	.quad	.LC4
	.quad	0
	.quad	.LASANLOC5
	.quad	0
	.quad	_ZL21NOT_A_NATIVE_FUNCTION
	.quad	4
	.quad	64
	.quad	.LC31
	.quad	.LC4
	.quad	0
	.quad	.LASANLOC6
	.quad	0
	.quad	_ZL14NOT_A_RET_TYPE
	.quad	4
	.quad	64
	.quad	.LC32
	.quad	.LC4
	.quad	0
	.quad	.LASANLOC7
	.quad	0
	.quad	_ZL19NOT_A_INITIALIZATOR
	.quad	4
	.quad	64
	.quad	.LC33
	.quad	.LC4
	.quad	0
	.quad	.LASANLOC8
	.quad	0
	.quad	_ZL17NOT_A_INSTRUCTION
	.quad	4
	.quad	64
	.quad	.LC34
	.quad	.LC4
	.quad	0
	.quad	.LASANLOC9
	.quad	0
	.quad	_ZL10NOT_A_NAME
	.quad	4
	.quad	64
	.quad	.LC35
	.quad	.LC4
	.quad	0
	.quad	.LASANLOC10
	.quad	0
	.quad	_ZL11INDENT_SIZE
	.quad	4
	.quad	64
	.quad	.LC36
	.quad	.LC4
	.quad	0
	.quad	.LASANLOC11
	.quad	0
	.quad	.LC15
	.quad	9
	.quad	64
	.quad	.LC37
	.quad	.LC4
	.quad	0
	.quad	0
	.quad	0
	.quad	.LC0
	.quad	4
	.quad	64
	.quad	.LC38
	.quad	.LC4
	.quad	0
	.quad	0
	.quad	0
	.quad	.LC14
	.quad	29
	.quad	64
	.quad	.LC39
	.quad	.LC4
	.quad	0
	.quad	0
	.quad	0
	.quad	.LC13
	.quad	19
	.quad	64
	.quad	.LC40
	.quad	.LC4
	.quad	0
	.quad	0
	.quad	0
	.quad	.LC18
	.quad	7
	.quad	64
	.quad	.LC41
	.quad	.LC4
	.quad	0
	.quad	0
	.quad	0
	.quad	.LC8
	.quad	33
	.quad	96
	.quad	.LC42
	.quad	.LC4
	.quad	0
	.quad	0
	.quad	0
	.quad	.LC10
	.quad	7
	.quad	64
	.quad	.LC43
	.quad	.LC4
	.quad	0
	.quad	0
	.quad	0
	.quad	.LC20
	.quad	10
	.quad	64
	.quad	.LC44
	.quad	.LC4
	.quad	0
	.quad	0
	.quad	0
	.quad	.LC12
	.quad	36
	.quad	96
	.quad	.LC45
	.quad	.LC4
	.quad	0
	.quad	0
	.quad	0
	.quad	.LC9
	.quad	10
	.quad	64
	.quad	.LC46
	.quad	.LC4
	.quad	0
	.quad	0
	.quad	0
	.quad	.LC4
	.quad	36
	.quad	96
	.quad	.LC47
	.quad	.LC4
	.quad	0
	.quad	0
	.quad	0
	.quad	.LC11
	.quad	64
	.quad	96
	.quad	.LC48
	.quad	.LC4
	.quad	0
	.quad	0
	.quad	0
	.quad	.LC5
	.quad	22
	.quad	64
	.quad	.LC49
	.quad	.LC4
	.quad	0
	.quad	0
	.quad	0
	.quad	.LC7
	.quad	15
	.quad	64
	.quad	.LC50
	.quad	.LC4
	.quad	0
	.quad	0
	.quad	0
	.quad	.LC17
	.quad	37
	.quad	96
	.quad	.LC51
	.quad	.LC4
	.quad	0
	.quad	0
	.quad	0
	.quad	.LC1
	.quad	37
	.quad	96
	.quad	.LC52
	.quad	.LC4
	.quad	0
	.quad	0
	.quad	0
	.quad	.LC2
	.quad	64
	.quad	96
	.quad	.LC53
	.quad	.LC4
	.quad	0
	.quad	0
	.quad	0
	.quad	.LC19
	.quad	35
	.quad	96
	.quad	.LC54
	.quad	.LC4
	.quad	0
	.quad	0
	.quad	0
	.quad	.LC3
	.quad	45
	.quad	96
	.quad	.LC55
	.quad	.LC4
	.quad	0
	.quad	0
	.quad	0
	.quad	.LC16
	.quad	4
	.quad	64
	.quad	.LC56
	.quad	.LC4
	.quad	0
	.quad	0
	.quad	0
	.quad	.LC6
	.quad	36
	.quad	96
	.quad	.LC57
	.quad	.LC4
	.quad	0
	.quad	0
	.quad	0
	.text
	.type	_sub_D_00099_0, @function
_sub_D_00099_0:
.LFB2943:
	.cfi_startproc
	endbr64
	pushq	%rbp
	.cfi_def_cfa_offset 16
	.cfi_offset 6, -16
	movq	%rsp, %rbp
	.cfi_def_cfa_register 6
	movl	$32, %esi
	leaq	.LASAN0(%rip), %rax
	movq	%rax, %rdi
	call	__asan_unregister_globals@PLT
	popq	%rbp
	.cfi_def_cfa 7, 8
	ret
	.cfi_endproc
.LFE2943:
	.size	_sub_D_00099_0, .-_sub_D_00099_0
	.section	.fini_array.00099,"aw"
	.align 8
	.quad	_sub_D_00099_0
	.text
	.type	_sub_I_00099_1, @function
_sub_I_00099_1:
.LFB2944:
	.cfi_startproc
	endbr64
	pushq	%rbp
	.cfi_def_cfa_offset 16
	.cfi_offset 6, -16
	movq	%rsp, %rbp
	.cfi_def_cfa_register 6
	call	__asan_init@PLT
	call	__asan_version_mismatch_check_v8@PLT
	movl	$32, %esi
	leaq	.LASAN0(%rip), %rax
	movq	%rax, %rdi
	call	__asan_register_globals@PLT
	popq	%rbp
	.cfi_def_cfa 7, 8
	ret
	.cfi_endproc
.LFE2944:
	.size	_sub_I_00099_1, .-_sub_I_00099_1
	.section	.init_array.00099,"aw"
	.align 8
	.quad	_sub_I_00099_1
	.text
.Letext0:
	.file 3 "../Common/Structures/Token/Token.h"
	.file 4 "/usr/include/stdlib.h"
	.file 5 "/usr/lib/gcc/x86_64-linux-gnu/11/include/stddef.h"
	.file 6 "/usr/include/x86_64-linux-gnu/bits/types.h"
	.file 7 "/usr/include/x86_64-linux-gnu/bits/stdint-intn.h"
	.file 8 "/usr/include/c++/11/cstdlib"
	.file 9 "/usr/include/c++/11/bits/std_abs.h"
	.file 10 "/usr/include/c++/11/cwchar"
	.file 11 "/usr/include/c++/11/type_traits"
	.file 12 "/usr/include/c++/11/bits/exception_ptr.h"
	.file 13 "/usr/include/x86_64-linux-gnu/c++/11/bits/c++config.h"
	.file 14 "/usr/include/c++/11/concepts"
	.file 15 "/usr/include/c++/11/bits/iterator_concepts.h"
	.file 16 "/usr/include/c++/11/bits/ranges_cmp.h"
	.file 17 "/usr/include/c++/11/compare"
	.file 18 "/usr/include/c++/11/debug/debug.h"
	.file 19 "/usr/include/c++/11/cstdint"
	.file 20 "/usr/include/c++/11/clocale"
	.file 21 "/usr/include/c++/11/numbers"
	.file 22 "/usr/include/c++/11/cstdio"
	.file 23 "/usr/include/c++/11/bits/ios_base.h"
	.file 24 "/usr/include/c++/11/cwctype"
	.file 25 "/usr/include/c++/11/bits/predefined_ops.h"
	.file 26 "/usr/include/c++/11/stdlib.h"
	.file 27 "<built-in>"
	.file 28 "/usr/include/x86_64-linux-gnu/bits/types/__mbstate_t.h"
	.file 29 "/usr/include/x86_64-linux-gnu/bits/types/__fpos_t.h"
	.file 30 "/usr/include/x86_64-linux-gnu/bits/types/__FILE.h"
	.file 31 "/usr/include/x86_64-linux-gnu/bits/types/struct_FILE.h"
	.file 32 "/usr/include/x86_64-linux-gnu/bits/types/FILE.h"
	.file 33 "/usr/include/stdio.h"
	.file 34 "../ATC/Buffer/my_buffer.h"
	.file 35 "../Common/LexicalCtx/LexicalCtx.h"
	.file 36 "/usr/include/x86_64-linux-gnu/bits/types/wint_t.h"
	.file 37 "/usr/include/x86_64-linux-gnu/bits/types/mbstate_t.h"
	.file 38 "/usr/include/wchar.h"
	.file 39 "/usr/include/x86_64-linux-gnu/bits/types/struct_tm.h"
	.file 40 "/usr/include/c++/11/bits/ptr_traits.h"
	.file 41 "/usr/include/x86_64-linux-gnu/bits/stdint-uintn.h"
	.file 42 "/usr/include/stdint.h"
	.file 43 "/usr/include/locale.h"
	.file 44 "/usr/include/x86_64-linux-gnu/bits/wctype-wchar.h"
	.file 45 "/usr/include/wctype.h"
	.file 46 "../ATC/Logger/LogConfig.h"
	.file 47 "../ATC/RandomStuff/CommonEnums.h"
	.file 48 "/usr/include/string.h"
	.file 49 "../ATC/Logger/Logger.h"
	.file 50 "/usr/include/c++/11/bits/algorithmfwd.h"
	.section	.note.GNU-stack,"",@progbits
	.section	.note.gnu.property,"a"
	.align 8
	.long	1f - 0f
	.long	4f - 1f
	.long	5
0:
	.string	"GNU"
1:
	.align 8
	.long	0xc0000002
	.long	3f - 2f
2:
	.long	0x3
3:
	.align 8
4:
