	.file	"LexicalAnalysis.cpp"
	.text
.Ltext0:
	.file 0 "/home/arsenyfucker/Cprojects/Lang/Translator/FrontEnd" "./src/LexicalAnalysis.cpp"
	.section	.rodata
	.align 32
	.type	_ZL12NOT_DECLARED, @object
	.size	_ZL12NOT_DECLARED, 4
_ZL12NOT_DECLARED:
	.long	-111
	.zero	60
	.align 32
	.type	_ZL11NOT_A_LABEL, @object
	.size	_ZL11NOT_A_LABEL, 4
_ZL11NOT_A_LABEL:
	.long	-9
	.zero	60
	.align 32
	.type	_ZL11INDENT_SIZE, @object
	.size	_ZL11INDENT_SIZE, 4
_ZL11INDENT_SIZE:
	.long	2
	.zero	60
	.align 32
	.type	_ZL10NOT_A_NAME, @object
	.size	_ZL10NOT_A_NAME, 4
_ZL10NOT_A_NAME:
	.long	-555
	.zero	60
	.align 32
	.type	_ZL17NOT_A_INSTRUCTION, @object
	.size	_ZL17NOT_A_INSTRUCTION, 4
_ZL17NOT_A_INSTRUCTION:
	.long	-666
	.zero	60
	.align 32
	.type	_ZL19NOT_A_INITIALIZATOR, @object
	.size	_ZL19NOT_A_INITIALIZATOR, 4
_ZL19NOT_A_INITIALIZATOR:
	.long	-111
	.zero	60
	.align 32
	.type	_ZL14NOT_A_RET_TYPE, @object
	.size	_ZL14NOT_A_RET_TYPE, 4
_ZL14NOT_A_RET_TYPE:
	.long	-333
	.zero	60
	.align 32
	.type	_ZL21NOT_A_NATIVE_FUNCTION, @object
	.size	_ZL21NOT_A_NATIVE_FUNCTION, 4
_ZL21NOT_A_NATIVE_FUNCTION:
	.long	-222
	.zero	60
	.align 32
	.type	_ZL22START_NUMBER_OF_TOKENS, @object
	.size	_ZL22START_NUMBER_OF_TOKENS, 4
_ZL22START_NUMBER_OF_TOKENS:
	.long	20
	.zero	60
	.align 32
	.type	_ZL23START_NUMBER_OF_STRINGS, @object
	.size	_ZL23START_NUMBER_OF_STRINGS, 4
_ZL23START_NUMBER_OF_STRINGS:
	.long	16
	.zero	60
	.align 32
.LC0:
	.string	"if"
	.zero	61
	.align 32
.LC1:
	.string	"else"
	.zero	59
	.align 32
.LC2:
	.string	"while"
	.zero	58
	.align 32
.LC3:
	.string	"return"
	.zero	57
	.section	.data.rel.ro.local,"aw"
	.align 32
	.type	_ZL12INSTRUCTIONS, @object
	.size	_ZL12INSTRUCTIONS, 32
_ZL12INSTRUCTIONS:
	.quad	.LC0
	.quad	.LC1
	.quad	.LC2
	.quad	.LC3
	.zero	32
	.section	.rodata
	.align 32
.LC4:
	.string	"fout"
	.zero	59
	.align 32
.LC5:
	.string	"fin"
	.zero	60
	.align 32
.LC6:
	.string	"sin"
	.zero	60
	.align 32
.LC7:
	.string	"cos"
	.zero	60
	.section	.data.rel.ro.local
	.align 32
	.type	_ZL16NATIVE_FUNCTIONS, @object
	.size	_ZL16NATIVE_FUNCTIONS, 32
_ZL16NATIVE_FUNCTIONS:
	.quad	.LC4
	.quad	.LC5
	.quad	.LC6
	.quad	.LC7
	.zero	32
	.section	.rodata
	.align 32
.LC8:
	.string	"extern"
	.zero	57
	.align 32
.LC9:
	.string	"var"
	.zero	60
	.section	.data.rel.ro.local
	.align 32
	.type	_ZL14INITIALIZATORS, @object
	.size	_ZL14INITIALIZATORS, 16
_ZL14INITIALIZATORS:
	.quad	.LC8
	.quad	.LC9
	.zero	48
	.section	.rodata
	.align 32
.LC10:
	.string	"double"
	.zero	57
	.align 32
.LC11:
	.string	"void"
	.zero	59
	.section	.data.rel.ro.local
	.align 32
	.type	_ZL18FUNCTION_RET_TYPES, @object
	.size	_ZL18FUNCTION_RET_TYPES, 16
_ZL18FUNCTION_RET_TYPES:
	.quad	.LC10
	.quad	.LC11
	.zero	48
	.section	.rodata
	.align 32
	.type	_ZL9OPERATORS, @object
	.size	_ZL9OPERATORS, 8
_ZL9OPERATORS:
	.string	"+-/*^<<"
	.zero	56
	.align 32
	.type	_ZL7COMMENT, @object
	.size	_ZL7COMMENT, 1
_ZL7COMMENT:
	.byte	35
	.zero	63
	.align 32
.LC12:
	.string	"main"
	.zero	59
	.section	.data.rel.ro.local
	.align 32
	.type	_ZL9MAIN_NAME, @object
	.size	_ZL9MAIN_NAME, 8
_ZL9MAIN_NAME:
	.quad	.LC12
	.zero	56
	.section	.rodata
	.align 32
	.type	_ZL24MAX_FUNCTION_NAME_LENGTH, @object
	.size	_ZL24MAX_FUNCTION_NAME_LENGTH, 4
_ZL24MAX_FUNCTION_NAME_LENGTH:
	.long	16
	.zero	60
	.align 32
	.type	_ZL15MAX_WORD_LENGTH, @object
	.size	_ZL15MAX_WORD_LENGTH, 4
_ZL15MAX_WORD_LENGTH:
	.long	16
	.zero	60
	.bss
	.align 32
	.type	_ZStL8__ioinit, @object
	.size	_ZStL8__ioinit, 1
_ZStL8__ioinit:
	.zero	64
	.section	.rodata
	.align 32
	.type	_ZL12STD_LOG_NAME, @object
	.size	_ZL12STD_LOG_NAME, 18
_ZL12STD_LOG_NAME:
	.string	"./logs/stdlog.ars"
	.zero	46
	.align 32
	.type	_ZL6CRINGE, @object
	.size	_ZL6CRINGE, 4
_ZL6CRINGE:
	.long	3565
	.zero	60
	.globl	__asan_stack_malloc_2
	.align 8
.LC13:
	.string	"2 32 24 10 func_51:51 96 64 4 ctx_"
	.align 32
.LC14:
	.string	"Tokenizer"
	.zero	54
	.align 32
.LC15:
	.string	"program"
	.zero	56
	.align 32
.LC16:
	.string	"ASSERTLOG:: Condition (%s) is false\n"
	.zero	59
	.align 32
.LC17:
	.string	"\033[93mASSERTLOG:: \033[0mCondition\033[95m (%s) \033[0mis \033[91mfalse\n\033[0m"
	.zero	32
	.align 32
.LC18:
	.string	"int Tokenizer(Program*, const char*)"
	.zero	59
	.align 32
.LC19:
	.string	"./src/LexicalAnalysis.cpp"
	.zero	38
	.align 32
.LC20:
	.string	"\t%s:%d, function: %s\n"
	.zero	42
	.align 32
.LC21:
	.string	"It matches to error: (code %d) %s\n\n"
	.zero	60
	.align 32
.LC22:
	.string	"Shutting down the system (%s:%d)"
	.zero	63
	.align 32
.LC23:
	.string	"echo LOX\n"
	.zero	54
	.align 32
.LC24:
	.string	"\033[91mFailed %s:%d (%s:%d)\n\033[0m"
	.zero	33
	.align 32
.LC25:
	.string	"Failed (%s:%d, %s:%d)"
	.zero	42
	.align 32
.LC26:
	.string	"buffer"
	.zero	57
	.align 32
.LC27:
	.string	"program->number_of_tokens"
	.zero	38
	.align 32
.LC28:
	.string	"\t%s: %d\n"
	.zero	55
	.align 32
.LC29:
	.string	"i"
	.zero	62
	.align 32
.LC30:
	.string	"program->token_arr + i"
	.zero	41
	.text
	.globl	_Z9TokenizerP7ProgramPKc
	.type	_Z9TokenizerP7ProgramPKc, @function
_Z9TokenizerP7ProgramPKc:
.LASANPC2865:
.LFB2865:
	.file 1 "./src/LexicalAnalysis.cpp"
	.loc 1 50 5
	.cfi_startproc
	.cfi_personality 0x9b,DW.ref.__gxx_personality_v0
	.cfi_lsda 0x1b,.LLSDA2865
	endbr64
	pushq	%rbp
	.cfi_def_cfa_offset 16
	.cfi_offset 6, -16
	movq	%rsp, %rbp
	.cfi_def_cfa_register 6
	pushq	%r15
	pushq	%r14
	pushq	%r13
	pushq	%r12
	pushq	%rbx
	subq	$248, %rsp
	.cfi_offset 15, -24
	.cfi_offset 14, -32
	.cfi_offset 13, -40
	.cfi_offset 12, -48
	.cfi_offset 3, -56
	movq	%rdi, -280(%rbp)
	movq	%rsi, -288(%rbp)
	leaq	-240(%rbp), %rbx
	movq	%rbx, %r15
	cmpl	$0, __asan_option_detect_stack_use_after_return(%rip)
	je	.L1
	movl	$192, %edi
	call	__asan_stack_malloc_2@PLT
	testq	%rax, %rax
	je	.L1
	movq	%rax, %rbx
.L1:
	leaq	192(%rbx), %rax
	movq	%rax, %r13
	movq	$1102416563, (%rbx)
	leaq	.LC13(%rip), %rax
	movq	%rax, 8(%rbx)
	leaq	.LASANPC2865(%rip), %rax
	movq	%rax, 16(%rbx)
	movq	%rbx, %r12
	shrq	$3, %r12
	movl	$-235802127, 2147450880(%r12)
	movl	$-234881024, 2147450884(%r12)
	movl	$-218959118, 2147450888(%r12)
	movl	$-202116109, 2147450900(%r12)
	.loc 1 51 40
	leaq	-160(%r13), %rax
	leaq	.LC14(%rip), %rdx
	movl	$1, %esi
	movq	%rax, %rdi
.LEHB0:
	call	_ZN14FunctionLoggerC1EiPKc@PLT
.LEHE0:
	.loc 1 52 10
	cmpq	$0, -280(%rbp)
	jne	.L5
.LEHB1:
	.loc 1 52 47 discriminator 1
	call	_ZN6Logger11getInstanceEv@PLT
	movq	%rax, %rcx
	.loc 1 52 53 discriminator 1
	leaq	.LC15(%rip), %rax
	movq	%rax, %rdx
	leaq	.LC16(%rip), %rax
	movq	%rax, %rsi
	movq	%rcx, %rdi
	movl	$0, %eax
	call	_ZN6Logger3logEPKcz@PLT
	.loc 1 52 113 discriminator 3
	leaq	.LC15(%rip), %rax
	movq	%rax, %rsi
	leaq	.LC17(%rip), %rax
	movq	%rax, %rdi
	movl	$0, %eax
	call	printf@PLT
	.loc 1 52 261 discriminator 4
	call	_ZN6Logger11getInstanceEv@PLT
	movq	%rax, %rdi
	.loc 1 52 267 discriminator 4
	leaq	.LC18(%rip), %r8
	movl	$52, %ecx
	leaq	.LC19(%rip), %rax
	movq	%rax, %rdx
	leaq	.LC20(%rip), %rax
	movq	%rax, %rsi
	movl	$0, %eax
	call	_ZN6Logger3logEPKcz@PLT
	.loc 1 52 356 discriminator 6
	leaq	.LC18(%rip), %rax
	movq	%rax, %rcx
	movl	$52, %edx
	leaq	.LC19(%rip), %rax
	movq	%rax, %rsi
	leaq	.LC20(%rip), %rax
	movq	%rax, %rdi
	movl	$0, %eax
	call	printf@PLT
	.loc 1 52 458 discriminator 7
	call	_ZN6Logger11getInstanceEv@PLT
	movq	%rax, %r14
	.loc 1 52 464 discriminator 7
	movl	$14, %edi
	call	strerror@PLT
	movq	%rax, %rcx
	movl	$14, %edx
	leaq	.LC21(%rip), %rax
	movq	%rax, %rsi
	movq	%r14, %rdi
	movl	$0, %eax
	call	_ZN6Logger3logEPKcz@PLT
	.loc 1 52 27 discriminator 9
	call	_ZN6Logger11getInstanceEv@PLT
	movq	%rax, %rdi
	.loc 1 52 33 discriminator 9
	movl	$52, %ecx
	leaq	.LC14(%rip), %rax
	movq	%rax, %rdx
	leaq	.LC22(%rip), %rax
	movq	%rax, %rsi
	movl	$0, %eax
	call	_ZN6Logger3logEPKcz@PLT
	.loc 1 52 91 discriminator 11
	leaq	.LC23(%rip), %rax
	movq	%rax, %rdi
	call	system@PLT
	.loc 1 52 133 discriminator 12
	call	_ZN6Logger11getInstanceEv@PLT
	.loc 1 52 155 discriminator 12
	call	_ZN6Logger11getInstanceEv@PLT
	.loc 1 52 155 is_stmt 0 discriminator 13
	movq	%rax, %r14
	.loc 1 52 168 is_stmt 1 discriminator 13
	movl	$52, %r9d
	leaq	.LC14(%rip), %r8
	movl	$52, %ecx
	leaq	.LC19(%rip), %rax
	movq	%rax, %rdx
	leaq	.LC24(%rip), %rax
	movq	%rax, %rsi
	movl	$-1, %edi
	movl	$0, %eax
	call	_Z6MsgRetiPKcz@PLT
	.loc 1 52 168 is_stmt 0 discriminator 14
	movl	%eax, %esi
	subq	$8, %rsp
	pushq	$52
	leaq	.LC14(%rip), %r9
	movl	$52, %r8d
	leaq	.LC19(%rip), %rax
	movq	%rax, %rcx
	leaq	.LC25(%rip), %rax
	movq	%rax, %rdx
	movq	%r14, %rdi
	movl	$0, %eax
	.cfi_escape 0x2e,0x10
	call	_ZN6Logger9LogMsgRetEiPKcz@PLT
	.loc 1 52 168 discriminator 15
	addq	$16, %rsp
	movl	%eax, %r14d
	.loc 1 52 351 is_stmt 1 discriminator 15
	jmp	.L6
.L5:
	.loc 1 53 10
	cmpq	$0, -288(%rbp)
	jne	.L7
	.cfi_escape 0x2e,0
	.loc 1 53 46 discriminator 1
	call	_ZN6Logger11getInstanceEv@PLT
	movq	%rax, %rcx
	.loc 1 53 52 discriminator 1
	leaq	.LC26(%rip), %rax
	movq	%rax, %rdx
	leaq	.LC16(%rip), %rax
	movq	%rax, %rsi
	movq	%rcx, %rdi
	movl	$0, %eax
	call	_ZN6Logger3logEPKcz@PLT
	.loc 1 53 111 discriminator 3
	leaq	.LC26(%rip), %rax
	movq	%rax, %rsi
	leaq	.LC17(%rip), %rax
	movq	%rax, %rdi
	movl	$0, %eax
	call	printf@PLT
	.loc 1 53 258 discriminator 4
	call	_ZN6Logger11getInstanceEv@PLT
	movq	%rax, %rdi
	.loc 1 53 264 discriminator 4
	leaq	.LC18(%rip), %r8
	movl	$53, %ecx
	leaq	.LC19(%rip), %rax
	movq	%rax, %rdx
	leaq	.LC20(%rip), %rax
	movq	%rax, %rsi
	movl	$0, %eax
	call	_ZN6Logger3logEPKcz@PLT
	.loc 1 53 353 discriminator 6
	leaq	.LC18(%rip), %rax
	movq	%rax, %rcx
	movl	$53, %edx
	leaq	.LC19(%rip), %rax
	movq	%rax, %rsi
	leaq	.LC20(%rip), %rax
	movq	%rax, %rdi
	movl	$0, %eax
	call	printf@PLT
	.loc 1 53 455 discriminator 7
	call	_ZN6Logger11getInstanceEv@PLT
	movq	%rax, %r14
	.loc 1 53 461 discriminator 7
	movl	$14, %edi
	call	strerror@PLT
	movq	%rax, %rcx
	movl	$14, %edx
	leaq	.LC21(%rip), %rax
	movq	%rax, %rsi
	movq	%r14, %rdi
	movl	$0, %eax
	call	_ZN6Logger3logEPKcz@PLT
	.loc 1 53 27 discriminator 9
	call	_ZN6Logger11getInstanceEv@PLT
	movq	%rax, %rdi
	.loc 1 53 33 discriminator 9
	movl	$53, %ecx
	leaq	.LC14(%rip), %rax
	movq	%rax, %rdx
	leaq	.LC22(%rip), %rax
	movq	%rax, %rsi
	movl	$0, %eax
	call	_ZN6Logger3logEPKcz@PLT
	.loc 1 53 91 discriminator 11
	leaq	.LC23(%rip), %rax
	movq	%rax, %rdi
	call	system@PLT
	.loc 1 53 133 discriminator 12
	call	_ZN6Logger11getInstanceEv@PLT
	.loc 1 53 155 discriminator 12
	call	_ZN6Logger11getInstanceEv@PLT
	.loc 1 53 155 is_stmt 0 discriminator 13
	movq	%rax, %r14
	.loc 1 53 168 is_stmt 1 discriminator 13
	movl	$53, %r9d
	leaq	.LC14(%rip), %r8
	movl	$53, %ecx
	leaq	.LC19(%rip), %rax
	movq	%rax, %rdx
	leaq	.LC24(%rip), %rax
	movq	%rax, %rsi
	movl	$-1, %edi
	movl	$0, %eax
	call	_Z6MsgRetiPKcz@PLT
	.loc 1 53 168 is_stmt 0 discriminator 14
	movl	%eax, %esi
	subq	$8, %rsp
	pushq	$53
	leaq	.LC14(%rip), %r9
	movl	$53, %r8d
	leaq	.LC19(%rip), %rax
	movq	%rax, %rcx
	leaq	.LC25(%rip), %rax
	movq	%rax, %rdx
	movq	%r14, %rdi
	movl	$0, %eax
	.cfi_escape 0x2e,0x10
	call	_ZN6Logger9LogMsgRetEiPKcz@PLT
	.loc 1 53 168 discriminator 15
	addq	$16, %rsp
	movl	%eax, %r14d
	.loc 1 53 351 is_stmt 1 discriminator 15
	jmp	.L6
.L7:
	.loc 1 55 16
	leaq	-96(%r13), %rax
	movq	%rax, %rdx
	shrq	$3, %rdx
	addq	$2147450880, %rdx
	movzbl	(%rdx), %edx
	testb	%dl, %dl
	setne	%cl
	testb	%dl, %dl
	setle	%dl
	movl	%ecx, %esi
	andl	%edx, %esi
	movl	$64, %edx
	subq	$1, %rdx
	leaq	(%rax,%rdx), %rcx
	movq	%rcx, %rdx
	shrq	$3, %rdx
	addq	$2147450880, %rdx
	movzbl	(%rdx), %edx
	testb	%dl, %dl
	setne	%dil
	andl	$7, %ecx
	cmpb	%dl, %cl
	setge	%dl
	andl	%edi, %edx
	orl	%esi, %edx
	testb	%dl, %dl
	je	.L8
	movl	$64, %esi
	movq	%rax, %rdi
	call	__asan_report_store_n@PLT
.L8:
	movq	$0, -96(%r13)
	movq	$0, -88(%r13)
	movq	$0, -80(%r13)
	movq	$0, -72(%r13)
	movq	$0, -64(%r13)
	movq	$0, -56(%r13)
	movq	$0, -48(%r13)
	movq	$0, -40(%r13)
	.loc 1 56 17
	leaq	-96(%r13), %rax
	movq	%rax, -256(%rbp)
	.loc 1 58 23
	movq	-288(%rbp), %rsi
	movq	-256(%rbp), %rax
	movl	$20, %ecx
	movl	$1, %edx
	movq	%rax, %rdi
	.cfi_escape 0x2e,0
	call	_Z14LexicalCtxCtorP10LexicalCtxPKcim@PLT
	.loc 1 58 37
	testl	%eax, %eax
	setne	%al
	.loc 1 58 5
	testb	%al, %al
	je	.L10
	.loc 1 59 16
	movl	$-1, %r14d
	jmp	.L6
.L23:
.LBB2:
	.loc 1 63 23
	movq	-256(%rbp), %rax
	movq	%rax, %rdx
	shrq	$3, %rdx
	addq	$2147450880, %rdx
	movzbl	(%rdx), %edx
	testb	%dl, %dl
	je	.L11
	movq	%rax, %rdi
	call	__asan_report_load8@PLT
.L11:
	movq	-256(%rbp), %rax
	movq	(%rax), %rax
	movq	%rax, %rdi
	call	_Z10BufferLookP6Buffer@PLT
	.loc 1 63 36
	cmpl	$35, %eax
	sete	%al
	.loc 1 63 9
	testb	%al, %al
	je	.L12
	.loc 1 65 34
	movq	-256(%rbp), %rax
	movq	%rax, %rdx
	shrq	$3, %rdx
	addq	$2147450880, %rdx
	movzbl	(%rdx), %edx
	testb	%dl, %dl
	je	.L13
	movq	%rax, %rdi
	call	__asan_report_load8@PLT
.L13:
	movq	-256(%rbp), %rax
	movq	(%rax), %rax
	movl	$35, %esi
	movq	%rax, %rdi
	call	_Z21BufferSkipCommentLineP6Bufferc@PLT
	.loc 1 67 13
	jmp	.L10
.L12:
	.loc 1 71 32
	movq	-256(%rbp), %rax
	movq	%rax, %rdi
	call	_Z8GetTokenP10LexicalCtx@PLT
	movq	%rax, -248(%rbp)
	.loc 1 72 9
	cmpq	$0, -248(%rbp)
	je	.L44
	.loc 1 75 22
	movq	-256(%rbp), %rax
	movq	%rax, %rdx
	shrq	$3, %rdx
	addq	$2147450880, %rdx
	movzbl	(%rdx), %edx
	testb	%dl, %dl
	je	.L16
	movq	%rax, %rdi
	call	__asan_report_load8@PLT
.L16:
	movq	-256(%rbp), %rax
	movq	(%rax), %rax
	movq	-248(%rbp), %rdx
	movq	%rdx, %rsi
	movq	%rax, %rdi
	call	_ZL8SetTokenP6BufferP5Token
	.loc 1 75 42
	cmpl	$-1, %eax
	sete	%al
	.loc 1 75 9
	testb	%al, %al
	jne	.L45
.LBB3:
	.loc 1 78 20
	movq	-248(%rbp), %rax
	addq	$16, %rax
	movq	%rax, %rdx
	movq	%rdx, %rax
	shrq	$3, %rax
	addq	$2147450880, %rax
	movzbl	(%rax), %eax
	testb	%al, %al
	setne	%cl
	cmpb	$3, %al
	setle	%al
	andl	%ecx, %eax
	testb	%al, %al
	je	.L18
	movq	%rdx, %rdi
	call	__asan_report_load4@PLT
.L18:
	movq	-248(%rbp), %rax
	movl	16(%rax), %eax
	.loc 1 78 9
	cmpl	$6, %eax
	jne	.L10
.LBB4:
	.loc 1 80 44
	movq	-248(%rbp), %rax
	addq	$24, %rax
	movq	%rax, %rdx
	shrq	$3, %rdx
	addq	$2147450880, %rdx
	movzbl	(%rdx), %edx
	testb	%dl, %dl
	je	.L19
	movq	%rax, %rdi
	call	__asan_report_load8@PLT
.L19:
	movq	-248(%rbp), %rax
	movq	24(%rax), %rax
	.loc 1 80 30
	movq	-256(%rbp), %rdx
	movq	%rdx, %rsi
	movq	%rax, %rdi
	call	_Z6IsNamePKcP10LexicalCtx@PLT
	movl	%eax, -260(%rbp)
	.loc 1 83 13
	cmpl	$-555, -260(%rbp)
	jne	.L20
	.loc 1 85 30
	movq	-248(%rbp), %rdx
	movq	-256(%rbp), %rax
	movq	%rdx, %rsi
	movq	%rax, %rdi
	call	_Z9AddStringP10LexicalCtxP5Token@PLT
	.loc 1 85 43
	cmpl	$-1, %eax
	sete	%al
	.loc 1 85 17
	testb	%al, %al
	je	.L10
	.loc 1 86 26
	jmp	.L15
.L20:
	.loc 1 89 40
	movq	-248(%rbp), %rax
	addq	$24, %rax
	movq	%rax, %rdx
	movq	%rdx, %rax
	shrq	$3, %rax
	addq	$2147450880, %rax
	movzbl	(%rax), %eax
	testb	%al, %al
	setne	%cl
	cmpb	$3, %al
	setle	%al
	andl	%ecx, %eax
	testb	%al, %al
	je	.L21
	movq	%rdx, %rdi
	call	__asan_report_store4@PLT
.L21:
	movq	-248(%rbp), %rax
	movl	-260(%rbp), %edx
	movl	%edx, 24(%rax)
.L10:
.LBE4:
.LBE3:
.LBE2:
	.loc 1 61 22
	movq	-256(%rbp), %rax
	movq	%rax, %rdx
	shrq	$3, %rdx
	addq	$2147450880, %rdx
	movzbl	(%rdx), %edx
	testb	%dl, %dl
	je	.L22
	movq	%rax, %rdi
	call	__asan_report_load8@PLT
.L22:
	movq	-256(%rbp), %rax
	movq	(%rax), %rax
	movq	%rax, %rdi
	call	_Z10BufferLookP6Buffer@PLT
	.loc 1 61 35
	testl	%eax, %eax
	setne	%al
	testb	%al, %al
	jne	.L23
	.loc 1 93 26
	movq	-256(%rbp), %rax
	movq	%rax, %rdi
	call	_Z17LexicalCtxReallocP10LexicalCtx@PLT
	.loc 1 93 32
	testl	%eax, %eax
	setne	%al
	.loc 1 93 5
	testb	%al, %al
	jne	.L46
	.loc 1 96 31
	movq	-256(%rbp), %rax
	addq	$8, %rax
	movq	%rax, %rdx
	shrq	$3, %rdx
	addq	$2147450880, %rdx
	movzbl	(%rdx), %edx
	testb	%dl, %dl
	je	.L25
	movq	%rax, %rdi
	call	__asan_report_load8@PLT
.L25:
	movq	-256(%rbp), %rax
	movq	8(%rax), %rdx
	.loc 1 96 24
	movq	-280(%rbp), %rax
	movq	%rax, %rcx
	shrq	$3, %rcx
	addq	$2147450880, %rcx
	movzbl	(%rcx), %ecx
	testb	%cl, %cl
	je	.L26
	movq	%rax, %rdi
	call	__asan_report_store8@PLT
.L26:
	movq	-280(%rbp), %rax
	movq	%rdx, (%rax)
	.loc 1 97 38
	movq	-256(%rbp), %rax
	addq	$24, %rax
	movq	%rax, %rdx
	shrq	$3, %rdx
	addq	$2147450880, %rdx
	movzbl	(%rdx), %edx
	testb	%dl, %dl
	je	.L27
	movq	%rax, %rdi
	call	__asan_report_load8@PLT
.L27:
	movq	-256(%rbp), %rax
	movq	24(%rax), %rax
	.loc 1 97 31
	movl	%eax, %ecx
	movq	-280(%rbp), %rax
	addq	$8, %rax
	movq	%rax, %rdx
	movq	%rdx, %rax
	shrq	$3, %rax
	addq	$2147450880, %rax
	movzbl	(%rax), %eax
	testb	%al, %al
	setne	%sil
	cmpb	$3, %al
	setle	%al
	andl	%esi, %eax
	testb	%al, %al
	je	.L28
	movq	%rdx, %rdi
	call	__asan_report_store4@PLT
.L28:
	movq	-280(%rbp), %rax
	movl	%ecx, 8(%rax)
	.loc 1 99 32
	movq	-256(%rbp), %rax
	addq	$32, %rax
	movq	%rax, %rdx
	shrq	$3, %rdx
	addq	$2147450880, %rdx
	movzbl	(%rdx), %edx
	testb	%dl, %dl
	je	.L29
	movq	%rax, %rdi
	call	__asan_report_load8@PLT
.L29:
	movq	-256(%rbp), %rax
	movq	32(%rax), %rdx
	.loc 1 99 25
	movq	-280(%rbp), %rax
	addq	$24, %rax
	movq	%rax, %rcx
	shrq	$3, %rcx
	addq	$2147450880, %rcx
	movzbl	(%rcx), %ecx
	testb	%cl, %cl
	je	.L30
	movq	%rax, %rdi
	call	__asan_report_store8@PLT
.L30:
	movq	-280(%rbp), %rax
	movq	%rdx, 24(%rax)
	.loc 1 100 39
	movq	-256(%rbp), %rax
	addq	$48, %rax
	movq	%rax, %rdx
	shrq	$3, %rdx
	addq	$2147450880, %rdx
	movzbl	(%rdx), %edx
	testb	%dl, %dl
	je	.L31
	movq	%rax, %rdi
	call	__asan_report_load8@PLT
.L31:
	movq	-256(%rbp), %rax
	movq	48(%rax), %rax
	.loc 1 100 32
	movl	%eax, %ecx
	movq	-280(%rbp), %rax
	addq	$32, %rax
	movq	%rax, %rdx
	movq	%rdx, %rax
	shrq	$3, %rax
	addq	$2147450880, %rax
	movzbl	(%rax), %eax
	testb	%al, %al
	setne	%sil
	cmpb	$3, %al
	setle	%al
	andl	%esi, %eax
	testb	%al, %al
	je	.L32
	movq	%rdx, %rdi
	call	__asan_report_store4@PLT
.L32:
	movq	-280(%rbp), %rax
	movl	%ecx, 32(%rax)
	.loc 1 103 24
	call	_ZN6Logger11getInstanceEv@PLT
	movq	%rax, %rdi
	.loc 1 103 43
	movq	-256(%rbp), %rax
	movq	%rax, %rdx
	shrq	$3, %rdx
	addq	$2147450880, %rdx
	movzbl	(%rdx), %edx
	testb	%dl, %dl
	je	.L33
	movq	%rax, %rdi
	call	__asan_report_load8@PLT
.L33:
	.loc 1 103 43 is_stmt 0 discriminator 1
	movq	-256(%rbp), %rax
	movq	(%rax), %rax
	.loc 1 103 36 is_stmt 1 discriminator 1
	movl	$103, %r8d
	leaq	.LC14(%rip), %rdx
	movq	%rdx, %rcx
	leaq	.LC19(%rip), %rdx
	movq	%rax, %rsi
	call	_ZN6Logger8FREE_LOGEPvPKcS2_i@PLT
	.loc 1 106 29
	call	_ZN6Logger11getInstanceEv@PLT
	movq	%rax, %rdi
	.loc 1 106 35
	movq	-280(%rbp), %rax
	addq	$8, %rax
	movq	%rax, %rdx
	movq	%rdx, %rax
	shrq	$3, %rax
	addq	$2147450880, %rax
	movzbl	(%rax), %eax
	testb	%al, %al
	setne	%cl
	cmpb	$3, %al
	setle	%al
	andl	%ecx, %eax
	testb	%al, %al
	je	.L34
	movq	%rdx, %rdi
	call	__asan_report_load4@PLT
.L34:
	.loc 1 106 35 is_stmt 0 discriminator 1
	movq	-280(%rbp), %rax
	movl	8(%rax), %eax
	movl	%eax, %ecx
	leaq	.LC27(%rip), %rax
	movq	%rax, %rdx
	leaq	.LC28(%rip), %rax
	movq	%rax, %rsi
	movl	$0, %eax
	call	_ZN6Logger3logEPKcz@PLT
.LBB5:
	.loc 1 107 14 is_stmt 1
	movl	$0, -264(%rbp)
	.loc 1 107 5
	jmp	.L35
.L39:
	.loc 1 109 33
	call	_ZN6Logger11getInstanceEv@PLT
	movq	%rax, %rdi
	.loc 1 109 39
	movl	-264(%rbp), %eax
	movl	%eax, %ecx
	leaq	.LC29(%rip), %rax
	movq	%rax, %rdx
	leaq	.LC28(%rip), %rax
	movq	%rax, %rsi
	movl	$0, %eax
	call	_ZN6Logger3logEPKcz@PLT
	.loc 1 110 17
	movq	-280(%rbp), %rax
	addq	$24, %rax
	movq	%rax, %rdx
	shrq	$3, %rdx
	addq	$2147450880, %rdx
	movzbl	(%rdx), %edx
	testb	%dl, %dl
	je	.L36
	movq	%rax, %rdi
	call	__asan_report_load8@PLT
.L36:
	movq	-280(%rbp), %rax
	movq	24(%rax), %rdx
	.loc 1 110 27
	movq	-280(%rbp), %rax
	movq	%rax, %rcx
	shrq	$3, %rcx
	addq	$2147450880, %rcx
	movzbl	(%rcx), %ecx
	testb	%cl, %cl
	je	.L37
	movq	%rax, %rdi
	call	__asan_report_load8@PLT
.L37:
	movq	-280(%rbp), %rax
	movq	(%rax), %rsi
	.loc 1 110 39
	movl	-264(%rbp), %eax
	movslq	%eax, %rcx
	.loc 1 110 37
	movq	%rcx, %rax
	addq	%rax, %rax
	addq	%rcx, %rax
	salq	$4, %rax
	addq	%rsi, %rax
	.loc 1 110 17
	leaq	.LC30(%rip), %rcx
	movq	%rcx, %rsi
	movq	%rax, %rdi
	call	_Z8LogTokenPK5TokenPKcPS3_@PLT
	.loc 1 107 5 discriminator 2
	addl	$1, -264(%rbp)
.L35:
	.loc 1 107 34 discriminator 1
	movq	-280(%rbp), %rax
	addq	$8, %rax
	movq	%rax, %rdx
	movq	%rdx, %rax
	shrq	$3, %rax
	addq	$2147450880, %rax
	movzbl	(%rax), %eax
	testb	%al, %al
	setne	%cl
	cmpb	$3, %al
	setle	%al
	andl	%ecx, %eax
	testb	%al, %al
	je	.L38
	.loc 1 107 34 is_stmt 0
	movq	%rdx, %rdi
	call	__asan_report_load4@PLT
.L38:
	.loc 1 107 34 discriminator 1
	movq	-280(%rbp), %rax
	movl	8(%rax), %eax
	.loc 1 107 23 is_stmt 1 discriminator 1
	cmpl	%eax, -264(%rbp)
	jl	.L39
.LBE5:
	.loc 1 114 12
	movl	$0, %r14d
	jmp	.L6
.L44:
.LBB6:
	.loc 1 73 18
	nop
	jmp	.L15
.L45:
	.loc 1 76 18
	nop
	jmp	.L15
.L46:
.LBE6:
	.loc 1 94 14
	nop
.L15:
	.loc 1 118 23
	movq	-256(%rbp), %rax
	movq	%rax, %rdi
	call	_Z18LexicalCtxFailDtorP10LexicalCtx@PLT
.LEHE1:
	.loc 1 120 12
	movl	$-1, %r14d
.L6:
	.loc 1 121 5
	leaq	-160(%r13), %rax
	movq	%rax, %rdi
	call	_ZN14FunctionLoggerD1Ev@PLT
	movl	%r14d, %edx
	.loc 1 50 5
	cmpq	%rbx, %r15
	je	.L2
	jmp	.L43
.L42:
	endbr64
	.loc 1 121 5
	movq	%rax, %rbx
	leaq	-160(%r13), %rax
	movq	%rax, %rdi
	call	_ZN14FunctionLoggerD1Ev@PLT
	call	__asan_handle_no_return@PLT
	movq	%rbx, %rdi
.LEHB2:
	call	_Unwind_Resume@PLT
.LEHE2:
.L43:
	.loc 1 50 5
	movq	$1172321806, (%rbx)
	movabsq	$-723401728380766731, %rsi
	movabsq	$-723401728380766731, %rdi
	movq	%rsi, 2147450880(%r12)
	movq	%rdi, 2147450888(%r12)
	movabsq	$-723401728380766731, %rax
	movq	%rax, 2147450896(%r12)
	movq	248(%rbx), %rax
	movb	$0, (%rax)
	jmp	.L3
.L2:
	movq	$0, 2147450880(%r12)
	movl	$0, 2147450888(%r12)
	movl	$0, 2147450900(%r12)
.L3:
	.loc 1 121 5
	movl	%edx, %eax
	leaq	-40(%rbp), %rsp
	popq	%rbx
	popq	%r12
	popq	%r13
	popq	%r14
	popq	%r15
	popq	%rbp
	.cfi_def_cfa 7, 8
	ret
	.cfi_endproc
.LFE2865:
	.globl	__gxx_personality_v0
	.section	.gcc_except_table,"a",@progbits
.LLSDA2865:
	.byte	0xff
	.byte	0xff
	.byte	0x1
	.uleb128 .LLSDACSE2865-.LLSDACSB2865
.LLSDACSB2865:
	.uleb128 .LEHB0-.LFB2865
	.uleb128 .LEHE0-.LEHB0
	.uleb128 0
	.uleb128 0
	.uleb128 .LEHB1-.LFB2865
	.uleb128 .LEHE1-.LEHB1
	.uleb128 .L42-.LFB2865
	.uleb128 0
	.uleb128 .LEHB2-.LFB2865
	.uleb128 .LEHE2-.LEHB2
	.uleb128 0
	.uleb128 0
.LLSDACSE2865:
	.text
	.size	_Z9TokenizerP7ProgramPKc, .-_Z9TokenizerP7ProgramPKc
	.bss
	.align 32
	.type	_ZZL8SetTokenP6BufferP5TokenE4word, @object
	.size	_ZZL8SetTokenP6BufferP5TokenE4word, 16
_ZZL8SetTokenP6BufferP5TokenE4word:
	.zero	64
	.globl	__asan_stack_malloc_0
	.section	.rodata
.LC31:
	.string	"1 32 8 9 const_val"
	.align 32
.LC32:
	.string	"buf"
	.zero	60
	.align 32
.LC33:
	.string	"int SetToken(Buffer*, Token*)"
	.zero	34
	.align 32
.LC34:
	.string	"SetToken"
	.zero	55
	.align 32
.LC35:
	.string	"token"
	.zero	58
	.align 32
.LC37:
	.string	"\033[93mLexical Error\n\033[0m"
	.zero	40
	.align 32
.LC38:
	.string	"Lexical Error\n"
	.zero	49
	.align 32
.LC39:
	.string	""
	.zero	63
	.align 32
.LC40:
	.string	"Missing '<' for out operator\n"
	.zero	34
	.align 32
.LC41:
	.string	"In: \033[95m"
	.zero	54
	.align 32
.LC42:
	.string	"\033[0m"
	.zero	59
	.align 32
.LC43:
	.string	"%s:%d\n"
	.zero	57
	.text
	.type	_ZL8SetTokenP6BufferP5Token, @function
_ZL8SetTokenP6BufferP5Token:
.LASANPC2866:
.LFB2866:
	.loc 1 127 5
	.cfi_startproc
	endbr64
	pushq	%rbp
	.cfi_def_cfa_offset 16
	.cfi_offset 6, -16
	movq	%rsp, %rbp
	.cfi_def_cfa_register 6
	pushq	%r15
	pushq	%r14
	pushq	%r13
	pushq	%r12
	pushq	%rbx
	subq	$120, %rsp
	.cfi_offset 15, -24
	.cfi_offset 14, -32
	.cfi_offset 13, -40
	.cfi_offset 12, -48
	.cfi_offset 3, -56
	movq	%rdi, -152(%rbp)
	movq	%rsi, -160(%rbp)
	leaq	-112(%rbp), %rbx
	movq	%rbx, %r15
	cmpl	$0, __asan_option_detect_stack_use_after_return(%rip)
	je	.L47
	movl	$64, %edi
	call	__asan_stack_malloc_0@PLT
	testq	%rax, %rax
	je	.L47
	movq	%rax, %rbx
.L47:
	leaq	64(%rbx), %rax
	movq	%rax, %r12
	movq	$1102416563, (%rbx)
	leaq	.LC31(%rip), %rax
	movq	%rax, 8(%rbx)
	leaq	.LASANPC2866(%rip), %rax
	movq	%rax, 16(%rbx)
	movq	%rbx, %r14
	shrq	$3, %r14
	movl	$-235802127, 2147450880(%r14)
	movl	$-202116352, 2147450884(%r14)
	.loc 1 129 10
	cmpq	$0, -152(%rbp)
	jne	.L51
	.loc 1 129 43 discriminator 1
	call	_ZN6Logger11getInstanceEv@PLT
	movq	%rax, %rcx
	.loc 1 129 49 discriminator 1
	leaq	.LC32(%rip), %rax
	movq	%rax, %rdx
	leaq	.LC16(%rip), %rax
	movq	%rax, %rsi
	movq	%rcx, %rdi
	movl	$0, %eax
	call	_ZN6Logger3logEPKcz@PLT
	.loc 1 129 105 discriminator 1
	leaq	.LC32(%rip), %rax
	movq	%rax, %rsi
	leaq	.LC17(%rip), %rax
	movq	%rax, %rdi
	movl	$0, %eax
	call	printf@PLT
	.loc 1 129 249 discriminator 1
	call	_ZN6Logger11getInstanceEv@PLT
	movq	%rax, %rdi
	.loc 1 129 255 discriminator 1
	leaq	.LC33(%rip), %r8
	movl	$129, %ecx
	leaq	.LC19(%rip), %rax
	movq	%rax, %rdx
	leaq	.LC20(%rip), %rax
	movq	%rax, %rsi
	movl	$0, %eax
	call	_ZN6Logger3logEPKcz@PLT
	.loc 1 129 345 discriminator 1
	leaq	.LC33(%rip), %rax
	movq	%rax, %rcx
	movl	$129, %edx
	leaq	.LC19(%rip), %rax
	movq	%rax, %rsi
	leaq	.LC20(%rip), %rax
	movq	%rax, %rdi
	movl	$0, %eax
	call	printf@PLT
	.loc 1 129 448 discriminator 1
	call	_ZN6Logger11getInstanceEv@PLT
	movq	%rax, %r12
	.loc 1 129 454 discriminator 1
	movl	$14, %edi
	call	strerror@PLT
	movq	%rax, %rcx
	movl	$14, %edx
	leaq	.LC21(%rip), %rax
	movq	%rax, %rsi
	movq	%r12, %rdi
	movl	$0, %eax
	call	_ZN6Logger3logEPKcz@PLT
	.loc 1 129 27 discriminator 1
	call	_ZN6Logger11getInstanceEv@PLT
	movq	%rax, %rdi
	.loc 1 129 33 discriminator 1
	movl	$129, %ecx
	leaq	.LC34(%rip), %rax
	movq	%rax, %rdx
	leaq	.LC22(%rip), %rax
	movq	%rax, %rsi
	movl	$0, %eax
	call	_ZN6Logger3logEPKcz@PLT
	.loc 1 129 92 discriminator 1
	leaq	.LC23(%rip), %rax
	movq	%rax, %rdi
	call	system@PLT
	.loc 1 129 115 discriminator 1
	movl	$-2, %r13d
	jmp	.L52
.L51:
	.loc 1 130 10
	cmpq	$0, -160(%rbp)
	jne	.L53
	.loc 1 130 45 discriminator 1
	call	_ZN6Logger11getInstanceEv@PLT
	movq	%rax, %rcx
	.loc 1 130 51 discriminator 1
	leaq	.LC35(%rip), %rax
	movq	%rax, %rdx
	leaq	.LC16(%rip), %rax
	movq	%rax, %rsi
	movq	%rcx, %rdi
	movl	$0, %eax
	call	_ZN6Logger3logEPKcz@PLT
	.loc 1 130 109 discriminator 1
	leaq	.LC35(%rip), %rax
	movq	%rax, %rsi
	leaq	.LC17(%rip), %rax
	movq	%rax, %rdi
	movl	$0, %eax
	call	printf@PLT
	.loc 1 130 255 discriminator 1
	call	_ZN6Logger11getInstanceEv@PLT
	movq	%rax, %rdi
	.loc 1 130 261 discriminator 1
	leaq	.LC33(%rip), %r8
	movl	$130, %ecx
	leaq	.LC19(%rip), %rax
	movq	%rax, %rdx
	leaq	.LC20(%rip), %rax
	movq	%rax, %rsi
	movl	$0, %eax
	call	_ZN6Logger3logEPKcz@PLT
	.loc 1 130 351 discriminator 1
	leaq	.LC33(%rip), %rax
	movq	%rax, %rcx
	movl	$130, %edx
	leaq	.LC19(%rip), %rax
	movq	%rax, %rsi
	leaq	.LC20(%rip), %rax
	movq	%rax, %rdi
	movl	$0, %eax
	call	printf@PLT
	.loc 1 130 454 discriminator 1
	call	_ZN6Logger11getInstanceEv@PLT
	movq	%rax, %r12
	.loc 1 130 460 discriminator 1
	movl	$14, %edi
	call	strerror@PLT
	movq	%rax, %rcx
	movl	$14, %edx
	leaq	.LC21(%rip), %rax
	movq	%rax, %rsi
	movq	%r12, %rdi
	movl	$0, %eax
	call	_ZN6Logger3logEPKcz@PLT
	.loc 1 130 27 discriminator 1
	call	_ZN6Logger11getInstanceEv@PLT
	movq	%rax, %rdi
	.loc 1 130 33 discriminator 1
	movl	$130, %ecx
	leaq	.LC34(%rip), %rax
	movq	%rax, %rdx
	leaq	.LC22(%rip), %rax
	movq	%rax, %rsi
	movl	$0, %eax
	call	_ZN6Logger3logEPKcz@PLT
	.loc 1 130 92 discriminator 1
	leaq	.LC23(%rip), %rax
	movq	%rax, %rdi
	call	system@PLT
	.loc 1 130 115 discriminator 1
	movl	$-2, %r13d
	jmp	.L52
.L53:
	.loc 1 133 27
	movq	-152(%rbp), %rax
	movq	%rax, %rdi
	call	_Z10BufferLookP6Buffer@PLT
	.loc 1 133 31
	movb	%al, -129(%rbp)
	.loc 1 136 35
	movq	-152(%rbp), %rax
	addq	$8, %rax
	movq	%rax, %rdx
	shrq	$3, %rdx
	addq	$2147450880, %rdx
	movzbl	(%rdx), %edx
	testb	%dl, %dl
	je	.L54
	movq	%rax, %rdi
	call	__asan_report_load8@PLT
.L54:
	movq	-152(%rbp), %rax
	movq	8(%rax), %rdx
	.loc 1 136 28
	movq	-160(%rbp), %rax
	addq	$32, %rax
	movq	%rax, %rcx
	shrq	$3, %rcx
	addq	$2147450880, %rcx
	movzbl	(%rcx), %ecx
	testb	%cl, %cl
	je	.L55
	movq	%rax, %rdi
	call	__asan_report_store8@PLT
.L55:
	movq	-160(%rbp), %rax
	movq	%rdx, 32(%rax)
	.loc 1 137 24
	movq	-152(%rbp), %rax
	addq	$16, %rax
	movq	%rax, %rdx
	movq	%rdx, %rax
	shrq	$3, %rax
	addq	$2147450880, %rax
	movzbl	(%rax), %eax
	testb	%al, %al
	setne	%cl
	cmpb	$3, %al
	setle	%al
	andl	%ecx, %eax
	testb	%al, %al
	je	.L56
	movq	%rdx, %rdi
	call	__asan_report_load4@PLT
.L56:
	movq	-152(%rbp), %rax
	movl	16(%rax), %ecx
	.loc 1 137 17
	movq	-160(%rbp), %rax
	addq	$40, %rax
	movq	%rax, %rdx
	movq	%rdx, %rax
	shrq	$3, %rax
	addq	$2147450880, %rax
	movzbl	(%rax), %eax
	testb	%al, %al
	setne	%sil
	cmpb	$3, %al
	setle	%al
	andl	%esi, %eax
	testb	%al, %al
	je	.L57
	movq	%rdx, %rdi
	call	__asan_report_store4@PLT
.L57:
	movq	-160(%rbp), %rax
	movl	%ecx, 40(%rax)
	.loc 1 138 26
	movq	-152(%rbp), %rax
	addq	$20, %rax
	movq	%rax, %rdx
	shrq	$3, %rdx
	addq	$2147450880, %rdx
	movzbl	(%rdx), %edx
	testb	%dl, %dl
	setne	%sil
	movq	%rax, %rcx
	andl	$7, %ecx
	addl	$3, %ecx
	cmpb	%dl, %cl
	setge	%dl
	andl	%esi, %edx
	testb	%dl, %dl
	je	.L58
	movq	%rax, %rdi
	call	__asan_report_load4@PLT
.L58:
	movq	-152(%rbp), %rax
	movl	20(%rax), %ecx
	.loc 1 138 19
	movq	-160(%rbp), %rax
	addq	$44, %rax
	movq	%rax, %rdx
	shrq	$3, %rdx
	addq	$2147450880, %rdx
	movzbl	(%rdx), %edx
	testb	%dl, %dl
	setne	%dil
	movq	%rax, %rsi
	andl	$7, %esi
	addl	$3, %esi
	cmpb	%dl, %sil
	setge	%dl
	andl	%edi, %edx
	testb	%dl, %dl
	je	.L59
	movq	%rax, %rdi
	call	__asan_report_store4@PLT
.L59:
	movq	-160(%rbp), %rax
	movl	%ecx, 44(%rax)
	.loc 1 140 5
	cmpb	$61, -129(%rbp)
	jne	.L60
	.loc 1 142 25
	movq	-160(%rbp), %rax
	addq	$16, %rax
	movq	%rax, %rdx
	movq	%rdx, %rax
	shrq	$3, %rax
	addq	$2147450880, %rax
	movzbl	(%rax), %eax
	testb	%al, %al
	setne	%cl
	cmpb	$3, %al
	setle	%al
	andl	%ecx, %eax
	testb	%al, %al
	je	.L61
	movq	%rdx, %rdi
	call	__asan_report_store4@PLT
.L61:
	movq	-160(%rbp), %rax
	movl	$61, 16(%rax)
	.loc 1 143 52
	movq	-152(%rbp), %rax
	movq	%rax, %rdi
	call	_Z11BufferGetChP6Buffer@PLT
	.loc 1 143 39
	movl	%eax, %ecx
	movq	-160(%rbp), %rax
	addq	$24, %rax
	movq	%rax, %rdx
	movq	%rdx, %rax
	shrq	$3, %rax
	addq	$2147450880, %rax
	movzbl	(%rax), %eax
	testb	%al, %al
	setne	%sil
	testb	%al, %al
	setle	%al
	andl	%esi, %eax
	testb	%al, %al
	je	.L62
	movq	%rdx, %rdi
	call	__asan_report_store1@PLT
.L62:
	movq	-160(%rbp), %rax
	movb	%cl, 24(%rax)
	.loc 1 145 20
	movl	$61, %r13d
	jmp	.L52
.L60:
.LBB7:
	.loc 1 149 16
	movsbl	-129(%rbp), %eax
	subl	$48, %eax
	cmpl	$9, %eax
	setbe	%al
	movzbl	%al, %eax
	.loc 1 149 5
	testl	%eax, %eax
	jne	.L63
	.loc 1 149 23 discriminator 1
	cmpb	$45, -129(%rbp)
	je	.L63
	.loc 1 149 38 discriminator 2
	cmpb	$43, -129(%rbp)
	jne	.L64
.L63:
.LBB8:
	.loc 1 151 16
	leaq	-32(%r12), %rax
	movq	%rax, %rdx
	shrq	$3, %rdx
	addq	$2147450880, %rdx
	movzbl	(%rdx), %edx
	testb	%dl, %dl
	je	.L65
	movq	%rax, %rdi
	call	__asan_report_store8@PLT
.L65:
	movsd	.LC36(%rip), %xmm0
	movsd	%xmm0, -32(%r12)
	.loc 1 153 28
	leaq	-32(%r12), %rdx
	movq	-152(%rbp), %rax
	movq	%rdx, %rsi
	movq	%rax, %rdi
	call	_Z15BufferGetDoubleP6BufferPd@PLT
	testl	%eax, %eax
	setne	%al
	.loc 1 153 9
	testb	%al, %al
	je	.L66
	.loc 1 155 26
	movq	-160(%rbp), %rax
	addq	$16, %rax
	movq	%rax, %rdx
	movq	%rdx, %rax
	shrq	$3, %rax
	addq	$2147450880, %rax
	movzbl	(%rax), %eax
	testb	%al, %al
	setne	%cl
	cmpb	$3, %al
	setle	%al
	andl	%ecx, %eax
	testb	%al, %al
	je	.L67
	movq	%rdx, %rdi
	call	__asan_report_store4@PLT
.L67:
	movq	-160(%rbp), %rax
	movl	$8, 16(%rax)
	.loc 1 156 37
	leaq	-32(%r12), %rax
	movq	%rax, %rdx
	shrq	$3, %rdx
	addq	$2147450880, %rdx
	movzbl	(%rdx), %edx
	testb	%dl, %dl
	je	.L68
	movq	%rax, %rdi
	call	__asan_report_load8@PLT
.L68:
	movsd	-32(%r12), %xmm0
	movq	-160(%rbp), %rax
	addq	$24, %rax
	movq	%rax, %rdx
	shrq	$3, %rdx
	addq	$2147450880, %rdx
	movzbl	(%rdx), %edx
	testb	%dl, %dl
	je	.L69
	movq	%rax, %rdi
	call	__asan_report_store8@PLT
.L69:
	movq	-160(%rbp), %rax
	movsd	%xmm0, 24(%rax)
	.loc 1 158 20
	movl	$8, %r13d
	movl	$0, %edx
	jmp	.L70
.L66:
	movl	$1, %edx
.L70:
	leaq	-32(%r12), %rax
	shrq	$3, %rax
	addq	$2147450880, %rax
	movb	$-8, (%rax)
	cmpl	$1, %edx
	jne	.L52
.L64:
.LBE8:
.LBE7:
	.loc 1 163 15
	movsbl	-129(%rbp), %eax
	movl	%eax, %esi
	leaq	_ZL9OPERATORS(%rip), %rax
	movq	%rax, %rdi
	call	strchr@PLT
	.loc 1 163 5
	testq	%rax, %rax
	je	.L71
	.loc 1 165 21
	movq	-160(%rbp), %rax
	addq	$16, %rax
	movq	%rax, %rdx
	movq	%rdx, %rax
	shrq	$3, %rax
	addq	$2147450880, %rax
	movzbl	(%rax), %eax
	testb	%al, %al
	setne	%cl
	cmpb	$3, %al
	setle	%al
	andl	%ecx, %eax
	testb	%al, %al
	je	.L72
	movq	%rdx, %rdi
	call	__asan_report_store4@PLT
.L72:
	movq	-160(%rbp), %rax
	movl	$5, 16(%rax)
	.loc 1 166 48
	movq	-152(%rbp), %rax
	movq	%rax, %rdi
	call	_Z11BufferGetChP6Buffer@PLT
	.loc 1 166 35
	movl	%eax, %ecx
	movq	-160(%rbp), %rax
	addq	$24, %rax
	movq	%rax, %rdx
	movq	%rdx, %rax
	shrq	$3, %rax
	addq	$2147450880, %rax
	movzbl	(%rax), %eax
	testb	%al, %al
	setne	%sil
	testb	%al, %al
	setle	%al
	andl	%esi, %eax
	testb	%al, %al
	je	.L73
	movq	%rdx, %rdi
	call	__asan_report_store1@PLT
.L73:
	movq	-160(%rbp), %rax
	movb	%cl, 24(%rax)
	.loc 1 168 26
	movq	-160(%rbp), %rax
	movzbl	24(%rax), %eax
	.loc 1 168 9
	cmpb	$60, %al
	jne	.L74
	.loc 1 169 28
	movq	-152(%rbp), %rax
	movq	%rax, %rdi
	call	_Z11BufferGetChP6Buffer@PLT
	.loc 1 169 34
	cmpl	$60, %eax
	setne	%al
	.loc 1 169 13
	testb	%al, %al
	je	.L74
	.loc 1 171 28
	leaq	.LC37(%rip), %rax
	movq	%rax, %rdi
	movl	$0, %eax
	call	printf@PLT
	.loc 1 171 87
	call	_ZN6Logger11getInstanceEv@PLT
	movq	%rax, %rdx
	.loc 1 171 93
	leaq	.LC38(%rip), %rax
	movq	%rax, %rsi
	movq	%rdx, %rdi
	movl	$0, %eax
	call	_ZN6Logger3logEPKcz@PLT
	.loc 1 171 134
	call	_ZN6Logger11getInstanceEv@PLT
	movq	%rax, %rdx
	.loc 1 171 140
	leaq	.LC39(%rip), %rax
	movq	%rax, %rsi
	movq	%rdx, %rdi
	movl	$0, %eax
	call	_ZN6Logger3logEPKcz@PLT
	.loc 1 171 166
	call	_ZN6Logger11getInstanceEv@PLT
	movq	%rax, %rdx
	.loc 1 171 184
	leaq	.LC40(%rip), %rax
	movq	%rax, %rsi
	movq	%rdx, %rdi
	movl	$0, %eax
	call	_ZN6Logger15log_dup_consoleEPKcz@PLT
	.loc 1 171 227
	leaq	.LC41(%rip), %rax
	movq	%rax, %rdi
	movl	$0, %eax
	call	printf@PLT
	.loc 1 171 260
	movq	-152(%rbp), %rax
	addq	$8, %rax
	movq	%rax, %rdx
	shrq	$3, %rdx
	addq	$2147450880, %rdx
	movzbl	(%rdx), %edx
	testb	%dl, %dl
	je	.L75
	movq	%rax, %rdi
	call	__asan_report_load8@PLT
.L75:
	movq	-152(%rbp), %rax
	movq	8(%rax), %rax
	.loc 1 171 254
	movl	$10, %esi
	movq	%rax, %rdi
	call	_Z6printlPKcc@PLT
	.loc 1 171 278
	leaq	.LC42(%rip), %rax
	movq	%rax, %rdi
	call	puts@PLT
	.loc 1 171 302
	movl	$171, %edx
	leaq	.LC19(%rip), %rax
	movq	%rax, %rsi
	leaq	.LC43(%rip), %rax
	movq	%rax, %rdi
	movl	$0, %eax
	call	printf@PLT
	.loc 1 173 24
	movl	$-1, %r13d
	jmp	.L52
.L74:
	.loc 1 176 16
	movl	$5, %r13d
	jmp	.L52
.L71:
.LBB9:
	.loc 1 180 16
	movsbl	-129(%rbp), %eax
	movl	%eax, %edi
	call	isalpha@PLT
	.loc 1 180 5
	testl	%eax, %eax
	je	.L76
.LBB10:
	.loc 1 184 23
	movq	-152(%rbp), %rax
	leaq	_ZZL8SetTokenP6BufferP5TokenE4word(%rip), %rdx
	movq	%rdx, %rsi
	movq	%rax, %rdi
	call	_ZL13BufferGetWordP6BufferPc
	.loc 1 187 40
	leaq	_ZZL8SetTokenP6BufferP5TokenE4word(%rip), %rax
	movq	%rax, %rdi
	call	_ZL13IsInstructionPKc
	movl	%eax, -128(%rbp)
	.loc 1 188 9
	cmpl	$-666, -128(%rbp)
	je	.L77
	.loc 1 190 26
	movq	-160(%rbp), %rax
	addq	$16, %rax
	movq	%rax, %rdx
	movq	%rdx, %rax
	shrq	$3, %rax
	addq	$2147450880, %rax
	movzbl	(%rax), %eax
	testb	%al, %al
	setne	%cl
	cmpb	$3, %al
	setle	%al
	andl	%ecx, %eax
	testb	%al, %al
	je	.L78
	movq	%rdx, %rdi
	call	__asan_report_store4@PLT
.L78:
	movq	-160(%rbp), %rax
	movl	$2, 16(%rax)
	.loc 1 191 40
	movq	-160(%rbp), %rax
	addq	$24, %rax
	movq	%rax, %rdx
	movq	%rdx, %rax
	shrq	$3, %rax
	addq	$2147450880, %rax
	movzbl	(%rax), %eax
	testb	%al, %al
	setne	%cl
	cmpb	$3, %al
	setle	%al
	andl	%ecx, %eax
	testb	%al, %al
	je	.L79
	movq	%rdx, %rdi
	call	__asan_report_store4@PLT
.L79:
	movq	-160(%rbp), %rax
	movl	-128(%rbp), %edx
	movl	%edx, 24(%rax)
	.loc 1 195 20
	movl	$2, %r13d
	jmp	.L52
.L77:
	.loc 1 198 44
	leaq	_ZZL8SetTokenP6BufferP5TokenE4word(%rip), %rax
	movq	%rax, %rdi
	call	_ZL15IsInitializatorPKc
	movl	%eax, -124(%rbp)
	.loc 1 199 9
	cmpl	$-111, -124(%rbp)
	je	.L80
	.loc 1 201 34
	movq	-160(%rbp), %rax
	addq	$16, %rax
	movq	%rax, %rdx
	movq	%rdx, %rax
	shrq	$3, %rax
	addq	$2147450880, %rax
	movzbl	(%rax), %eax
	testb	%al, %al
	setne	%cl
	cmpb	$3, %al
	setle	%al
	andl	%ecx, %eax
	testb	%al, %al
	je	.L81
	movq	%rdx, %rdi
	call	__asan_report_store4@PLT
.L81:
	movq	-160(%rbp), %rax
	movl	$3, 16(%rax)
	.loc 1 202 42
	movq	-160(%rbp), %rax
	addq	$24, %rax
	movq	%rax, %rdx
	movq	%rdx, %rax
	shrq	$3, %rax
	addq	$2147450880, %rax
	movzbl	(%rax), %eax
	testb	%al, %al
	setne	%cl
	cmpb	$3, %al
	setle	%al
	andl	%ecx, %eax
	testb	%al, %al
	je	.L82
	movq	%rdx, %rdi
	call	__asan_report_store4@PLT
.L82:
	movq	-160(%rbp), %rax
	movl	-124(%rbp), %edx
	movl	%edx, 24(%rax)
	.loc 1 204 20
	movl	$3, %r13d
	jmp	.L52
.L80:
	.loc 1 207 41
	leaq	_ZZL8SetTokenP6BufferP5TokenE4word(%rip), %rax
	movq	%rax, %rdi
	call	_ZL17IsFunctionRetTypePKc
	movl	%eax, -120(%rbp)
	.loc 1 208 9
	cmpl	$-333, -120(%rbp)
	je	.L83
	.loc 1 210 29
	movq	-160(%rbp), %rax
	addq	$16, %rax
	movq	%rax, %rdx
	movq	%rdx, %rax
	shrq	$3, %rax
	addq	$2147450880, %rax
	movzbl	(%rax), %eax
	testb	%al, %al
	setne	%cl
	cmpb	$3, %al
	setle	%al
	andl	%ecx, %eax
	testb	%al, %al
	je	.L84
	movq	%rdx, %rdi
	call	__asan_report_store4@PLT
.L84:
	movq	-160(%rbp), %rax
	movl	$4, 16(%rax)
	.loc 1 211 46
	movq	-160(%rbp), %rax
	addq	$24, %rax
	movq	%rax, %rdx
	movq	%rdx, %rax
	shrq	$3, %rax
	addq	$2147450880, %rax
	movzbl	(%rax), %eax
	testb	%al, %al
	setne	%cl
	cmpb	$3, %al
	setle	%al
	andl	%ecx, %eax
	testb	%al, %al
	je	.L85
	movq	%rdx, %rdi
	call	__asan_report_store4@PLT
.L85:
	movq	-160(%rbp), %rax
	movl	-120(%rbp), %edx
	movl	%edx, 24(%rax)
	.loc 1 213 20
	movl	$4, %r13d
	jmp	.L52
.L83:
	.loc 1 216 47
	leaq	_ZZL8SetTokenP6BufferP5TokenE4word(%rip), %rax
	movq	%rax, %rdi
	call	_ZL16IsNativeFunctionPKc
	movl	%eax, -116(%rbp)
	.loc 1 217 9
	cmpl	$-222, -116(%rbp)
	je	.L86
	.loc 1 219 32
	movq	-160(%rbp), %rax
	addq	$16, %rax
	movq	%rax, %rdx
	movq	%rdx, %rax
	shrq	$3, %rax
	addq	$2147450880, %rax
	movzbl	(%rax), %eax
	testb	%al, %al
	setne	%cl
	cmpb	$3, %al
	setle	%al
	andl	%ecx, %eax
	testb	%al, %al
	je	.L87
	movq	%rdx, %rdi
	call	__asan_report_store4@PLT
.L87:
	movq	-160(%rbp), %rax
	movl	$11, 16(%rax)
	.loc 1 220 44
	movq	-160(%rbp), %rax
	addq	$24, %rax
	movq	%rax, %rdx
	movq	%rdx, %rax
	shrq	$3, %rax
	addq	$2147450880, %rax
	movzbl	(%rax), %eax
	testb	%al, %al
	setne	%cl
	cmpb	$3, %al
	setle	%al
	andl	%ecx, %eax
	testb	%al, %al
	je	.L88
	movq	%rdx, %rdi
	call	__asan_report_store4@PLT
.L88:
	movq	-160(%rbp), %rax
	movl	-116(%rbp), %edx
	movl	%edx, 24(%rax)
	.loc 1 222 20
	movl	$11, %r13d
	jmp	.L52
.L86:
	.loc 1 226 25
	movq	-160(%rbp), %rax
	addq	$16, %rax
	movq	%rax, %rdx
	movq	%rdx, %rax
	shrq	$3, %rax
	addq	$2147450880, %rax
	movzbl	(%rax), %eax
	testb	%al, %al
	setne	%cl
	cmpb	$3, %al
	setle	%al
	andl	%ecx, %eax
	testb	%al, %al
	je	.L89
	movq	%rdx, %rdi
	call	__asan_report_store4@PLT
.L89:
	movq	-160(%rbp), %rax
	movl	$6, 16(%rax)
	.loc 1 227 33
	movq	-160(%rbp), %rax
	addq	$24, %rax
	movq	%rax, %rdx
	shrq	$3, %rdx
	addq	$2147450880, %rdx
	movzbl	(%rdx), %edx
	testb	%dl, %dl
	je	.L90
	movq	%rax, %rdi
	call	__asan_report_store8@PLT
.L90:
	movq	-160(%rbp), %rax
	leaq	_ZZL8SetTokenP6BufferP5TokenE4word(%rip), %rdx
	movq	%rdx, 24(%rax)
	.loc 1 230 16
	movl	$6, %r13d
	jmp	.L52
.L76:
.LBE10:
.LBE9:
	.loc 1 235 5
	cmpb	$123, -129(%rbp)
	je	.L91
	.loc 1 235 39 discriminator 1
	cmpb	$125, -129(%rbp)
	je	.L91
	.loc 1 235 72 discriminator 2
	cmpb	$40, -129(%rbp)
	je	.L91
	.loc 1 236 44
	cmpb	$41, -129(%rbp)
	jne	.L92
.L91:
	.loc 1 238 34
	movq	-152(%rbp), %rax
	movq	%rax, %rdi
	call	_Z11BufferGetChP6Buffer@PLT
	movl	%eax, %edx
	.loc 1 238 21
	movq	-160(%rbp), %rax
	addq	$16, %rax
	movq	%rax, %rcx
	movq	%rcx, %rax
	shrq	$3, %rax
	addq	$2147450880, %rax
	movzbl	(%rax), %eax
	testb	%al, %al
	setne	%sil
	cmpb	$3, %al
	setle	%al
	andl	%esi, %eax
	testb	%al, %al
	je	.L93
	movq	%rcx, %rdi
	call	__asan_report_store4@PLT
.L93:
	movq	-160(%rbp), %rax
	movl	%edx, 16(%rax)
	.loc 1 239 44
	movq	-160(%rbp), %rax
	movl	16(%rax), %eax
	.loc 1 239 35
	movl	%eax, %ecx
	movq	-160(%rbp), %rax
	addq	$24, %rax
	movq	%rax, %rdx
	movq	%rdx, %rax
	shrq	$3, %rax
	addq	$2147450880, %rax
	movzbl	(%rax), %eax
	testb	%al, %al
	setne	%sil
	testb	%al, %al
	setle	%al
	andl	%esi, %eax
	testb	%al, %al
	je	.L94
	movq	%rdx, %rdi
	call	__asan_report_store1@PLT
.L94:
	movq	-160(%rbp), %rax
	movb	%cl, 24(%rax)
	.loc 1 241 23
	movq	-160(%rbp), %rax
	movl	16(%rax), %r13d
	jmp	.L52
.L92:
	.loc 1 245 5
	cmpb	$59, -129(%rbp)
	jne	.L95
	.loc 1 247 34
	movq	-152(%rbp), %rax
	movq	%rax, %rdi
	call	_Z11BufferGetChP6Buffer@PLT
	movl	%eax, %edx
	.loc 1 247 21
	movq	-160(%rbp), %rax
	addq	$16, %rax
	movq	%rax, %rcx
	movq	%rcx, %rax
	shrq	$3, %rax
	addq	$2147450880, %rax
	movzbl	(%rax), %eax
	testb	%al, %al
	setne	%sil
	cmpb	$3, %al
	setle	%al
	andl	%esi, %eax
	testb	%al, %al
	je	.L96
	movq	%rcx, %rdi
	call	__asan_report_store4@PLT
.L96:
	movq	-160(%rbp), %rax
	movl	%edx, 16(%rax)
	.loc 1 248 44
	movq	-160(%rbp), %rax
	movl	16(%rax), %eax
	.loc 1 248 35
	movl	%eax, %ecx
	movq	-160(%rbp), %rax
	addq	$24, %rax
	movq	%rax, %rdx
	movq	%rdx, %rax
	shrq	$3, %rax
	addq	$2147450880, %rax
	movzbl	(%rax), %eax
	testb	%al, %al
	setne	%sil
	testb	%al, %al
	setle	%al
	andl	%esi, %eax
	testb	%al, %al
	je	.L97
	movq	%rdx, %rdi
	call	__asan_report_store1@PLT
.L97:
	movq	-160(%rbp), %rax
	movb	%cl, 24(%rax)
	.loc 1 250 16
	movl	$59, %r13d
	jmp	.L52
.L95:
	.loc 1 253 12
	movl	$-999, %r13d
.L52:
	.loc 1 254 5
	movl	%r13d, %edx
	.loc 1 127 5
	cmpq	%rbx, %r15
	je	.L48
	movq	$1172321806, (%rbx)
	movabsq	$-723401728380766731, %rax
	movq	%rax, 2147450880(%r14)
	movq	56(%rbx), %rax
	movb	$0, (%rax)
	jmp	.L49
.L48:
	movq	$0, 2147450880(%r14)
.L49:
	.loc 1 254 5
	movl	%edx, %eax
	addq	$120, %rsp
	popq	%rbx
	popq	%r12
	popq	%r13
	popq	%r14
	popq	%r15
	popq	%rbp
	.cfi_def_cfa 7, 8
	ret
	.cfi_endproc
.LFE2866:
	.size	_ZL8SetTokenP6BufferP5Token, .-_ZL8SetTokenP6BufferP5Token
	.section	.rodata
.LC44:
	.string	"1 32 4 1 n"
	.align 32
.LC45:
	.string	"int BufferGetWord(Buffer*, char*)"
	.zero	62
	.align 32
.LC46:
	.string	"BufferGetWord"
	.zero	50
	.align 32
.LC47:
	.string	"word_buffer"
	.zero	52
	.align 32
.LC48:
	.string	"%[a-zA-Z]%n"
	.zero	52
	.text
	.type	_ZL13BufferGetWordP6BufferPc, @function
_ZL13BufferGetWordP6BufferPc:
.LASANPC2867:
.LFB2867:
	.loc 1 257 5
	.cfi_startproc
	endbr64
	pushq	%rbp
	.cfi_def_cfa_offset 16
	.cfi_offset 6, -16
	movq	%rsp, %rbp
	.cfi_def_cfa_register 6
	pushq	%r14
	pushq	%r13
	pushq	%r12
	pushq	%rbx
	subq	$80, %rsp
	.cfi_offset 14, -24
	.cfi_offset 13, -32
	.cfi_offset 12, -40
	.cfi_offset 3, -48
	movq	%rdi, -104(%rbp)
	movq	%rsi, -112(%rbp)
	leaq	-96(%rbp), %rbx
	movq	%rbx, %r14
	cmpl	$0, __asan_option_detect_stack_use_after_return(%rip)
	je	.L98
	movl	$64, %edi
	call	__asan_stack_malloc_0@PLT
	testq	%rax, %rax
	je	.L98
	movq	%rax, %rbx
.L98:
	leaq	64(%rbx), %rax
	movq	%rax, %r12
	movq	$1102416563, (%rbx)
	leaq	.LC44(%rip), %rax
	movq	%rax, 8(%rbx)
	leaq	.LASANPC2867(%rip), %rax
	movq	%rax, 16(%rbx)
	movq	%rbx, %r13
	shrq	$3, %r13
	movl	$-235802127, 2147450880(%r13)
	movl	$-202116348, 2147450884(%r13)
	.loc 1 258 10
	cmpq	$0, -104(%rbp)
	jne	.L102
	.loc 1 258 43 discriminator 1
	call	_ZN6Logger11getInstanceEv@PLT
	movq	%rax, %rcx
	.loc 1 258 49 discriminator 1
	leaq	.LC32(%rip), %rax
	movq	%rax, %rdx
	leaq	.LC16(%rip), %rax
	movq	%rax, %rsi
	movq	%rcx, %rdi
	movl	$0, %eax
	call	_ZN6Logger3logEPKcz@PLT
	.loc 1 258 105 discriminator 1
	leaq	.LC32(%rip), %rax
	movq	%rax, %rsi
	leaq	.LC17(%rip), %rax
	movq	%rax, %rdi
	movl	$0, %eax
	call	printf@PLT
	.loc 1 258 249 discriminator 1
	call	_ZN6Logger11getInstanceEv@PLT
	movq	%rax, %rdi
	.loc 1 258 255 discriminator 1
	leaq	.LC45(%rip), %r8
	movl	$258, %ecx
	leaq	.LC19(%rip), %rax
	movq	%rax, %rdx
	leaq	.LC20(%rip), %rax
	movq	%rax, %rsi
	movl	$0, %eax
	call	_ZN6Logger3logEPKcz@PLT
	.loc 1 258 345 discriminator 1
	leaq	.LC45(%rip), %rax
	movq	%rax, %rcx
	movl	$258, %edx
	leaq	.LC19(%rip), %rax
	movq	%rax, %rsi
	leaq	.LC20(%rip), %rax
	movq	%rax, %rdi
	movl	$0, %eax
	call	printf@PLT
	.loc 1 258 448 discriminator 1
	call	_ZN6Logger11getInstanceEv@PLT
	movq	%rax, %r12
	.loc 1 258 454 discriminator 1
	movl	$14, %edi
	call	strerror@PLT
	movq	%rax, %rcx
	movl	$14, %edx
	leaq	.LC21(%rip), %rax
	movq	%rax, %rsi
	movq	%r12, %rdi
	movl	$0, %eax
	call	_ZN6Logger3logEPKcz@PLT
	.loc 1 258 27 discriminator 1
	call	_ZN6Logger11getInstanceEv@PLT
	movq	%rax, %rdi
	.loc 1 258 33 discriminator 1
	movl	$258, %ecx
	leaq	.LC46(%rip), %rax
	movq	%rax, %rdx
	leaq	.LC22(%rip), %rax
	movq	%rax, %rsi
	movl	$0, %eax
	call	_ZN6Logger3logEPKcz@PLT
	.loc 1 258 92 discriminator 1
	leaq	.LC23(%rip), %rax
	movq	%rax, %rdi
	call	system@PLT
	.loc 1 258 134 discriminator 1
	call	_ZN6Logger11getInstanceEv@PLT
	.loc 1 258 156 discriminator 1
	call	_ZN6Logger11getInstanceEv@PLT
	movq	%rax, %r12
	.loc 1 258 169 discriminator 1
	movl	$258, %r9d
	leaq	.LC46(%rip), %r8
	movl	$258, %ecx
	leaq	.LC19(%rip), %rax
	movq	%rax, %rdx
	leaq	.LC24(%rip), %rax
	movq	%rax, %rsi
	movl	$-1, %edi
	movl	$0, %eax
	call	_Z6MsgRetiPKcz@PLT
	movl	%eax, %esi
	subq	$8, %rsp
	pushq	$258
	leaq	.LC46(%rip), %r9
	movl	$258, %r8d
	leaq	.LC19(%rip), %rax
	movq	%rax, %rcx
	leaq	.LC25(%rip), %rax
	movq	%rax, %rdx
	movq	%r12, %rdi
	movl	$0, %eax
	call	_ZN6Logger9LogMsgRetEiPKcz@PLT
	addq	$16, %rsp
	.loc 1 258 356 discriminator 1
	jmp	.L110
.L102:
	.loc 1 259 10
	cmpq	$0, -112(%rbp)
	jne	.L104
	.loc 1 259 51 discriminator 1
	call	_ZN6Logger11getInstanceEv@PLT
	movq	%rax, %rcx
	.loc 1 259 57 discriminator 1
	leaq	.LC47(%rip), %rax
	movq	%rax, %rdx
	leaq	.LC16(%rip), %rax
	movq	%rax, %rsi
	movq	%rcx, %rdi
	movl	$0, %eax
	call	_ZN6Logger3logEPKcz@PLT
	.loc 1 259 121 discriminator 1
	leaq	.LC47(%rip), %rax
	movq	%rax, %rsi
	leaq	.LC17(%rip), %rax
	movq	%rax, %rdi
	movl	$0, %eax
	call	printf@PLT
	.loc 1 259 273 discriminator 1
	call	_ZN6Logger11getInstanceEv@PLT
	movq	%rax, %rdi
	.loc 1 259 279 discriminator 1
	leaq	.LC45(%rip), %r8
	movl	$259, %ecx
	leaq	.LC19(%rip), %rax
	movq	%rax, %rdx
	leaq	.LC20(%rip), %rax
	movq	%rax, %rsi
	movl	$0, %eax
	call	_ZN6Logger3logEPKcz@PLT
	.loc 1 259 369 discriminator 1
	leaq	.LC45(%rip), %rax
	movq	%rax, %rcx
	movl	$259, %edx
	leaq	.LC19(%rip), %rax
	movq	%rax, %rsi
	leaq	.LC20(%rip), %rax
	movq	%rax, %rdi
	movl	$0, %eax
	call	printf@PLT
	.loc 1 259 472 discriminator 1
	call	_ZN6Logger11getInstanceEv@PLT
	movq	%rax, %r12
	.loc 1 259 478 discriminator 1
	movl	$14, %edi
	call	strerror@PLT
	movq	%rax, %rcx
	movl	$14, %edx
	leaq	.LC21(%rip), %rax
	movq	%rax, %rsi
	movq	%r12, %rdi
	movl	$0, %eax
	call	_ZN6Logger3logEPKcz@PLT
	.loc 1 259 27 discriminator 1
	call	_ZN6Logger11getInstanceEv@PLT
	movq	%rax, %rdi
	.loc 1 259 33 discriminator 1
	movl	$259, %ecx
	leaq	.LC46(%rip), %rax
	movq	%rax, %rdx
	leaq	.LC22(%rip), %rax
	movq	%rax, %rsi
	movl	$0, %eax
	call	_ZN6Logger3logEPKcz@PLT
	.loc 1 259 92 discriminator 1
	leaq	.LC23(%rip), %rax
	movq	%rax, %rdi
	call	system@PLT
	.loc 1 259 134 discriminator 1
	call	_ZN6Logger11getInstanceEv@PLT
	.loc 1 259 156 discriminator 1
	call	_ZN6Logger11getInstanceEv@PLT
	movq	%rax, %r12
	.loc 1 259 169 discriminator 1
	movl	$259, %r9d
	leaq	.LC46(%rip), %r8
	movl	$259, %ecx
	leaq	.LC19(%rip), %rax
	movq	%rax, %rdx
	leaq	.LC24(%rip), %rax
	movq	%rax, %rsi
	movl	$-1, %edi
	movl	$0, %eax
	call	_Z6MsgRetiPKcz@PLT
	movl	%eax, %esi
	subq	$8, %rsp
	pushq	$259
	leaq	.LC46(%rip), %r9
	movl	$259, %r8d
	leaq	.LC19(%rip), %rax
	movq	%rax, %rcx
	leaq	.LC25(%rip), %rax
	movq	%rax, %rdx
	movq	%r12, %rdi
	movl	$0, %eax
	call	_ZN6Logger9LogMsgRetEiPKcz@PLT
	addq	$16, %rsp
	.loc 1 259 356 discriminator 1
	jmp	.L110
.L104:
	.loc 1 263 9
	leaq	-32(%r12), %rax
	movq	%rax, %rdx
	movq	%rdx, %rax
	shrq	$3, %rax
	addq	$2147450880, %rax
	movzbl	(%rax), %eax
	testb	%al, %al
	setne	%cl
	cmpb	$3, %al
	setle	%al
	andl	%ecx, %eax
	testb	%al, %al
	je	.L105
	movq	%rdx, %rdi
	call	__asan_report_store4@PLT
.L105:
	movl	$0, -32(%r12)
	.loc 1 264 17
	movq	-104(%rbp), %rax
	addq	$8, %rax
	movq	%rax, %rdx
	shrq	$3, %rdx
	addq	$2147450880, %rdx
	movzbl	(%rdx), %edx
	testb	%dl, %dl
	je	.L106
	movq	%rax, %rdi
	call	__asan_report_load8@PLT
.L106:
	movq	-104(%rbp), %rax
	movq	8(%rax), %rax
	.loc 1 264 11
	leaq	-32(%r12), %rcx
	movq	-112(%rbp), %rdx
	leaq	.LC48(%rip), %rsi
	movq	%rax, %rdi
	movl	$0, %eax
	call	__isoc99_sscanf@PLT
	.loc 1 265 14
	movq	-104(%rbp), %rax
	addq	$8, %rax
	movq	%rax, %rdx
	shrq	$3, %rdx
	addq	$2147450880, %rdx
	movzbl	(%rdx), %edx
	testb	%dl, %dl
	je	.L107
	movq	%rax, %rdi
	call	__asan_report_load8@PLT
.L107:
	movq	-104(%rbp), %rax
	movq	8(%rax), %rcx
	.loc 1 265 17
	leaq	-32(%r12), %rax
	movq	%rax, %rdx
	movq	%rdx, %rax
	shrq	$3, %rax
	addq	$2147450880, %rax
	movzbl	(%rax), %eax
	testb	%al, %al
	setne	%sil
	cmpb	$3, %al
	setle	%al
	andl	%esi, %eax
	testb	%al, %al
	je	.L108
	movq	%rdx, %rdi
	call	__asan_report_load4@PLT
.L108:
	movl	-32(%r12), %eax
	cltq
	.loc 1 265 14
	leaq	(%rcx,%rax), %rdx
	movq	-104(%rbp), %rax
	movq	%rdx, 8(%rax)
	.loc 1 266 17
	movq	-104(%rbp), %rax
	addq	$20, %rax
	movq	%rax, %rdx
	shrq	$3, %rdx
	addq	$2147450880, %rdx
	movzbl	(%rdx), %edx
	testb	%dl, %dl
	setne	%sil
	movq	%rax, %rcx
	andl	$7, %ecx
	addl	$3, %ecx
	cmpb	%dl, %cl
	setge	%dl
	andl	%esi, %edx
	testb	%dl, %dl
	je	.L109
	movq	%rax, %rdi
	call	__asan_report_load4@PLT
.L109:
	movq	-104(%rbp), %rax
	movl	20(%rax), %edx
	movl	-32(%r12), %eax
	addl	%eax, %edx
	movq	-104(%rbp), %rax
	movl	%edx, 20(%rax)
	.loc 1 275 12
	movl	-32(%r12), %eax
.L110:
	.loc 1 276 5 discriminator 1
	movl	%eax, %edx
	.loc 1 257 5 discriminator 1
	cmpq	%rbx, %r14
	je	.L99
	.loc 1 257 5 is_stmt 0
	movq	$1172321806, (%rbx)
	movabsq	$-723401728380766731, %rax
	movq	%rax, 2147450880(%r13)
	movq	56(%rbx), %rax
	movb	$0, (%rax)
	jmp	.L100
.L99:
	movq	$0, 2147450880(%r13)
.L100:
	.loc 1 276 5 is_stmt 1
	movl	%edx, %eax
	leaq	-32(%rbp), %rsp
	popq	%rbx
	popq	%r12
	popq	%r13
	popq	%r14
	popq	%rbp
	.cfi_def_cfa 7, 8
	ret
	.cfi_endproc
.LFE2867:
	.size	_ZL13BufferGetWordP6BufferPc, .-_ZL13BufferGetWordP6BufferPc
	.section	.rodata
	.align 32
.LC49:
	.string	"str"
	.zero	60
	.align 32
.LC50:
	.string	"int IsInstruction(const char*)"
	.zero	33
	.align 32
.LC51:
	.string	"IsInstruction"
	.zero	50
	.text
	.type	_ZL13IsInstructionPKc, @function
_ZL13IsInstructionPKc:
.LASANPC2868:
.LFB2868:
	.loc 1 279 5
	.cfi_startproc
	endbr64
	pushq	%rbp
	.cfi_def_cfa_offset 16
	.cfi_offset 6, -16
	movq	%rsp, %rbp
	.cfi_def_cfa_register 6
	pushq	%rbx
	subq	$40, %rsp
	.cfi_offset 3, -24
	movq	%rdi, -40(%rbp)
	.loc 1 280 10
	cmpq	$0, -40(%rbp)
	jne	.L112
	.loc 1 280 43 discriminator 1
	call	_ZN6Logger11getInstanceEv@PLT
	movq	%rax, %rcx
	.loc 1 280 49 discriminator 1
	leaq	.LC49(%rip), %rax
	movq	%rax, %rdx
	leaq	.LC16(%rip), %rax
	movq	%rax, %rsi
	movq	%rcx, %rdi
	movl	$0, %eax
	call	_ZN6Logger3logEPKcz@PLT
	.loc 1 280 105 discriminator 1
	leaq	.LC49(%rip), %rax
	movq	%rax, %rsi
	leaq	.LC17(%rip), %rax
	movq	%rax, %rdi
	movl	$0, %eax
	call	printf@PLT
	.loc 1 280 249 discriminator 1
	call	_ZN6Logger11getInstanceEv@PLT
	movq	%rax, %rdi
	.loc 1 280 255 discriminator 1
	leaq	.LC50(%rip), %r8
	movl	$280, %ecx
	leaq	.LC19(%rip), %rax
	movq	%rax, %rdx
	leaq	.LC20(%rip), %rax
	movq	%rax, %rsi
	movl	$0, %eax
	call	_ZN6Logger3logEPKcz@PLT
	.loc 1 280 345 discriminator 1
	leaq	.LC50(%rip), %rax
	movq	%rax, %rcx
	movl	$280, %edx
	leaq	.LC19(%rip), %rax
	movq	%rax, %rsi
	leaq	.LC20(%rip), %rax
	movq	%rax, %rdi
	movl	$0, %eax
	call	printf@PLT
	.loc 1 280 448 discriminator 1
	call	_ZN6Logger11getInstanceEv@PLT
	movq	%rax, %rbx
	.loc 1 280 454 discriminator 1
	movl	$14, %edi
	call	strerror@PLT
	movq	%rax, %rcx
	movl	$14, %edx
	leaq	.LC21(%rip), %rax
	movq	%rax, %rsi
	movq	%rbx, %rdi
	movl	$0, %eax
	call	_ZN6Logger3logEPKcz@PLT
	.loc 1 280 27 discriminator 1
	call	_ZN6Logger11getInstanceEv@PLT
	movq	%rax, %rdi
	.loc 1 280 33 discriminator 1
	movl	$280, %ecx
	leaq	.LC51(%rip), %rax
	movq	%rax, %rdx
	leaq	.LC22(%rip), %rax
	movq	%rax, %rsi
	movl	$0, %eax
	call	_ZN6Logger3logEPKcz@PLT
	.loc 1 280 92 discriminator 1
	leaq	.LC23(%rip), %rax
	movq	%rax, %rdi
	call	system@PLT
	.loc 1 280 115 discriminator 1
	movl	$-666, %eax
	jmp	.L113
.L112:
.LBB11:
	.loc 1 282 14
	movl	$0, -20(%rbp)
	.loc 1 282 5
	jmp	.L114
.L117:
	.loc 1 283 41
	movl	-20(%rbp), %eax
	cltq
	leaq	0(,%rax,8), %rdx
	leaq	_ZL12INSTRUCTIONS(%rip), %rax
	addq	%rdx, %rax
	movq	%rax, %rdx
	shrq	$3, %rdx
	addq	$2147450880, %rdx
	movzbl	(%rdx), %edx
	testb	%dl, %dl
	je	.L115
	movq	%rax, %rdi
	call	__asan_report_load8@PLT
.L115:
	movl	-20(%rbp), %eax
	cltq
	leaq	0(,%rax,8), %rdx
	leaq	_ZL12INSTRUCTIONS(%rip), %rax
	movq	(%rdx,%rax), %rdx
	.loc 1 283 21
	movq	-40(%rbp), %rax
	movq	%rdx, %rsi
	movq	%rax, %rdi
	call	_Z7stricmpPKcS0_@PLT
	.loc 1 283 13
	testl	%eax, %eax
	sete	%al
	.loc 1 283 9
	testb	%al, %al
	je	.L116
	.loc 1 284 20
	movl	-20(%rbp), %eax
	jmp	.L113
.L116:
	.loc 1 282 5 discriminator 2
	addl	$1, -20(%rbp)
.L114:
	.loc 1 282 23 discriminator 1
	cmpl	$3, -20(%rbp)
	jle	.L117
.LBE11:
	.loc 1 286 12
	movl	$-666, %eax
.L113:
	.loc 1 287 5
	movq	-8(%rbp), %rbx
	leave
	.cfi_def_cfa 7, 8
	ret
	.cfi_endproc
.LFE2868:
	.size	_ZL13IsInstructionPKc, .-_ZL13IsInstructionPKc
	.section	.rodata
	.align 32
.LC52:
	.string	"int IsInitializator(const char*)"
	.zero	63
	.align 32
.LC53:
	.string	"IsInitializator"
	.zero	48
	.text
	.type	_ZL15IsInitializatorPKc, @function
_ZL15IsInitializatorPKc:
.LASANPC2869:
.LFB2869:
	.loc 1 290 5
	.cfi_startproc
	endbr64
	pushq	%rbp
	.cfi_def_cfa_offset 16
	.cfi_offset 6, -16
	movq	%rsp, %rbp
	.cfi_def_cfa_register 6
	pushq	%rbx
	subq	$40, %rsp
	.cfi_offset 3, -24
	movq	%rdi, -40(%rbp)
	.loc 1 291 10
	cmpq	$0, -40(%rbp)
	jne	.L119
	.loc 1 291 43 discriminator 1
	call	_ZN6Logger11getInstanceEv@PLT
	movq	%rax, %rcx
	.loc 1 291 49 discriminator 1
	leaq	.LC49(%rip), %rax
	movq	%rax, %rdx
	leaq	.LC16(%rip), %rax
	movq	%rax, %rsi
	movq	%rcx, %rdi
	movl	$0, %eax
	call	_ZN6Logger3logEPKcz@PLT
	.loc 1 291 105 discriminator 1
	leaq	.LC49(%rip), %rax
	movq	%rax, %rsi
	leaq	.LC17(%rip), %rax
	movq	%rax, %rdi
	movl	$0, %eax
	call	printf@PLT
	.loc 1 291 249 discriminator 1
	call	_ZN6Logger11getInstanceEv@PLT
	movq	%rax, %rdi
	.loc 1 291 255 discriminator 1
	leaq	.LC52(%rip), %r8
	movl	$291, %ecx
	leaq	.LC19(%rip), %rax
	movq	%rax, %rdx
	leaq	.LC20(%rip), %rax
	movq	%rax, %rsi
	movl	$0, %eax
	call	_ZN6Logger3logEPKcz@PLT
	.loc 1 291 345 discriminator 1
	leaq	.LC52(%rip), %rax
	movq	%rax, %rcx
	movl	$291, %edx
	leaq	.LC19(%rip), %rax
	movq	%rax, %rsi
	leaq	.LC20(%rip), %rax
	movq	%rax, %rdi
	movl	$0, %eax
	call	printf@PLT
	.loc 1 291 448 discriminator 1
	call	_ZN6Logger11getInstanceEv@PLT
	movq	%rax, %rbx
	.loc 1 291 454 discriminator 1
	movl	$14, %edi
	call	strerror@PLT
	movq	%rax, %rcx
	movl	$14, %edx
	leaq	.LC21(%rip), %rax
	movq	%rax, %rsi
	movq	%rbx, %rdi
	movl	$0, %eax
	call	_ZN6Logger3logEPKcz@PLT
	.loc 1 291 27 discriminator 1
	call	_ZN6Logger11getInstanceEv@PLT
	movq	%rax, %rdi
	.loc 1 291 33 discriminator 1
	movl	$291, %ecx
	leaq	.LC53(%rip), %rax
	movq	%rax, %rdx
	leaq	.LC22(%rip), %rax
	movq	%rax, %rsi
	movl	$0, %eax
	call	_ZN6Logger3logEPKcz@PLT
	.loc 1 291 92 discriminator 1
	leaq	.LC23(%rip), %rax
	movq	%rax, %rdi
	call	system@PLT
	.loc 1 291 115 discriminator 1
	movl	$-111, %eax
	jmp	.L120
.L119:
.LBB12:
	.loc 1 293 14
	movl	$0, -20(%rbp)
	.loc 1 293 5
	jmp	.L121
.L124:
	.loc 1 294 43
	movl	-20(%rbp), %eax
	cltq
	leaq	0(,%rax,8), %rdx
	leaq	_ZL14INITIALIZATORS(%rip), %rax
	addq	%rdx, %rax
	movq	%rax, %rdx
	shrq	$3, %rdx
	addq	$2147450880, %rdx
	movzbl	(%rdx), %edx
	testb	%dl, %dl
	je	.L122
	movq	%rax, %rdi
	call	__asan_report_load8@PLT
.L122:
	movl	-20(%rbp), %eax
	cltq
	leaq	0(,%rax,8), %rdx
	leaq	_ZL14INITIALIZATORS(%rip), %rax
	movq	(%rdx,%rax), %rdx
	.loc 1 294 21
	movq	-40(%rbp), %rax
	movq	%rdx, %rsi
	movq	%rax, %rdi
	call	_Z7stricmpPKcS0_@PLT
	.loc 1 294 13
	testl	%eax, %eax
	sete	%al
	.loc 1 294 9
	testb	%al, %al
	je	.L123
	.loc 1 295 20
	movl	-20(%rbp), %eax
	jmp	.L120
.L123:
	.loc 1 293 5 discriminator 2
	addl	$1, -20(%rbp)
.L121:
	.loc 1 293 23 discriminator 1
	cmpl	$1, -20(%rbp)
	jle	.L124
.LBE12:
	.loc 1 297 12
	movl	$-111, %eax
.L120:
	.loc 1 298 5
	movq	-8(%rbp), %rbx
	leave
	.cfi_def_cfa 7, 8
	ret
	.cfi_endproc
.LFE2869:
	.size	_ZL15IsInitializatorPKc, .-_ZL15IsInitializatorPKc
	.section	.rodata
	.align 32
.LC54:
	.string	"int IsFunctionRetType(const char*)"
	.zero	61
	.align 32
.LC55:
	.string	"IsFunctionRetType"
	.zero	46
	.text
	.type	_ZL17IsFunctionRetTypePKc, @function
_ZL17IsFunctionRetTypePKc:
.LASANPC2870:
.LFB2870:
	.loc 1 301 5
	.cfi_startproc
	endbr64
	pushq	%rbp
	.cfi_def_cfa_offset 16
	.cfi_offset 6, -16
	movq	%rsp, %rbp
	.cfi_def_cfa_register 6
	pushq	%rbx
	subq	$40, %rsp
	.cfi_offset 3, -24
	movq	%rdi, -40(%rbp)
	.loc 1 302 10
	cmpq	$0, -40(%rbp)
	jne	.L126
	.loc 1 302 43 discriminator 1
	call	_ZN6Logger11getInstanceEv@PLT
	movq	%rax, %rcx
	.loc 1 302 49 discriminator 1
	leaq	.LC49(%rip), %rax
	movq	%rax, %rdx
	leaq	.LC16(%rip), %rax
	movq	%rax, %rsi
	movq	%rcx, %rdi
	movl	$0, %eax
	call	_ZN6Logger3logEPKcz@PLT
	.loc 1 302 105 discriminator 1
	leaq	.LC49(%rip), %rax
	movq	%rax, %rsi
	leaq	.LC17(%rip), %rax
	movq	%rax, %rdi
	movl	$0, %eax
	call	printf@PLT
	.loc 1 302 249 discriminator 1
	call	_ZN6Logger11getInstanceEv@PLT
	movq	%rax, %rdi
	.loc 1 302 255 discriminator 1
	leaq	.LC54(%rip), %r8
	movl	$302, %ecx
	leaq	.LC19(%rip), %rax
	movq	%rax, %rdx
	leaq	.LC20(%rip), %rax
	movq	%rax, %rsi
	movl	$0, %eax
	call	_ZN6Logger3logEPKcz@PLT
	.loc 1 302 345 discriminator 1
	leaq	.LC54(%rip), %rax
	movq	%rax, %rcx
	movl	$302, %edx
	leaq	.LC19(%rip), %rax
	movq	%rax, %rsi
	leaq	.LC20(%rip), %rax
	movq	%rax, %rdi
	movl	$0, %eax
	call	printf@PLT
	.loc 1 302 448 discriminator 1
	call	_ZN6Logger11getInstanceEv@PLT
	movq	%rax, %rbx
	.loc 1 302 454 discriminator 1
	movl	$14, %edi
	call	strerror@PLT
	movq	%rax, %rcx
	movl	$14, %edx
	leaq	.LC21(%rip), %rax
	movq	%rax, %rsi
	movq	%rbx, %rdi
	movl	$0, %eax
	call	_ZN6Logger3logEPKcz@PLT
	.loc 1 302 27 discriminator 1
	call	_ZN6Logger11getInstanceEv@PLT
	movq	%rax, %rdi
	.loc 1 302 33 discriminator 1
	movl	$302, %ecx
	leaq	.LC55(%rip), %rax
	movq	%rax, %rdx
	leaq	.LC22(%rip), %rax
	movq	%rax, %rsi
	movl	$0, %eax
	call	_ZN6Logger3logEPKcz@PLT
	.loc 1 302 92 discriminator 1
	leaq	.LC23(%rip), %rax
	movq	%rax, %rdi
	call	system@PLT
	.loc 1 302 115 discriminator 1
	movl	$-333, %eax
	jmp	.L127
.L126:
.LBB13:
	.loc 1 304 14
	movl	$0, -20(%rbp)
	.loc 1 304 5
	jmp	.L128
.L131:
	.loc 1 305 47
	movl	-20(%rbp), %eax
	cltq
	leaq	0(,%rax,8), %rdx
	leaq	_ZL18FUNCTION_RET_TYPES(%rip), %rax
	addq	%rdx, %rax
	movq	%rax, %rdx
	shrq	$3, %rdx
	addq	$2147450880, %rdx
	movzbl	(%rdx), %edx
	testb	%dl, %dl
	je	.L129
	movq	%rax, %rdi
	call	__asan_report_load8@PLT
.L129:
	movl	-20(%rbp), %eax
	cltq
	leaq	0(,%rax,8), %rdx
	leaq	_ZL18FUNCTION_RET_TYPES(%rip), %rax
	movq	(%rdx,%rax), %rdx
	.loc 1 305 21
	movq	-40(%rbp), %rax
	movq	%rdx, %rsi
	movq	%rax, %rdi
	call	_Z7stricmpPKcS0_@PLT
	.loc 1 305 13
	testl	%eax, %eax
	sete	%al
	.loc 1 305 9
	testb	%al, %al
	je	.L130
	.loc 1 306 20
	movl	-20(%rbp), %eax
	jmp	.L127
.L130:
	.loc 1 304 5 discriminator 2
	addl	$1, -20(%rbp)
.L128:
	.loc 1 304 23 discriminator 1
	cmpl	$1, -20(%rbp)
	jle	.L131
.LBE13:
	.loc 1 308 12
	movl	$-333, %eax
.L127:
	.loc 1 309 5
	movq	-8(%rbp), %rbx
	leave
	.cfi_def_cfa 7, 8
	ret
	.cfi_endproc
.LFE2870:
	.size	_ZL17IsFunctionRetTypePKc, .-_ZL17IsFunctionRetTypePKc
	.section	.rodata
	.align 32
.LC56:
	.string	"int IsNativeFunction(const char*)"
	.zero	62
	.align 32
.LC57:
	.string	"IsNativeFunction"
	.zero	47
	.text
	.type	_ZL16IsNativeFunctionPKc, @function
_ZL16IsNativeFunctionPKc:
.LASANPC2871:
.LFB2871:
	.loc 1 312 5
	.cfi_startproc
	endbr64
	pushq	%rbp
	.cfi_def_cfa_offset 16
	.cfi_offset 6, -16
	movq	%rsp, %rbp
	.cfi_def_cfa_register 6
	pushq	%rbx
	subq	$40, %rsp
	.cfi_offset 3, -24
	movq	%rdi, -40(%rbp)
	.loc 1 313 10
	cmpq	$0, -40(%rbp)
	jne	.L133
	.loc 1 313 43 discriminator 1
	call	_ZN6Logger11getInstanceEv@PLT
	movq	%rax, %rcx
	.loc 1 313 49 discriminator 1
	leaq	.LC49(%rip), %rax
	movq	%rax, %rdx
	leaq	.LC16(%rip), %rax
	movq	%rax, %rsi
	movq	%rcx, %rdi
	movl	$0, %eax
	call	_ZN6Logger3logEPKcz@PLT
	.loc 1 313 105 discriminator 1
	leaq	.LC49(%rip), %rax
	movq	%rax, %rsi
	leaq	.LC17(%rip), %rax
	movq	%rax, %rdi
	movl	$0, %eax
	call	printf@PLT
	.loc 1 313 249 discriminator 1
	call	_ZN6Logger11getInstanceEv@PLT
	movq	%rax, %rdi
	.loc 1 313 255 discriminator 1
	leaq	.LC56(%rip), %r8
	movl	$313, %ecx
	leaq	.LC19(%rip), %rax
	movq	%rax, %rdx
	leaq	.LC20(%rip), %rax
	movq	%rax, %rsi
	movl	$0, %eax
	call	_ZN6Logger3logEPKcz@PLT
	.loc 1 313 345 discriminator 1
	leaq	.LC56(%rip), %rax
	movq	%rax, %rcx
	movl	$313, %edx
	leaq	.LC19(%rip), %rax
	movq	%rax, %rsi
	leaq	.LC20(%rip), %rax
	movq	%rax, %rdi
	movl	$0, %eax
	call	printf@PLT
	.loc 1 313 448 discriminator 1
	call	_ZN6Logger11getInstanceEv@PLT
	movq	%rax, %rbx
	.loc 1 313 454 discriminator 1
	movl	$14, %edi
	call	strerror@PLT
	movq	%rax, %rcx
	movl	$14, %edx
	leaq	.LC21(%rip), %rax
	movq	%rax, %rsi
	movq	%rbx, %rdi
	movl	$0, %eax
	call	_ZN6Logger3logEPKcz@PLT
	.loc 1 313 27 discriminator 1
	call	_ZN6Logger11getInstanceEv@PLT
	movq	%rax, %rdi
	.loc 1 313 33 discriminator 1
	movl	$313, %ecx
	leaq	.LC57(%rip), %rax
	movq	%rax, %rdx
	leaq	.LC22(%rip), %rax
	movq	%rax, %rsi
	movl	$0, %eax
	call	_ZN6Logger3logEPKcz@PLT
	.loc 1 313 92 discriminator 1
	leaq	.LC23(%rip), %rax
	movq	%rax, %rdi
	call	system@PLT
	.loc 1 313 115 discriminator 1
	movl	$-222, %eax
	jmp	.L134
.L133:
.LBB14:
	.loc 1 315 14
	movl	$0, -20(%rbp)
	.loc 1 315 5
	jmp	.L135
.L138:
	.loc 1 316 45
	movl	-20(%rbp), %eax
	cltq
	leaq	0(,%rax,8), %rdx
	leaq	_ZL16NATIVE_FUNCTIONS(%rip), %rax
	addq	%rdx, %rax
	movq	%rax, %rdx
	shrq	$3, %rdx
	addq	$2147450880, %rdx
	movzbl	(%rdx), %edx
	testb	%dl, %dl
	je	.L136
	movq	%rax, %rdi
	call	__asan_report_load8@PLT
.L136:
	movl	-20(%rbp), %eax
	cltq
	leaq	0(,%rax,8), %rdx
	leaq	_ZL16NATIVE_FUNCTIONS(%rip), %rax
	movq	(%rdx,%rax), %rdx
	.loc 1 316 21
	movq	-40(%rbp), %rax
	movq	%rdx, %rsi
	movq	%rax, %rdi
	call	_Z7stricmpPKcS0_@PLT
	.loc 1 316 13
	testl	%eax, %eax
	sete	%al
	.loc 1 316 9
	testb	%al, %al
	je	.L137
	.loc 1 317 20
	movl	-20(%rbp), %eax
	jmp	.L134
.L137:
	.loc 1 315 5 discriminator 2
	addl	$1, -20(%rbp)
.L135:
	.loc 1 315 23 discriminator 1
	cmpl	$3, -20(%rbp)
	jle	.L138
.LBE14:
	.loc 1 319 12
	movl	$-222, %eax
.L134:
	.loc 1 320 5
	movq	-8(%rbp), %rbx
	leave
	.cfi_def_cfa 7, 8
	ret
	.cfi_endproc
.LFE2871:
	.size	_ZL16IsNativeFunctionPKc, .-_ZL16IsNativeFunctionPKc
	.type	_Z41__static_initialization_and_destruction_0ii, @function
_Z41__static_initialization_and_destruction_0ii:
.LASANPC3655:
.LFB3655:
	.loc 1 320 5
	.cfi_startproc
	endbr64
	pushq	%rbp
	.cfi_def_cfa_offset 16
	.cfi_offset 6, -16
	movq	%rsp, %rbp
	.cfi_def_cfa_register 6
	subq	$16, %rsp
	movl	%edi, -4(%rbp)
	movl	%esi, -8(%rbp)
	.loc 1 320 5
	cmpl	$1, -4(%rbp)
	jne	.L142
	.loc 1 320 5 is_stmt 0 discriminator 1
	leaq	.LC19(%rip), %rax
	movq	%rax, %rdi
	call	__asan_before_dynamic_init@PLT
	cmpl	$65535, -8(%rbp)
	jne	.L141
	.file 2 "/usr/include/c++/11/iostream"
	.loc 2 74 25 is_stmt 1
	leaq	_ZStL8__ioinit(%rip), %rax
	movq	%rax, %rdi
	call	_ZNSt8ios_base4InitC1Ev@PLT
	leaq	__dso_handle(%rip), %rax
	movq	%rax, %rdx
	leaq	_ZStL8__ioinit(%rip), %rax
	movq	%rax, %rsi
	movq	_ZNSt8ios_base4InitD1Ev@GOTPCREL(%rip), %rax
	movq	%rax, %rdi
	call	__cxa_atexit@PLT
.L141:
	.loc 2 74 25 is_stmt 0 discriminator 1
	call	__asan_after_dynamic_init@PLT
.L142:
	.loc 1 320 5 is_stmt 1
	nop
	leave
	.cfi_def_cfa 7, 8
	ret
	.cfi_endproc
.LFE3655:
	.size	_Z41__static_initialization_and_destruction_0ii, .-_Z41__static_initialization_and_destruction_0ii
	.type	_GLOBAL__sub_I__Z9TokenizerP7ProgramPKc, @function
_GLOBAL__sub_I__Z9TokenizerP7ProgramPKc:
.LASANPC3656:
.LFB3656:
	.loc 1 320 5
	.cfi_startproc
	endbr64
	pushq	%rbp
	.cfi_def_cfa_offset 16
	.cfi_offset 6, -16
	movq	%rsp, %rbp
	.cfi_def_cfa_register 6
	.loc 1 320 5
	movl	$65535, %esi
	movl	$1, %edi
	call	_Z41__static_initialization_and_destruction_0ii
	popq	%rbp
	.cfi_def_cfa 7, 8
	ret
	.cfi_endproc
.LFE3656:
	.size	_GLOBAL__sub_I__Z9TokenizerP7ProgramPKc, .-_GLOBAL__sub_I__Z9TokenizerP7ProgramPKc
	.section	.init_array,"aw"
	.align 8
	.quad	_GLOBAL__sub_I__Z9TokenizerP7ProgramPKc
	.section	.data.rel.local,"aw"
	.align 16
	.type	.LASANLOC1, @object
	.size	.LASANLOC1, 16
.LASANLOC1:
	.quad	.LC19
	.long	182
	.long	21
	.section	.rodata
	.align 8
.LC58:
	.string	"../ATC/RandomStuff/CommonEnums.h"
	.section	.data.rel.local
	.align 16
	.type	.LASANLOC2, @object
	.size	.LASANLOC2, 16
.LASANLOC2:
	.quad	.LC58
	.long	3
	.long	11
	.section	.rodata
.LC59:
	.string	"../ATC/Logger/LogConfig.h"
	.section	.data.rel.local
	.align 16
	.type	.LASANLOC3, @object
	.size	.LASANLOC3, 16
.LASANLOC3:
	.quad	.LC59
	.long	3
	.long	12
	.section	.rodata
.LC60:
	.string	"/usr/include/c++/11/iostream"
	.section	.data.rel.local
	.align 16
	.type	.LASANLOC4, @object
	.size	.LASANLOC4, 16
.LASANLOC4:
	.quad	.LC60
	.long	74
	.long	25
	.section	.rodata
.LC61:
	.string	"../Common/Grammar.h"
	.section	.data.rel.local
	.align 16
	.type	.LASANLOC5, @object
	.size	.LASANLOC5, 16
.LASANLOC5:
	.quad	.LC61
	.long	42
	.long	11
	.align 16
	.type	.LASANLOC6, @object
	.size	.LASANLOC6, 16
.LASANLOC6:
	.quad	.LC61
	.long	41
	.long	11
	.align 16
	.type	.LASANLOC7, @object
	.size	.LASANLOC7, 16
.LASANLOC7:
	.quad	.LC61
	.long	39
	.long	19
	.align 16
	.type	.LASANLOC8, @object
	.size	.LASANLOC8, 16
.LASANLOC8:
	.quad	.LC61
	.long	37
	.long	12
	.align 16
	.type	.LASANLOC9, @object
	.size	.LASANLOC9, 16
.LASANLOC9:
	.quad	.LC61
	.long	26
	.long	12
	.align 16
	.type	.LASANLOC10, @object
	.size	.LASANLOC10, 16
.LASANLOC10:
	.quad	.LC61
	.long	24
	.long	19
	.align 16
	.type	.LASANLOC11, @object
	.size	.LASANLOC11, 16
.LASANLOC11:
	.quad	.LC61
	.long	20
	.long	19
	.align 16
	.type	.LASANLOC12, @object
	.size	.LASANLOC12, 16
.LASANLOC12:
	.quad	.LC61
	.long	17
	.long	19
	.align 16
	.type	.LASANLOC13, @object
	.size	.LASANLOC13, 16
.LASANLOC13:
	.quad	.LC61
	.long	14
	.long	19
	.section	.rodata
	.align 8
.LC62:
	.string	"../Common/LexicalCtx/LexicalCtx.h"
	.section	.data.rel.local
	.align 16
	.type	.LASANLOC14, @object
	.size	.LASANLOC14, 16
.LASANLOC14:
	.quad	.LC62
	.long	30
	.long	11
	.align 16
	.type	.LASANLOC15, @object
	.size	.LASANLOC15, 16
.LASANLOC15:
	.quad	.LC62
	.long	29
	.long	11
	.align 16
	.type	.LASANLOC16, @object
	.size	.LASANLOC16, 16
.LASANLOC16:
	.quad	.LC62
	.long	27
	.long	11
	.align 16
	.type	.LASANLOC17, @object
	.size	.LASANLOC17, 16
.LASANLOC17:
	.quad	.LC62
	.long	26
	.long	11
	.align 16
	.type	.LASANLOC18, @object
	.size	.LASANLOC18, 16
.LASANLOC18:
	.quad	.LC62
	.long	25
	.long	11
	.align 16
	.type	.LASANLOC19, @object
	.size	.LASANLOC19, 16
.LASANLOC19:
	.quad	.LC62
	.long	24
	.long	11
	.align 16
	.type	.LASANLOC20, @object
	.size	.LASANLOC20, 16
.LASANLOC20:
	.quad	.LC62
	.long	23
	.long	11
	.section	.rodata
.LC63:
	.string	"../ATC/Buffer/my_buffer.h"
	.section	.data.rel.local
	.align 16
	.type	.LASANLOC21, @object
	.size	.LASANLOC21, 16
.LASANLOC21:
	.quad	.LC63
	.long	32
	.long	11
	.section	.rodata
	.align 8
.LC64:
	.string	"../Common/Structures/Tabels/Tabels.h"
	.section	.data.rel.local
	.align 16
	.type	.LASANLOC22, @object
	.size	.LASANLOC22, 16
.LASANLOC22:
	.quad	.LC64
	.long	8
	.long	11
	.align 16
	.type	.LASANLOC23, @object
	.size	.LASANLOC23, 16
.LASANLOC23:
	.quad	.LC64
	.long	7
	.long	11
	.section	.rodata
.LC65:
	.string	"word"
.LC66:
	.string	"CRINGE"
.LC67:
	.string	"STD_LOG_NAME"
.LC68:
	.string	"__ioinit"
.LC69:
	.string	"MAX_WORD_LENGTH"
.LC70:
	.string	"MAX_FUNCTION_NAME_LENGTH"
.LC71:
	.string	"MAIN_NAME"
.LC72:
	.string	"COMMENT"
.LC73:
	.string	"OPERATORS"
.LC74:
	.string	"FUNCTION_RET_TYPES"
.LC75:
	.string	"INITIALIZATORS"
.LC76:
	.string	"NATIVE_FUNCTIONS"
.LC77:
	.string	"INSTRUCTIONS"
.LC78:
	.string	"START_NUMBER_OF_STRINGS"
.LC79:
	.string	"START_NUMBER_OF_TOKENS"
.LC80:
	.string	"NOT_A_NATIVE_FUNCTION"
.LC81:
	.string	"NOT_A_RET_TYPE"
.LC82:
	.string	"NOT_A_INITIALIZATOR"
.LC83:
	.string	"NOT_A_INSTRUCTION"
.LC84:
	.string	"NOT_A_NAME"
.LC85:
	.string	"INDENT_SIZE"
.LC86:
	.string	"NOT_A_LABEL"
.LC87:
	.string	"NOT_DECLARED"
.LC88:
	.string	"*.LC46"
.LC89:
	.string	"*.LC53"
.LC90:
	.string	"*.LC5"
.LC91:
	.string	"*.LC14"
.LC92:
	.string	"*.LC8"
.LC93:
	.string	"*.LC52"
.LC94:
	.string	"*.LC6"
.LC95:
	.string	"*.LC28"
.LC96:
	.string	"*.LC10"
.LC97:
	.string	"*.LC16"
.LC98:
	.string	"*.LC47"
.LC99:
	.string	"*.LC24"
.LC100:
	.string	"*.LC20"
.LC101:
	.string	"*.LC15"
.LC102:
	.string	"*.LC2"
.LC103:
	.string	"*.LC11"
.LC104:
	.string	"*.LC38"
.LC105:
	.string	"*.LC40"
.LC106:
	.string	"*.LC35"
.LC107:
	.string	"*.LC57"
.LC108:
	.string	"*.LC49"
.LC109:
	.string	"*.LC37"
.LC110:
	.string	"*.LC19"
.LC111:
	.string	"*.LC9"
.LC112:
	.string	"*.LC56"
.LC113:
	.string	"*.LC54"
.LC114:
	.string	"*.LC29"
.LC115:
	.string	"*.LC23"
.LC116:
	.string	"*.LC41"
.LC117:
	.string	"*.LC55"
.LC118:
	.string	"*.LC3"
.LC119:
	.string	"*.LC45"
.LC120:
	.string	"*.LC43"
.LC121:
	.string	"*.LC32"
.LC122:
	.string	"*.LC18"
.LC123:
	.string	"*.LC27"
.LC124:
	.string	"*.LC7"
.LC125:
	.string	"*.LC39"
.LC126:
	.string	"*.LC48"
.LC127:
	.string	"*.LC17"
.LC128:
	.string	"*.LC21"
.LC129:
	.string	"*.LC26"
.LC130:
	.string	"*.LC34"
.LC131:
	.string	"*.LC42"
.LC132:
	.string	"*.LC1"
.LC133:
	.string	"*.LC4"
.LC134:
	.string	"*.LC22"
.LC135:
	.string	"*.LC30"
.LC136:
	.string	"*.LC12"
.LC137:
	.string	"*.LC50"
.LC138:
	.string	"*.LC33"
.LC139:
	.string	"*.LC0"
.LC140:
	.string	"*.LC25"
.LC141:
	.string	"*.LC51"
	.section	.data.rel.local
	.align 32
	.type	.LASAN0, @object
	.size	.LASAN0, 4928
.LASAN0:
	.quad	_ZZL8SetTokenP6BufferP5TokenE4word
	.quad	16
	.quad	64
	.quad	.LC65
	.quad	.LC19
	.quad	0
	.quad	.LASANLOC1
	.quad	0
	.quad	_ZL6CRINGE
	.quad	4
	.quad	64
	.quad	.LC66
	.quad	.LC19
	.quad	0
	.quad	.LASANLOC2
	.quad	0
	.quad	_ZL12STD_LOG_NAME
	.quad	18
	.quad	64
	.quad	.LC67
	.quad	.LC19
	.quad	0
	.quad	.LASANLOC3
	.quad	0
	.quad	_ZStL8__ioinit
	.quad	1
	.quad	64
	.quad	.LC68
	.quad	.LC19
	.quad	1
	.quad	.LASANLOC4
	.quad	0
	.quad	_ZL15MAX_WORD_LENGTH
	.quad	4
	.quad	64
	.quad	.LC69
	.quad	.LC19
	.quad	0
	.quad	.LASANLOC5
	.quad	0
	.quad	_ZL24MAX_FUNCTION_NAME_LENGTH
	.quad	4
	.quad	64
	.quad	.LC70
	.quad	.LC19
	.quad	0
	.quad	.LASANLOC6
	.quad	0
	.quad	_ZL9MAIN_NAME
	.quad	8
	.quad	64
	.quad	.LC71
	.quad	.LC19
	.quad	0
	.quad	.LASANLOC7
	.quad	0
	.quad	_ZL7COMMENT
	.quad	1
	.quad	64
	.quad	.LC72
	.quad	.LC19
	.quad	0
	.quad	.LASANLOC8
	.quad	0
	.quad	_ZL9OPERATORS
	.quad	8
	.quad	64
	.quad	.LC73
	.quad	.LC19
	.quad	0
	.quad	.LASANLOC9
	.quad	0
	.quad	_ZL18FUNCTION_RET_TYPES
	.quad	16
	.quad	64
	.quad	.LC74
	.quad	.LC19
	.quad	0
	.quad	.LASANLOC10
	.quad	0
	.quad	_ZL14INITIALIZATORS
	.quad	16
	.quad	64
	.quad	.LC75
	.quad	.LC19
	.quad	0
	.quad	.LASANLOC11
	.quad	0
	.quad	_ZL16NATIVE_FUNCTIONS
	.quad	32
	.quad	64
	.quad	.LC76
	.quad	.LC19
	.quad	0
	.quad	.LASANLOC12
	.quad	0
	.quad	_ZL12INSTRUCTIONS
	.quad	32
	.quad	64
	.quad	.LC77
	.quad	.LC19
	.quad	0
	.quad	.LASANLOC13
	.quad	0
	.quad	_ZL23START_NUMBER_OF_STRINGS
	.quad	4
	.quad	64
	.quad	.LC78
	.quad	.LC19
	.quad	0
	.quad	.LASANLOC14
	.quad	0
	.quad	_ZL22START_NUMBER_OF_TOKENS
	.quad	4
	.quad	64
	.quad	.LC79
	.quad	.LC19
	.quad	0
	.quad	.LASANLOC15
	.quad	0
	.quad	_ZL21NOT_A_NATIVE_FUNCTION
	.quad	4
	.quad	64
	.quad	.LC80
	.quad	.LC19
	.quad	0
	.quad	.LASANLOC16
	.quad	0
	.quad	_ZL14NOT_A_RET_TYPE
	.quad	4
	.quad	64
	.quad	.LC81
	.quad	.LC19
	.quad	0
	.quad	.LASANLOC17
	.quad	0
	.quad	_ZL19NOT_A_INITIALIZATOR
	.quad	4
	.quad	64
	.quad	.LC82
	.quad	.LC19
	.quad	0
	.quad	.LASANLOC18
	.quad	0
	.quad	_ZL17NOT_A_INSTRUCTION
	.quad	4
	.quad	64
	.quad	.LC83
	.quad	.LC19
	.quad	0
	.quad	.LASANLOC19
	.quad	0
	.quad	_ZL10NOT_A_NAME
	.quad	4
	.quad	64
	.quad	.LC84
	.quad	.LC19
	.quad	0
	.quad	.LASANLOC20
	.quad	0
	.quad	_ZL11INDENT_SIZE
	.quad	4
	.quad	64
	.quad	.LC85
	.quad	.LC19
	.quad	0
	.quad	.LASANLOC21
	.quad	0
	.quad	_ZL11NOT_A_LABEL
	.quad	4
	.quad	64
	.quad	.LC86
	.quad	.LC19
	.quad	0
	.quad	.LASANLOC22
	.quad	0
	.quad	_ZL12NOT_DECLARED
	.quad	4
	.quad	64
	.quad	.LC87
	.quad	.LC19
	.quad	0
	.quad	.LASANLOC23
	.quad	0
	.quad	.LC46
	.quad	14
	.quad	64
	.quad	.LC88
	.quad	.LC19
	.quad	0
	.quad	0
	.quad	0
	.quad	.LC53
	.quad	16
	.quad	64
	.quad	.LC89
	.quad	.LC19
	.quad	0
	.quad	0
	.quad	0
	.quad	.LC5
	.quad	4
	.quad	64
	.quad	.LC90
	.quad	.LC19
	.quad	0
	.quad	0
	.quad	0
	.quad	.LC14
	.quad	10
	.quad	64
	.quad	.LC91
	.quad	.LC19
	.quad	0
	.quad	0
	.quad	0
	.quad	.LC8
	.quad	7
	.quad	64
	.quad	.LC92
	.quad	.LC19
	.quad	0
	.quad	0
	.quad	0
	.quad	.LC52
	.quad	33
	.quad	96
	.quad	.LC93
	.quad	.LC19
	.quad	0
	.quad	0
	.quad	0
	.quad	.LC6
	.quad	4
	.quad	64
	.quad	.LC94
	.quad	.LC19
	.quad	0
	.quad	0
	.quad	0
	.quad	.LC28
	.quad	9
	.quad	64
	.quad	.LC95
	.quad	.LC19
	.quad	0
	.quad	0
	.quad	0
	.quad	.LC10
	.quad	7
	.quad	64
	.quad	.LC96
	.quad	.LC19
	.quad	0
	.quad	0
	.quad	0
	.quad	.LC16
	.quad	37
	.quad	96
	.quad	.LC97
	.quad	.LC19
	.quad	0
	.quad	0
	.quad	0
	.quad	.LC47
	.quad	12
	.quad	64
	.quad	.LC98
	.quad	.LC19
	.quad	0
	.quad	0
	.quad	0
	.quad	.LC24
	.quad	31
	.quad	64
	.quad	.LC99
	.quad	.LC19
	.quad	0
	.quad	0
	.quad	0
	.quad	.LC20
	.quad	22
	.quad	64
	.quad	.LC100
	.quad	.LC19
	.quad	0
	.quad	0
	.quad	0
	.quad	.LC15
	.quad	8
	.quad	64
	.quad	.LC101
	.quad	.LC19
	.quad	0
	.quad	0
	.quad	0
	.quad	.LC2
	.quad	6
	.quad	64
	.quad	.LC102
	.quad	.LC19
	.quad	0
	.quad	0
	.quad	0
	.quad	.LC11
	.quad	5
	.quad	64
	.quad	.LC103
	.quad	.LC19
	.quad	0
	.quad	0
	.quad	0
	.quad	.LC38
	.quad	15
	.quad	64
	.quad	.LC104
	.quad	.LC19
	.quad	0
	.quad	0
	.quad	0
	.quad	.LC40
	.quad	30
	.quad	64
	.quad	.LC105
	.quad	.LC19
	.quad	0
	.quad	0
	.quad	0
	.quad	.LC35
	.quad	6
	.quad	64
	.quad	.LC106
	.quad	.LC19
	.quad	0
	.quad	0
	.quad	0
	.quad	.LC57
	.quad	17
	.quad	64
	.quad	.LC107
	.quad	.LC19
	.quad	0
	.quad	0
	.quad	0
	.quad	.LC49
	.quad	4
	.quad	64
	.quad	.LC108
	.quad	.LC19
	.quad	0
	.quad	0
	.quad	0
	.quad	.LC37
	.quad	24
	.quad	64
	.quad	.LC109
	.quad	.LC19
	.quad	0
	.quad	0
	.quad	0
	.quad	.LC19
	.quad	26
	.quad	64
	.quad	.LC110
	.quad	.LC19
	.quad	0
	.quad	0
	.quad	0
	.quad	.LC9
	.quad	4
	.quad	64
	.quad	.LC111
	.quad	.LC19
	.quad	0
	.quad	0
	.quad	0
	.quad	.LC56
	.quad	34
	.quad	96
	.quad	.LC112
	.quad	.LC19
	.quad	0
	.quad	0
	.quad	0
	.quad	.LC54
	.quad	35
	.quad	96
	.quad	.LC113
	.quad	.LC19
	.quad	0
	.quad	0
	.quad	0
	.quad	.LC29
	.quad	2
	.quad	64
	.quad	.LC114
	.quad	.LC19
	.quad	0
	.quad	0
	.quad	0
	.quad	.LC23
	.quad	10
	.quad	64
	.quad	.LC115
	.quad	.LC19
	.quad	0
	.quad	0
	.quad	0
	.quad	.LC41
	.quad	10
	.quad	64
	.quad	.LC116
	.quad	.LC19
	.quad	0
	.quad	0
	.quad	0
	.quad	.LC55
	.quad	18
	.quad	64
	.quad	.LC117
	.quad	.LC19
	.quad	0
	.quad	0
	.quad	0
	.quad	.LC3
	.quad	7
	.quad	64
	.quad	.LC118
	.quad	.LC19
	.quad	0
	.quad	0
	.quad	0
	.quad	.LC45
	.quad	34
	.quad	96
	.quad	.LC119
	.quad	.LC19
	.quad	0
	.quad	0
	.quad	0
	.quad	.LC43
	.quad	7
	.quad	64
	.quad	.LC120
	.quad	.LC19
	.quad	0
	.quad	0
	.quad	0
	.quad	.LC32
	.quad	4
	.quad	64
	.quad	.LC121
	.quad	.LC19
	.quad	0
	.quad	0
	.quad	0
	.quad	.LC18
	.quad	37
	.quad	96
	.quad	.LC122
	.quad	.LC19
	.quad	0
	.quad	0
	.quad	0
	.quad	.LC27
	.quad	26
	.quad	64
	.quad	.LC123
	.quad	.LC19
	.quad	0
	.quad	0
	.quad	0
	.quad	.LC7
	.quad	4
	.quad	64
	.quad	.LC124
	.quad	.LC19
	.quad	0
	.quad	0
	.quad	0
	.quad	.LC39
	.quad	1
	.quad	64
	.quad	.LC125
	.quad	.LC19
	.quad	0
	.quad	0
	.quad	0
	.quad	.LC48
	.quad	12
	.quad	64
	.quad	.LC126
	.quad	.LC19
	.quad	0
	.quad	0
	.quad	0
	.quad	.LC17
	.quad	64
	.quad	96
	.quad	.LC127
	.quad	.LC19
	.quad	0
	.quad	0
	.quad	0
	.quad	.LC21
	.quad	36
	.quad	96
	.quad	.LC128
	.quad	.LC19
	.quad	0
	.quad	0
	.quad	0
	.quad	.LC26
	.quad	7
	.quad	64
	.quad	.LC129
	.quad	.LC19
	.quad	0
	.quad	0
	.quad	0
	.quad	.LC34
	.quad	9
	.quad	64
	.quad	.LC130
	.quad	.LC19
	.quad	0
	.quad	0
	.quad	0
	.quad	.LC42
	.quad	5
	.quad	64
	.quad	.LC131
	.quad	.LC19
	.quad	0
	.quad	0
	.quad	0
	.quad	.LC1
	.quad	5
	.quad	64
	.quad	.LC132
	.quad	.LC19
	.quad	0
	.quad	0
	.quad	0
	.quad	.LC4
	.quad	5
	.quad	64
	.quad	.LC133
	.quad	.LC19
	.quad	0
	.quad	0
	.quad	0
	.quad	.LC22
	.quad	33
	.quad	96
	.quad	.LC134
	.quad	.LC19
	.quad	0
	.quad	0
	.quad	0
	.quad	.LC30
	.quad	23
	.quad	64
	.quad	.LC135
	.quad	.LC19
	.quad	0
	.quad	0
	.quad	0
	.quad	.LC12
	.quad	5
	.quad	64
	.quad	.LC136
	.quad	.LC19
	.quad	0
	.quad	0
	.quad	0
	.quad	.LC50
	.quad	31
	.quad	64
	.quad	.LC137
	.quad	.LC19
	.quad	0
	.quad	0
	.quad	0
	.quad	.LC33
	.quad	30
	.quad	64
	.quad	.LC138
	.quad	.LC19
	.quad	0
	.quad	0
	.quad	0
	.quad	.LC0
	.quad	3
	.quad	64
	.quad	.LC139
	.quad	.LC19
	.quad	0
	.quad	0
	.quad	0
	.quad	.LC25
	.quad	22
	.quad	64
	.quad	.LC140
	.quad	.LC19
	.quad	0
	.quad	0
	.quad	0
	.quad	.LC51
	.quad	14
	.quad	64
	.quad	.LC141
	.quad	.LC19
	.quad	0
	.quad	0
	.quad	0
	.text
	.type	_sub_D_00099_0, @function
_sub_D_00099_0:
.LFB3657:
	.cfi_startproc
	endbr64
	pushq	%rbp
	.cfi_def_cfa_offset 16
	.cfi_offset 6, -16
	movq	%rsp, %rbp
	.cfi_def_cfa_register 6
	movl	$77, %esi
	leaq	.LASAN0(%rip), %rax
	movq	%rax, %rdi
	call	__asan_unregister_globals@PLT
	popq	%rbp
	.cfi_def_cfa 7, 8
	ret
	.cfi_endproc
.LFE3657:
	.size	_sub_D_00099_0, .-_sub_D_00099_0
	.section	.fini_array.00099,"aw"
	.align 8
	.quad	_sub_D_00099_0
	.text
	.type	_sub_I_00099_1, @function
_sub_I_00099_1:
.LFB3658:
	.cfi_startproc
	endbr64
	pushq	%rbp
	.cfi_def_cfa_offset 16
	.cfi_offset 6, -16
	movq	%rsp, %rbp
	.cfi_def_cfa_register 6
	call	__asan_init@PLT
	call	__asan_version_mismatch_check_v8@PLT
	movl	$77, %esi
	leaq	.LASAN0(%rip), %rax
	movq	%rax, %rdi
	call	__asan_register_globals@PLT
	popq	%rbp
	.cfi_def_cfa 7, 8
	ret
	.cfi_endproc
.LFE3658:
	.size	_sub_I_00099_1, .-_sub_I_00099_1
	.section	.init_array.00099,"aw"
	.align 8
	.quad	_sub_I_00099_1
	.section	.rodata
	.align 8
.LC36:
	.long	0
	.long	2146959360
	.text
.Letext0:
	.file 3 "../Common/Structures/Token/Token.h"
	.file 4 "../Common/Structures/Tabels/Tabels.h"
	.file 5 "../Common/Structures/Program/Program.h"
	.file 6 "<built-in>"
	.file 7 "/usr/lib/gcc/x86_64-linux-gnu/11/include/stddef.h"
	.file 8 "/usr/include/x86_64-linux-gnu/bits/types.h"
	.file 9 "/usr/include/x86_64-linux-gnu/bits/types/__mbstate_t.h"
	.file 10 "/usr/include/x86_64-linux-gnu/bits/types/__fpos_t.h"
	.file 11 "/usr/include/x86_64-linux-gnu/bits/types/__FILE.h"
	.file 12 "/usr/include/x86_64-linux-gnu/bits/types/struct_FILE.h"
	.file 13 "/usr/include/x86_64-linux-gnu/bits/types/FILE.h"
	.file 14 "/usr/include/stdio.h"
	.file 15 "/usr/include/c++/11/cmath"
	.file 16 "/usr/include/c++/11/type_traits"
	.file 17 "/usr/include/c++/11/concepts"
	.file 18 "/usr/include/c++/11/bits/iterator_concepts.h"
	.file 19 "/usr/include/c++/11/bits/ranges_cmp.h"
	.file 20 "/usr/include/c++/11/compare"
	.file 21 "/usr/include/c++/11/debug/debug.h"
	.file 22 "/usr/include/c++/11/bits/std_abs.h"
	.file 23 "/usr/include/c++/11/cstdlib"
	.file 24 "/usr/include/c++/11/cwchar"
	.file 25 "/usr/include/c++/11/bits/exception_ptr.h"
	.file 26 "/usr/include/x86_64-linux-gnu/c++/11/bits/c++config.h"
	.file 27 "/usr/include/c++/11/cstdint"
	.file 28 "/usr/include/c++/11/clocale"
	.file 29 "/usr/include/c++/11/numbers"
	.file 30 "/usr/include/c++/11/cstdio"
	.file 31 "/usr/include/c++/11/bits/ios_base.h"
	.file 32 "/usr/include/c++/11/cwctype"
	.file 33 "/usr/include/c++/11/bits/predefined_ops.h"
	.file 34 "/usr/include/math.h"
	.file 35 "/usr/include/stdlib.h"
	.file 36 "/usr/include/x86_64-linux-gnu/bits/stdint-intn.h"
	.file 37 "/usr/include/c++/11/bits/ptr_traits.h"
	.file 38 "/usr/include/c++/11/math.h"
	.file 39 "/usr/include/c++/11/stdlib.h"
	.file 40 "../ATC/Buffer/my_buffer.h"
	.file 41 "../Common/LexicalCtx/LexicalCtx.h"
	.file 42 "../Common/Grammar.h"
	.file 43 "/usr/include/x86_64-linux-gnu/bits/types/wint_t.h"
	.file 44 "/usr/include/x86_64-linux-gnu/bits/types/mbstate_t.h"
	.file 45 "/usr/include/wchar.h"
	.file 46 "/usr/include/x86_64-linux-gnu/bits/types/struct_tm.h"
	.file 47 "/usr/include/x86_64-linux-gnu/bits/stdint-uintn.h"
	.file 48 "/usr/include/stdint.h"
	.file 49 "/usr/include/locale.h"
	.file 50 "/usr/include/x86_64-linux-gnu/bits/wctype-wchar.h"
	.file 51 "/usr/include/wctype.h"
	.file 52 "../ATC/Logger/LogConfig.h"
	.file 53 "../ATC/Logger/FunctionLogger.h"
	.file 54 "../ATC/RandomStuff/CommonEnums.h"
	.file 55 "/usr/include/ctype.h"
	.file 56 "../ATC/RandomStuff/SomeStuff.h"
	.file 57 "../ATC/Logger/Logger.h"
	.file 58 "/usr/include/string.h"
	.file 59 "../Common/Utils/LangUtils.h"
	.file 60 "../ATC/Utils/Utils.h"
	.file 61 "/usr/include/c++/11/bits/algorithmfwd.h"
	.section	.data.rel.local.DW.ref.__gxx_personality_v0,"awG",@progbits,DW.ref.__gxx_personality_v0,comdat
	.align 8
	.type	DW.ref.__gxx_personality_v0, @object
	.size	DW.ref.__gxx_personality_v0, 8
DW.ref.__gxx_personality_v0:
	.quad	__gxx_personality_v0
	.hidden	__dso_handle
	.ident	"GCC: (Ubuntu 11.3.0-1ubuntu1~22.04) 11.3.0"
	.section	.note.GNU-stack,"",@progbits
	.section	.note.gnu.property,"a"
	.align 8
	.long	1f - 0f
	.long	4f - 1f
	.long	5
0:
	.string	"GNU"
1:
	.align 8
	.long	0xc0000002
	.long	3f - 2f
2:
	.long	0x3
3:
	.align 8
4:
