	.file	"my_buffer.cpp"
	.text
.Ltext0:
	.file 0 "/home/arsenyfucker/Cprojects/Lang/Translator/FrontEnd" "../ATC/Buffer/my_buffer.cpp"
	.section	.rodata
	.align 32
	.type	_ZL11INDENT_SIZE, @object
	.size	_ZL11INDENT_SIZE, 4
_ZL11INDENT_SIZE:
	.long	2
	.zero	60
	.bss
	.align 32
	.type	_ZStL8__ioinit, @object
	.size	_ZStL8__ioinit, 1
_ZStL8__ioinit:
	.zero	64
	.section	.rodata
	.align 32
	.type	_ZL12STD_LOG_NAME, @object
	.size	_ZL12STD_LOG_NAME, 18
_ZL12STD_LOG_NAME:
	.string	"./logs/stdlog.ars"
	.zero	46
	.align 32
	.type	_ZL6CRINGE, @object
	.size	_ZL6CRINGE, 4
_ZL6CRINGE:
	.long	3565
	.zero	60
	.globl	__asan_stack_malloc_2
.LC0:
	.string	"1 48 144 8 txt_data"
	.align 32
.LC1:
	.string	"rb"
	.zero	61
	.align 32
.LC2:
	.string	"GetSrcFile"
	.zero	53
	.align 32
.LC3:
	.string	"../ATC/Buffer/my_buffer.cpp"
	.zero	36
	.text
	.globl	_Z10GetSrcFilePKc
	.type	_Z10GetSrcFilePKc, @function
_Z10GetSrcFilePKc:
.LASANPC2270:
.LFB2270:
	.file 1 "../ATC/Buffer/my_buffer.cpp"
	.loc 1 11 5
	.cfi_startproc
	endbr64
	pushq	%rbp
	.cfi_def_cfa_offset 16
	.cfi_offset 6, -16
	movq	%rsp, %rbp
	.cfi_def_cfa_register 6
	pushq	%r14
	pushq	%r13
	pushq	%r12
	pushq	%rbx
	subq	$304, %rsp
	.cfi_offset 14, -24
	.cfi_offset 13, -32
	.cfi_offset 12, -40
	.cfi_offset 3, -48
	movq	%rdi, -328(%rbp)
	leaq	-288(%rbp), %rbx
	movq	%rbx, %r14
	cmpl	$0, __asan_option_detect_stack_use_after_return(%rip)
	je	.L1
	movl	$256, %edi
	call	__asan_stack_malloc_2@PLT
	testq	%rax, %rax
	je	.L1
	movq	%rax, %rbx
.L1:
	leaq	256(%rbx), %rax
	movq	%rax, %r13
	movq	$1102416563, (%rbx)
	leaq	.LC0(%rip), %rax
	movq	%rax, 8(%rbx)
	leaq	.LASANPC2270(%rip), %rax
	movq	%rax, 16(%rbx)
	movq	%rbx, %r12
	shrq	$3, %r12
	movl	$-235802127, 2147450880(%r12)
	movl	$61937, 2147450884(%r12)
	movl	$-202116109, 2147450904(%r12)
	movl	$-202116109, 2147450908(%r12)
	.loc 1 12 5
	cmpq	$0, -328(%rbp)
	jne	.L5
	.loc 1 12 32 discriminator 1
	movl	$0, %eax
	jmp	.L15
.L5:
	.loc 1 14 22
	movq	-328(%rbp), %rax
	leaq	.LC1(%rip), %rdx
	movq	%rdx, %rsi
	movq	%rax, %rdi
	call	fopen@PLT
	movq	%rax, -312(%rbp)
	.loc 1 15 5
	cmpq	$0, -312(%rbp)
	jne	.L7
	.loc 1 16 15
	movl	$0, %eax
	jmp	.L15
.L7:
	.loc 1 19 9
	leaq	-208(%r13), %rdx
	movq	-328(%rbp), %rax
	movq	%rdx, %rsi
	movq	%rax, %rdi
	call	stat@PLT
	.loc 1 21 18
	leaq	-208(%r13), %rax
	addq	$48, %rax
	movq	%rax, %rdx
	shrq	$3, %rdx
	addq	$2147450880, %rdx
	movzbl	(%rdx), %edx
	testb	%dl, %dl
	je	.L8
	movq	%rax, %rdi
	call	__asan_report_load8@PLT
.L8:
	movq	-160(%r13), %rax
	.loc 1 21 5
	testq	%rax, %rax
	jg	.L9
	.loc 1 23 15
	movq	-312(%rbp), %rax
	movq	%rax, %rdi
	call	fclose@PLT
	.loc 1 24 15
	movl	$0, %eax
	jmp	.L15
.L9:
	.loc 1 27 51
	call	_ZN6Logger11getInstanceEv@PLT
	movq	%rax, %rdi
	.loc 1 27 72
	leaq	-208(%r13), %rax
	addq	$48, %rax
	movq	%rax, %rdx
	shrq	$3, %rdx
	addq	$2147450880, %rdx
	movzbl	(%rdx), %edx
	testb	%dl, %dl
	je	.L10
	movq	%rax, %rdi
	call	__asan_report_load8@PLT
.L10:
	.loc 1 27 72 is_stmt 0 discriminator 1
	movq	-160(%r13), %rax
	.loc 1 27 80 is_stmt 1 discriminator 1
	addq	$1, %rax
	.loc 1 27 62 discriminator 1
	movq	%rax, %rsi
	movl	$27, %r9d
	leaq	.LC2(%rip), %r8
	leaq	.LC3(%rip), %rax
	movq	%rax, %rcx
	movl	$1, %edx
	call	_ZN6Logger7CAL_LOGEmmPKcS1_i@PLT
	movq	%rax, -320(%rbp)
	.loc 1 28 5 discriminator 1
	cmpq	$0, -320(%rbp)
	jne	.L11
	.loc 1 29 15
	movl	$0, %eax
	jmp	.L15
.L11:
	.loc 1 31 69
	leaq	-208(%r13), %rax
	addq	$48, %rax
	movq	%rax, %rdx
	shrq	$3, %rdx
	addq	$2147450880, %rdx
	movzbl	(%rdx), %edx
	testb	%dl, %dl
	je	.L12
	movq	%rax, %rdi
	call	__asan_report_load8@PLT
.L12:
	movq	-160(%r13), %rax
	.loc 1 31 33
	movq	%rax, %rsi
	movq	-312(%rbp), %rdx
	movq	-320(%rbp), %rax
	movq	%rdx, %rcx
	movq	%rsi, %rdx
	movl	$1, %esi
	movq	%rax, %rdi
	call	fread@PLT
	movq	%rax, -304(%rbp)
	.loc 1 33 32
	movq	-304(%rbp), %rax
	leaq	1(%rax), %rdx
	movq	-320(%rbp), %rax
	movq	%rdx, %rsi
	movq	%rax, %rdi
	call	realloc@PLT
	movq	%rax, -296(%rbp)
	.loc 1 34 5
	cmpq	$0, -296(%rbp)
	je	.L13
	.loc 1 35 20
	movq	-296(%rbp), %rax
	movq	%rax, -320(%rbp)
.L13:
	.loc 1 37 28
	movq	-320(%rbp), %rdx
	movq	-304(%rbp), %rax
	leaq	(%rdx,%rax), %rcx
	.loc 1 37 30
	movq	%rcx, %rax
	movq	%rax, %rdx
	shrq	$3, %rdx
	addq	$2147450880, %rdx
	movzbl	(%rdx), %edx
	testb	%dl, %dl
	setne	%sil
	movq	%rax, %rdi
	andl	$7, %edi
	cmpb	%dl, %dil
	setge	%dl
	andl	%esi, %edx
	testb	%dl, %dl
	je	.L14
	movq	%rax, %rdi
	call	__asan_report_store1@PLT
.L14:
	movb	$0, (%rcx)
	.loc 1 39 11
	movq	-312(%rbp), %rax
	movq	%rax, %rdi
	call	fclose@PLT
	.loc 1 41 12
	movq	-320(%rbp), %rax
.L15:
	.loc 1 42 5 discriminator 1
	movq	%rax, %rdx
	.loc 1 11 5 discriminator 1
	cmpq	%rbx, %r14
	je	.L2
	.loc 1 11 5 is_stmt 0
	movq	$1172321806, (%rbx)
	movabsq	$-723401728380766731, %rsi
	movabsq	$-723401728380766731, %rdi
	movq	%rsi, 2147450880(%r12)
	movq	%rdi, 2147450888(%r12)
	movq	%rsi, 2147450896(%r12)
	movq	%rdi, 2147450904(%r12)
	movq	248(%rbx), %rax
	movb	$0, (%rax)
	jmp	.L3
.L2:
	movq	$0, 2147450880(%r12)
	movq	$0, 2147450904(%r12)
.L3:
	.loc 1 42 5 is_stmt 1
	movq	%rdx, %rax
	addq	$304, %rsp
	popq	%rbx
	popq	%r12
	popq	%r13
	popq	%r14
	popq	%rbp
	.cfi_def_cfa 7, 8
	ret
	.cfi_endproc
.LFE2270:
	.size	_Z10GetSrcFilePKc, .-_Z10GetSrcFilePKc
	.section	.rodata
	.align 32
.LC4:
	.string	"DivideBufferIntoLines"
	.zero	42
	.text
	.globl	_Z21DivideBufferIntoLinesPcm
	.type	_Z21DivideBufferIntoLinesPcm, @function
_Z21DivideBufferIntoLinesPcm:
.LASANPC2271:
.LFB2271:
	.loc 1 47 5
	.cfi_startproc
	endbr64
	pushq	%rbp
	.cfi_def_cfa_offset 16
	.cfi_offset 6, -16
	movq	%rsp, %rbp
	.cfi_def_cfa_register 6
	subq	$48, %rsp
	movq	%rdi, -40(%rbp)
	movq	%rsi, -48(%rbp)
	.loc 1 48 5
	cmpq	$0, -40(%rbp)
	jne	.L17
	.loc 1 48 33 discriminator 1
	movl	$0, %eax
	jmp	.L18
.L17:
	.loc 1 49 5
	cmpq	$0, -48(%rbp)
	jne	.L19
	.loc 1 49 33 discriminator 1
	movl	$0, %eax
	jmp	.L18
.L19:
	.loc 1 51 66
	call	_ZN6Logger11getInstanceEv@PLT
	movq	%rax, %rdi
	.loc 1 51 77
	movq	-48(%rbp), %rax
	addq	$1, %rax
	movl	$51, %r9d
	leaq	.LC4(%rip), %r8
	leaq	.LC3(%rip), %rdx
	movq	%rdx, %rcx
	movl	$8, %edx
	movq	%rax, %rsi
	call	_ZN6Logger7CAL_LOGEmmPKcS1_i@PLT
	movq	%rax, -8(%rbp)
	.loc 1 52 5
	cmpq	$0, -8(%rbp)
	jne	.L20
	.loc 1 52 36 discriminator 1
	movl	$0, %eax
	jmp	.L18
.L20:
	.loc 1 54 12
	movq	$0, -24(%rbp)
	.loc 1 55 9
	movl	$0, -28(%rbp)
	.loc 1 56 12
	movq	$0, -16(%rbp)
	.loc 1 58 5
	jmp	.L21
.L34:
	.loc 1 60 21
	movq	-40(%rbp), %rdx
	movq	-16(%rbp), %rax
	leaq	(%rdx,%rax), %rcx
	movq	%rcx, %rax
	movq	%rax, %rdx
	shrq	$3, %rdx
	addq	$2147450880, %rdx
	movzbl	(%rdx), %edx
	testb	%dl, %dl
	setne	%sil
	movq	%rax, %rdi
	andl	$7, %edi
	cmpb	%dl, %dil
	setge	%dl
	andl	%esi, %edx
	testb	%dl, %dl
	je	.L22
	movq	%rax, %rdi
	call	__asan_report_load1@PLT
.L22:
	movzbl	(%rcx), %eax
	.loc 1 60 9
	cmpb	$13, %al
	jne	.L23
	.loc 1 61 21
	movq	-40(%rbp), %rdx
	movq	-16(%rbp), %rax
	leaq	(%rdx,%rax), %rcx
	.loc 1 61 23
	movq	%rcx, %rax
	movq	%rax, %rdx
	shrq	$3, %rdx
	addq	$2147450880, %rdx
	movzbl	(%rdx), %edx
	testb	%dl, %dl
	setne	%sil
	movq	%rax, %rdi
	andl	$7, %edi
	cmpb	%dl, %dil
	setge	%dl
	andl	%esi, %edx
	testb	%dl, %dl
	je	.L24
	movq	%rax, %rdi
	call	__asan_report_store1@PLT
.L24:
	movb	$32, (%rcx)
.L23:
	.loc 1 63 21
	movq	-40(%rbp), %rdx
	movq	-16(%rbp), %rax
	leaq	(%rdx,%rax), %rcx
	movq	%rcx, %rax
	movq	%rax, %rdx
	shrq	$3, %rdx
	addq	$2147450880, %rdx
	movzbl	(%rdx), %edx
	testb	%dl, %dl
	setne	%sil
	movq	%rax, %rdi
	andl	$7, %edi
	cmpb	%dl, %dil
	setge	%dl
	andl	%esi, %edx
	testb	%dl, %dl
	je	.L25
	movq	%rax, %rdi
	call	__asan_report_load1@PLT
.L25:
	movzbl	(%rcx), %eax
	.loc 1 63 9
	cmpb	$10, %al
	jne	.L26
	.loc 1 65 21
	movq	-40(%rbp), %rdx
	movq	-16(%rbp), %rax
	leaq	(%rdx,%rax), %rcx
	.loc 1 65 23
	movq	%rcx, %rax
	movq	%rax, %rdx
	shrq	$3, %rdx
	addq	$2147450880, %rdx
	movzbl	(%rdx), %edx
	testb	%dl, %dl
	setne	%sil
	movq	%rax, %rdi
	andl	$7, %edi
	cmpb	%dl, %dil
	setge	%dl
	andl	%esi, %edx
	testb	%dl, %dl
	je	.L27
	movq	%rax, %rdi
	call	__asan_report_store1@PLT
.L27:
	movb	$0, (%rcx)
	.loc 1 66 55
	movl	-28(%rbp), %eax
	movslq	%eax, %rdx
	.loc 1 66 53
	movq	-16(%rbp), %rax
	subq	%rdx, %rax
	movq	%rax, %rcx
	.loc 1 66 37
	movq	-24(%rbp), %rax
	leaq	0(,%rax,8), %rdx
	movq	-8(%rbp), %rax
	addq	%rdx, %rax
	.loc 1 66 53
	movq	-40(%rbp), %rdx
	leaq	(%rcx,%rdx), %rsi
	.loc 1 66 39
	movq	%rax, %rdx
	movq	%rdx, %rcx
	shrq	$3, %rcx
	addq	$2147450880, %rcx
	movzbl	(%rcx), %ecx
	testb	%cl, %cl
	je	.L28
	movq	%rdx, %rdi
	call	__asan_report_store8@PLT
.L28:
	movq	%rsi, (%rax)
	.loc 1 68 42
	movl	$0, -28(%rbp)
	.loc 1 69 25
	addq	$1, -24(%rbp)
	jmp	.L29
.L26:
	.loc 1 72 28
	movq	-16(%rbp), %rax
	leaq	1(%rax), %rdx
	movq	-40(%rbp), %rax
	leaq	(%rdx,%rax), %rcx
	movq	%rcx, %rax
	movq	%rax, %rdx
	shrq	$3, %rdx
	addq	$2147450880, %rdx
	movzbl	(%rdx), %edx
	testb	%dl, %dl
	setne	%sil
	movq	%rax, %rdi
	andl	$7, %edi
	cmpb	%dl, %dil
	setge	%dl
	andl	%esi, %edx
	testb	%dl, %dl
	je	.L30
	movq	%rax, %rdi
	call	__asan_report_load1@PLT
.L30:
	movzbl	(%rcx), %eax
	.loc 1 72 14
	testb	%al, %al
	jne	.L31
	.loc 1 74 55
	movl	-28(%rbp), %eax
	movslq	%eax, %rdx
	.loc 1 74 53
	movq	-16(%rbp), %rax
	subq	%rdx, %rax
	movq	%rax, %rcx
	.loc 1 74 37
	movq	-24(%rbp), %rax
	leaq	0(,%rax,8), %rdx
	movq	-8(%rbp), %rax
	addq	%rdx, %rax
	.loc 1 74 53
	movq	-40(%rbp), %rdx
	leaq	(%rcx,%rdx), %rsi
	.loc 1 74 39
	movq	%rax, %rdx
	movq	%rdx, %rcx
	shrq	$3, %rcx
	addq	$2147450880, %rcx
	movzbl	(%rcx), %ecx
	testb	%cl, %cl
	je	.L32
	movq	%rdx, %rdi
	call	__asan_report_store8@PLT
.L32:
	movq	%rsi, (%rax)
	.loc 1 76 25
	addq	$1, -24(%rbp)
	.loc 1 77 42
	movl	$0, -28(%rbp)
	jmp	.L29
.L31:
	.loc 1 81 41
	addl	$1, -28(%rbp)
.L29:
	.loc 1 83 10
	addq	$1, -16(%rbp)
.L21:
	.loc 1 58 20
	movq	-40(%rbp), %rdx
	movq	-16(%rbp), %rax
	leaq	(%rdx,%rax), %rcx
	movq	%rcx, %rax
	movq	%rax, %rdx
	shrq	$3, %rdx
	addq	$2147450880, %rdx
	movzbl	(%rdx), %edx
	testb	%dl, %dl
	setne	%sil
	movq	%rax, %rdi
	andl	$7, %edi
	cmpb	%dl, %dil
	setge	%dl
	andl	%esi, %edx
	testb	%dl, %dl
	je	.L33
	movq	%rax, %rdi
	call	__asan_report_load1@PLT
.L33:
	movzbl	(%rcx), %eax
	.loc 1 58 22
	testb	%al, %al
	jne	.L34
	.loc 1 86 32
	movq	-48(%rbp), %rax
	leaq	0(,%rax,8), %rdx
	movq	-8(%rbp), %rax
	addq	%rdx, %rax
	.loc 1 86 34
	movq	%rax, %rdx
	movq	%rdx, %rcx
	shrq	$3, %rcx
	addq	$2147450880, %rcx
	movzbl	(%rcx), %ecx
	testb	%cl, %cl
	je	.L35
	movq	%rdx, %rdi
	call	__asan_report_store8@PLT
.L35:
	movq	$0, (%rax)
	.loc 1 88 12
	movq	-8(%rbp), %rax
.L18:
	.loc 1 89 5
	leave
	.cfi_def_cfa 7, 8
	ret
	.cfi_endproc
.LFE2271:
	.size	_Z21DivideBufferIntoLinesPcm, .-_Z21DivideBufferIntoLinesPcm
	.section	.rodata
	.align 32
.LC5:
	.string	"SplitBufferIntoLines"
	.zero	43
	.text
	.globl	_Z20SplitBufferIntoLinesPKcm
	.type	_Z20SplitBufferIntoLinesPKcm, @function
_Z20SplitBufferIntoLinesPKcm:
.LASANPC2272:
.LFB2272:
	.loc 1 92 5
	.cfi_startproc
	endbr64
	pushq	%rbp
	.cfi_def_cfa_offset 16
	.cfi_offset 6, -16
	movq	%rsp, %rbp
	.cfi_def_cfa_register 6
	subq	$48, %rsp
	movq	%rdi, -40(%rbp)
	movq	%rsi, -48(%rbp)
	.loc 1 93 5
	cmpq	$0, -40(%rbp)
	jne	.L37
	.loc 1 93 33 discriminator 1
	movl	$0, %eax
	jmp	.L38
.L37:
	.loc 1 94 5
	cmpq	$0, -48(%rbp)
	jne	.L39
	.loc 1 94 33 discriminator 1
	movl	$0, %eax
	jmp	.L38
.L39:
	.loc 1 96 66
	call	_ZN6Logger11getInstanceEv@PLT
	movq	%rax, %rdi
	.loc 1 96 77
	movq	-48(%rbp), %rax
	addq	$1, %rax
	movl	$96, %r9d
	leaq	.LC5(%rip), %r8
	leaq	.LC3(%rip), %rdx
	movq	%rdx, %rcx
	movl	$8, %edx
	movq	%rax, %rsi
	call	_ZN6Logger7CAL_LOGEmmPKcS1_i@PLT
	movq	%rax, -8(%rbp)
	.loc 1 97 5
	cmpq	$0, -8(%rbp)
	jne	.L40
	.loc 1 97 36 discriminator 1
	movl	$0, %eax
	jmp	.L38
.L40:
	.loc 1 99 12
	movq	$0, -24(%rbp)
	.loc 1 100 9
	movl	$0, -28(%rbp)
	.loc 1 101 12
	movq	$0, -16(%rbp)
	.loc 1 103 5
	jmp	.L41
.L50:
	.loc 1 105 21
	movq	-40(%rbp), %rdx
	movq	-16(%rbp), %rax
	leaq	(%rdx,%rax), %rcx
	movq	%rcx, %rax
	movq	%rax, %rdx
	shrq	$3, %rdx
	addq	$2147450880, %rdx
	movzbl	(%rdx), %edx
	testb	%dl, %dl
	setne	%sil
	movq	%rax, %rdi
	andl	$7, %edi
	cmpb	%dl, %dil
	setge	%dl
	andl	%esi, %edx
	testb	%dl, %dl
	je	.L42
	movq	%rax, %rdi
	call	__asan_report_load1@PLT
.L42:
	movzbl	(%rcx), %eax
	.loc 1 105 9
	cmpb	$10, %al
	jne	.L43
	.loc 1 107 55
	movl	-28(%rbp), %eax
	movslq	%eax, %rdx
	.loc 1 107 53
	movq	-16(%rbp), %rax
	subq	%rdx, %rax
	movq	%rax, %rcx
	.loc 1 107 37
	movq	-24(%rbp), %rax
	leaq	0(,%rax,8), %rdx
	movq	-8(%rbp), %rax
	addq	%rdx, %rax
	.loc 1 107 53
	movq	-40(%rbp), %rdx
	leaq	(%rcx,%rdx), %rsi
	.loc 1 107 39
	movq	%rax, %rdx
	movq	%rdx, %rcx
	shrq	$3, %rcx
	addq	$2147450880, %rcx
	movzbl	(%rcx), %ecx
	testb	%cl, %cl
	je	.L44
	movq	%rdx, %rdi
	call	__asan_report_store8@PLT
.L44:
	movq	%rsi, (%rax)
	.loc 1 109 42
	movl	$0, -28(%rbp)
	.loc 1 110 25
	addq	$1, -24(%rbp)
	jmp	.L45
.L43:
	.loc 1 113 28
	movq	-16(%rbp), %rax
	leaq	1(%rax), %rdx
	movq	-40(%rbp), %rax
	leaq	(%rdx,%rax), %rcx
	movq	%rcx, %rax
	movq	%rax, %rdx
	shrq	$3, %rdx
	addq	$2147450880, %rdx
	movzbl	(%rdx), %edx
	testb	%dl, %dl
	setne	%sil
	movq	%rax, %rdi
	andl	$7, %edi
	cmpb	%dl, %dil
	setge	%dl
	andl	%esi, %edx
	testb	%dl, %dl
	je	.L46
	movq	%rax, %rdi
	call	__asan_report_load1@PLT
.L46:
	movzbl	(%rcx), %eax
	.loc 1 113 14
	testb	%al, %al
	jne	.L47
	.loc 1 115 55
	movl	-28(%rbp), %eax
	movslq	%eax, %rdx
	.loc 1 115 53
	movq	-16(%rbp), %rax
	subq	%rdx, %rax
	movq	%rax, %rcx
	.loc 1 115 37
	movq	-24(%rbp), %rax
	leaq	0(,%rax,8), %rdx
	movq	-8(%rbp), %rax
	addq	%rdx, %rax
	.loc 1 115 53
	movq	-40(%rbp), %rdx
	leaq	(%rcx,%rdx), %rsi
	.loc 1 115 39
	movq	%rax, %rdx
	movq	%rdx, %rcx
	shrq	$3, %rcx
	addq	$2147450880, %rcx
	movzbl	(%rcx), %ecx
	testb	%cl, %cl
	je	.L48
	movq	%rdx, %rdi
	call	__asan_report_store8@PLT
.L48:
	movq	%rsi, (%rax)
	.loc 1 117 25
	addq	$1, -24(%rbp)
	.loc 1 118 42
	movl	$0, -28(%rbp)
	jmp	.L45
.L47:
	.loc 1 122 41
	addl	$1, -28(%rbp)
.L45:
	.loc 1 124 10
	addq	$1, -16(%rbp)
.L41:
	.loc 1 103 20
	movq	-40(%rbp), %rdx
	movq	-16(%rbp), %rax
	leaq	(%rdx,%rax), %rcx
	movq	%rcx, %rax
	movq	%rax, %rdx
	shrq	$3, %rdx
	addq	$2147450880, %rdx
	movzbl	(%rdx), %edx
	testb	%dl, %dl
	setne	%sil
	movq	%rax, %rdi
	andl	$7, %edi
	cmpb	%dl, %dil
	setge	%dl
	andl	%esi, %edx
	testb	%dl, %dl
	je	.L49
	movq	%rax, %rdi
	call	__asan_report_load1@PLT
.L49:
	movzbl	(%rcx), %eax
	.loc 1 103 22
	testb	%al, %al
	jne	.L50
	.loc 1 127 32
	movq	-48(%rbp), %rax
	leaq	0(,%rax,8), %rdx
	movq	-8(%rbp), %rax
	addq	%rdx, %rax
	.loc 1 127 34
	movq	%rax, %rdx
	movq	%rdx, %rcx
	shrq	$3, %rcx
	addq	$2147450880, %rcx
	movzbl	(%rcx), %ecx
	testb	%cl, %cl
	je	.L51
	movq	%rdx, %rdi
	call	__asan_report_store8@PLT
.L51:
	movq	$0, (%rax)
	.loc 1 129 12
	movq	-8(%rbp), %rax
.L38:
	.loc 1 130 5
	leave
	.cfi_def_cfa 7, 8
	ret
	.cfi_endproc
.LFE2272:
	.size	_Z20SplitBufferIntoLinesPKcm, .-_Z20SplitBufferIntoLinesPKcm
	.globl	_Z10CountLinesPKcc
	.type	_Z10CountLinesPKcc, @function
_Z10CountLinesPKcc:
.LASANPC2273:
.LFB2273:
	.loc 1 133 5
	.cfi_startproc
	endbr64
	pushq	%rbp
	.cfi_def_cfa_offset 16
	.cfi_offset 6, -16
	movq	%rsp, %rbp
	.cfi_def_cfa_register 6
	subq	$32, %rsp
	movq	%rdi, -24(%rbp)
	movl	%esi, %eax
	movb	%al, -28(%rbp)
	.loc 1 134 5
	cmpq	$0, -24(%rbp)
	jne	.L53
	.loc 1 135 16
	movl	$0, %eax
	jmp	.L54
.L53:
	.loc 1 137 12
	movq	$0, -16(%rbp)
	.loc 1 138 12
	movq	$0, -8(%rbp)
	.loc 1 140 5
	jmp	.L55
.L61:
	.loc 1 142 19
	movq	-24(%rbp), %rdx
	movq	-8(%rbp), %rax
	leaq	(%rdx,%rax), %rcx
	movq	%rcx, %rax
	movq	%rax, %rdx
	shrq	$3, %rdx
	addq	$2147450880, %rdx
	movzbl	(%rdx), %edx
	testb	%dl, %dl
	setne	%sil
	movq	%rax, %rdi
	andl	$7, %edi
	cmpb	%dl, %dil
	setge	%dl
	andl	%esi, %edx
	testb	%dl, %dl
	je	.L56
	movq	%rax, %rdi
	call	__asan_report_load1@PLT
.L56:
	movzbl	(%rcx), %eax
	.loc 1 142 9
	cmpb	%al, -28(%rbp)
	je	.L57
	.loc 1 142 47 discriminator 1
	movq	-8(%rbp), %rax
	leaq	1(%rax), %rdx
	movq	-24(%rbp), %rax
	leaq	(%rdx,%rax), %rcx
	movq	%rcx, %rax
	movq	%rax, %rdx
	shrq	$3, %rdx
	addq	$2147450880, %rdx
	movzbl	(%rdx), %edx
	testb	%dl, %dl
	setne	%sil
	movq	%rax, %rdi
	andl	$7, %edi
	cmpb	%dl, %dil
	setge	%dl
	andl	%esi, %edx
	testb	%dl, %dl
	je	.L58
	.loc 1 142 47 is_stmt 0
	movq	%rax, %rdi
	call	__asan_report_load1@PLT
.L58:
	.loc 1 142 47 discriminator 1
	movzbl	(%rcx), %eax
	.loc 1 142 36 is_stmt 1 discriminator 1
	testb	%al, %al
	jne	.L59
.L57:
	.loc 1 143 28
	addq	$1, -16(%rbp)
.L59:
	.loc 1 145 10
	addq	$1, -8(%rbp)
.L55:
	.loc 1 140 18
	movq	-24(%rbp), %rdx
	movq	-8(%rbp), %rax
	leaq	(%rdx,%rax), %rcx
	movq	%rcx, %rax
	movq	%rax, %rdx
	shrq	$3, %rdx
	addq	$2147450880, %rdx
	movzbl	(%rdx), %edx
	testb	%dl, %dl
	setne	%sil
	movq	%rax, %rdi
	andl	$7, %edi
	cmpb	%dl, %dil
	setge	%dl
	andl	%esi, %edx
	testb	%dl, %dl
	je	.L60
	movq	%rax, %rdi
	call	__asan_report_load1@PLT
.L60:
	movzbl	(%rcx), %eax
	.loc 1 140 20
	testb	%al, %al
	jne	.L61
	.loc 1 148 12
	movq	-16(%rbp), %rax
.L54:
	.loc 1 149 5
	leave
	.cfi_def_cfa 7, 8
	ret
	.cfi_endproc
.LFE2273:
	.size	_Z10CountLinesPKcc, .-_Z10CountLinesPKcc
	.globl	_Z14RemoveCommentsPcc
	.type	_Z14RemoveCommentsPcc, @function
_Z14RemoveCommentsPcc:
.LASANPC2274:
.LFB2274:
	.loc 1 152 5
	.cfi_startproc
	endbr64
	pushq	%rbp
	.cfi_def_cfa_offset 16
	.cfi_offset 6, -16
	movq	%rsp, %rbp
	.cfi_def_cfa_register 6
	subq	$16, %rsp
	movq	%rdi, -8(%rbp)
	movl	%esi, %eax
	movb	%al, -12(%rbp)
	.loc 1 153 5
	cmpq	$0, -8(%rbp)
	je	.L70
	.loc 1 155 5
	jmp	.L65
.L69:
	.loc 1 157 13
	movq	-8(%rbp), %rax
	movq	%rax, %rdx
	shrq	$3, %rdx
	addq	$2147450880, %rdx
	movzbl	(%rdx), %edx
	testb	%dl, %dl
	setne	%cl
	movq	%rax, %rsi
	andl	$7, %esi
	cmpb	%dl, %sil
	setge	%dl
	andl	%ecx, %edx
	testb	%dl, %dl
	je	.L66
	movq	%rax, %rdi
	call	__asan_report_load1@PLT
.L66:
	movq	-8(%rbp), %rax
	movzbl	(%rax), %eax
	.loc 1 157 9
	cmpb	%al, -12(%rbp)
	jne	.L67
	.loc 1 158 21
	movq	-8(%rbp), %rax
	movb	$0, (%rax)
.L67:
	.loc 1 160 9
	addq	$1, -8(%rbp)
.L65:
	.loc 1 155 12
	movq	-8(%rbp), %rax
	movq	%rax, %rdx
	shrq	$3, %rdx
	addq	$2147450880, %rdx
	movzbl	(%rdx), %edx
	testb	%dl, %dl
	setne	%cl
	movq	%rax, %rsi
	andl	$7, %esi
	cmpb	%dl, %sil
	setge	%dl
	andl	%ecx, %edx
	testb	%dl, %dl
	je	.L68
	movq	%rax, %rdi
	call	__asan_report_load1@PLT
.L68:
	movq	-8(%rbp), %rax
	movzbl	(%rax), %eax
	.loc 1 155 20
	testb	%al, %al
	jne	.L69
	.loc 1 163 5
	jmp	.L62
.L70:
	.loc 1 153 18
	nop
.L62:
	.loc 1 164 5
	leave
	.cfi_def_cfa 7, 8
	ret
	.cfi_endproc
.LFE2274:
	.size	_Z14RemoveCommentsPcc, .-_Z14RemoveCommentsPcc
	.globl	_Z14RemoveCommentsPcjc
	.type	_Z14RemoveCommentsPcjc, @function
_Z14RemoveCommentsPcjc:
.LASANPC2275:
.LFB2275:
	.loc 1 167 5
	.cfi_startproc
	endbr64
	pushq	%rbp
	.cfi_def_cfa_offset 16
	.cfi_offset 6, -16
	movq	%rsp, %rbp
	.cfi_def_cfa_register 6
	subq	$32, %rsp
	movq	%rdi, -24(%rbp)
	movl	%esi, -28(%rbp)
	movl	%edx, %eax
	movb	%al, -32(%rbp)
	.loc 1 168 5
	cmpq	$0, -24(%rbp)
	je	.L79
	.loc 1 171 14
	movl	$0, -4(%rbp)
	.loc 1 172 5
	jmp	.L74
.L78:
	.loc 1 174 24
	movl	-4(%rbp), %edx
	.loc 1 174 22
	movq	-24(%rbp), %rax
	leaq	(%rdx,%rax), %rcx
	.loc 1 174 13
	movq	%rcx, %rax
	movq	%rax, %rdx
	shrq	$3, %rdx
	addq	$2147450880, %rdx
	movzbl	(%rdx), %edx
	testb	%dl, %dl
	setne	%sil
	movq	%rax, %rdi
	andl	$7, %edi
	cmpb	%dl, %dil
	setge	%dl
	andl	%esi, %edx
	testb	%dl, %dl
	je	.L75
	movq	%rax, %rdi
	call	__asan_report_load1@PLT
.L75:
	movzbl	(%rcx), %eax
	.loc 1 174 9
	cmpb	%al, -32(%rbp)
	jne	.L76
	.loc 1 175 24
	movl	-4(%rbp), %edx
	.loc 1 175 22
	movq	-24(%rbp), %rax
	leaq	(%rdx,%rax), %rcx
	.loc 1 175 27
	movq	%rcx, %rax
	movq	%rax, %rdx
	shrq	$3, %rdx
	addq	$2147450880, %rdx
	movzbl	(%rdx), %edx
	testb	%dl, %dl
	setne	%sil
	movq	%rax, %rdi
	andl	$7, %edi
	cmpb	%dl, %dil
	setge	%dl
	andl	%esi, %edx
	testb	%dl, %dl
	je	.L77
	movq	%rax, %rdi
	call	__asan_report_store1@PLT
.L77:
	movb	$0, (%rcx)
.L76:
	.loc 1 177 9
	addl	$1, -4(%rbp)
.L74:
	.loc 1 172 14
	movl	-4(%rbp), %eax
	cmpl	-28(%rbp), %eax
	jb	.L78
	.loc 1 180 5
	jmp	.L71
.L79:
	.loc 1 169 9
	nop
.L71:
	.loc 1 181 5
	leave
	.cfi_def_cfa 7, 8
	ret
	.cfi_endproc
.LFE2275:
	.size	_Z14RemoveCommentsPcjc, .-_Z14RemoveCommentsPcjc
	.globl	__asan_stack_malloc_0
	.section	.rodata
.LC6:
	.string	"1 32 4 1 n"
	.align 32
.LC7:
	.string	"%*[ \t\n\013]%n"
	.zero	53
	.text
	.globl	_Z10SkipSpacesPKc
	.type	_Z10SkipSpacesPKc, @function
_Z10SkipSpacesPKc:
.LASANPC2276:
.LFB2276:
	.loc 1 186 5
	.cfi_startproc
	endbr64
	pushq	%rbp
	.cfi_def_cfa_offset 16
	.cfi_offset 6, -16
	movq	%rsp, %rbp
	.cfi_def_cfa_register 6
	pushq	%r14
	pushq	%r13
	pushq	%r12
	pushq	%rbx
	subq	$80, %rsp
	.cfi_offset 14, -24
	.cfi_offset 13, -32
	.cfi_offset 12, -40
	.cfi_offset 3, -48
	movq	%rdi, -104(%rbp)
	leaq	-96(%rbp), %rbx
	movq	%rbx, %r14
	cmpl	$0, __asan_option_detect_stack_use_after_return(%rip)
	je	.L80
	movl	$64, %edi
	call	__asan_stack_malloc_0@PLT
	testq	%rax, %rax
	je	.L80
	movq	%rax, %rbx
.L80:
	leaq	64(%rbx), %rax
	movq	%rax, %r13
	movq	$1102416563, (%rbx)
	leaq	.LC6(%rip), %rax
	movq	%rax, 8(%rbx)
	leaq	.LASANPC2276(%rip), %rax
	movq	%rax, 16(%rbx)
	movq	%rbx, %r12
	shrq	$3, %r12
	movl	$-235802127, 2147450880(%r12)
	movl	$-202116348, 2147450884(%r12)
	.loc 1 187 5
	cmpq	$0, -104(%rbp)
	jne	.L84
	.loc 1 188 15
	movl	$0, %eax
	jmp	.L88
.L84:
	.loc 1 190 9
	leaq	-32(%r13), %rax
	movq	%rax, %rdx
	movq	%rdx, %rax
	shrq	$3, %rax
	addq	$2147450880, %rax
	movzbl	(%rax), %eax
	testb	%al, %al
	setne	%cl
	cmpb	$3, %al
	setle	%al
	andl	%ecx, %eax
	testb	%al, %al
	je	.L86
	movq	%rdx, %rdi
	call	__asan_report_store4@PLT
.L86:
	movl	$0, -32(%r13)
	.loc 1 191 11
	leaq	-32(%r13), %rdx
	movq	-104(%rbp), %rax
	leaq	.LC7(%rip), %rcx
	movq	%rcx, %rsi
	movq	%rax, %rdi
	movl	$0, %eax
	call	__isoc99_sscanf@PLT
	.loc 1 193 24
	leaq	-32(%r13), %rax
	movq	%rax, %rdx
	movq	%rdx, %rax
	shrq	$3, %rax
	addq	$2147450880, %rax
	movzbl	(%rax), %eax
	testb	%al, %al
	setne	%cl
	cmpb	$3, %al
	setle	%al
	andl	%ecx, %eax
	testb	%al, %al
	je	.L87
	movq	%rdx, %rdi
	call	__asan_report_load4@PLT
.L87:
	movl	-32(%r13), %eax
	movslq	%eax, %rdx
	.loc 1 193 25
	movq	-104(%rbp), %rax
	addq	%rdx, %rax
.L88:
	.loc 1 194 5 discriminator 1
	movq	%rax, %rdx
	.loc 1 186 5 discriminator 1
	cmpq	%rbx, %r14
	je	.L81
	.loc 1 186 5 is_stmt 0
	movq	$1172321806, (%rbx)
	movabsq	$-723401728380766731, %rax
	movq	%rax, 2147450880(%r12)
	movq	56(%rbx), %rax
	movb	$0, (%rax)
	jmp	.L82
.L81:
	movq	$0, 2147450880(%r12)
.L82:
	.loc 1 194 5 is_stmt 1
	movq	%rdx, %rax
	addq	$80, %rsp
	popq	%rbx
	popq	%r12
	popq	%r13
	popq	%r14
	popq	%rbp
	.cfi_def_cfa 7, 8
	ret
	.cfi_endproc
.LFE2276:
	.size	_Z10SkipSpacesPKc, .-_Z10SkipSpacesPKc
	.section	.rodata
	.align 32
.LC8:
	.string	"\\n"
	.zero	61
	.align 32
.LC9:
	.string	"\\t"
	.zero	61
	.align 32
.LC10:
	.string	"\\b"
	.zero	61
	.align 32
.LC11:
	.string	"\\r"
	.zero	61
	.align 32
.LC12:
	.string	"\\0"
	.zero	61
	.text
	.globl	_Z8ShowLinePKc
	.type	_Z8ShowLinePKc, @function
_Z8ShowLinePKc:
.LASANPC2277:
.LFB2277:
	.loc 1 197 5
	.cfi_startproc
	endbr64
	pushq	%rbp
	.cfi_def_cfa_offset 16
	.cfi_offset 6, -16
	movq	%rsp, %rbp
	.cfi_def_cfa_register 6
	subq	$16, %rsp
	movq	%rdi, -8(%rbp)
	.loc 1 200 5
	jmp	.L90
.L104:
	.loc 1 202 13
	movq	-8(%rbp), %rax
	movq	%rax, %rdx
	shrq	$3, %rdx
	addq	$2147450880, %rdx
	movzbl	(%rdx), %edx
	testb	%dl, %dl
	setne	%cl
	movq	%rax, %rsi
	andl	$7, %esi
	cmpb	%dl, %sil
	setge	%dl
	andl	%ecx, %edx
	testb	%dl, %dl
	je	.L91
	movq	%rax, %rdi
	call	__asan_report_load1@PLT
.L91:
	movq	-8(%rbp), %rax
	movzbl	(%rax), %eax
	.loc 1 202 9
	cmpb	$32, %al
	jne	.L92
	.loc 1 203 20
	movl	$95, %edi
	call	putchar@PLT
	jmp	.L93
.L92:
	.loc 1 205 13
	movq	-8(%rbp), %rax
	movq	%rax, %rdx
	shrq	$3, %rdx
	addq	$2147450880, %rdx
	movzbl	(%rdx), %edx
	testb	%dl, %dl
	setne	%cl
	movq	%rax, %rsi
	andl	$7, %esi
	cmpb	%dl, %sil
	setge	%dl
	andl	%ecx, %edx
	testb	%dl, %dl
	je	.L94
	movq	%rax, %rdi
	call	__asan_report_load1@PLT
.L94:
	movq	-8(%rbp), %rax
	movzbl	(%rax), %eax
	.loc 1 205 9
	cmpb	$10, %al
	jne	.L95
	.loc 1 206 19
	leaq	.LC8(%rip), %rax
	movq	%rax, %rdi
	movl	$0, %eax
	call	printf@PLT
	jmp	.L93
.L95:
	.loc 1 208 13
	movq	-8(%rbp), %rax
	movq	%rax, %rdx
	shrq	$3, %rdx
	addq	$2147450880, %rdx
	movzbl	(%rdx), %edx
	testb	%dl, %dl
	setne	%cl
	movq	%rax, %rsi
	andl	$7, %esi
	cmpb	%dl, %sil
	setge	%dl
	andl	%ecx, %edx
	testb	%dl, %dl
	je	.L96
	movq	%rax, %rdi
	call	__asan_report_load1@PLT
.L96:
	movq	-8(%rbp), %rax
	movzbl	(%rax), %eax
	.loc 1 208 9
	cmpb	$9, %al
	jne	.L97
	.loc 1 209 19
	leaq	.LC9(%rip), %rax
	movq	%rax, %rdi
	movl	$0, %eax
	call	printf@PLT
	jmp	.L93
.L97:
	.loc 1 211 13
	movq	-8(%rbp), %rax
	movq	%rax, %rdx
	shrq	$3, %rdx
	addq	$2147450880, %rdx
	movzbl	(%rdx), %edx
	testb	%dl, %dl
	setne	%cl
	movq	%rax, %rsi
	andl	$7, %esi
	cmpb	%dl, %sil
	setge	%dl
	andl	%ecx, %edx
	testb	%dl, %dl
	je	.L98
	movq	%rax, %rdi
	call	__asan_report_load1@PLT
.L98:
	movq	-8(%rbp), %rax
	movzbl	(%rax), %eax
	.loc 1 211 9
	cmpb	$8, %al
	jne	.L99
	.loc 1 212 19
	leaq	.LC10(%rip), %rax
	movq	%rax, %rdi
	movl	$0, %eax
	call	printf@PLT
	jmp	.L93
.L99:
	.loc 1 214 13
	movq	-8(%rbp), %rax
	movq	%rax, %rdx
	shrq	$3, %rdx
	addq	$2147450880, %rdx
	movzbl	(%rdx), %edx
	testb	%dl, %dl
	setne	%cl
	movq	%rax, %rsi
	andl	$7, %esi
	cmpb	%dl, %sil
	setge	%dl
	andl	%ecx, %edx
	testb	%dl, %dl
	je	.L100
	movq	%rax, %rdi
	call	__asan_report_load1@PLT
.L100:
	movq	-8(%rbp), %rax
	movzbl	(%rax), %eax
	.loc 1 214 9
	cmpb	$13, %al
	jne	.L101
	.loc 1 215 19
	leaq	.LC11(%rip), %rax
	movq	%rax, %rdi
	movl	$0, %eax
	call	printf@PLT
	jmp	.L93
.L101:
	.loc 1 217 22
	movq	-8(%rbp), %rax
	movq	%rax, %rdx
	shrq	$3, %rdx
	addq	$2147450880, %rdx
	movzbl	(%rdx), %edx
	testb	%dl, %dl
	setne	%cl
	movq	%rax, %rsi
	andl	$7, %esi
	cmpb	%dl, %sil
	setge	%dl
	andl	%ecx, %edx
	testb	%dl, %dl
	je	.L102
	movq	%rax, %rdi
	call	__asan_report_load1@PLT
.L102:
	movq	-8(%rbp), %rax
	movzbl	(%rax), %eax
	.loc 1 217 20
	movsbl	%al, %eax
	movl	%eax, %edi
	call	putchar@PLT
.L93:
	.loc 1 219 13
	addq	$1, -8(%rbp)
.L90:
	.loc 1 200 11
	movq	-8(%rbp), %rax
	movq	%rax, %rdx
	shrq	$3, %rdx
	addq	$2147450880, %rdx
	movzbl	(%rdx), %edx
	testb	%dl, %dl
	setne	%cl
	movq	%rax, %rsi
	andl	$7, %esi
	cmpb	%dl, %sil
	setge	%dl
	andl	%ecx, %edx
	testb	%dl, %dl
	je	.L103
	movq	%rax, %rdi
	call	__asan_report_load1@PLT
.L103:
	movq	-8(%rbp), %rax
	movzbl	(%rax), %eax
	.loc 1 200 17
	testb	%al, %al
	jne	.L104
	.loc 1 222 11
	leaq	.LC12(%rip), %rax
	movq	%rax, %rdi
	call	puts@PLT
	.loc 1 223 5
	nop
	leave
	.cfi_def_cfa 7, 8
	ret
	.cfi_endproc
.LFE2277:
	.size	_Z8ShowLinePKc, .-_Z8ShowLinePKc
	.globl	_Z7stricmpPKcS0_
	.type	_Z7stricmpPKcS0_, @function
_Z7stricmpPKcS0_:
.LASANPC2278:
.LFB2278:
	.loc 1 226 5
	.cfi_startproc
	endbr64
	pushq	%rbp
	.cfi_def_cfa_offset 16
	.cfi_offset 6, -16
	movq	%rsp, %rbp
	.cfi_def_cfa_register 6
	pushq	%rbx
	subq	$40, %rsp
	.cfi_offset 3, -24
	movq	%rdi, -40(%rbp)
	movq	%rsi, -48(%rbp)
	.loc 1 227 9
	movl	$0, -20(%rbp)
	.loc 1 229 5
	jmp	.L106
.L116:
	.loc 1 230 25
	movl	-20(%rbp), %eax
	movslq	%eax, %rdx
	.loc 1 230 26
	movq	-40(%rbp), %rax
	leaq	(%rdx,%rax), %rcx
	movq	%rcx, %rax
	movq	%rax, %rdx
	shrq	$3, %rdx
	addq	$2147450880, %rdx
	movzbl	(%rdx), %edx
	testb	%dl, %dl
	setne	%sil
	movq	%rax, %rdi
	andl	$7, %edi
	cmpb	%dl, %dil
	setge	%dl
	andl	%esi, %edx
	testb	%dl, %dl
	je	.L107
	movq	%rax, %rdi
	call	__asan_report_load1@PLT
.L107:
	movzbl	(%rcx), %eax
	.loc 1 230 21
	movsbl	%al, %eax
	movl	%eax, %edi
	call	tolower@PLT
	movl	%eax, %ebx
	.loc 1 230 43
	movl	-20(%rbp), %eax
	movslq	%eax, %rdx
	.loc 1 230 44
	movq	-48(%rbp), %rax
	leaq	(%rdx,%rax), %rcx
	movq	%rcx, %rax
	movq	%rax, %rdx
	shrq	$3, %rdx
	addq	$2147450880, %rdx
	movzbl	(%rdx), %edx
	testb	%dl, %dl
	setne	%sil
	movq	%rax, %rdi
	andl	$7, %edi
	cmpb	%dl, %dil
	setge	%dl
	andl	%esi, %edx
	testb	%dl, %dl
	je	.L108
	movq	%rax, %rdi
	call	__asan_report_load1@PLT
.L108:
	movzbl	(%rcx), %eax
	.loc 1 230 39
	movsbl	%al, %eax
	movl	%eax, %edi
	call	tolower@PLT
	.loc 1 230 9
	cmpl	%eax, %ebx
	je	.L109
	.loc 1 231 23
	movl	-20(%rbp), %eax
	movslq	%eax, %rdx
	.loc 1 231 24
	movq	-40(%rbp), %rax
	leaq	(%rdx,%rax), %rcx
	movq	%rcx, %rax
	movq	%rax, %rdx
	shrq	$3, %rdx
	addq	$2147450880, %rdx
	movzbl	(%rdx), %edx
	testb	%dl, %dl
	setne	%sil
	movq	%rax, %rdi
	andl	$7, %edi
	cmpb	%dl, %dil
	setge	%dl
	andl	%esi, %edx
	testb	%dl, %dl
	je	.L110
	movq	%rax, %rdi
	call	__asan_report_load1@PLT
.L110:
	movzbl	(%rcx), %eax
	movsbl	%al, %esi
	.loc 1 231 31
	movl	-20(%rbp), %eax
	movslq	%eax, %rdx
	.loc 1 231 32
	movq	-48(%rbp), %rax
	leaq	(%rdx,%rax), %rcx
	movq	%rcx, %rax
	movq	%rax, %rdx
	shrq	$3, %rdx
	addq	$2147450880, %rdx
	movzbl	(%rdx), %edx
	testb	%dl, %dl
	setne	%dil
	movq	%rax, %r8
	andl	$7, %r8d
	cmpb	%dl, %r8b
	setge	%dl
	andl	%edi, %edx
	testb	%dl, %dl
	je	.L111
	movq	%rax, %rdi
	call	__asan_report_load1@PLT
.L111:
	movzbl	(%rcx), %eax
	movsbl	%al, %edx
	movl	%esi, %eax
	subl	%edx, %eax
	jmp	.L112
.L109:
	.loc 1 229 5
	addl	$1, -20(%rbp)
.L106:
	.loc 1 229 15 discriminator 1
	movl	-20(%rbp), %eax
	movslq	%eax, %rdx
	.loc 1 229 16 discriminator 1
	movq	-40(%rbp), %rax
	leaq	(%rdx,%rax), %rcx
	movq	%rcx, %rax
	movq	%rax, %rdx
	shrq	$3, %rdx
	addq	$2147450880, %rdx
	movzbl	(%rdx), %edx
	testb	%dl, %dl
	setne	%sil
	movq	%rax, %rdi
	andl	$7, %edi
	cmpb	%dl, %dil
	setge	%dl
	andl	%esi, %edx
	testb	%dl, %dl
	je	.L113
	.loc 1 229 16 is_stmt 0
	movq	%rax, %rdi
	call	__asan_report_load1@PLT
.L113:
	.loc 1 229 16 discriminator 1
	movzbl	(%rcx), %eax
	.loc 1 229 18 is_stmt 1 discriminator 1
	testb	%al, %al
	je	.L114
	.loc 1 229 24 discriminator 2
	movl	-20(%rbp), %eax
	movslq	%eax, %rdx
	.loc 1 229 25 discriminator 2
	movq	-48(%rbp), %rax
	leaq	(%rdx,%rax), %rcx
	movq	%rcx, %rax
	movq	%rax, %rdx
	shrq	$3, %rdx
	addq	$2147450880, %rdx
	movzbl	(%rdx), %edx
	testb	%dl, %dl
	setne	%sil
	movq	%rax, %rdi
	andl	$7, %edi
	cmpb	%dl, %dil
	setge	%dl
	andl	%esi, %edx
	testb	%dl, %dl
	je	.L115
	.loc 1 229 25 is_stmt 0
	movq	%rax, %rdi
	call	__asan_report_load1@PLT
.L115:
	.loc 1 229 25 discriminator 2
	movzbl	(%rcx), %eax
	.loc 1 229 18 is_stmt 1 discriminator 2
	testb	%al, %al
	jne	.L116
.L114:
	.loc 1 233 16
	movl	-20(%rbp), %eax
	movslq	%eax, %rdx
	.loc 1 233 17
	movq	-40(%rbp), %rax
	leaq	(%rdx,%rax), %rcx
	movq	%rcx, %rax
	movq	%rax, %rdx
	shrq	$3, %rdx
	addq	$2147450880, %rdx
	movzbl	(%rdx), %edx
	testb	%dl, %dl
	setne	%sil
	movq	%rax, %rdi
	andl	$7, %edi
	cmpb	%dl, %dil
	setge	%dl
	andl	%esi, %edx
	testb	%dl, %dl
	je	.L117
	movq	%rax, %rdi
	call	__asan_report_load1@PLT
.L117:
	movzbl	(%rcx), %eax
	movsbl	%al, %esi
	.loc 1 233 24
	movl	-20(%rbp), %eax
	movslq	%eax, %rdx
	.loc 1 233 25
	movq	-48(%rbp), %rax
	leaq	(%rdx,%rax), %rcx
	movq	%rcx, %rax
	movq	%rax, %rdx
	shrq	$3, %rdx
	addq	$2147450880, %rdx
	movzbl	(%rdx), %edx
	testb	%dl, %dl
	setne	%dil
	movq	%rax, %r8
	andl	$7, %r8d
	cmpb	%dl, %r8b
	setge	%dl
	andl	%edi, %edx
	testb	%dl, %dl
	je	.L118
	movq	%rax, %rdi
	call	__asan_report_load1@PLT
.L118:
	movzbl	(%rcx), %eax
	movsbl	%al, %edx
	.loc 1 233 26
	movl	%esi, %eax
	subl	%edx, %eax
.L112:
	.loc 1 234 5
	movq	-8(%rbp), %rbx
	leave
	.cfi_def_cfa 7, 8
	ret
	.cfi_endproc
.LFE2278:
	.size	_Z7stricmpPKcS0_, .-_Z7stricmpPKcS0_
	.globl	_Z8strnicmpPKcS0_i
	.type	_Z8strnicmpPKcS0_i, @function
_Z8strnicmpPKcS0_i:
.LASANPC2279:
.LFB2279:
	.loc 1 237 5
	.cfi_startproc
	endbr64
	pushq	%rbp
	.cfi_def_cfa_offset 16
	.cfi_offset 6, -16
	movq	%rsp, %rbp
	.cfi_def_cfa_register 6
	pushq	%rbx
	subq	$56, %rsp
	.cfi_offset 3, -24
	movq	%rdi, -40(%rbp)
	movq	%rsi, -48(%rbp)
	movl	%edx, -52(%rbp)
	.loc 1 238 9
	movl	$0, -20(%rbp)
	.loc 1 240 5
	jmp	.L120
.L130:
	.loc 1 241 25
	movl	-20(%rbp), %eax
	movslq	%eax, %rdx
	.loc 1 241 26
	movq	-40(%rbp), %rax
	leaq	(%rdx,%rax), %rcx
	movq	%rcx, %rax
	movq	%rax, %rdx
	shrq	$3, %rdx
	addq	$2147450880, %rdx
	movzbl	(%rdx), %edx
	testb	%dl, %dl
	setne	%sil
	movq	%rax, %rdi
	andl	$7, %edi
	cmpb	%dl, %dil
	setge	%dl
	andl	%esi, %edx
	testb	%dl, %dl
	je	.L121
	movq	%rax, %rdi
	call	__asan_report_load1@PLT
.L121:
	movzbl	(%rcx), %eax
	.loc 1 241 21
	movsbl	%al, %eax
	movl	%eax, %edi
	call	tolower@PLT
	movl	%eax, %ebx
	.loc 1 241 43
	movl	-20(%rbp), %eax
	movslq	%eax, %rdx
	.loc 1 241 44
	movq	-48(%rbp), %rax
	leaq	(%rdx,%rax), %rcx
	movq	%rcx, %rax
	movq	%rax, %rdx
	shrq	$3, %rdx
	addq	$2147450880, %rdx
	movzbl	(%rdx), %edx
	testb	%dl, %dl
	setne	%sil
	movq	%rax, %rdi
	andl	$7, %edi
	cmpb	%dl, %dil
	setge	%dl
	andl	%esi, %edx
	testb	%dl, %dl
	je	.L122
	movq	%rax, %rdi
	call	__asan_report_load1@PLT
.L122:
	movzbl	(%rcx), %eax
	.loc 1 241 39
	movsbl	%al, %eax
	movl	%eax, %edi
	call	tolower@PLT
	.loc 1 241 9
	cmpl	%eax, %ebx
	je	.L123
	.loc 1 242 23
	movl	-20(%rbp), %eax
	movslq	%eax, %rdx
	.loc 1 242 24
	movq	-40(%rbp), %rax
	leaq	(%rdx,%rax), %rcx
	movq	%rcx, %rax
	movq	%rax, %rdx
	shrq	$3, %rdx
	addq	$2147450880, %rdx
	movzbl	(%rdx), %edx
	testb	%dl, %dl
	setne	%sil
	movq	%rax, %rdi
	andl	$7, %edi
	cmpb	%dl, %dil
	setge	%dl
	andl	%esi, %edx
	testb	%dl, %dl
	je	.L124
	movq	%rax, %rdi
	call	__asan_report_load1@PLT
.L124:
	movzbl	(%rcx), %eax
	movsbl	%al, %esi
	.loc 1 242 31
	movl	-20(%rbp), %eax
	movslq	%eax, %rdx
	.loc 1 242 32
	movq	-48(%rbp), %rax
	leaq	(%rdx,%rax), %rcx
	movq	%rcx, %rax
	movq	%rax, %rdx
	shrq	$3, %rdx
	addq	$2147450880, %rdx
	movzbl	(%rdx), %edx
	testb	%dl, %dl
	setne	%dil
	movq	%rax, %r8
	andl	$7, %r8d
	cmpb	%dl, %r8b
	setge	%dl
	andl	%edi, %edx
	testb	%dl, %dl
	je	.L125
	movq	%rax, %rdi
	call	__asan_report_load1@PLT
.L125:
	movzbl	(%rcx), %eax
	movsbl	%al, %edx
	movl	%esi, %eax
	subl	%edx, %eax
	jmp	.L126
.L123:
	.loc 1 240 47
	addl	$1, -20(%rbp)
	subl	$1, -52(%rbp)
.L120:
	.loc 1 240 15 discriminator 1
	movl	-20(%rbp), %eax
	movslq	%eax, %rdx
	.loc 1 240 16 discriminator 1
	movq	-40(%rbp), %rax
	leaq	(%rdx,%rax), %rcx
	movq	%rcx, %rax
	movq	%rax, %rdx
	shrq	$3, %rdx
	addq	$2147450880, %rdx
	movzbl	(%rdx), %edx
	testb	%dl, %dl
	setne	%sil
	movq	%rax, %rdi
	andl	$7, %edi
	cmpb	%dl, %dil
	setge	%dl
	andl	%esi, %edx
	testb	%dl, %dl
	je	.L127
	.loc 1 240 16 is_stmt 0
	movq	%rax, %rdi
	call	__asan_report_load1@PLT
.L127:
	.loc 1 240 16 discriminator 1
	movzbl	(%rcx), %eax
	.loc 1 240 27 is_stmt 1 discriminator 1
	testb	%al, %al
	je	.L128
	.loc 1 240 24 discriminator 2
	movl	-20(%rbp), %eax
	movslq	%eax, %rdx
	.loc 1 240 25 discriminator 2
	movq	-48(%rbp), %rax
	leaq	(%rdx,%rax), %rcx
	movq	%rcx, %rax
	movq	%rax, %rdx
	shrq	$3, %rdx
	addq	$2147450880, %rdx
	movzbl	(%rdx), %edx
	testb	%dl, %dl
	setne	%sil
	movq	%rax, %rdi
	andl	$7, %edi
	cmpb	%dl, %dil
	setge	%dl
	andl	%esi, %edx
	testb	%dl, %dl
	je	.L129
	.loc 1 240 25 is_stmt 0
	movq	%rax, %rdi
	call	__asan_report_load1@PLT
.L129:
	.loc 1 240 25 discriminator 2
	movzbl	(%rcx), %eax
	.loc 1 240 18 is_stmt 1 discriminator 2
	testb	%al, %al
	je	.L128
	.loc 1 240 27 discriminator 3
	cmpl	$0, -52(%rbp)
	jne	.L130
.L128:
	.loc 1 244 16
	movl	-20(%rbp), %eax
	movslq	%eax, %rdx
	.loc 1 244 17
	movq	-40(%rbp), %rax
	leaq	(%rdx,%rax), %rcx
	movq	%rcx, %rax
	movq	%rax, %rdx
	shrq	$3, %rdx
	addq	$2147450880, %rdx
	movzbl	(%rdx), %edx
	testb	%dl, %dl
	setne	%sil
	movq	%rax, %rdi
	andl	$7, %edi
	cmpb	%dl, %dil
	setge	%dl
	andl	%esi, %edx
	testb	%dl, %dl
	je	.L131
	movq	%rax, %rdi
	call	__asan_report_load1@PLT
.L131:
	movzbl	(%rcx), %eax
	movsbl	%al, %esi
	.loc 1 244 24
	movl	-20(%rbp), %eax
	movslq	%eax, %rdx
	.loc 1 244 25
	movq	-48(%rbp), %rax
	leaq	(%rdx,%rax), %rcx
	movq	%rcx, %rax
	movq	%rax, %rdx
	shrq	$3, %rdx
	addq	$2147450880, %rdx
	movzbl	(%rdx), %edx
	testb	%dl, %dl
	setne	%dil
	movq	%rax, %r8
	andl	$7, %r8d
	cmpb	%dl, %r8b
	setge	%dl
	andl	%edi, %edx
	testb	%dl, %dl
	je	.L132
	movq	%rax, %rdi
	call	__asan_report_load1@PLT
.L132:
	movzbl	(%rcx), %eax
	movsbl	%al, %edx
	.loc 1 244 26
	movl	%esi, %eax
	subl	%edx, %eax
.L126:
	.loc 1 245 5
	movq	-8(%rbp), %rbx
	leave
	.cfi_def_cfa 7, 8
	ret
	.cfi_endproc
.LFE2279:
	.size	_Z8strnicmpPKcS0_i, .-_Z8strnicmpPKcS0_i
	.globl	_Z11strnicmprusPKcS0_i
	.type	_Z11strnicmprusPKcS0_i, @function
_Z11strnicmprusPKcS0_i:
.LASANPC2280:
.LFB2280:
	.loc 1 249 5
	.cfi_startproc
	endbr64
	pushq	%rbp
	.cfi_def_cfa_offset 16
	.cfi_offset 6, -16
	movq	%rsp, %rbp
	.cfi_def_cfa_register 6
	subq	$48, %rsp
	movq	%rdi, -24(%rbp)
	movq	%rsi, -32(%rbp)
	movl	%edx, -36(%rbp)
	.loc 1 250 9
	movl	$0, -4(%rbp)
	.loc 1 259 5
	jmp	.L134
.L146:
	.loc 1 260 16
	movl	-4(%rbp), %eax
	movslq	%eax, %rdx
	.loc 1 260 17
	movq	-24(%rbp), %rax
	leaq	(%rdx,%rax), %rcx
	movq	%rcx, %rax
	movq	%rax, %rdx
	shrq	$3, %rdx
	addq	$2147450880, %rdx
	movzbl	(%rdx), %edx
	testb	%dl, %dl
	setne	%sil
	movq	%rax, %rdi
	andl	$7, %edi
	cmpb	%dl, %dil
	setge	%dl
	andl	%esi, %edx
	testb	%dl, %dl
	je	.L135
	movq	%rax, %rdi
	call	__asan_report_load1@PLT
.L135:
	movzbl	(%rcx), %esi
	.loc 1 260 25
	movl	-4(%rbp), %eax
	movslq	%eax, %rdx
	.loc 1 260 26
	movq	-32(%rbp), %rax
	leaq	(%rdx,%rax), %rcx
	movq	%rcx, %rax
	movq	%rax, %rdx
	shrq	$3, %rdx
	addq	$2147450880, %rdx
	movzbl	(%rdx), %edx
	testb	%dl, %dl
	setne	%dil
	movq	%rax, %r8
	andl	$7, %r8d
	cmpb	%dl, %r8b
	setge	%dl
	andl	%edi, %edx
	testb	%dl, %dl
	je	.L136
	movq	%rax, %rdi
	call	__asan_report_load1@PLT
.L136:
	movzbl	(%rcx), %eax
	.loc 1 260 9
	cmpb	%al, %sil
	je	.L137
	.loc 1 260 38 discriminator 1
	movl	-4(%rbp), %eax
	movslq	%eax, %rdx
	.loc 1 260 39 discriminator 1
	movq	-24(%rbp), %rax
	leaq	(%rdx,%rax), %rcx
	movq	%rcx, %rax
	movq	%rax, %rdx
	shrq	$3, %rdx
	addq	$2147450880, %rdx
	movzbl	(%rdx), %edx
	testb	%dl, %dl
	setne	%sil
	movq	%rax, %rdi
	andl	$7, %edi
	cmpb	%dl, %dil
	setge	%dl
	andl	%esi, %edx
	testb	%dl, %dl
	je	.L138
	.loc 1 260 39 is_stmt 0
	movq	%rax, %rdi
	call	__asan_report_load1@PLT
.L138:
	.loc 1 260 39 discriminator 1
	movzbl	(%rcx), %eax
	movsbl	%al, %esi
	.loc 1 260 46 is_stmt 1 discriminator 1
	movl	-4(%rbp), %eax
	movslq	%eax, %rdx
	.loc 1 260 47 discriminator 1
	movq	-32(%rbp), %rax
	leaq	(%rdx,%rax), %rcx
	movq	%rcx, %rax
	movq	%rax, %rdx
	shrq	$3, %rdx
	addq	$2147450880, %rdx
	movzbl	(%rdx), %edx
	testb	%dl, %dl
	setne	%dil
	movq	%rax, %r8
	andl	$7, %r8d
	cmpb	%dl, %r8b
	setge	%dl
	andl	%edi, %edx
	testb	%dl, %dl
	je	.L139
	.loc 1 260 47 is_stmt 0
	movq	%rax, %rdi
	call	__asan_report_load1@PLT
.L139:
	.loc 1 260 47 discriminator 1
	movzbl	(%rcx), %eax
	movsbl	%al, %edx
	.loc 1 260 41 is_stmt 1 discriminator 1
	movl	%esi, %eax
	subl	%edx, %eax
	.loc 1 260 34 discriminator 1
	movl	%eax, %edx
	negl	%edx
	cmovns	%edx, %eax
	.loc 1 260 28 discriminator 1
	cmpl	$32, %eax
	je	.L137
	.loc 1 261 23
	movl	-4(%rbp), %eax
	movslq	%eax, %rdx
	.loc 1 261 24
	movq	-24(%rbp), %rax
	leaq	(%rdx,%rax), %rcx
	movq	%rcx, %rax
	movq	%rax, %rdx
	shrq	$3, %rdx
	addq	$2147450880, %rdx
	movzbl	(%rdx), %edx
	testb	%dl, %dl
	setne	%sil
	movq	%rax, %rdi
	andl	$7, %edi
	cmpb	%dl, %dil
	setge	%dl
	andl	%esi, %edx
	testb	%dl, %dl
	je	.L140
	movq	%rax, %rdi
	call	__asan_report_load1@PLT
.L140:
	movzbl	(%rcx), %eax
	movsbl	%al, %esi
	.loc 1 261 31
	movl	-4(%rbp), %eax
	movslq	%eax, %rdx
	.loc 1 261 32
	movq	-32(%rbp), %rax
	leaq	(%rdx,%rax), %rcx
	movq	%rcx, %rax
	movq	%rax, %rdx
	shrq	$3, %rdx
	addq	$2147450880, %rdx
	movzbl	(%rdx), %edx
	testb	%dl, %dl
	setne	%dil
	movq	%rax, %r8
	andl	$7, %r8d
	cmpb	%dl, %r8b
	setge	%dl
	andl	%edi, %edx
	testb	%dl, %dl
	je	.L141
	movq	%rax, %rdi
	call	__asan_report_load1@PLT
.L141:
	movzbl	(%rcx), %eax
	movsbl	%al, %edx
	movl	%esi, %eax
	subl	%edx, %eax
	jmp	.L142
.L137:
	.loc 1 259 47
	addl	$1, -4(%rbp)
	subl	$1, -36(%rbp)
.L134:
	.loc 1 259 15 discriminator 1
	movl	-4(%rbp), %eax
	movslq	%eax, %rdx
	.loc 1 259 16 discriminator 1
	movq	-24(%rbp), %rax
	leaq	(%rdx,%rax), %rcx
	movq	%rcx, %rax
	movq	%rax, %rdx
	shrq	$3, %rdx
	addq	$2147450880, %rdx
	movzbl	(%rdx), %edx
	testb	%dl, %dl
	setne	%sil
	movq	%rax, %rdi
	andl	$7, %edi
	cmpb	%dl, %dil
	setge	%dl
	andl	%esi, %edx
	testb	%dl, %dl
	je	.L143
	.loc 1 259 16 is_stmt 0
	movq	%rax, %rdi
	call	__asan_report_load1@PLT
.L143:
	.loc 1 259 16 discriminator 1
	movzbl	(%rcx), %eax
	.loc 1 259 27 is_stmt 1 discriminator 1
	testb	%al, %al
	je	.L144
	.loc 1 259 24 discriminator 2
	movl	-4(%rbp), %eax
	movslq	%eax, %rdx
	.loc 1 259 25 discriminator 2
	movq	-32(%rbp), %rax
	leaq	(%rdx,%rax), %rcx
	movq	%rcx, %rax
	movq	%rax, %rdx
	shrq	$3, %rdx
	addq	$2147450880, %rdx
	movzbl	(%rdx), %edx
	testb	%dl, %dl
	setne	%sil
	movq	%rax, %rdi
	andl	$7, %edi
	cmpb	%dl, %dil
	setge	%dl
	andl	%esi, %edx
	testb	%dl, %dl
	je	.L145
	.loc 1 259 25 is_stmt 0
	movq	%rax, %rdi
	call	__asan_report_load1@PLT
.L145:
	.loc 1 259 25 discriminator 2
	movzbl	(%rcx), %eax
	.loc 1 259 18 is_stmt 1 discriminator 2
	testb	%al, %al
	je	.L144
	.loc 1 259 27 discriminator 3
	cmpl	$0, -36(%rbp)
	jne	.L146
.L144:
	.loc 1 263 17
	movl	-4(%rbp), %eax
	movslq	%eax, %rdx
	.loc 1 263 18
	movq	-24(%rbp), %rax
	leaq	(%rdx,%rax), %rcx
	movq	%rcx, %rax
	movq	%rax, %rdx
	shrq	$3, %rdx
	addq	$2147450880, %rdx
	movzbl	(%rdx), %edx
	testb	%dl, %dl
	setne	%sil
	movq	%rax, %rdi
	andl	$7, %edi
	cmpb	%dl, %dil
	setge	%dl
	andl	%esi, %edx
	testb	%dl, %dl
	je	.L147
	movq	%rax, %rdi
	call	__asan_report_load1@PLT
.L147:
	movzbl	(%rcx), %eax
	movsbl	%al, %esi
	.loc 1 263 25
	movl	-4(%rbp), %eax
	movslq	%eax, %rdx
	.loc 1 263 26
	movq	-32(%rbp), %rax
	leaq	(%rdx,%rax), %rcx
	movq	%rcx, %rax
	movq	%rax, %rdx
	shrq	$3, %rdx
	addq	$2147450880, %rdx
	movzbl	(%rdx), %edx
	testb	%dl, %dl
	setne	%dil
	movq	%rax, %r8
	andl	$7, %r8d
	cmpb	%dl, %r8b
	setge	%dl
	andl	%edi, %edx
	testb	%dl, %dl
	je	.L148
	movq	%rax, %rdi
	call	__asan_report_load1@PLT
.L148:
	movzbl	(%rcx), %eax
	movsbl	%al, %edx
	.loc 1 263 20
	movl	%esi, %eax
	subl	%edx, %eax
	.loc 1 263 13
	movl	%eax, %edx
	negl	%edx
	cmovns	%edx, %eax
	.loc 1 263 5
	cmpl	$32, %eax
	jne	.L149
	.loc 1 264 16
	movl	$0, %eax
	jmp	.L142
.L149:
	.loc 1 266 15
	movl	-4(%rbp), %eax
	movslq	%eax, %rdx
	.loc 1 266 16
	movq	-24(%rbp), %rax
	leaq	(%rdx,%rax), %rcx
	movq	%rcx, %rax
	movq	%rax, %rdx
	shrq	$3, %rdx
	addq	$2147450880, %rdx
	movzbl	(%rdx), %edx
	testb	%dl, %dl
	setne	%sil
	movq	%rax, %rdi
	andl	$7, %edi
	cmpb	%dl, %dil
	setge	%dl
	andl	%esi, %edx
	testb	%dl, %dl
	je	.L150
	movq	%rax, %rdi
	call	__asan_report_load1@PLT
.L150:
	movzbl	(%rcx), %eax
	movsbl	%al, %esi
	.loc 1 266 23
	movl	-4(%rbp), %eax
	movslq	%eax, %rdx
	.loc 1 266 24
	movq	-32(%rbp), %rax
	leaq	(%rdx,%rax), %rcx
	movq	%rcx, %rax
	movq	%rax, %rdx
	shrq	$3, %rdx
	addq	$2147450880, %rdx
	movzbl	(%rdx), %edx
	testb	%dl, %dl
	setne	%dil
	movq	%rax, %r8
	andl	$7, %r8d
	cmpb	%dl, %r8b
	setge	%dl
	andl	%edi, %edx
	testb	%dl, %dl
	je	.L151
	movq	%rax, %rdi
	call	__asan_report_load1@PLT
.L151:
	movzbl	(%rcx), %eax
	movsbl	%al, %edx
	movl	%esi, %eax
	subl	%edx, %eax
.L142:
	.loc 1 267 5
	leave
	.cfi_def_cfa 7, 8
	ret
	.cfi_endproc
.LFE2280:
	.size	_Z11strnicmprusPKcS0_i, .-_Z11strnicmprusPKcS0_i
	.globl	_Z11ClearBufferv
	.type	_Z11ClearBufferv, @function
_Z11ClearBufferv:
.LASANPC2281:
.LFB2281:
	.loc 1 270 5
	.cfi_startproc
	endbr64
	pushq	%rbp
	.cfi_def_cfa_offset 16
	.cfi_offset 6, -16
	movq	%rsp, %rbp
	.cfi_def_cfa_register 6
	.loc 1 271 5
	jmp	.L153
.L154:
	.loc 1 272 9
	nop
.L153:
	.loc 1 271 19
	call	getchar@PLT
	.loc 1 271 22
	cmpl	$10, %eax
	setne	%al
	testb	%al, %al
	jne	.L154
	.loc 1 274 5
	nop
	.loc 1 275 5
	popq	%rbp
	.cfi_def_cfa 7, 8
	ret
	.cfi_endproc
.LFE2281:
	.size	_Z11ClearBufferv, .-_Z11ClearBufferv
	.section	.rodata
	.align 32
.LC13:
	.string	""
	.zero	63
	.align 32
.LC14:
	.string	"%*s"
	.zero	60
	.text
	.globl	_Z10fsetindentP8_IO_FILEi
	.type	_Z10fsetindentP8_IO_FILEi, @function
_Z10fsetindentP8_IO_FILEi:
.LASANPC2282:
.LFB2282:
	.loc 1 278 5
	.cfi_startproc
	endbr64
	pushq	%rbp
	.cfi_def_cfa_offset 16
	.cfi_offset 6, -16
	movq	%rsp, %rbp
	.cfi_def_cfa_register 6
	subq	$16, %rsp
	movq	%rdi, -8(%rbp)
	movl	%esi, -12(%rbp)
	.loc 1 279 12
	movl	-12(%rbp), %eax
	leal	(%rax,%rax), %edx
	movq	-8(%rbp), %rax
	leaq	.LC13(%rip), %rcx
	leaq	.LC14(%rip), %rsi
	movq	%rax, %rdi
	movl	$0, %eax
	call	fprintf@PLT
	.loc 1 281 5
	nop
	.loc 1 282 5
	leave
	.cfi_def_cfa 7, 8
	ret
	.cfi_endproc
.LFE2282:
	.size	_Z10fsetindentP8_IO_FILEi, .-_Z10fsetindentP8_IO_FILEi
	.globl	_Z9setindenti
	.type	_Z9setindenti, @function
_Z9setindenti:
.LASANPC2283:
.LFB2283:
	.loc 1 285 5
	.cfi_startproc
	endbr64
	pushq	%rbp
	.cfi_def_cfa_offset 16
	.cfi_offset 6, -16
	movq	%rsp, %rbp
	.cfi_def_cfa_register 6
	subq	$16, %rsp
	movl	%edi, -4(%rbp)
	.loc 1 286 11
	movl	-4(%rbp), %eax
	addl	%eax, %eax
	leaq	.LC13(%rip), %rdx
	movl	%eax, %esi
	leaq	.LC14(%rip), %rax
	movq	%rax, %rdi
	movl	$0, %eax
	call	printf@PLT
	.loc 1 288 5
	nop
	.loc 1 289 5
	leave
	.cfi_def_cfa 7, 8
	ret
	.cfi_endproc
.LFE2283:
	.size	_Z9setindenti, .-_Z9setindenti
	.globl	__asan_stack_malloc_1
	.section	.rodata
.LC15:
	.string	"1 32 24 12 func_293:293"
	.align 32
.LC16:
	.string	"BufferCtor"
	.zero	53
	.align 32
.LC17:
	.string	"%s:%d::CHECK: buf is false\n"
	.zero	36
	.align 32
.LC18:
	.string	"\033[91mFailed %s:%d (%s:%d)\n\033[0m"
	.zero	33
	.align 32
.LC19:
	.string	"Failed (%s:%d, %s:%d)"
	.zero	42
	.align 32
.LC20:
	.string	"%s:%d returned SUCCESS "
	.zero	40
	.text
	.globl	_Z10BufferCtorP6BufferPKc
	.type	_Z10BufferCtorP6BufferPKc, @function
_Z10BufferCtorP6BufferPKc:
.LASANPC2284:
.LFB2284:
	.loc 1 292 5
	.cfi_startproc
	.cfi_personality 0x9b,DW.ref.__gxx_personality_v0
	.cfi_lsda 0x1b,.LLSDA2284
	endbr64
	pushq	%rbp
	.cfi_def_cfa_offset 16
	.cfi_offset 6, -16
	movq	%rsp, %rbp
	.cfi_def_cfa_register 6
	pushq	%r15
	pushq	%r14
	pushq	%r13
	pushq	%r12
	pushq	%rbx
	subq	$120, %rsp
	.cfi_offset 15, -24
	.cfi_offset 14, -32
	.cfi_offset 13, -40
	.cfi_offset 12, -48
	.cfi_offset 3, -56
	movq	%rdi, -152(%rbp)
	movq	%rsi, -160(%rbp)
	leaq	-144(%rbp), %rbx
	movq	%rbx, %r15
	cmpl	$0, __asan_option_detect_stack_use_after_return(%rip)
	je	.L160
	movl	$96, %edi
	call	__asan_stack_malloc_1@PLT
	testq	%rax, %rax
	je	.L160
	movq	%rax, %rbx
.L160:
	leaq	96(%rbx), %rax
	movq	%rax, %r13
	movq	$1102416563, (%rbx)
	leaq	.LC15(%rip), %rax
	movq	%rax, 8(%rbx)
	leaq	.LASANPC2284(%rip), %rax
	movq	%rax, 16(%rbx)
	movq	%rbx, %r12
	shrq	$3, %r12
	movl	$-235802127, 2147450880(%r12)
	movl	$-218103808, 2147450884(%r12)
	movl	$-202116109, 2147450888(%r12)
	.loc 1 293 49
	leaq	-64(%r13), %rax
	leaq	.LC16(%rip), %rdx
	movl	$1, %esi
	movq	%rax, %rdi
.LEHB0:
	call	_ZN14FunctionLoggerC1EiPKc@PLT
.LEHE0:
	.loc 1 294 10
	cmpq	$0, -152(%rbp)
	jne	.L164
.LEHB1:
	.loc 1 294 41 discriminator 1
	call	_ZN6Logger11getInstanceEv@PLT
	movq	%rax, %rdi
	.loc 1 294 47 discriminator 1
	movl	$294, %ecx
	leaq	.LC16(%rip), %rax
	movq	%rax, %rdx
	leaq	.LC17(%rip), %rax
	movq	%rax, %rsi
	movl	$0, %eax
	call	_ZN6Logger3logEPKcz@PLT
	.loc 1 294 129 discriminator 3
	call	_ZN6Logger11getInstanceEv@PLT
	.loc 1 294 151 discriminator 3
	call	_ZN6Logger11getInstanceEv@PLT
	.loc 1 294 151 is_stmt 0 discriminator 4
	movq	%rax, %r14
	.loc 1 294 164 is_stmt 1 discriminator 4
	movl	$294, %r9d
	leaq	.LC16(%rip), %r8
	movl	$294, %ecx
	leaq	.LC3(%rip), %rax
	movq	%rax, %rdx
	leaq	.LC18(%rip), %rax
	movq	%rax, %rsi
	movl	$-1, %edi
	movl	$0, %eax
	call	_Z6MsgRetiPKcz@PLT
	.loc 1 294 164 is_stmt 0 discriminator 5
	movl	%eax, %esi
	subq	$8, %rsp
	pushq	$294
	leaq	.LC16(%rip), %r9
	movl	$294, %r8d
	leaq	.LC3(%rip), %rax
	movq	%rax, %rcx
	leaq	.LC19(%rip), %rax
	movq	%rax, %rdx
	movq	%r14, %rdi
	movl	$0, %eax
	.cfi_escape 0x2e,0x10
	call	_ZN6Logger9LogMsgRetEiPKcz@PLT
	.loc 1 294 164 discriminator 6
	addq	$16, %rsp
	movl	%eax, %r14d
	.loc 1 294 355 is_stmt 1 discriminator 6
	jmp	.L165
.L164:
	.loc 1 296 17
	movq	-152(%rbp), %rax
	movq	%rax, %rdx
	shrq	$3, %rdx
	addq	$2147450880, %rdx
	movzbl	(%rdx), %edx
	testb	%dl, %dl
	je	.L166
	movq	%rax, %rdi
	call	__asan_report_store8@PLT
.L166:
	movq	-152(%rbp), %rax
	movq	-160(%rbp), %rdx
	movq	%rdx, (%rax)
	.loc 1 297 14
	movq	-152(%rbp), %rax
	addq	$8, %rax
	movq	%rax, %rdx
	shrq	$3, %rdx
	addq	$2147450880, %rdx
	movzbl	(%rdx), %edx
	testb	%dl, %dl
	je	.L167
	movq	%rax, %rdi
	call	__asan_report_store8@PLT
.L167:
	movq	-152(%rbp), %rax
	movq	-160(%rbp), %rdx
	movq	%rdx, 8(%rax)
	.cfi_escape 0x2e,0
	.loc 1 299 31
	call	_ZN6Logger11getInstanceEv@PLT
	.loc 1 299 53
	call	_ZN6Logger11getInstanceEv@PLT
	.loc 1 299 53 is_stmt 0 discriminator 1
	movq	%rax, %rdi
	.loc 1 299 66 is_stmt 1 discriminator 1
	movl	$299, %r8d
	leaq	.LC16(%rip), %rax
	movq	%rax, %rcx
	leaq	.LC20(%rip), %rax
	movq	%rax, %rdx
	movl	$0, %esi
	movl	$0, %eax
	call	_ZN6Logger9LogMsgRetEiPKcz@PLT
.LEHE1:
	.loc 1 299 66 is_stmt 0 discriminator 2
	movl	%eax, %r14d
	.loc 1 299 117 is_stmt 1 discriminator 2
	nop
.L165:
	.loc 1 300 5
	leaq	-64(%r13), %rax
	movq	%rax, %rdi
	call	_ZN14FunctionLoggerD1Ev@PLT
	movl	%r14d, %edx
	.loc 1 292 5
	cmpq	%rbx, %r15
	je	.L161
	jmp	.L171
.L170:
	endbr64
	.loc 1 300 5
	movq	%rax, %rbx
	leaq	-64(%r13), %rax
	movq	%rax, %rdi
	call	_ZN14FunctionLoggerD1Ev@PLT
	call	__asan_handle_no_return@PLT
	movq	%rbx, %rdi
.LEHB2:
	call	_Unwind_Resume@PLT
.LEHE2:
.L171:
	.loc 1 292 5
	movq	$1172321806, (%rbx)
	movabsq	$-723401728380766731, %rax
	movq	%rax, 2147450880(%r12)
	movl	$-168430091, 2147450888(%r12)
	movq	120(%rbx), %rax
	movb	$0, (%rax)
	jmp	.L162
.L161:
	movq	$0, 2147450880(%r12)
	movl	$0, 2147450888(%r12)
.L162:
	.loc 1 300 5
	movl	%edx, %eax
	leaq	-40(%rbp), %rsp
	popq	%rbx
	popq	%r12
	popq	%r13
	popq	%r14
	popq	%r15
	popq	%rbp
	.cfi_def_cfa 7, 8
	ret
	.cfi_endproc
.LFE2284:
	.globl	__gxx_personality_v0
	.section	.gcc_except_table,"a",@progbits
.LLSDA2284:
	.byte	0xff
	.byte	0xff
	.byte	0x1
	.uleb128 .LLSDACSE2284-.LLSDACSB2284
.LLSDACSB2284:
	.uleb128 .LEHB0-.LFB2284
	.uleb128 .LEHE0-.LEHB0
	.uleb128 0
	.uleb128 0
	.uleb128 .LEHB1-.LFB2284
	.uleb128 .LEHE1-.LEHB1
	.uleb128 .L170-.LFB2284
	.uleb128 0
	.uleb128 .LEHB2-.LFB2284
	.uleb128 .LEHE2-.LEHB2
	.uleb128 0
	.uleb128 0
.LLSDACSE2284:
	.text
	.size	_Z10BufferCtorP6BufferPKc, .-_Z10BufferCtorP6BufferPKc
	.section	.rodata
.LC21:
	.string	"1 32 24 12 func_304:304"
	.align 32
.LC22:
	.string	"buf"
	.zero	60
	.align 32
.LC23:
	.string	"ASSERTLOG:: Condition (%s) is false\n"
	.zero	59
	.align 32
.LC24:
	.string	"\033[93mASSERTLOG:: \033[0mCondition\033[95m (%s) \033[0mis \033[91mfalse\n\033[0m"
	.zero	32
	.align 32
.LC25:
	.string	"int BufferCtor(Buffer*, int)"
	.zero	35
	.align 32
.LC26:
	.string	"\t%s:%d, function: %s\n"
	.zero	42
	.align 32
.LC27:
	.string	"It matches to error: (code %d) %s\n\n"
	.zero	60
	.align 32
.LC28:
	.string	"Shutting down the system (%s:%d)"
	.zero	63
	.align 32
.LC29:
	.string	"echo LOX\n"
	.zero	54
	.text
	.globl	_Z10BufferCtorP6Bufferi
	.type	_Z10BufferCtorP6Bufferi, @function
_Z10BufferCtorP6Bufferi:
.LASANPC2285:
.LFB2285:
	.loc 1 303 5
	.cfi_startproc
	.cfi_personality 0x9b,DW.ref.__gxx_personality_v0
	.cfi_lsda 0x1b,.LLSDA2285
	endbr64
	pushq	%rbp
	.cfi_def_cfa_offset 16
	.cfi_offset 6, -16
	movq	%rsp, %rbp
	.cfi_def_cfa_register 6
	pushq	%r15
	pushq	%r14
	pushq	%r13
	pushq	%r12
	pushq	%rbx
	subq	$120, %rsp
	.cfi_offset 15, -24
	.cfi_offset 14, -32
	.cfi_offset 13, -40
	.cfi_offset 12, -48
	.cfi_offset 3, -56
	movq	%rdi, -152(%rbp)
	movl	%esi, -156(%rbp)
	leaq	-144(%rbp), %rbx
	movq	%rbx, %r15
	cmpl	$0, __asan_option_detect_stack_use_after_return(%rip)
	je	.L172
	movl	$96, %edi
	call	__asan_stack_malloc_1@PLT
	testq	%rax, %rax
	je	.L172
	movq	%rax, %rbx
.L172:
	leaq	96(%rbx), %rax
	movq	%rax, %r14
	movq	$1102416563, (%rbx)
	leaq	.LC21(%rip), %rax
	movq	%rax, 8(%rbx)
	leaq	.LASANPC2285(%rip), %rax
	movq	%rax, 16(%rbx)
	movq	%rbx, %r12
	shrq	$3, %r12
	movl	$-235802127, 2147450880(%r12)
	movl	$-218103808, 2147450884(%r12)
	movl	$-202116109, 2147450888(%r12)
	.loc 1 304 49
	leaq	-64(%r14), %rax
	leaq	.LC16(%rip), %rdx
	movl	$1, %esi
	movq	%rax, %rdi
.LEHB3:
	call	_ZN14FunctionLoggerC1EiPKc@PLT
.LEHE3:
	.loc 1 305 10
	cmpq	$0, -152(%rbp)
	jne	.L176
.LEHB4:
	.loc 1 305 43 discriminator 1
	call	_ZN6Logger11getInstanceEv@PLT
	movq	%rax, %rcx
	.loc 1 305 49 discriminator 1
	leaq	.LC22(%rip), %rax
	movq	%rax, %rdx
	leaq	.LC23(%rip), %rax
	movq	%rax, %rsi
	movq	%rcx, %rdi
	movl	$0, %eax
	call	_ZN6Logger3logEPKcz@PLT
	.loc 1 305 105 discriminator 3
	leaq	.LC22(%rip), %rax
	movq	%rax, %rsi
	leaq	.LC24(%rip), %rax
	movq	%rax, %rdi
	movl	$0, %eax
	call	printf@PLT
	.loc 1 305 249 discriminator 4
	call	_ZN6Logger11getInstanceEv@PLT
	movq	%rax, %rdi
	.loc 1 305 255 discriminator 4
	leaq	.LC25(%rip), %r8
	movl	$305, %ecx
	leaq	.LC3(%rip), %rax
	movq	%rax, %rdx
	leaq	.LC26(%rip), %rax
	movq	%rax, %rsi
	movl	$0, %eax
	call	_ZN6Logger3logEPKcz@PLT
	.loc 1 305 347 discriminator 6
	leaq	.LC25(%rip), %rax
	movq	%rax, %rcx
	movl	$305, %edx
	leaq	.LC3(%rip), %rax
	movq	%rax, %rsi
	leaq	.LC26(%rip), %rax
	movq	%rax, %rdi
	movl	$0, %eax
	call	printf@PLT
	.loc 1 305 452 discriminator 7
	call	_ZN6Logger11getInstanceEv@PLT
	movq	%rax, %r13
	.loc 1 305 458 discriminator 7
	movl	$14, %edi
	call	strerror@PLT
	movq	%rax, %rcx
	movl	$14, %edx
	leaq	.LC27(%rip), %rax
	movq	%rax, %rsi
	movq	%r13, %rdi
	movl	$0, %eax
	call	_ZN6Logger3logEPKcz@PLT
	.loc 1 305 27 discriminator 9
	call	_ZN6Logger11getInstanceEv@PLT
	movq	%rax, %rdi
	.loc 1 305 33 discriminator 9
	movl	$305, %ecx
	leaq	.LC16(%rip), %rax
	movq	%rax, %rdx
	leaq	.LC28(%rip), %rax
	movq	%rax, %rsi
	movl	$0, %eax
	call	_ZN6Logger3logEPKcz@PLT
	.loc 1 305 92 discriminator 11
	leaq	.LC29(%rip), %rax
	movq	%rax, %rdi
	call	system@PLT
	.loc 1 305 134 discriminator 12
	call	_ZN6Logger11getInstanceEv@PLT
	.loc 1 305 156 discriminator 12
	call	_ZN6Logger11getInstanceEv@PLT
	.loc 1 305 156 is_stmt 0 discriminator 13
	movq	%rax, %r13
	.loc 1 305 169 is_stmt 1 discriminator 13
	movl	$305, %r9d
	leaq	.LC16(%rip), %r8
	movl	$305, %ecx
	leaq	.LC3(%rip), %rax
	movq	%rax, %rdx
	leaq	.LC18(%rip), %rax
	movq	%rax, %rsi
	movl	$-1, %edi
	movl	$0, %eax
	call	_Z6MsgRetiPKcz@PLT
	.loc 1 305 169 is_stmt 0 discriminator 14
	movl	%eax, %esi
	subq	$8, %rsp
	pushq	$305
	leaq	.LC16(%rip), %r9
	movl	$305, %r8d
	leaq	.LC3(%rip), %rax
	movq	%rax, %rcx
	leaq	.LC19(%rip), %rax
	movq	%rax, %rdx
	movq	%r13, %rdi
	movl	$0, %eax
	.cfi_escape 0x2e,0x10
	call	_ZN6Logger9LogMsgRetEiPKcz@PLT
	.loc 1 305 169 discriminator 15
	addq	$16, %rsp
	movl	%eax, %r13d
	.loc 1 305 360 is_stmt 1 discriminator 15
	jmp	.L177
.L176:
	.cfi_escape 0x2e,0
	.loc 1 307 52
	call	_ZN6Logger11getInstanceEv@PLT
	movq	%rax, %rdi
	.loc 1 307 63
	movl	-156(%rbp), %eax
	cltq
	movl	$307, %r9d
	leaq	.LC16(%rip), %r8
	leaq	.LC3(%rip), %rdx
	movq	%rdx, %rcx
	movl	$1, %edx
	movq	%rax, %rsi
	call	_ZN6Logger7CAL_LOGEmmPKcS1_i@PLT
	.loc 1 307 17 discriminator 1
	movq	-152(%rbp), %rdx
	movq	%rdx, %rcx
	shrq	$3, %rcx
	addq	$2147450880, %rcx
	movzbl	(%rcx), %ecx
	testb	%cl, %cl
	je	.L178
	.loc 1 307 17 is_stmt 0
	movq	%rdx, %rdi
	call	__asan_report_store8@PLT
.L178:
	.loc 1 307 17 discriminator 2
	movq	-152(%rbp), %rdx
	movq	%rax, (%rdx)
	.loc 1 308 15 is_stmt 1 discriminator 2
	movq	-152(%rbp), %rax
	movq	(%rax), %rax
	.loc 1 308 5 discriminator 2
	testq	%rax, %rax
	jne	.L179
	.loc 1 308 49 discriminator 1
	call	_ZN6Logger11getInstanceEv@PLT
	.loc 1 308 71 discriminator 1
	call	_ZN6Logger11getInstanceEv@PLT
	.loc 1 308 71 is_stmt 0 discriminator 2
	movq	%rax, %r13
	.loc 1 308 84 is_stmt 1 discriminator 2
	movl	$308, %r9d
	leaq	.LC16(%rip), %r8
	movl	$308, %ecx
	leaq	.LC3(%rip), %rax
	movq	%rax, %rdx
	leaq	.LC18(%rip), %rax
	movq	%rax, %rsi
	movl	$-1, %edi
	movl	$0, %eax
	call	_Z6MsgRetiPKcz@PLT
	.loc 1 308 84 is_stmt 0 discriminator 3
	movl	%eax, %esi
	subq	$8, %rsp
	pushq	$308
	leaq	.LC16(%rip), %r9
	movl	$308, %r8d
	leaq	.LC3(%rip), %rax
	movq	%rax, %rcx
	leaq	.LC19(%rip), %rax
	movq	%rax, %rdx
	movq	%r13, %rdi
	movl	$0, %eax
	.cfi_escape 0x2e,0x10
	call	_ZN6Logger9LogMsgRetEiPKcz@PLT
	.loc 1 308 84 discriminator 4
	addq	$16, %rsp
	movl	%eax, %r13d
	.loc 1 308 275 is_stmt 1 discriminator 4
	jmp	.L177
.L179:
	.loc 1 310 29
	movq	-152(%rbp), %rax
	movq	%rax, %rdx
	shrq	$3, %rdx
	addq	$2147450880, %rdx
	movzbl	(%rdx), %edx
	testb	%dl, %dl
	je	.L180
	movq	%rax, %rdi
	call	__asan_report_load8@PLT
.L180:
	movq	-152(%rbp), %rax
	movq	(%rax), %rdx
	.loc 1 310 14
	movq	-152(%rbp), %rax
	addq	$8, %rax
	movq	%rax, %rcx
	shrq	$3, %rcx
	addq	$2147450880, %rcx
	movzbl	(%rcx), %ecx
	testb	%cl, %cl
	je	.L181
	movq	%rax, %rdi
	call	__asan_report_store8@PLT
.L181:
	movq	-152(%rbp), %rax
	movq	%rdx, 8(%rax)
	.cfi_escape 0x2e,0
	.loc 1 312 31
	call	_ZN6Logger11getInstanceEv@PLT
	.loc 1 312 53
	call	_ZN6Logger11getInstanceEv@PLT
	.loc 1 312 53 is_stmt 0 discriminator 1
	movq	%rax, %rdi
	.loc 1 312 66 is_stmt 1 discriminator 1
	movl	$312, %r8d
	leaq	.LC16(%rip), %rax
	movq	%rax, %rcx
	leaq	.LC20(%rip), %rax
	movq	%rax, %rdx
	movl	$0, %esi
	movl	$0, %eax
	call	_ZN6Logger9LogMsgRetEiPKcz@PLT
.LEHE4:
	.loc 1 312 66 is_stmt 0 discriminator 2
	movl	%eax, %r13d
	.loc 1 312 117 is_stmt 1 discriminator 2
	nop
.L177:
	.loc 1 313 5
	leaq	-64(%r14), %rax
	movq	%rax, %rdi
	call	_ZN14FunctionLoggerD1Ev@PLT
	movl	%r13d, %edx
	.loc 1 303 5
	cmpq	%rbx, %r15
	je	.L173
	jmp	.L185
.L184:
	endbr64
	.loc 1 313 5
	movq	%rax, %rbx
	leaq	-64(%r14), %rax
	movq	%rax, %rdi
	call	_ZN14FunctionLoggerD1Ev@PLT
	call	__asan_handle_no_return@PLT
	movq	%rbx, %rdi
.LEHB5:
	call	_Unwind_Resume@PLT
.LEHE5:
.L185:
	.loc 1 303 5
	movq	$1172321806, (%rbx)
	movabsq	$-723401728380766731, %rax
	movq	%rax, 2147450880(%r12)
	movl	$-168430091, 2147450888(%r12)
	movq	120(%rbx), %rax
	movb	$0, (%rax)
	jmp	.L174
.L173:
	movq	$0, 2147450880(%r12)
	movl	$0, 2147450888(%r12)
.L174:
	.loc 1 313 5
	movl	%edx, %eax
	leaq	-40(%rbp), %rsp
	popq	%rbx
	popq	%r12
	popq	%r13
	popq	%r14
	popq	%r15
	popq	%rbp
	.cfi_def_cfa 7, 8
	ret
	.cfi_endproc
.LFE2285:
	.section	.gcc_except_table
.LLSDA2285:
	.byte	0xff
	.byte	0xff
	.byte	0x1
	.uleb128 .LLSDACSE2285-.LLSDACSB2285
.LLSDACSB2285:
	.uleb128 .LEHB3-.LFB2285
	.uleb128 .LEHE3-.LEHB3
	.uleb128 0
	.uleb128 0
	.uleb128 .LEHB4-.LFB2285
	.uleb128 .LEHE4-.LEHB4
	.uleb128 .L184-.LFB2285
	.uleb128 0
	.uleb128 .LEHB5-.LFB2285
	.uleb128 .LEHE5-.LEHB5
	.uleb128 0
	.uleb128 0
.LLSDACSE2285:
	.text
	.size	_Z10BufferCtorP6Bufferi, .-_Z10BufferCtorP6Bufferi
	.section	.rodata
	.align 32
.LC30:
	.string	"void BufferUngetCh(Buffer*)"
	.zero	36
	.text
	.globl	_Z13BufferUngetChP6Buffer
	.type	_Z13BufferUngetChP6Buffer, @function
_Z13BufferUngetChP6Buffer:
.LASANPC2286:
.LFB2286:
	.loc 1 316 5
	.cfi_startproc
	endbr64
	pushq	%rbp
	.cfi_def_cfa_offset 16
	.cfi_offset 6, -16
	movq	%rsp, %rbp
	.cfi_def_cfa_register 6
	subq	$16, %rsp
	movq	%rdi, -8(%rbp)
	.loc 1 317 6
	cmpq	$0, -8(%rbp)
	jne	.L187
	.loc 1 317 33 discriminator 1
	call	__asan_handle_no_return@PLT
	leaq	.LC30(%rip), %rax
	movq	%rax, %rcx
	movl	$317, %edx
	leaq	.LC3(%rip), %rax
	movq	%rax, %rsi
	leaq	.LC22(%rip), %rax
	movq	%rax, %rdi
	call	__assert_fail@PLT
.L187:
	.loc 1 319 14
	movq	-8(%rbp), %rax
	addq	$8, %rax
	movq	%rax, %rdx
	shrq	$3, %rdx
	addq	$2147450880, %rdx
	movzbl	(%rdx), %edx
	testb	%dl, %dl
	je	.L188
	movq	%rax, %rdi
	call	__asan_report_load8@PLT
.L188:
	movq	-8(%rbp), %rax
	movq	8(%rax), %rcx
	.loc 1 319 25
	movq	-8(%rbp), %rax
	movq	%rax, %rdx
	shrq	$3, %rdx
	addq	$2147450880, %rdx
	movzbl	(%rdx), %edx
	testb	%dl, %dl
	je	.L189
	movq	%rax, %rdi
	call	__asan_report_load8@PLT
.L189:
	movq	-8(%rbp), %rax
	movq	(%rax), %rax
	.loc 1 319 5
	cmpq	%rax, %rcx
	jbe	.L192
	.loc 1 320 15
	movq	-8(%rbp), %rax
	movq	8(%rax), %rax
	.loc 1 320 19
	leaq	-1(%rax), %rdx
	movq	-8(%rbp), %rax
	movq	%rdx, 8(%rax)
	.loc 1 322 5
	nop
.L192:
	nop
	.loc 1 323 5
	leave
	.cfi_def_cfa 7, 8
	ret
	.cfi_endproc
.LFE2286:
	.size	_Z13BufferUngetChP6Buffer, .-_Z13BufferUngetChP6Buffer
	.section	.rodata
	.align 32
.LC31:
	.string	"int BufferGetCh(Buffer*)"
	.zero	39
	.text
	.globl	_Z11BufferGetChP6Buffer
	.type	_Z11BufferGetChP6Buffer, @function
_Z11BufferGetChP6Buffer:
.LASANPC2287:
.LFB2287:
	.loc 1 326 5
	.cfi_startproc
	endbr64
	pushq	%rbp
	.cfi_def_cfa_offset 16
	.cfi_offset 6, -16
	movq	%rsp, %rbp
	.cfi_def_cfa_register 6
	pushq	%r14
	pushq	%r13
	pushq	%r12
	pushq	%rbx
	subq	$80, %rsp
	.cfi_offset 14, -24
	.cfi_offset 13, -32
	.cfi_offset 12, -40
	.cfi_offset 3, -48
	movq	%rdi, -104(%rbp)
	leaq	-96(%rbp), %rbx
	movq	%rbx, %r14
	cmpl	$0, __asan_option_detect_stack_use_after_return(%rip)
	je	.L193
	movl	$64, %edi
	call	__asan_stack_malloc_0@PLT
	testq	%rax, %rax
	je	.L193
	movq	%rax, %rbx
.L193:
	leaq	64(%rbx), %rax
	movq	%rax, %r13
	movq	$1102416563, (%rbx)
	leaq	.LC6(%rip), %rax
	movq	%rax, 8(%rbx)
	leaq	.LASANPC2287(%rip), %rax
	movq	%rax, 16(%rbx)
	movq	%rbx, %r12
	shrq	$3, %r12
	movl	$-235802127, 2147450880(%r12)
	movl	$-202116348, 2147450884(%r12)
	.loc 1 327 6
	cmpq	$0, -104(%rbp)
	jne	.L197
	.loc 1 327 33 discriminator 1
	call	__asan_handle_no_return@PLT
	leaq	.LC31(%rip), %rax
	movq	%rax, %rcx
	movl	$327, %edx
	leaq	.LC3(%rip), %rax
	movq	%rax, %rsi
	leaq	.LC22(%rip), %rax
	movq	%rax, %rdi
	call	__assert_fail@PLT
.L197:
	.loc 1 329 9
	leaq	-32(%r13), %rax
	movq	%rax, %rdx
	movq	%rdx, %rax
	shrq	$3, %rax
	addq	$2147450880, %rax
	movzbl	(%rax), %eax
	testb	%al, %al
	setne	%cl
	cmpb	$3, %al
	setle	%al
	andl	%ecx, %eax
	testb	%al, %al
	je	.L198
	movq	%rdx, %rdi
	call	__asan_report_store4@PLT
.L198:
	movl	$0, -32(%r13)
	.loc 1 330 17
	movq	-104(%rbp), %rax
	addq	$8, %rax
	movq	%rax, %rdx
	shrq	$3, %rdx
	addq	$2147450880, %rdx
	movzbl	(%rdx), %edx
	testb	%dl, %dl
	je	.L199
	movq	%rax, %rdi
	call	__asan_report_load8@PLT
.L199:
	movq	-104(%rbp), %rax
	movq	8(%rax), %rax
	.loc 1 330 11
	leaq	-32(%r13), %rdx
	leaq	.LC7(%rip), %rcx
	movq	%rcx, %rsi
	movq	%rax, %rdi
	movl	$0, %eax
	call	__isoc99_sscanf@PLT
	.loc 1 335 14
	movq	-104(%rbp), %rax
	addq	$8, %rax
	movq	%rax, %rdx
	shrq	$3, %rdx
	addq	$2147450880, %rdx
	movzbl	(%rdx), %edx
	testb	%dl, %dl
	je	.L200
	movq	%rax, %rdi
	call	__asan_report_load8@PLT
.L200:
	movq	-104(%rbp), %rax
	movq	8(%rax), %rcx
	.loc 1 335 17
	leaq	-32(%r13), %rax
	movq	%rax, %rdx
	movq	%rdx, %rax
	shrq	$3, %rax
	addq	$2147450880, %rax
	movzbl	(%rax), %eax
	testb	%al, %al
	setne	%sil
	cmpb	$3, %al
	setle	%al
	andl	%esi, %eax
	testb	%al, %al
	je	.L201
	movq	%rdx, %rdi
	call	__asan_report_load4@PLT
.L201:
	movl	-32(%r13), %eax
	cltq
	.loc 1 335 14
	leaq	(%rcx,%rax), %rdx
	movq	-104(%rbp), %rax
	movq	%rdx, 8(%rax)
	.loc 1 337 19
	movq	-104(%rbp), %rax
	movq	8(%rax), %rax
	.loc 1 337 22
	leaq	1(%rax), %rcx
	movq	-104(%rbp), %rdx
	movq	%rcx, 8(%rdx)
	.loc 1 337 12
	movq	%rax, %rdx
	movq	%rdx, %rcx
	shrq	$3, %rcx
	addq	$2147450880, %rcx
	movzbl	(%rcx), %ecx
	testb	%cl, %cl
	setne	%sil
	movq	%rdx, %rdi
	andl	$7, %edi
	cmpb	%cl, %dil
	setge	%cl
	andl	%esi, %ecx
	testb	%cl, %cl
	je	.L202
	movq	%rdx, %rdi
	call	__asan_report_load1@PLT
.L202:
	movzbl	(%rax), %eax
	.loc 1 337 24
	movsbl	%al, %eax
	movl	%eax, %edx
	.loc 1 326 5
	cmpq	%rbx, %r14
	je	.L194
	movq	$1172321806, (%rbx)
	movabsq	$-723401728380766731, %rax
	movq	%rax, 2147450880(%r12)
	movq	56(%rbx), %rax
	movb	$0, (%rax)
	jmp	.L195
.L194:
	movq	$0, 2147450880(%r12)
.L195:
	.loc 1 338 5
	movl	%edx, %eax
	addq	$80, %rsp
	popq	%rbx
	popq	%r12
	popq	%r13
	popq	%r14
	popq	%rbp
	.cfi_def_cfa 7, 8
	ret
	.cfi_endproc
.LFE2287:
	.size	_Z11BufferGetChP6Buffer, .-_Z11BufferGetChP6Buffer
	.section	.rodata
	.align 32
.LC32:
	.string	"int BufferLook(Buffer*)"
	.zero	40
	.text
	.globl	_Z10BufferLookP6Buffer
	.type	_Z10BufferLookP6Buffer, @function
_Z10BufferLookP6Buffer:
.LASANPC2288:
.LFB2288:
	.loc 1 341 5
	.cfi_startproc
	endbr64
	pushq	%rbp
	.cfi_def_cfa_offset 16
	.cfi_offset 6, -16
	movq	%rsp, %rbp
	.cfi_def_cfa_register 6
	pushq	%r14
	pushq	%r13
	pushq	%r12
	pushq	%rbx
	subq	$80, %rsp
	.cfi_offset 14, -24
	.cfi_offset 13, -32
	.cfi_offset 12, -40
	.cfi_offset 3, -48
	movq	%rdi, -104(%rbp)
	leaq	-96(%rbp), %rbx
	movq	%rbx, %r14
	cmpl	$0, __asan_option_detect_stack_use_after_return(%rip)
	je	.L204
	movl	$64, %edi
	call	__asan_stack_malloc_0@PLT
	testq	%rax, %rax
	je	.L204
	movq	%rax, %rbx
.L204:
	leaq	64(%rbx), %rax
	movq	%rax, %r13
	movq	$1102416563, (%rbx)
	leaq	.LC6(%rip), %rax
	movq	%rax, 8(%rbx)
	leaq	.LASANPC2288(%rip), %rax
	movq	%rax, 16(%rbx)
	movq	%rbx, %r12
	shrq	$3, %r12
	movl	$-235802127, 2147450880(%r12)
	movl	$-202116348, 2147450884(%r12)
	.loc 1 342 6
	cmpq	$0, -104(%rbp)
	jne	.L208
	.loc 1 342 33 discriminator 1
	call	__asan_handle_no_return@PLT
	leaq	.LC32(%rip), %rax
	movq	%rax, %rcx
	movl	$342, %edx
	leaq	.LC3(%rip), %rax
	movq	%rax, %rsi
	leaq	.LC22(%rip), %rax
	movq	%rax, %rdi
	call	__assert_fail@PLT
.L208:
	.loc 1 344 9
	leaq	-32(%r13), %rax
	movq	%rax, %rdx
	movq	%rdx, %rax
	shrq	$3, %rax
	addq	$2147450880, %rax
	movzbl	(%rax), %eax
	testb	%al, %al
	setne	%cl
	cmpb	$3, %al
	setle	%al
	andl	%ecx, %eax
	testb	%al, %al
	je	.L209
	movq	%rdx, %rdi
	call	__asan_report_store4@PLT
.L209:
	movl	$0, -32(%r13)
	.loc 1 345 17
	movq	-104(%rbp), %rax
	addq	$8, %rax
	movq	%rax, %rdx
	shrq	$3, %rdx
	addq	$2147450880, %rdx
	movzbl	(%rdx), %edx
	testb	%dl, %dl
	je	.L210
	movq	%rax, %rdi
	call	__asan_report_load8@PLT
.L210:
	movq	-104(%rbp), %rax
	movq	8(%rax), %rax
	.loc 1 345 11
	leaq	-32(%r13), %rdx
	leaq	.LC7(%rip), %rcx
	movq	%rcx, %rsi
	movq	%rax, %rdi
	movl	$0, %eax
	call	__isoc99_sscanf@PLT
	.loc 1 352 19
	movq	-104(%rbp), %rax
	addq	$8, %rax
	movq	%rax, %rdx
	shrq	$3, %rdx
	addq	$2147450880, %rdx
	movzbl	(%rdx), %edx
	testb	%dl, %dl
	je	.L211
	movq	%rax, %rdi
	call	__asan_report_load8@PLT
.L211:
	movq	-104(%rbp), %rax
	movq	8(%rax), %rcx
	.loc 1 352 25
	leaq	-32(%r13), %rax
	movq	%rax, %rdx
	movq	%rdx, %rax
	shrq	$3, %rax
	addq	$2147450880, %rax
	movzbl	(%rax), %eax
	testb	%al, %al
	setne	%sil
	cmpb	$3, %al
	setle	%al
	andl	%esi, %eax
	testb	%al, %al
	je	.L212
	movq	%rdx, %rdi
	call	__asan_report_load4@PLT
.L212:
	movl	-32(%r13), %eax
	cltq
	.loc 1 352 23
	addq	%rax, %rcx
	.loc 1 352 12
	movq	%rcx, %rax
	movq	%rax, %rdx
	shrq	$3, %rdx
	addq	$2147450880, %rdx
	movzbl	(%rdx), %edx
	testb	%dl, %dl
	setne	%sil
	movq	%rax, %rdi
	andl	$7, %edi
	cmpb	%dl, %dil
	setge	%dl
	andl	%esi, %edx
	testb	%dl, %dl
	je	.L213
	movq	%rax, %rdi
	call	__asan_report_load1@PLT
.L213:
	movzbl	(%rcx), %eax
	.loc 1 352 26
	movsbl	%al, %eax
	movl	%eax, %edx
	.loc 1 341 5
	cmpq	%rbx, %r14
	je	.L205
	movq	$1172321806, (%rbx)
	movabsq	$-723401728380766731, %rax
	movq	%rax, 2147450880(%r12)
	movq	56(%rbx), %rax
	movb	$0, (%rax)
	jmp	.L206
.L205:
	movq	$0, 2147450880(%r12)
.L206:
	.loc 1 353 5
	movl	%edx, %eax
	addq	$80, %rsp
	popq	%rbx
	popq	%r12
	popq	%r13
	popq	%r14
	popq	%rbp
	.cfi_def_cfa 7, 8
	ret
	.cfi_endproc
.LFE2288:
	.size	_Z10BufferLookP6Buffer, .-_Z10BufferLookP6Buffer
	.section	.rodata
	.align 32
.LC33:
	.string	"int BufferGetDouble(Buffer*, double*)"
	.zero	58
	.align 32
.LC34:
	.string	"%lg%n"
	.zero	58
	.text
	.globl	_Z15BufferGetDoubleP6BufferPd
	.type	_Z15BufferGetDoubleP6BufferPd, @function
_Z15BufferGetDoubleP6BufferPd:
.LASANPC2289:
.LFB2289:
	.loc 1 356 5
	.cfi_startproc
	endbr64
	pushq	%rbp
	.cfi_def_cfa_offset 16
	.cfi_offset 6, -16
	movq	%rsp, %rbp
	.cfi_def_cfa_register 6
	pushq	%r14
	pushq	%r13
	pushq	%r12
	pushq	%rbx
	subq	$80, %rsp
	.cfi_offset 14, -24
	.cfi_offset 13, -32
	.cfi_offset 12, -40
	.cfi_offset 3, -48
	movq	%rdi, -104(%rbp)
	movq	%rsi, -112(%rbp)
	leaq	-96(%rbp), %rbx
	movq	%rbx, %r14
	cmpl	$0, __asan_option_detect_stack_use_after_return(%rip)
	je	.L215
	movl	$64, %edi
	call	__asan_stack_malloc_0@PLT
	testq	%rax, %rax
	je	.L215
	movq	%rax, %rbx
.L215:
	leaq	64(%rbx), %rax
	movq	%rax, %r12
	movq	$1102416563, (%rbx)
	leaq	.LC6(%rip), %rax
	movq	%rax, 8(%rbx)
	leaq	.LASANPC2289(%rip), %rax
	movq	%rax, 16(%rbx)
	movq	%rbx, %r13
	shrq	$3, %r13
	movl	$-235802127, 2147450880(%r13)
	movl	$-202116348, 2147450884(%r13)
	.loc 1 357 6
	cmpq	$0, -104(%rbp)
	jne	.L219
	.loc 1 357 33 discriminator 1
	call	__asan_handle_no_return@PLT
	leaq	.LC33(%rip), %rax
	movq	%rax, %rcx
	movl	$357, %edx
	leaq	.LC3(%rip), %rax
	movq	%rax, %rsi
	leaq	.LC22(%rip), %rax
	movq	%rax, %rdi
	call	__assert_fail@PLT
.L219:
	.loc 1 359 9
	leaq	-32(%r12), %rax
	movq	%rax, %rdx
	movq	%rdx, %rax
	shrq	$3, %rax
	addq	$2147450880, %rax
	movzbl	(%rax), %eax
	testb	%al, %al
	setne	%cl
	cmpb	$3, %al
	setle	%al
	andl	%ecx, %eax
	testb	%al, %al
	je	.L220
	movq	%rdx, %rdi
	call	__asan_report_store4@PLT
.L220:
	movl	$0, -32(%r12)
	.loc 1 363 21
	movq	-104(%rbp), %rax
	addq	$8, %rax
	movq	%rax, %rdx
	shrq	$3, %rdx
	addq	$2147450880, %rdx
	movzbl	(%rdx), %edx
	testb	%dl, %dl
	je	.L221
	movq	%rax, %rdi
	call	__asan_report_load8@PLT
.L221:
	movq	-104(%rbp), %rax
	movq	8(%rax), %rax
	.loc 1 363 15
	leaq	-32(%r12), %rcx
	movq	-112(%rbp), %rdx
	leaq	.LC34(%rip), %rsi
	movq	%rax, %rdi
	movl	$0, %eax
	call	__isoc99_sscanf@PLT
	.loc 1 363 44
	testl	%eax, %eax
	sete	%al
	.loc 1 363 5
	testb	%al, %al
	je	.L222
	.loc 1 364 16
	leaq	-32(%r12), %rax
	movq	%rax, %rdx
	movq	%rdx, %rax
	shrq	$3, %rax
	addq	$2147450880, %rax
	movzbl	(%rax), %eax
	testb	%al, %al
	setne	%cl
	cmpb	$3, %al
	setle	%al
	andl	%ecx, %eax
	testb	%al, %al
	je	.L223
	movq	%rdx, %rdi
	call	__asan_report_load4@PLT
.L223:
	movl	-32(%r12), %eax
	jmp	.L227
.L222:
	.loc 1 366 14
	movq	-104(%rbp), %rax
	addq	$8, %rax
	movq	%rax, %rdx
	shrq	$3, %rdx
	addq	$2147450880, %rdx
	movzbl	(%rdx), %edx
	testb	%dl, %dl
	je	.L225
	movq	%rax, %rdi
	call	__asan_report_load8@PLT
.L225:
	movq	-104(%rbp), %rax
	movq	8(%rax), %rcx
	.loc 1 366 17
	leaq	-32(%r12), %rax
	movq	%rax, %rdx
	movq	%rdx, %rax
	shrq	$3, %rax
	addq	$2147450880, %rax
	movzbl	(%rax), %eax
	testb	%al, %al
	setne	%sil
	cmpb	$3, %al
	setle	%al
	andl	%esi, %eax
	testb	%al, %al
	je	.L226
	movq	%rdx, %rdi
	call	__asan_report_load4@PLT
.L226:
	movl	-32(%r12), %eax
	cltq
	.loc 1 366 14
	leaq	(%rcx,%rax), %rdx
	movq	-104(%rbp), %rax
	movq	%rdx, 8(%rax)
	.loc 1 369 12
	movl	-32(%r12), %eax
.L227:
	.loc 1 370 5 discriminator 1
	movl	%eax, %edx
	.loc 1 356 5 discriminator 1
	cmpq	%rbx, %r14
	je	.L216
	.loc 1 356 5 is_stmt 0
	movq	$1172321806, (%rbx)
	movabsq	$-723401728380766731, %rax
	movq	%rax, 2147450880(%r13)
	movq	56(%rbx), %rax
	movb	$0, (%rax)
	jmp	.L217
.L216:
	movq	$0, 2147450880(%r13)
.L217:
	.loc 1 370 5 is_stmt 1
	movl	%edx, %eax
	addq	$80, %rsp
	popq	%rbx
	popq	%r12
	popq	%r13
	popq	%r14
	popq	%rbp
	.cfi_def_cfa 7, 8
	ret
	.cfi_endproc
.LFE2289:
	.size	_Z15BufferGetDoubleP6BufferPd, .-_Z15BufferGetDoubleP6BufferPd
	.section	.rodata
	.align 32
.LC35:
	.string	"int BufferPutDouble(Buffer*, double)"
	.zero	59
	.text
	.globl	_Z15BufferPutDoubleP6Bufferd
	.type	_Z15BufferPutDoubleP6Bufferd, @function
_Z15BufferPutDoubleP6Bufferd:
.LASANPC2290:
.LFB2290:
	.loc 1 373 5
	.cfi_startproc
	endbr64
	pushq	%rbp
	.cfi_def_cfa_offset 16
	.cfi_offset 6, -16
	movq	%rsp, %rbp
	.cfi_def_cfa_register 6
	pushq	%r14
	pushq	%r13
	pushq	%r12
	pushq	%rbx
	subq	$80, %rsp
	.cfi_offset 14, -24
	.cfi_offset 13, -32
	.cfi_offset 12, -40
	.cfi_offset 3, -48
	movq	%rdi, -104(%rbp)
	movsd	%xmm0, -112(%rbp)
	leaq	-96(%rbp), %rbx
	movq	%rbx, %r14
	cmpl	$0, __asan_option_detect_stack_use_after_return(%rip)
	je	.L228
	movl	$64, %edi
	call	__asan_stack_malloc_0@PLT
	testq	%rax, %rax
	je	.L228
	movq	%rax, %rbx
.L228:
	leaq	64(%rbx), %rax
	movq	%rax, %r12
	movq	$1102416563, (%rbx)
	leaq	.LC6(%rip), %rax
	movq	%rax, 8(%rbx)
	leaq	.LASANPC2290(%rip), %rax
	movq	%rax, 16(%rbx)
	movq	%rbx, %r13
	shrq	$3, %r13
	movl	$-235802127, 2147450880(%r13)
	movl	$-202116348, 2147450884(%r13)
	.loc 1 374 6
	cmpq	$0, -104(%rbp)
	jne	.L232
	.loc 1 374 33 discriminator 1
	call	__asan_handle_no_return@PLT
	leaq	.LC35(%rip), %rax
	movq	%rax, %rcx
	movl	$374, %edx
	leaq	.LC3(%rip), %rax
	movq	%rax, %rsi
	leaq	.LC22(%rip), %rax
	movq	%rax, %rdi
	call	__assert_fail@PLT
.L232:
	.loc 1 376 9
	leaq	-32(%r12), %rax
	movq	%rax, %rdx
	movq	%rdx, %rax
	shrq	$3, %rax
	addq	$2147450880, %rax
	movzbl	(%rax), %eax
	testb	%al, %al
	setne	%cl
	cmpb	$3, %al
	setle	%al
	andl	%ecx, %eax
	testb	%al, %al
	je	.L233
	movq	%rdx, %rdi
	call	__asan_report_store4@PLT
.L233:
	movl	$0, -32(%r12)
	.loc 1 377 17
	movq	-104(%rbp), %rax
	addq	$8, %rax
	movq	%rax, %rdx
	shrq	$3, %rdx
	addq	$2147450880, %rdx
	movzbl	(%rdx), %edx
	testb	%dl, %dl
	je	.L234
	movq	%rax, %rdi
	call	__asan_report_load8@PLT
.L234:
	movq	-104(%rbp), %rax
	movq	8(%rax), %rax
	leaq	-32(%r12), %rdx
	movq	-112(%rbp), %rcx
	movq	%rcx, %xmm0
	leaq	.LC34(%rip), %rcx
	movq	%rcx, %rsi
	movq	%rax, %rdi
	movl	$1, %eax
	call	sprintf@PLT
	.loc 1 377 52
	testl	%eax, %eax
	jne	.L235
	.loc 1 377 57 discriminator 1
	leaq	-32(%r12), %rax
	movq	%rax, %rdx
	movq	%rdx, %rax
	shrq	$3, %rax
	addq	$2147450880, %rax
	movzbl	(%rax), %eax
	testb	%al, %al
	setne	%cl
	cmpb	$3, %al
	setle	%al
	andl	%ecx, %eax
	testb	%al, %al
	je	.L236
	.loc 1 377 57 is_stmt 0
	movq	%rdx, %rdi
	call	__asan_report_load4@PLT
.L236:
	.loc 1 377 57 discriminator 1
	movl	-32(%r12), %eax
	.loc 1 377 52 is_stmt 1 discriminator 1
	testl	%eax, %eax
	jne	.L235
	.loc 1 377 52 is_stmt 0 discriminator 3
	movl	$1, %eax
	jmp	.L237
.L235:
	.loc 1 377 52 discriminator 4
	movl	$0, %eax
.L237:
	.loc 1 377 5 is_stmt 1 discriminator 6
	testb	%al, %al
	je	.L238
	.loc 1 378 16
	leaq	-32(%r12), %rax
	movq	%rax, %rdx
	movq	%rdx, %rax
	shrq	$3, %rax
	addq	$2147450880, %rax
	movzbl	(%rax), %eax
	testb	%al, %al
	setne	%cl
	cmpb	$3, %al
	setle	%al
	andl	%ecx, %eax
	testb	%al, %al
	je	.L239
	movq	%rdx, %rdi
	call	__asan_report_load4@PLT
.L239:
	movl	-32(%r12), %eax
	jmp	.L243
.L238:
	.loc 1 380 14
	movq	-104(%rbp), %rax
	addq	$8, %rax
	movq	%rax, %rdx
	shrq	$3, %rdx
	addq	$2147450880, %rdx
	movzbl	(%rdx), %edx
	testb	%dl, %dl
	je	.L241
	movq	%rax, %rdi
	call	__asan_report_load8@PLT
.L241:
	movq	-104(%rbp), %rax
	movq	8(%rax), %rcx
	.loc 1 380 17
	leaq	-32(%r12), %rax
	movq	%rax, %rdx
	movq	%rdx, %rax
	shrq	$3, %rax
	addq	$2147450880, %rax
	movzbl	(%rax), %eax
	testb	%al, %al
	setne	%sil
	cmpb	$3, %al
	setle	%al
	andl	%esi, %eax
	testb	%al, %al
	je	.L242
	movq	%rdx, %rdi
	call	__asan_report_load4@PLT
.L242:
	movl	-32(%r12), %eax
	cltq
	.loc 1 380 14
	leaq	(%rcx,%rax), %rdx
	movq	-104(%rbp), %rax
	movq	%rdx, 8(%rax)
	.loc 1 382 12
	movl	-32(%r12), %eax
.L243:
	.loc 1 383 5 discriminator 1
	movl	%eax, %edx
	.loc 1 373 5 discriminator 1
	cmpq	%rbx, %r14
	je	.L229
	.loc 1 373 5 is_stmt 0
	movq	$1172321806, (%rbx)
	movabsq	$-723401728380766731, %rax
	movq	%rax, 2147450880(%r13)
	movq	56(%rbx), %rax
	movb	$0, (%rax)
	jmp	.L230
.L229:
	movq	$0, 2147450880(%r13)
.L230:
	.loc 1 383 5 is_stmt 1
	movl	%edx, %eax
	addq	$80, %rsp
	popq	%rbx
	popq	%r12
	popq	%r13
	popq	%r14
	popq	%rbp
	.cfi_def_cfa 7, 8
	ret
	.cfi_endproc
.LFE2290:
	.size	_Z15BufferPutDoubleP6Bufferd, .-_Z15BufferPutDoubleP6Bufferd
	.section	.rodata
	.align 32
.LC36:
	.string	"int BufferPutChar(Buffer*, char)"
	.zero	63
	.align 32
.LC37:
	.string	"%c%n"
	.zero	59
	.align 32
.LC38:
	.string	"BufferPutChar"
	.zero	50
	.text
	.globl	_Z13BufferPutCharP6Bufferc
	.type	_Z13BufferPutCharP6Bufferc, @function
_Z13BufferPutCharP6Bufferc:
.LASANPC2291:
.LFB2291:
	.loc 1 386 5
	.cfi_startproc
	endbr64
	pushq	%rbp
	.cfi_def_cfa_offset 16
	.cfi_offset 6, -16
	movq	%rsp, %rbp
	.cfi_def_cfa_register 6
	pushq	%r14
	pushq	%r13
	pushq	%r12
	pushq	%rbx
	subq	$80, %rsp
	.cfi_offset 14, -24
	.cfi_offset 13, -32
	.cfi_offset 12, -40
	.cfi_offset 3, -48
	movq	%rdi, -104(%rbp)
	movl	%esi, %eax
	movb	%al, -108(%rbp)
	leaq	-96(%rbp), %rbx
	movq	%rbx, %r14
	cmpl	$0, __asan_option_detect_stack_use_after_return(%rip)
	je	.L244
	movl	$64, %edi
	call	__asan_stack_malloc_0@PLT
	testq	%rax, %rax
	je	.L244
	movq	%rax, %rbx
.L244:
	leaq	64(%rbx), %rax
	movq	%rax, %r12
	movq	$1102416563, (%rbx)
	leaq	.LC6(%rip), %rax
	movq	%rax, 8(%rbx)
	leaq	.LASANPC2291(%rip), %rax
	movq	%rax, 16(%rbx)
	movq	%rbx, %r13
	shrq	$3, %r13
	movl	$-235802127, 2147450880(%r13)
	movl	$-202116348, 2147450884(%r13)
	.loc 1 387 6
	cmpq	$0, -104(%rbp)
	jne	.L248
	.loc 1 387 33 discriminator 1
	call	__asan_handle_no_return@PLT
	leaq	.LC36(%rip), %rax
	movq	%rax, %rcx
	movl	$387, %edx
	leaq	.LC3(%rip), %rax
	movq	%rax, %rsi
	leaq	.LC22(%rip), %rax
	movq	%rax, %rdi
	call	__assert_fail@PLT
.L248:
	.loc 1 389 9
	leaq	-32(%r12), %rax
	movq	%rax, %rdx
	movq	%rdx, %rax
	shrq	$3, %rax
	addq	$2147450880, %rax
	movzbl	(%rax), %eax
	testb	%al, %al
	setne	%cl
	cmpb	$3, %al
	setle	%al
	andl	%ecx, %eax
	testb	%al, %al
	je	.L249
	movq	%rdx, %rdi
	call	__asan_report_store4@PLT
.L249:
	movl	$0, -32(%r12)
	.loc 1 390 17
	movsbl	-108(%rbp), %edx
	movq	-104(%rbp), %rax
	addq	$8, %rax
	movq	%rax, %rcx
	shrq	$3, %rcx
	addq	$2147450880, %rcx
	movzbl	(%rcx), %ecx
	testb	%cl, %cl
	je	.L250
	movq	%rax, %rdi
	call	__asan_report_load8@PLT
.L250:
	movq	-104(%rbp), %rax
	movq	8(%rax), %rax
	leaq	-32(%r12), %rcx
	leaq	.LC37(%rip), %rsi
	movq	%rax, %rdi
	movl	$0, %eax
	call	sprintf@PLT
	.loc 1 390 50
	testl	%eax, %eax
	jne	.L251
	.loc 1 390 55 discriminator 1
	leaq	-32(%r12), %rax
	movq	%rax, %rdx
	movq	%rdx, %rax
	shrq	$3, %rax
	addq	$2147450880, %rax
	movzbl	(%rax), %eax
	testb	%al, %al
	setne	%cl
	cmpb	$3, %al
	setle	%al
	andl	%ecx, %eax
	testb	%al, %al
	je	.L252
	.loc 1 390 55 is_stmt 0
	movq	%rdx, %rdi
	call	__asan_report_load4@PLT
.L252:
	.loc 1 390 55 discriminator 1
	movl	-32(%r12), %eax
	.loc 1 390 50 is_stmt 1 discriminator 1
	testl	%eax, %eax
	jne	.L251
	.loc 1 390 50 is_stmt 0 discriminator 3
	movl	$1, %eax
	jmp	.L253
.L251:
	.loc 1 390 50 discriminator 4
	movl	$0, %eax
.L253:
	.loc 1 390 5 is_stmt 1 discriminator 6
	testb	%al, %al
	je	.L254
	.loc 1 391 35
	call	_ZN6Logger11getInstanceEv@PLT
	.loc 1 391 57
	call	_ZN6Logger11getInstanceEv@PLT
	movq	%rax, %r12
	.loc 1 391 70
	movl	$391, %r9d
	leaq	.LC38(%rip), %r8
	movl	$391, %ecx
	leaq	.LC3(%rip), %rax
	movq	%rax, %rdx
	leaq	.LC18(%rip), %rax
	movq	%rax, %rsi
	movl	$-1, %edi
	movl	$0, %eax
	call	_Z6MsgRetiPKcz@PLT
	movl	%eax, %esi
	subq	$8, %rsp
	pushq	$391
	leaq	.LC38(%rip), %r9
	movl	$391, %r8d
	leaq	.LC3(%rip), %rax
	movq	%rax, %rcx
	leaq	.LC19(%rip), %rax
	movq	%rax, %rdx
	movq	%r12, %rdi
	movl	$0, %eax
	call	_ZN6Logger9LogMsgRetEiPKcz@PLT
	addq	$16, %rsp
	.loc 1 391 261
	jmp	.L258
.L254:
	.loc 1 393 14
	movq	-104(%rbp), %rax
	addq	$8, %rax
	movq	%rax, %rdx
	shrq	$3, %rdx
	addq	$2147450880, %rdx
	movzbl	(%rdx), %edx
	testb	%dl, %dl
	je	.L256
	movq	%rax, %rdi
	call	__asan_report_load8@PLT
.L256:
	movq	-104(%rbp), %rax
	movq	8(%rax), %rcx
	.loc 1 393 17
	leaq	-32(%r12), %rax
	movq	%rax, %rdx
	movq	%rdx, %rax
	shrq	$3, %rax
	addq	$2147450880, %rax
	movzbl	(%rax), %eax
	testb	%al, %al
	setne	%sil
	cmpb	$3, %al
	setle	%al
	andl	%esi, %eax
	testb	%al, %al
	je	.L257
	movq	%rdx, %rdi
	call	__asan_report_load4@PLT
.L257:
	movl	-32(%r12), %eax
	cltq
	.loc 1 393 14
	leaq	(%rcx,%rax), %rdx
	movq	-104(%rbp), %rax
	movq	%rdx, 8(%rax)
	.loc 1 395 31
	call	_ZN6Logger11getInstanceEv@PLT
	.loc 1 395 53
	call	_ZN6Logger11getInstanceEv@PLT
	movq	%rax, %rdi
	.loc 1 395 66
	movl	$395, %r8d
	leaq	.LC38(%rip), %rax
	movq	%rax, %rcx
	leaq	.LC20(%rip), %rax
	movq	%rax, %rdx
	movl	$0, %esi
	movl	$0, %eax
	call	_ZN6Logger9LogMsgRetEiPKcz@PLT
	.loc 1 395 117
	nop
.L258:
	.loc 1 396 5 discriminator 1
	movl	%eax, %edx
	.loc 1 386 5 discriminator 1
	cmpq	%rbx, %r14
	je	.L245
	.loc 1 386 5 is_stmt 0
	movq	$1172321806, (%rbx)
	movabsq	$-723401728380766731, %rax
	movq	%rax, 2147450880(%r13)
	movq	56(%rbx), %rax
	movb	$0, (%rax)
	jmp	.L246
.L245:
	movq	$0, 2147450880(%r13)
.L246:
	.loc 1 396 5 is_stmt 1
	movl	%edx, %eax
	leaq	-32(%rbp), %rsp
	popq	%rbx
	popq	%r12
	popq	%r13
	popq	%r14
	popq	%rbp
	.cfi_def_cfa 7, 8
	ret
	.cfi_endproc
.LFE2291:
	.size	_Z13BufferPutCharP6Bufferc, .-_Z13BufferPutCharP6Bufferc
	.section	.rodata
	.align 32
.LC39:
	.string	"int BufferPutString(Buffer*, const char*)"
	.zero	54
	.align 32
.LC40:
	.string	"str"
	.zero	60
	.align 32
.LC41:
	.string	"%s%n"
	.zero	59
	.align 32
.LC42:
	.string	"BufferPutString"
	.zero	48
	.text
	.globl	_Z15BufferPutStringP6BufferPKc
	.type	_Z15BufferPutStringP6BufferPKc, @function
_Z15BufferPutStringP6BufferPKc:
.LASANPC2292:
.LFB2292:
	.loc 1 399 5
	.cfi_startproc
	endbr64
	pushq	%rbp
	.cfi_def_cfa_offset 16
	.cfi_offset 6, -16
	movq	%rsp, %rbp
	.cfi_def_cfa_register 6
	pushq	%r14
	pushq	%r13
	pushq	%r12
	pushq	%rbx
	subq	$80, %rsp
	.cfi_offset 14, -24
	.cfi_offset 13, -32
	.cfi_offset 12, -40
	.cfi_offset 3, -48
	movq	%rdi, -104(%rbp)
	movq	%rsi, -112(%rbp)
	leaq	-96(%rbp), %rbx
	movq	%rbx, %r14
	cmpl	$0, __asan_option_detect_stack_use_after_return(%rip)
	je	.L259
	movl	$64, %edi
	call	__asan_stack_malloc_0@PLT
	testq	%rax, %rax
	je	.L259
	movq	%rax, %rbx
.L259:
	leaq	64(%rbx), %rax
	movq	%rax, %r12
	movq	$1102416563, (%rbx)
	leaq	.LC6(%rip), %rax
	movq	%rax, 8(%rbx)
	leaq	.LASANPC2292(%rip), %rax
	movq	%rax, 16(%rbx)
	movq	%rbx, %r13
	shrq	$3, %r13
	movl	$-235802127, 2147450880(%r13)
	movl	$-202116348, 2147450884(%r13)
	.loc 1 400 6
	cmpq	$0, -104(%rbp)
	jne	.L263
	.loc 1 400 33 discriminator 1
	call	__asan_handle_no_return@PLT
	leaq	.LC39(%rip), %rax
	movq	%rax, %rcx
	movl	$400, %edx
	leaq	.LC3(%rip), %rax
	movq	%rax, %rsi
	leaq	.LC22(%rip), %rax
	movq	%rax, %rdi
	call	__assert_fail@PLT
.L263:
	.loc 1 401 6
	cmpq	$0, -112(%rbp)
	jne	.L264
	.loc 1 401 33 discriminator 1
	call	__asan_handle_no_return@PLT
	leaq	.LC39(%rip), %rax
	movq	%rax, %rcx
	movl	$401, %edx
	leaq	.LC3(%rip), %rax
	movq	%rax, %rsi
	leaq	.LC40(%rip), %rax
	movq	%rax, %rdi
	call	__assert_fail@PLT
.L264:
	.loc 1 403 9
	leaq	-32(%r12), %rax
	movq	%rax, %rdx
	movq	%rdx, %rax
	shrq	$3, %rax
	addq	$2147450880, %rax
	movzbl	(%rax), %eax
	testb	%al, %al
	setne	%cl
	cmpb	$3, %al
	setle	%al
	andl	%ecx, %eax
	testb	%al, %al
	je	.L265
	movq	%rdx, %rdi
	call	__asan_report_store4@PLT
.L265:
	movl	$0, -32(%r12)
	.loc 1 404 17
	movq	-104(%rbp), %rax
	addq	$8, %rax
	movq	%rax, %rdx
	shrq	$3, %rdx
	addq	$2147450880, %rdx
	movzbl	(%rdx), %edx
	testb	%dl, %dl
	je	.L266
	movq	%rax, %rdi
	call	__asan_report_load8@PLT
.L266:
	movq	-104(%rbp), %rax
	movq	8(%rax), %rax
	leaq	-32(%r12), %rcx
	movq	-112(%rbp), %rdx
	leaq	.LC41(%rip), %rsi
	movq	%rax, %rdi
	movl	$0, %eax
	call	sprintf@PLT
	.loc 1 404 51
	testl	%eax, %eax
	jne	.L267
	.loc 1 404 56 discriminator 1
	leaq	-32(%r12), %rax
	movq	%rax, %rdx
	movq	%rdx, %rax
	shrq	$3, %rax
	addq	$2147450880, %rax
	movzbl	(%rax), %eax
	testb	%al, %al
	setne	%cl
	cmpb	$3, %al
	setle	%al
	andl	%ecx, %eax
	testb	%al, %al
	je	.L268
	.loc 1 404 56 is_stmt 0
	movq	%rdx, %rdi
	call	__asan_report_load4@PLT
.L268:
	.loc 1 404 56 discriminator 1
	movl	-32(%r12), %eax
	.loc 1 404 51 is_stmt 1 discriminator 1
	testl	%eax, %eax
	jne	.L267
	.loc 1 404 51 is_stmt 0 discriminator 3
	movl	$1, %eax
	jmp	.L269
.L267:
	.loc 1 404 51 discriminator 4
	movl	$0, %eax
.L269:
	.loc 1 404 5 is_stmt 1 discriminator 6
	testb	%al, %al
	je	.L270
	.loc 1 405 35
	call	_ZN6Logger11getInstanceEv@PLT
	.loc 1 405 57
	call	_ZN6Logger11getInstanceEv@PLT
	movq	%rax, %r12
	.loc 1 405 70
	movl	$405, %r9d
	leaq	.LC42(%rip), %r8
	movl	$405, %ecx
	leaq	.LC3(%rip), %rax
	movq	%rax, %rdx
	leaq	.LC18(%rip), %rax
	movq	%rax, %rsi
	movl	$-1, %edi
	movl	$0, %eax
	call	_Z6MsgRetiPKcz@PLT
	movl	%eax, %esi
	subq	$8, %rsp
	pushq	$405
	leaq	.LC42(%rip), %r9
	movl	$405, %r8d
	leaq	.LC3(%rip), %rax
	movq	%rax, %rcx
	leaq	.LC19(%rip), %rax
	movq	%rax, %rdx
	movq	%r12, %rdi
	movl	$0, %eax
	call	_ZN6Logger9LogMsgRetEiPKcz@PLT
	addq	$16, %rsp
	.loc 1 405 261
	jmp	.L274
.L270:
	.loc 1 407 14
	movq	-104(%rbp), %rax
	addq	$8, %rax
	movq	%rax, %rdx
	shrq	$3, %rdx
	addq	$2147450880, %rdx
	movzbl	(%rdx), %edx
	testb	%dl, %dl
	je	.L272
	movq	%rax, %rdi
	call	__asan_report_load8@PLT
.L272:
	movq	-104(%rbp), %rax
	movq	8(%rax), %rcx
	.loc 1 407 17
	leaq	-32(%r12), %rax
	movq	%rax, %rdx
	movq	%rdx, %rax
	shrq	$3, %rax
	addq	$2147450880, %rax
	movzbl	(%rax), %eax
	testb	%al, %al
	setne	%sil
	cmpb	$3, %al
	setle	%al
	andl	%esi, %eax
	testb	%al, %al
	je	.L273
	movq	%rdx, %rdi
	call	__asan_report_load4@PLT
.L273:
	movl	-32(%r12), %eax
	cltq
	.loc 1 407 14
	leaq	(%rcx,%rax), %rdx
	movq	-104(%rbp), %rax
	movq	%rdx, 8(%rax)
	.loc 1 409 31
	call	_ZN6Logger11getInstanceEv@PLT
	.loc 1 409 53
	call	_ZN6Logger11getInstanceEv@PLT
	movq	%rax, %rdi
	.loc 1 409 66
	movl	$409, %r8d
	leaq	.LC42(%rip), %rax
	movq	%rax, %rcx
	leaq	.LC20(%rip), %rax
	movq	%rax, %rdx
	movl	$0, %esi
	movl	$0, %eax
	call	_ZN6Logger9LogMsgRetEiPKcz@PLT
	.loc 1 409 117
	nop
.L274:
	.loc 1 410 5 discriminator 1
	movl	%eax, %edx
	.loc 1 399 5 discriminator 1
	cmpq	%rbx, %r14
	je	.L260
	.loc 1 399 5 is_stmt 0
	movq	$1172321806, (%rbx)
	movabsq	$-723401728380766731, %rax
	movq	%rax, 2147450880(%r13)
	movq	56(%rbx), %rax
	movb	$0, (%rax)
	jmp	.L261
.L260:
	movq	$0, 2147450880(%r13)
.L261:
	.loc 1 410 5 is_stmt 1
	movl	%edx, %eax
	leaq	-32(%rbp), %rsp
	popq	%rbx
	popq	%r12
	popq	%r13
	popq	%r14
	popq	%rbp
	.cfi_def_cfa 7, 8
	ret
	.cfi_endproc
.LFE2292:
	.size	_Z15BufferPutStringP6BufferPKc, .-_Z15BufferPutStringP6BufferPKc
	.type	_Z41__static_initialization_and_destruction_0ii, @function
_Z41__static_initialization_and_destruction_0ii:
.LASANPC2959:
.LFB2959:
	.loc 1 410 5
	.cfi_startproc
	endbr64
	pushq	%rbp
	.cfi_def_cfa_offset 16
	.cfi_offset 6, -16
	movq	%rsp, %rbp
	.cfi_def_cfa_register 6
	subq	$16, %rsp
	movl	%edi, -4(%rbp)
	movl	%esi, -8(%rbp)
	.loc 1 410 5
	cmpl	$1, -4(%rbp)
	jne	.L278
	.loc 1 410 5 is_stmt 0 discriminator 1
	leaq	.LC3(%rip), %rax
	movq	%rax, %rdi
	call	__asan_before_dynamic_init@PLT
	cmpl	$65535, -8(%rbp)
	jne	.L277
	.file 2 "/usr/include/c++/11/iostream"
	.loc 2 74 25 is_stmt 1
	leaq	_ZStL8__ioinit(%rip), %rax
	movq	%rax, %rdi
	call	_ZNSt8ios_base4InitC1Ev@PLT
	leaq	__dso_handle(%rip), %rax
	movq	%rax, %rdx
	leaq	_ZStL8__ioinit(%rip), %rax
	movq	%rax, %rsi
	movq	_ZNSt8ios_base4InitD1Ev@GOTPCREL(%rip), %rax
	movq	%rax, %rdi
	call	__cxa_atexit@PLT
.L277:
	.loc 2 74 25 is_stmt 0 discriminator 1
	call	__asan_after_dynamic_init@PLT
.L278:
	.loc 1 410 5 is_stmt 1
	nop
	leave
	.cfi_def_cfa 7, 8
	ret
	.cfi_endproc
.LFE2959:
	.size	_Z41__static_initialization_and_destruction_0ii, .-_Z41__static_initialization_and_destruction_0ii
	.type	_GLOBAL__sub_I__Z10GetSrcFilePKc, @function
_GLOBAL__sub_I__Z10GetSrcFilePKc:
.LASANPC2960:
.LFB2960:
	.loc 1 410 5
	.cfi_startproc
	endbr64
	pushq	%rbp
	.cfi_def_cfa_offset 16
	.cfi_offset 6, -16
	movq	%rsp, %rbp
	.cfi_def_cfa_register 6
	.loc 1 410 5
	movl	$65535, %esi
	movl	$1, %edi
	call	_Z41__static_initialization_and_destruction_0ii
	popq	%rbp
	.cfi_def_cfa 7, 8
	ret
	.cfi_endproc
.LFE2960:
	.size	_GLOBAL__sub_I__Z10GetSrcFilePKc, .-_GLOBAL__sub_I__Z10GetSrcFilePKc
	.section	.init_array,"aw"
	.align 8
	.quad	_GLOBAL__sub_I__Z10GetSrcFilePKc
	.section	.rodata
	.align 8
.LC43:
	.string	"../ATC/RandomStuff/CommonEnums.h"
	.section	.data.rel.local,"aw"
	.align 16
	.type	.LASANLOC1, @object
	.size	.LASANLOC1, 16
.LASANLOC1:
	.quad	.LC43
	.long	3
	.long	11
	.section	.rodata
.LC44:
	.string	"../ATC/Logger/LogConfig.h"
	.section	.data.rel.local
	.align 16
	.type	.LASANLOC2, @object
	.size	.LASANLOC2, 16
.LASANLOC2:
	.quad	.LC44
	.long	3
	.long	12
	.section	.rodata
.LC45:
	.string	"/usr/include/c++/11/iostream"
	.section	.data.rel.local
	.align 16
	.type	.LASANLOC3, @object
	.size	.LASANLOC3, 16
.LASANLOC3:
	.quad	.LC45
	.long	74
	.long	25
	.section	.rodata
.LC46:
	.string	"../ATC/Buffer/my_buffer.h"
	.section	.data.rel.local
	.align 16
	.type	.LASANLOC4, @object
	.size	.LASANLOC4, 16
.LASANLOC4:
	.quad	.LC46
	.long	32
	.long	11
	.section	.rodata
.LC47:
	.string	"CRINGE"
.LC48:
	.string	"STD_LOG_NAME"
.LC49:
	.string	"__ioinit"
.LC50:
	.string	"INDENT_SIZE"
.LC51:
	.string	"*.LC26"
.LC52:
	.string	"*.LC39"
.LC53:
	.string	"*.LC2"
.LC54:
	.string	"*.LC20"
.LC55:
	.string	"*.LC42"
.LC56:
	.string	"*.LC41"
.LC57:
	.string	"*.LC10"
.LC58:
	.string	"*.LC17"
.LC59:
	.string	"*.LC23"
.LC60:
	.string	"*.LC18"
.LC61:
	.string	"*.LC4"
.LC62:
	.string	"*.LC35"
.LC63:
	.string	"*.LC5"
.LC64:
	.string	"*.LC3"
.LC65:
	.string	"*.LC40"
.LC66:
	.string	"*.LC11"
.LC67:
	.string	"*.LC14"
.LC68:
	.string	"*.LC38"
.LC69:
	.string	"*.LC36"
.LC70:
	.string	"*.LC31"
.LC71:
	.string	"*.LC29"
.LC72:
	.string	"*.LC25"
.LC73:
	.string	"*.LC16"
.LC74:
	.string	"*.LC34"
.LC75:
	.string	"*.LC32"
.LC76:
	.string	"*.LC7"
.LC77:
	.string	"*.LC37"
.LC78:
	.string	"*.LC27"
.LC79:
	.string	"*.LC22"
.LC80:
	.string	"*.LC33"
.LC81:
	.string	"*.LC24"
.LC82:
	.string	"*.LC12"
.LC83:
	.string	"*.LC13"
.LC84:
	.string	"*.LC28"
.LC85:
	.string	"*.LC30"
.LC86:
	.string	"*.LC8"
.LC87:
	.string	"*.LC1"
.LC88:
	.string	"*.LC19"
.LC89:
	.string	"*.LC9"
	.section	.data.rel.local
	.align 32
	.type	.LASAN0, @object
	.size	.LASAN0, 2752
.LASAN0:
	.quad	_ZL6CRINGE
	.quad	4
	.quad	64
	.quad	.LC47
	.quad	.LC3
	.quad	0
	.quad	.LASANLOC1
	.quad	0
	.quad	_ZL12STD_LOG_NAME
	.quad	18
	.quad	64
	.quad	.LC48
	.quad	.LC3
	.quad	0
	.quad	.LASANLOC2
	.quad	0
	.quad	_ZStL8__ioinit
	.quad	1
	.quad	64
	.quad	.LC49
	.quad	.LC3
	.quad	1
	.quad	.LASANLOC3
	.quad	0
	.quad	_ZL11INDENT_SIZE
	.quad	4
	.quad	64
	.quad	.LC50
	.quad	.LC3
	.quad	0
	.quad	.LASANLOC4
	.quad	0
	.quad	.LC26
	.quad	22
	.quad	64
	.quad	.LC51
	.quad	.LC3
	.quad	0
	.quad	0
	.quad	0
	.quad	.LC39
	.quad	42
	.quad	96
	.quad	.LC52
	.quad	.LC3
	.quad	0
	.quad	0
	.quad	0
	.quad	.LC2
	.quad	11
	.quad	64
	.quad	.LC53
	.quad	.LC3
	.quad	0
	.quad	0
	.quad	0
	.quad	.LC20
	.quad	24
	.quad	64
	.quad	.LC54
	.quad	.LC3
	.quad	0
	.quad	0
	.quad	0
	.quad	.LC42
	.quad	16
	.quad	64
	.quad	.LC55
	.quad	.LC3
	.quad	0
	.quad	0
	.quad	0
	.quad	.LC41
	.quad	5
	.quad	64
	.quad	.LC56
	.quad	.LC3
	.quad	0
	.quad	0
	.quad	0
	.quad	.LC10
	.quad	3
	.quad	64
	.quad	.LC57
	.quad	.LC3
	.quad	0
	.quad	0
	.quad	0
	.quad	.LC17
	.quad	28
	.quad	64
	.quad	.LC58
	.quad	.LC3
	.quad	0
	.quad	0
	.quad	0
	.quad	.LC23
	.quad	37
	.quad	96
	.quad	.LC59
	.quad	.LC3
	.quad	0
	.quad	0
	.quad	0
	.quad	.LC18
	.quad	31
	.quad	64
	.quad	.LC60
	.quad	.LC3
	.quad	0
	.quad	0
	.quad	0
	.quad	.LC4
	.quad	22
	.quad	64
	.quad	.LC61
	.quad	.LC3
	.quad	0
	.quad	0
	.quad	0
	.quad	.LC35
	.quad	37
	.quad	96
	.quad	.LC62
	.quad	.LC3
	.quad	0
	.quad	0
	.quad	0
	.quad	.LC5
	.quad	21
	.quad	64
	.quad	.LC63
	.quad	.LC3
	.quad	0
	.quad	0
	.quad	0
	.quad	.LC3
	.quad	28
	.quad	64
	.quad	.LC64
	.quad	.LC3
	.quad	0
	.quad	0
	.quad	0
	.quad	.LC40
	.quad	4
	.quad	64
	.quad	.LC65
	.quad	.LC3
	.quad	0
	.quad	0
	.quad	0
	.quad	.LC11
	.quad	3
	.quad	64
	.quad	.LC66
	.quad	.LC3
	.quad	0
	.quad	0
	.quad	0
	.quad	.LC14
	.quad	4
	.quad	64
	.quad	.LC67
	.quad	.LC3
	.quad	0
	.quad	0
	.quad	0
	.quad	.LC38
	.quad	14
	.quad	64
	.quad	.LC68
	.quad	.LC3
	.quad	0
	.quad	0
	.quad	0
	.quad	.LC36
	.quad	33
	.quad	96
	.quad	.LC69
	.quad	.LC3
	.quad	0
	.quad	0
	.quad	0
	.quad	.LC31
	.quad	25
	.quad	64
	.quad	.LC70
	.quad	.LC3
	.quad	0
	.quad	0
	.quad	0
	.quad	.LC29
	.quad	10
	.quad	64
	.quad	.LC71
	.quad	.LC3
	.quad	0
	.quad	0
	.quad	0
	.quad	.LC25
	.quad	29
	.quad	64
	.quad	.LC72
	.quad	.LC3
	.quad	0
	.quad	0
	.quad	0
	.quad	.LC16
	.quad	11
	.quad	64
	.quad	.LC73
	.quad	.LC3
	.quad	0
	.quad	0
	.quad	0
	.quad	.LC34
	.quad	6
	.quad	64
	.quad	.LC74
	.quad	.LC3
	.quad	0
	.quad	0
	.quad	0
	.quad	.LC32
	.quad	24
	.quad	64
	.quad	.LC75
	.quad	.LC3
	.quad	0
	.quad	0
	.quad	0
	.quad	.LC7
	.quad	11
	.quad	64
	.quad	.LC76
	.quad	.LC3
	.quad	0
	.quad	0
	.quad	0
	.quad	.LC37
	.quad	5
	.quad	64
	.quad	.LC77
	.quad	.LC3
	.quad	0
	.quad	0
	.quad	0
	.quad	.LC27
	.quad	36
	.quad	96
	.quad	.LC78
	.quad	.LC3
	.quad	0
	.quad	0
	.quad	0
	.quad	.LC22
	.quad	4
	.quad	64
	.quad	.LC79
	.quad	.LC3
	.quad	0
	.quad	0
	.quad	0
	.quad	.LC33
	.quad	38
	.quad	96
	.quad	.LC80
	.quad	.LC3
	.quad	0
	.quad	0
	.quad	0
	.quad	.LC24
	.quad	64
	.quad	96
	.quad	.LC81
	.quad	.LC3
	.quad	0
	.quad	0
	.quad	0
	.quad	.LC12
	.quad	3
	.quad	64
	.quad	.LC82
	.quad	.LC3
	.quad	0
	.quad	0
	.quad	0
	.quad	.LC13
	.quad	1
	.quad	64
	.quad	.LC83
	.quad	.LC3
	.quad	0
	.quad	0
	.quad	0
	.quad	.LC28
	.quad	33
	.quad	96
	.quad	.LC84
	.quad	.LC3
	.quad	0
	.quad	0
	.quad	0
	.quad	.LC30
	.quad	28
	.quad	64
	.quad	.LC85
	.quad	.LC3
	.quad	0
	.quad	0
	.quad	0
	.quad	.LC8
	.quad	3
	.quad	64
	.quad	.LC86
	.quad	.LC3
	.quad	0
	.quad	0
	.quad	0
	.quad	.LC1
	.quad	3
	.quad	64
	.quad	.LC87
	.quad	.LC3
	.quad	0
	.quad	0
	.quad	0
	.quad	.LC19
	.quad	22
	.quad	64
	.quad	.LC88
	.quad	.LC3
	.quad	0
	.quad	0
	.quad	0
	.quad	.LC9
	.quad	3
	.quad	64
	.quad	.LC89
	.quad	.LC3
	.quad	0
	.quad	0
	.quad	0
	.text
	.type	_sub_D_00099_0, @function
_sub_D_00099_0:
.LFB2961:
	.cfi_startproc
	endbr64
	pushq	%rbp
	.cfi_def_cfa_offset 16
	.cfi_offset 6, -16
	movq	%rsp, %rbp
	.cfi_def_cfa_register 6
	movl	$43, %esi
	leaq	.LASAN0(%rip), %rax
	movq	%rax, %rdi
	call	__asan_unregister_globals@PLT
	popq	%rbp
	.cfi_def_cfa 7, 8
	ret
	.cfi_endproc
.LFE2961:
	.size	_sub_D_00099_0, .-_sub_D_00099_0
	.section	.fini_array.00099,"aw"
	.align 8
	.quad	_sub_D_00099_0
	.text
	.type	_sub_I_00099_1, @function
_sub_I_00099_1:
.LFB2962:
	.cfi_startproc
	endbr64
	pushq	%rbp
	.cfi_def_cfa_offset 16
	.cfi_offset 6, -16
	movq	%rsp, %rbp
	.cfi_def_cfa_register 6
	call	__asan_init@PLT
	call	__asan_version_mismatch_check_v8@PLT
	movl	$43, %esi
	leaq	.LASAN0(%rip), %rax
	movq	%rax, %rdi
	call	__asan_register_globals@PLT
	popq	%rbp
	.cfi_def_cfa 7, 8
	ret
	.cfi_endproc
.LFE2962:
	.size	_sub_I_00099_1, .-_sub_I_00099_1
	.section	.init_array.00099,"aw"
	.align 8
	.quad	_sub_I_00099_1
	.text
.Letext0:
	.file 3 "/usr/lib/gcc/x86_64-linux-gnu/11/include/stddef.h"
	.file 4 "/usr/include/stdlib.h"
	.file 5 "/usr/include/x86_64-linux-gnu/bits/types.h"
	.file 6 "/usr/include/x86_64-linux-gnu/bits/stdint-intn.h"
	.file 7 "/usr/include/x86_64-linux-gnu/bits/types/struct_timespec.h"
	.file 8 "/usr/include/c++/11/cstdlib"
	.file 9 "/usr/include/c++/11/bits/std_abs.h"
	.file 10 "/usr/include/c++/11/cwchar"
	.file 11 "/usr/include/c++/11/type_traits"
	.file 12 "/usr/include/c++/11/bits/exception_ptr.h"
	.file 13 "/usr/include/x86_64-linux-gnu/c++/11/bits/c++config.h"
	.file 14 "/usr/include/c++/11/concepts"
	.file 15 "/usr/include/c++/11/bits/iterator_concepts.h"
	.file 16 "/usr/include/c++/11/bits/ranges_cmp.h"
	.file 17 "/usr/include/c++/11/compare"
	.file 18 "/usr/include/c++/11/debug/debug.h"
	.file 19 "/usr/include/c++/11/cstdint"
	.file 20 "/usr/include/c++/11/clocale"
	.file 21 "/usr/include/c++/11/numbers"
	.file 22 "/usr/include/c++/11/cstdio"
	.file 23 "/usr/include/c++/11/bits/ios_base.h"
	.file 24 "/usr/include/c++/11/cwctype"
	.file 25 "/usr/include/c++/11/bits/predefined_ops.h"
	.file 26 "/usr/include/c++/11/stdlib.h"
	.file 27 "<built-in>"
	.file 28 "/usr/include/x86_64-linux-gnu/bits/types/__mbstate_t.h"
	.file 29 "/usr/include/x86_64-linux-gnu/bits/types/__fpos_t.h"
	.file 30 "/usr/include/x86_64-linux-gnu/bits/types/__FILE.h"
	.file 31 "/usr/include/x86_64-linux-gnu/bits/types/struct_FILE.h"
	.file 32 "/usr/include/x86_64-linux-gnu/bits/types/FILE.h"
	.file 33 "/usr/include/stdio.h"
	.file 34 "../ATC/Buffer/my_buffer.h"
	.file 35 "/usr/include/x86_64-linux-gnu/bits/struct_stat.h"
	.file 36 "/usr/include/x86_64-linux-gnu/bits/types/wint_t.h"
	.file 37 "/usr/include/x86_64-linux-gnu/bits/types/mbstate_t.h"
	.file 38 "/usr/include/wchar.h"
	.file 39 "/usr/include/x86_64-linux-gnu/bits/types/struct_tm.h"
	.file 40 "/usr/include/c++/11/bits/ptr_traits.h"
	.file 41 "/usr/include/x86_64-linux-gnu/bits/stdint-uintn.h"
	.file 42 "/usr/include/stdint.h"
	.file 43 "/usr/include/locale.h"
	.file 44 "/usr/include/x86_64-linux-gnu/bits/wctype-wchar.h"
	.file 45 "/usr/include/wctype.h"
	.file 46 "../ATC/Logger/LogConfig.h"
	.file 47 "../ATC/Logger/FunctionLogger.h"
	.file 48 "../ATC/RandomStuff/CommonEnums.h"
	.file 49 "/usr/include/assert.h"
	.file 50 "/usr/include/string.h"
	.file 51 "../ATC/Logger/Logger.h"
	.file 52 "../ATC/Utils/Utils.h"
	.file 53 "/usr/include/ctype.h"
	.file 54 "/usr/include/x86_64-linux-gnu/sys/stat.h"
	.file 55 "/usr/include/c++/11/bits/algorithmfwd.h"
	.section	.data.rel.local.DW.ref.__gxx_personality_v0,"awG",@progbits,DW.ref.__gxx_personality_v0,comdat
	.align 8
	.type	DW.ref.__gxx_personality_v0, @object
	.size	DW.ref.__gxx_personality_v0, 8
DW.ref.__gxx_personality_v0:
	.quad	__gxx_personality_v0
	.hidden	__dso_handle
	.ident	"GCC: (Ubuntu 11.3.0-1ubuntu1~22.04) 11.3.0"
	.section	.note.GNU-stack,"",@progbits
	.section	.note.gnu.property,"a"
	.align 8
	.long	1f - 0f
	.long	4f - 1f
	.long	5
0:
	.string	"GNU"
1:
	.align 8
	.long	0xc0000002
	.long	3f - 2f
2:
	.long	0x3
3:
	.align 8
4:
