	.file	"Program.cpp"
	.text
.Ltext0:
	.file 0 "/home/arsenyfucker/Cprojects/Lang/Translator/FrontEnd" "../Common/Structures/Program/Program.cpp"
	.section	.rodata
	.align 4
	.type	_ZL12NOT_DECLARED, @object
	.size	_ZL12NOT_DECLARED, 4
_ZL12NOT_DECLARED:
	.long	-111
	.local	_ZStL8__ioinit
	.comm	_ZStL8__ioinit,1,1
	.align 16
	.type	_ZL12STD_LOG_NAME, @object
	.size	_ZL12STD_LOG_NAME, 18
_ZL12STD_LOG_NAME:
	.string	"./logs/stdlog.ars"
	.align 4
	.type	_ZL6CRINGE, @object
	.size	_ZL6CRINGE, 4
_ZL6CRINGE:
	.long	3565
.LC0:
	.string	"program"
	.align 8
.LC1:
	.string	"ASSERTLOG:: Condition (%s) is false\n"
	.align 8
.LC2:
	.string	"\033[93mASSERTLOG:: \033[0mCondition\033[95m (%s) \033[0mis \033[91mfalse\n\033[0m"
.LC3:
	.string	"int ProgramCtor(Program*)"
	.align 8
.LC4:
	.string	"../Common/Structures/Program/Program.cpp"
.LC5:
	.string	"\t%s:%d, function: %s\n"
	.align 8
.LC6:
	.string	"It matches to error: (code %d) %s\n\n"
.LC7:
	.string	"ProgramCtor"
	.align 8
.LC8:
	.string	"Shutting down the system (%s:%d)"
.LC9:
	.string	"echo LOX\n"
	.align 8
.LC10:
	.string	"\033[91mFailed %s:%d (%s:%d)\n\033[0m"
.LC11:
	.string	"Failed (%s:%d, %s:%d)"
	.text
	.globl	_Z11ProgramCtorP7Program
	.type	_Z11ProgramCtorP7Program, @function
_Z11ProgramCtorP7Program:
.LFB2270:
	.file 1 "../Common/Structures/Program/Program.cpp"
	.loc 1 6 5
	.cfi_startproc
	endbr64
	pushq	%rbp
	.cfi_def_cfa_offset 16
	.cfi_offset 6, -16
	movq	%rsp, %rbp
	.cfi_def_cfa_register 6
	pushq	%rbx
	subq	$24, %rsp
	.cfi_offset 3, -24
	movq	%rdi, -24(%rbp)
	.loc 1 7 10
	cmpq	$0, -24(%rbp)
	jne	.L2
	.loc 1 7 47 discriminator 1
	call	_ZN6Logger11getInstanceEv@PLT
	movq	%rax, %rcx
	.loc 1 7 53 discriminator 1
	leaq	.LC0(%rip), %rax
	movq	%rax, %rdx
	leaq	.LC1(%rip), %rax
	movq	%rax, %rsi
	movq	%rcx, %rdi
	movl	$0, %eax
	call	_ZN6Logger3logEPKcz@PLT
	.loc 1 7 113 discriminator 1
	leaq	.LC0(%rip), %rax
	movq	%rax, %rsi
	leaq	.LC2(%rip), %rax
	movq	%rax, %rdi
	movl	$0, %eax
	call	printf@PLT
	.loc 1 7 261 discriminator 1
	call	_ZN6Logger11getInstanceEv@PLT
	movq	%rax, %rdi
	.loc 1 7 267 discriminator 1
	leaq	.LC3(%rip), %r8
	movl	$7, %ecx
	leaq	.LC4(%rip), %rax
	movq	%rax, %rdx
	leaq	.LC5(%rip), %rax
	movq	%rax, %rsi
	movl	$0, %eax
	call	_ZN6Logger3logEPKcz@PLT
	.loc 1 7 370 discriminator 1
	leaq	.LC3(%rip), %rax
	movq	%rax, %rcx
	movl	$7, %edx
	leaq	.LC4(%rip), %rax
	movq	%rax, %rsi
	leaq	.LC5(%rip), %rax
	movq	%rax, %rdi
	movl	$0, %eax
	call	printf@PLT
	.loc 1 7 486 discriminator 1
	call	_ZN6Logger11getInstanceEv@PLT
	movq	%rax, %rbx
	.loc 1 7 492 discriminator 1
	movl	$14, %edi
	call	strerror@PLT
	movq	%rax, %rcx
	movl	$14, %edx
	leaq	.LC6(%rip), %rax
	movq	%rax, %rsi
	movq	%rbx, %rdi
	movl	$0, %eax
	call	_ZN6Logger3logEPKcz@PLT
	.loc 1 7 27 discriminator 1
	call	_ZN6Logger11getInstanceEv@PLT
	movq	%rax, %rdi
	.loc 1 7 33 discriminator 1
	movl	$7, %ecx
	leaq	.LC7(%rip), %rax
	movq	%rax, %rdx
	leaq	.LC8(%rip), %rax
	movq	%rax, %rsi
	movl	$0, %eax
	call	_ZN6Logger3logEPKcz@PLT
	.loc 1 7 90 discriminator 1
	leaq	.LC9(%rip), %rax
	movq	%rax, %rdi
	call	system@PLT
	.loc 1 7 132 discriminator 1
	call	_ZN6Logger11getInstanceEv@PLT
	.loc 1 7 154 discriminator 1
	call	_ZN6Logger11getInstanceEv@PLT
	movq	%rax, %rbx
	.loc 1 7 167 discriminator 1
	movl	$7, %r9d
	leaq	.LC7(%rip), %r8
	movl	$7, %ecx
	leaq	.LC4(%rip), %rax
	movq	%rax, %rdx
	leaq	.LC10(%rip), %rax
	movq	%rax, %rsi
	movl	$-1, %edi
	movl	$0, %eax
	call	_Z6MsgRetiPKcz@PLT
	movl	%eax, %esi
	subq	$8, %rsp
	pushq	$7
	leaq	.LC7(%rip), %r9
	movl	$7, %r8d
	leaq	.LC4(%rip), %rax
	movq	%rax, %rcx
	leaq	.LC11(%rip), %rax
	movq	%rax, %rdx
	movq	%rbx, %rdi
	movl	$0, %eax
	call	_ZN6Logger9LogMsgRetEiPKcz@PLT
	addq	$16, %rsp
	.loc 1 7 376 discriminator 1
	jmp	.L3
.L2:
	.loc 1 9 24
	movq	-24(%rbp), %rax
	movq	$0, (%rax)
	.loc 1 10 31
	movq	-24(%rbp), %rax
	movl	$0, 8(%rax)
	.loc 1 15 25
	movq	-24(%rbp), %rax
	movq	$0, 24(%rax)
	.loc 1 16 32
	movq	-24(%rbp), %rax
	movl	$0, 32(%rax)
	.loc 1 23 12
	movl	$0, %eax
.L3:
	.loc 1 24 5
	movq	-8(%rbp), %rbx
	leave
	.cfi_def_cfa 7, 8
	ret
	.cfi_endproc
.LFE2270:
	.size	_Z11ProgramCtorP7Program, .-_Z11ProgramCtorP7Program
	.section	.rodata
.LC12:
	.string	"void ProgramDtor(Program*)"
.LC13:
	.string	"ProgramDtor"
.LC14:
	.string	"\321\201\320\264\320\265\320\273\320\260\321\216 \320\277\320\276\321\202\320\276\320\274\n"
	.align 8
.LC15:
	.string	"\033[96m#TODO Check this place to improve it (%s:%d)\n%s\033[0m"
	.align 8
.LC16:
	.string	"#TODO Check this place to improve it (%s:%d)\n%s"
	.text
	.globl	_Z11ProgramDtorP7Program
	.type	_Z11ProgramDtorP7Program, @function
_Z11ProgramDtorP7Program:
.LFB2271:
	.loc 1 27 5
	.cfi_startproc
	endbr64
	pushq	%rbp
	.cfi_def_cfa_offset 16
	.cfi_offset 6, -16
	movq	%rsp, %rbp
	.cfi_def_cfa_register 6
	pushq	%rbx
	subq	$24, %rsp
	.cfi_offset 3, -24
	movq	%rdi, -24(%rbp)
	.loc 1 28 10
	cmpq	$0, -24(%rbp)
	jne	.L5
	.loc 1 28 47 discriminator 1
	call	_ZN6Logger11getInstanceEv@PLT
	movq	%rax, %rcx
	.loc 1 28 53 discriminator 1
	leaq	.LC0(%rip), %rax
	movq	%rax, %rdx
	leaq	.LC1(%rip), %rax
	movq	%rax, %rsi
	movq	%rcx, %rdi
	movl	$0, %eax
	call	_ZN6Logger3logEPKcz@PLT
	.loc 1 28 113 discriminator 1
	leaq	.LC0(%rip), %rax
	movq	%rax, %rsi
	leaq	.LC2(%rip), %rax
	movq	%rax, %rdi
	movl	$0, %eax
	call	printf@PLT
	.loc 1 28 261 discriminator 1
	call	_ZN6Logger11getInstanceEv@PLT
	movq	%rax, %rdi
	.loc 1 28 267 discriminator 1
	leaq	.LC12(%rip), %r8
	movl	$28, %ecx
	leaq	.LC4(%rip), %rax
	movq	%rax, %rdx
	leaq	.LC5(%rip), %rax
	movq	%rax, %rsi
	movl	$0, %eax
	call	_ZN6Logger3logEPKcz@PLT
	.loc 1 28 371 discriminator 1
	leaq	.LC12(%rip), %rax
	movq	%rax, %rcx
	movl	$28, %edx
	leaq	.LC4(%rip), %rax
	movq	%rax, %rsi
	leaq	.LC5(%rip), %rax
	movq	%rax, %rdi
	movl	$0, %eax
	call	printf@PLT
	.loc 1 28 488 discriminator 1
	call	_ZN6Logger11getInstanceEv@PLT
	movq	%rax, %rbx
	.loc 1 28 494 discriminator 1
	movl	$14, %edi
	call	strerror@PLT
	movq	%rax, %rcx
	movl	$14, %edx
	leaq	.LC6(%rip), %rax
	movq	%rax, %rsi
	movq	%rbx, %rdi
	movl	$0, %eax
	call	_ZN6Logger3logEPKcz@PLT
	.loc 1 28 27 discriminator 1
	call	_ZN6Logger11getInstanceEv@PLT
	movq	%rax, %rdi
	.loc 1 28 33 discriminator 1
	movl	$28, %ecx
	leaq	.LC13(%rip), %rax
	movq	%rax, %rdx
	leaq	.LC8(%rip), %rax
	movq	%rax, %rsi
	movl	$0, %eax
	call	_ZN6Logger3logEPKcz@PLT
	.loc 1 28 91 discriminator 1
	leaq	.LC9(%rip), %rax
	movq	%rax, %rdi
	call	system@PLT
	.loc 1 28 107 discriminator 1
	jmp	.L4
.L5:
	.loc 1 29 11
	leaq	.LC14(%rip), %rax
	movq	%rax, %rcx
	movl	$29, %edx
	leaq	.LC4(%rip), %rax
	movq	%rax, %rsi
	leaq	.LC15(%rip), %rax
	movq	%rax, %rdi
	movl	$0, %eax
	call	printf@PLT
	.loc 1 29 183
	call	_ZN6Logger11getInstanceEv@PLT
	movq	%rax, %rdi
	.loc 1 29 189
	leaq	.LC14(%rip), %r8
	movl	$29, %ecx
	leaq	.LC4(%rip), %rax
	movq	%rax, %rdx
	leaq	.LC16(%rip), %rax
	movq	%rax, %rsi
	movl	$0, %eax
	call	_ZN6Logger3logEPKcz@PLT
	.loc 1 29 340
	call	_ZN6Logger11getInstanceEv@PLT
	movq	%rax, %rdx
	.loc 1 29 346
	leaq	.LC14(%rip), %rax
	movq	%rax, %rsi
	movq	%rdx, %rdi
	movl	$0, %eax
	call	_ZN6Logger3logEPKcz@PLT
	.loc 1 31 5
	nop
.L4:
	.loc 1 32 5
	movq	-8(%rbp), %rbx
	leave
	.cfi_def_cfa 7, 8
	ret
	.cfi_endproc
.LFE2271:
	.size	_Z11ProgramDtorP7Program, .-_Z11ProgramDtorP7Program
	.type	_Z41__static_initialization_and_destruction_0ii, @function
_Z41__static_initialization_and_destruction_0ii:
.LFB2938:
	.loc 1 32 5
	.cfi_startproc
	endbr64
	pushq	%rbp
	.cfi_def_cfa_offset 16
	.cfi_offset 6, -16
	movq	%rsp, %rbp
	.cfi_def_cfa_register 6
	subq	$16, %rsp
	movl	%edi, -4(%rbp)
	movl	%esi, -8(%rbp)
	.loc 1 32 5
	cmpl	$1, -4(%rbp)
	jne	.L9
	.loc 1 32 5 is_stmt 0 discriminator 1
	cmpl	$65535, -8(%rbp)
	jne	.L9
	.file 2 "/usr/include/c++/11/iostream"
	.loc 2 74 25 is_stmt 1
	leaq	_ZStL8__ioinit(%rip), %rax
	movq	%rax, %rdi
	call	_ZNSt8ios_base4InitC1Ev@PLT
	leaq	__dso_handle(%rip), %rax
	movq	%rax, %rdx
	leaq	_ZStL8__ioinit(%rip), %rax
	movq	%rax, %rsi
	movq	_ZNSt8ios_base4InitD1Ev@GOTPCREL(%rip), %rax
	movq	%rax, %rdi
	call	__cxa_atexit@PLT
.L9:
	.loc 1 32 5
	nop
	leave
	.cfi_def_cfa 7, 8
	ret
	.cfi_endproc
.LFE2938:
	.size	_Z41__static_initialization_and_destruction_0ii, .-_Z41__static_initialization_and_destruction_0ii
	.type	_GLOBAL__sub_I__Z11ProgramCtorP7Program, @function
_GLOBAL__sub_I__Z11ProgramCtorP7Program:
.LFB2939:
	.loc 1 32 5
	.cfi_startproc
	endbr64
	pushq	%rbp
	.cfi_def_cfa_offset 16
	.cfi_offset 6, -16
	movq	%rsp, %rbp
	.cfi_def_cfa_register 6
	.loc 1 32 5
	movl	$65535, %esi
	movl	$1, %edi
	call	_Z41__static_initialization_and_destruction_0ii
	popq	%rbp
	.cfi_def_cfa 7, 8
	ret
	.cfi_endproc
.LFE2939:
	.size	_GLOBAL__sub_I__Z11ProgramCtorP7Program, .-_GLOBAL__sub_I__Z11ProgramCtorP7Program
	.section	.init_array,"aw"
	.align 8
	.quad	_GLOBAL__sub_I__Z11ProgramCtorP7Program
	.text
.Letext0:
	.file 3 "../Common/Structures/Token/Token.h"
	.file 4 "../Common/Structures/Tabels/Tabels.h"
	.file 5 "../Common/Structures/Program/Program.h"
	.file 6 "<built-in>"
	.file 7 "/usr/lib/gcc/x86_64-linux-gnu/11/include/stddef.h"
	.file 8 "/usr/include/x86_64-linux-gnu/bits/types/wint_t.h"
	.file 9 "/usr/include/x86_64-linux-gnu/bits/types/__mbstate_t.h"
	.file 10 "/usr/include/x86_64-linux-gnu/bits/types/mbstate_t.h"
	.file 11 "/usr/include/x86_64-linux-gnu/bits/types/__FILE.h"
	.file 12 "/usr/include/x86_64-linux-gnu/bits/types/struct_FILE.h"
	.file 13 "/usr/include/x86_64-linux-gnu/bits/types/FILE.h"
	.file 14 "/usr/include/c++/11/cwchar"
	.file 15 "/usr/include/c++/11/type_traits"
	.file 16 "/usr/include/c++/11/bits/exception_ptr.h"
	.file 17 "/usr/include/x86_64-linux-gnu/c++/11/bits/c++config.h"
	.file 18 "/usr/include/c++/11/concepts"
	.file 19 "/usr/include/c++/11/bits/iterator_concepts.h"
	.file 20 "/usr/include/c++/11/bits/ranges_cmp.h"
	.file 21 "/usr/include/c++/11/compare"
	.file 22 "/usr/include/c++/11/debug/debug.h"
	.file 23 "/usr/include/c++/11/cstdint"
	.file 24 "/usr/include/c++/11/clocale"
	.file 25 "/usr/include/c++/11/cstdlib"
	.file 26 "/usr/include/c++/11/numbers"
	.file 27 "/usr/include/c++/11/cstdio"
	.file 28 "/usr/include/c++/11/bits/ios_base.h"
	.file 29 "/usr/include/c++/11/cwctype"
	.file 30 "/usr/include/wchar.h"
	.file 31 "/usr/include/x86_64-linux-gnu/bits/types/struct_tm.h"
	.file 32 "/usr/include/c++/11/bits/predefined_ops.h"
	.file 33 "/usr/include/c++/11/bits/ptr_traits.h"
	.file 34 "/usr/include/x86_64-linux-gnu/bits/types.h"
	.file 35 "/usr/include/x86_64-linux-gnu/bits/stdint-intn.h"
	.file 36 "/usr/include/x86_64-linux-gnu/bits/stdint-uintn.h"
	.file 37 "/usr/include/stdint.h"
	.file 38 "/usr/include/locale.h"
	.file 39 "/usr/include/stdlib.h"
	.file 40 "/usr/include/x86_64-linux-gnu/bits/types/__fpos_t.h"
	.file 41 "/usr/include/stdio.h"
	.file 42 "/usr/include/x86_64-linux-gnu/bits/wctype-wchar.h"
	.file 43 "/usr/include/wctype.h"
	.file 44 "../ATC/Logger/LogConfig.h"
	.file 45 "../ATC/RandomStuff/CommonEnums.h"
	.file 46 "../ATC/Logger/Logger.h"
	.file 47 "../ATC/Utils/Utils.h"
	.file 48 "/usr/include/string.h"
	.file 49 "/usr/include/c++/11/bits/algorithmfwd.h"
	.section	.note.GNU-stack,"",@progbits
	.section	.note.gnu.property,"a"
	.align 8
	.long	1f - 0f
	.long	4f - 1f
	.long	5
0:
	.string	"GNU"
1:
	.align 8
	.long	0xc0000002
	.long	3f - 2f
2:
	.long	0x3
3:
	.align 8
4:
