	.file	"PutStd.cpp"
	.text
.Ltext0:
	.file 0 "/home/arsenyfucker/Cprojects/Lang/Translator/FrontEnd" "../Common/StandartAWP/PutStd.cpp"
	.section	.rodata
	.align 32
	.type	_ZL12NOT_DECLARED, @object
	.size	_ZL12NOT_DECLARED, 4
_ZL12NOT_DECLARED:
	.long	-111
	.zero	60
	.align 32
	.type	_ZL11NOT_A_LABEL, @object
	.size	_ZL11NOT_A_LABEL, 4
_ZL11NOT_A_LABEL:
	.long	-9
	.zero	60
	.align 32
	.type	_ZL21NUMBER_OF_INSTUCTIONS, @object
	.size	_ZL21NUMBER_OF_INSTUCTIONS, 4
_ZL21NUMBER_OF_INSTUCTIONS:
	.long	4
	.zero	60
	.align 32
.LC0:
	.string	"if"
	.zero	61
	.align 32
.LC1:
	.string	"else"
	.zero	59
	.align 32
.LC2:
	.string	"while"
	.zero	58
	.align 32
.LC3:
	.string	"return"
	.zero	57
	.section	.data.rel.ro.local,"aw"
	.align 32
	.type	_ZL12INSTRUCTIONS, @object
	.size	_ZL12INSTRUCTIONS, 32
_ZL12INSTRUCTIONS:
	.quad	.LC0
	.quad	.LC1
	.quad	.LC2
	.quad	.LC3
	.zero	32
	.section	.rodata
	.align 32
	.type	_ZL26NUMBER_OF_NATIVE_FUNCTIONS, @object
	.size	_ZL26NUMBER_OF_NATIVE_FUNCTIONS, 4
_ZL26NUMBER_OF_NATIVE_FUNCTIONS:
	.long	4
	.zero	60
	.align 32
.LC4:
	.string	"fout"
	.zero	59
	.align 32
.LC5:
	.string	"fin"
	.zero	60
	.align 32
.LC6:
	.string	"sin"
	.zero	60
	.align 32
.LC7:
	.string	"cos"
	.zero	60
	.section	.data.rel.ro.local
	.align 32
	.type	_ZL16NATIVE_FUNCTIONS, @object
	.size	_ZL16NATIVE_FUNCTIONS, 32
_ZL16NATIVE_FUNCTIONS:
	.quad	.LC4
	.quad	.LC5
	.quad	.LC6
	.quad	.LC7
	.zero	32
	.section	.rodata
	.align 32
	.type	_ZL24NUMBER_OF_INITIALIZATORS, @object
	.size	_ZL24NUMBER_OF_INITIALIZATORS, 4
_ZL24NUMBER_OF_INITIALIZATORS:
	.long	2
	.zero	60
	.align 32
.LC8:
	.string	"extern"
	.zero	57
	.align 32
.LC9:
	.string	"var"
	.zero	60
	.section	.data.rel.ro.local
	.align 32
	.type	_ZL14INITIALIZATORS, @object
	.size	_ZL14INITIALIZATORS, 16
_ZL14INITIALIZATORS:
	.quad	.LC8
	.quad	.LC9
	.zero	48
	.section	.rodata
	.align 32
	.type	_ZL28NUMBER_OF_FUNCTION_RET_TYPES, @object
	.size	_ZL28NUMBER_OF_FUNCTION_RET_TYPES, 4
_ZL28NUMBER_OF_FUNCTION_RET_TYPES:
	.long	2
	.zero	60
	.align 32
.LC10:
	.string	"double"
	.zero	57
	.align 32
.LC11:
	.string	"void"
	.zero	59
	.section	.data.rel.ro.local
	.align 32
	.type	_ZL18FUNCTION_RET_TYPES, @object
	.size	_ZL18FUNCTION_RET_TYPES, 16
_ZL18FUNCTION_RET_TYPES:
	.quad	.LC10
	.quad	.LC11
	.zero	48
	.section	.rodata
	.align 32
	.type	_ZL9OPERATORS, @object
	.size	_ZL9OPERATORS, 8
_ZL9OPERATORS:
	.string	"+-/*^<<"
	.zero	56
	.align 32
	.type	_ZL7COMMENT, @object
	.size	_ZL7COMMENT, 1
_ZL7COMMENT:
	.byte	35
	.zero	63
	.align 32
.LC12:
	.string	"main"
	.zero	59
	.section	.data.rel.ro.local
	.align 32
	.type	_ZL9MAIN_NAME, @object
	.size	_ZL9MAIN_NAME, 8
_ZL9MAIN_NAME:
	.quad	.LC12
	.zero	56
	.section	.rodata
	.align 32
	.type	_ZL24MAX_FUNCTION_NAME_LENGTH, @object
	.size	_ZL24MAX_FUNCTION_NAME_LENGTH, 4
_ZL24MAX_FUNCTION_NAME_LENGTH:
	.long	16
	.zero	60
	.align 32
	.type	_ZL15MAX_WORD_LENGTH, @object
	.size	_ZL15MAX_WORD_LENGTH, 4
_ZL15MAX_WORD_LENGTH:
	.long	16
	.zero	60
	.bss
	.align 32
	.type	_ZStL8__ioinit, @object
	.size	_ZStL8__ioinit, 1
_ZStL8__ioinit:
	.zero	64
	.section	.rodata
	.align 32
	.type	_ZL12STD_LOG_NAME, @object
	.size	_ZL12STD_LOG_NAME, 18
_ZL12STD_LOG_NAME:
	.string	"./logs/stdlog.ars"
	.zero	46
	.align 32
	.type	_ZL6CRINGE, @object
	.size	_ZL6CRINGE, 4
_ZL6CRINGE:
	.long	3565
	.zero	60
	.bss
	.align 32
	.type	_ZL8STD_FILE, @object
	.size	_ZL8STD_FILE, 8
_ZL8STD_FILE:
	.zero	64
	.align 32
	.type	_ZL10STRING_ARR, @object
	.size	_ZL10STRING_ARR, 8
_ZL10STRING_ARR:
	.zero	64
	.globl	STD_FUNCTION_RET_TYPE
	.section	.rodata
	.align 32
.LC13:
	.string	"TYPE"
	.zero	59
	.align 32
.LC14:
	.string	"VOID"
	.zero	59
	.section	.data.rel.local,"aw"
	.align 32
	.type	STD_FUNCTION_RET_TYPE, @object
	.size	STD_FUNCTION_RET_TYPE, 16
STD_FUNCTION_RET_TYPE:
	.quad	.LC13
	.quad	.LC14
	.zero	48
	.globl	NATIVE_FUNCTIONS_STD
	.section	.rodata
	.align 32
.LC15:
	.string	"OUT"
	.zero	60
	.align 32
.LC16:
	.string	"IN"
	.zero	61
	.align 32
.LC17:
	.string	"SIN"
	.zero	60
	.align 32
.LC18:
	.string	"COS"
	.zero	60
	.section	.data.rel.local
	.align 32
	.type	NATIVE_FUNCTIONS_STD, @object
	.size	NATIVE_FUNCTIONS_STD, 32
NATIVE_FUNCTIONS_STD:
	.quad	.LC15
	.quad	.LC16
	.quad	.LC17
	.quad	.LC18
	.zero	32
	.section	.rodata
	.align 32
.LC19:
	.string	"program"
	.zero	56
	.align 32
.LC20:
	.string	"ASSERTLOG:: Condition (%s) is false\n"
	.zero	59
	.align 32
.LC21:
	.string	"\033[93mASSERTLOG:: \033[0mCondition\033[95m (%s) \033[0mis \033[91mfalse\n\033[0m"
	.zero	32
	.align 32
.LC22:
	.string	"int PutProgramToStdAWP(const Program*, const char*)"
	.zero	44
	.align 32
.LC23:
	.string	"../Common/StandartAWP/PutStd.cpp"
	.zero	63
	.align 32
.LC24:
	.string	"\t%s:%d, function: %s\n"
	.zero	42
	.align 32
.LC25:
	.string	"It matches to error: (code %d) %s\n\n"
	.zero	60
	.align 32
.LC26:
	.string	"PutProgramToStdAWP"
	.zero	45
	.align 32
.LC27:
	.string	"Shutting down the system (%s:%d)"
	.zero	63
	.align 32
.LC28:
	.string	"echo LOX\n"
	.zero	54
	.align 32
.LC29:
	.string	"\033[91mFailed %s:%d (%s:%d)\n\033[0m"
	.zero	33
	.align 32
.LC30:
	.string	"Failed (%s:%d, %s:%d)"
	.zero	42
	.align 32
.LC31:
	.string	"file_name"
	.zero	54
	.align 32
.LC32:
	.string	"w"
	.zero	62
	.align 32
.LC33:
	.string	"\t%s: "
	.zero	58
	.align 32
.LC34:
	.string	"Couldn't open file %s\n"
	.zero	41
	.text
	.globl	_Z18PutProgramToStdAWPPK7ProgramPKc
	.type	_Z18PutProgramToStdAWPPK7ProgramPKc, @function
_Z18PutProgramToStdAWPPK7ProgramPKc:
.LASANPC2270:
.LFB2270:
	.file 1 "../Common/StandartAWP/PutStd.cpp"
	.loc 1 31 5
	.cfi_startproc
	endbr64
	pushq	%rbp
	.cfi_def_cfa_offset 16
	.cfi_offset 6, -16
	movq	%rsp, %rbp
	.cfi_def_cfa_register 6
	pushq	%rbx
	subq	$24, %rsp
	.cfi_offset 3, -24
	movq	%rdi, -24(%rbp)
	movq	%rsi, -32(%rbp)
	.loc 1 32 10
	cmpq	$0, -24(%rbp)
	jne	.L2
	.loc 1 32 47 discriminator 1
	call	_ZN6Logger11getInstanceEv@PLT
	movq	%rax, %rcx
	.loc 1 32 53 discriminator 1
	leaq	.LC19(%rip), %rax
	movq	%rax, %rdx
	leaq	.LC20(%rip), %rax
	movq	%rax, %rsi
	movq	%rcx, %rdi
	movl	$0, %eax
	call	_ZN6Logger3logEPKcz@PLT
	.loc 1 32 113 discriminator 1
	leaq	.LC19(%rip), %rax
	movq	%rax, %rsi
	leaq	.LC21(%rip), %rax
	movq	%rax, %rdi
	movl	$0, %eax
	call	printf@PLT
	.loc 1 32 261 discriminator 1
	call	_ZN6Logger11getInstanceEv@PLT
	movq	%rax, %rdi
	.loc 1 32 267 discriminator 1
	leaq	.LC22(%rip), %r8
	movl	$32, %ecx
	leaq	.LC23(%rip), %rax
	movq	%rax, %rdx
	leaq	.LC24(%rip), %rax
	movq	%rax, %rsi
	movl	$0, %eax
	call	_ZN6Logger3logEPKcz@PLT
	.loc 1 32 363 discriminator 1
	leaq	.LC22(%rip), %rax
	movq	%rax, %rcx
	movl	$32, %edx
	leaq	.LC23(%rip), %rax
	movq	%rax, %rsi
	leaq	.LC24(%rip), %rax
	movq	%rax, %rdi
	movl	$0, %eax
	call	printf@PLT
	.loc 1 32 472 discriminator 1
	call	_ZN6Logger11getInstanceEv@PLT
	movq	%rax, %rbx
	.loc 1 32 478 discriminator 1
	movl	$14, %edi
	call	strerror@PLT
	movq	%rax, %rcx
	movl	$14, %edx
	leaq	.LC25(%rip), %rax
	movq	%rax, %rsi
	movq	%rbx, %rdi
	movl	$0, %eax
	call	_ZN6Logger3logEPKcz@PLT
	.loc 1 32 27 discriminator 1
	call	_ZN6Logger11getInstanceEv@PLT
	movq	%rax, %rdi
	.loc 1 32 33 discriminator 1
	movl	$32, %ecx
	leaq	.LC26(%rip), %rax
	movq	%rax, %rdx
	leaq	.LC27(%rip), %rax
	movq	%rax, %rsi
	movl	$0, %eax
	call	_ZN6Logger3logEPKcz@PLT
	.loc 1 32 91 discriminator 1
	leaq	.LC28(%rip), %rax
	movq	%rax, %rdi
	call	system@PLT
	.loc 1 32 133 discriminator 1
	call	_ZN6Logger11getInstanceEv@PLT
	.loc 1 32 155 discriminator 1
	call	_ZN6Logger11getInstanceEv@PLT
	movq	%rax, %rbx
	.loc 1 32 168 discriminator 1
	movl	$32, %r9d
	leaq	.LC26(%rip), %r8
	movl	$32, %ecx
	leaq	.LC23(%rip), %rax
	movq	%rax, %rdx
	leaq	.LC29(%rip), %rax
	movq	%rax, %rsi
	movl	$-1, %edi
	movl	$0, %eax
	call	_Z6MsgRetiPKcz@PLT
	movl	%eax, %esi
	subq	$8, %rsp
	pushq	$32
	leaq	.LC26(%rip), %r9
	movl	$32, %r8d
	leaq	.LC23(%rip), %rax
	movq	%rax, %rcx
	leaq	.LC30(%rip), %rax
	movq	%rax, %rdx
	movq	%rbx, %rdi
	movl	$0, %eax
	call	_ZN6Logger9LogMsgRetEiPKcz@PLT
	addq	$16, %rsp
	.loc 1 32 365 discriminator 1
	jmp	.L3
.L2:
	.loc 1 33 10
	cmpq	$0, -32(%rbp)
	jne	.L4
	.loc 1 33 49 discriminator 1
	call	_ZN6Logger11getInstanceEv@PLT
	movq	%rax, %rcx
	.loc 1 33 55 discriminator 1
	leaq	.LC31(%rip), %rax
	movq	%rax, %rdx
	leaq	.LC20(%rip), %rax
	movq	%rax, %rsi
	movq	%rcx, %rdi
	movl	$0, %eax
	call	_ZN6Logger3logEPKcz@PLT
	.loc 1 33 117 discriminator 1
	leaq	.LC31(%rip), %rax
	movq	%rax, %rsi
	leaq	.LC21(%rip), %rax
	movq	%rax, %rdi
	movl	$0, %eax
	call	printf@PLT
	.loc 1 33 267 discriminator 1
	call	_ZN6Logger11getInstanceEv@PLT
	movq	%rax, %rdi
	.loc 1 33 273 discriminator 1
	leaq	.LC22(%rip), %r8
	movl	$33, %ecx
	leaq	.LC23(%rip), %rax
	movq	%rax, %rdx
	leaq	.LC24(%rip), %rax
	movq	%rax, %rsi
	movl	$0, %eax
	call	_ZN6Logger3logEPKcz@PLT
	.loc 1 33 369 discriminator 1
	leaq	.LC22(%rip), %rax
	movq	%rax, %rcx
	movl	$33, %edx
	leaq	.LC23(%rip), %rax
	movq	%rax, %rsi
	leaq	.LC24(%rip), %rax
	movq	%rax, %rdi
	movl	$0, %eax
	call	printf@PLT
	.loc 1 33 478 discriminator 1
	call	_ZN6Logger11getInstanceEv@PLT
	movq	%rax, %rbx
	.loc 1 33 484 discriminator 1
	movl	$14, %edi
	call	strerror@PLT
	movq	%rax, %rcx
	movl	$14, %edx
	leaq	.LC25(%rip), %rax
	movq	%rax, %rsi
	movq	%rbx, %rdi
	movl	$0, %eax
	call	_ZN6Logger3logEPKcz@PLT
	.loc 1 33 27 discriminator 1
	call	_ZN6Logger11getInstanceEv@PLT
	movq	%rax, %rdi
	.loc 1 33 33 discriminator 1
	movl	$33, %ecx
	leaq	.LC26(%rip), %rax
	movq	%rax, %rdx
	leaq	.LC27(%rip), %rax
	movq	%rax, %rsi
	movl	$0, %eax
	call	_ZN6Logger3logEPKcz@PLT
	.loc 1 33 91 discriminator 1
	leaq	.LC28(%rip), %rax
	movq	%rax, %rdi
	call	system@PLT
	.loc 1 33 133 discriminator 1
	call	_ZN6Logger11getInstanceEv@PLT
	.loc 1 33 155 discriminator 1
	call	_ZN6Logger11getInstanceEv@PLT
	movq	%rax, %rbx
	.loc 1 33 168 discriminator 1
	movl	$33, %r9d
	leaq	.LC26(%rip), %r8
	movl	$33, %ecx
	leaq	.LC23(%rip), %rax
	movq	%rax, %rdx
	leaq	.LC29(%rip), %rax
	movq	%rax, %rsi
	movl	$-1, %edi
	movl	$0, %eax
	call	_Z6MsgRetiPKcz@PLT
	movl	%eax, %esi
	subq	$8, %rsp
	pushq	$33
	leaq	.LC26(%rip), %r9
	movl	$33, %r8d
	leaq	.LC23(%rip), %rax
	movq	%rax, %rcx
	leaq	.LC30(%rip), %rax
	movq	%rax, %rdx
	movq	%rbx, %rdi
	movl	$0, %eax
	call	_ZN6Logger9LogMsgRetEiPKcz@PLT
	addq	$16, %rsp
	.loc 1 33 365 discriminator 1
	jmp	.L3
.L4:
	.loc 1 35 22
	movq	-32(%rbp), %rax
	leaq	.LC32(%rip), %rdx
	movq	%rdx, %rsi
	movq	%rax, %rdi
	call	fopen@PLT
	.loc 1 35 14
	movq	%rax, _ZL8STD_FILE(%rip)
	.loc 1 36 9
	movq	_ZL8STD_FILE(%rip), %rax
	.loc 1 36 5
	testq	%rax, %rax
	jne	.L5
	.loc 1 38 17
	leaq	.LC26(%rip), %rax
	movq	%rax, %rsi
	leaq	.LC33(%rip), %rax
	movq	%rax, %rdi
	movl	$0, %eax
	call	printf@PLT
	.loc 1 38 45
	movq	-32(%rbp), %rax
	movq	%rax, %rsi
	leaq	.LC34(%rip), %rax
	movq	%rax, %rdi
	movl	$0, %eax
	call	printf@PLT
	.loc 1 39 16
	movl	$-1, %eax
	jmp	.L3
.L5:
	.loc 1 42 27
	movq	-24(%rbp), %rax
	addq	$24, %rax
	movq	%rax, %rdx
	shrq	$3, %rdx
	addq	$2147450880, %rdx
	movzbl	(%rdx), %edx
	testb	%dl, %dl
	je	.L6
	movq	%rax, %rdi
	call	__asan_report_load8@PLT
.L6:
	movq	-24(%rbp), %rax
	movq	24(%rax), %rax
	.loc 1 42 16
	movq	%rax, _ZL10STRING_ARR(%rip)
	.loc 1 44 27
	movq	-24(%rbp), %rax
	addq	$16, %rax
	movq	%rax, %rdx
	shrq	$3, %rdx
	addq	$2147450880, %rdx
	movzbl	(%rdx), %edx
	testb	%dl, %dl
	je	.L7
	movq	%rax, %rdi
	call	__asan_report_load8@PLT
.L7:
	movq	-24(%rbp), %rax
	movq	16(%rax), %rax
	.loc 1 44 17
	movq	%rax, %rdi
	call	_ZL8PutTokenPK5Token
	.loc 1 44 33
	testl	%eax, %eax
	setne	%al
	.loc 1 44 5
	testb	%al, %al
	je	.L8
	.loc 1 45 16
	movl	$-1, %eax
	jmp	.L3
.L8:
	.loc 1 47 11
	movq	_ZL8STD_FILE(%rip), %rax
	movq	%rax, %rdi
	call	fclose@PLT
	.loc 1 49 12
	movl	$0, %eax
.L3:
	.loc 1 50 5
	movq	-8(%rbp), %rbx
	leave
	.cfi_def_cfa 7, 8
	ret
	.cfi_endproc
.LFE2270:
	.size	_Z18PutProgramToStdAWPPK7ProgramPKc, .-_Z18PutProgramToStdAWPPK7ProgramPKc
	.section	.rodata
	.align 32
.LC35:
	.string	"token"
	.zero	58
	.align 32
.LC36:
	.string	"{ NIL } "
	.zero	55
	.align 32
.LC37:
	.string	"{ %lg } "
	.zero	55
	.align 32
.LC38:
	.string	"{ \"%s\" } "
	.zero	54
	.align 32
.LC39:
	.string	"{ ST "
	.zero	58
	.align 32
.LC40:
	.string	"} "
	.zero	61
	.align 32
.LC41:
	.string	"{ FUNC "
	.zero	56
	.align 32
.LC42:
	.string	"{ \"%s\" "
	.zero	56
	.align 32
.LC43:
	.string	"{ %s "
	.zero	58
	.align 32
.LC44:
	.string	"{ CALL "
	.zero	56
	.align 32
.LC45:
	.string	"{ VAR "
	.zero	57
	.align 32
.LC46:
	.string	"{ EQ "
	.zero	58
	.align 32
.LC47:
	.string	"PutToken"
	.zero	55
	.align 32
.LC48:
	.string	"Ebat, assigment must have left token, as varible"
	.zero	47
	.align 32
.LC49:
	.string	"Wrong type"
	.zero	53
	.text
	.type	_ZL8PutTokenPK5Token, @function
_ZL8PutTokenPK5Token:
.LASANPC2271:
.LFB2271:
	.loc 1 53 5
	.cfi_startproc
	endbr64
	pushq	%rbp
	.cfi_def_cfa_offset 16
	.cfi_offset 6, -16
	movq	%rsp, %rbp
	.cfi_def_cfa_register 6
	subq	$48, %rsp
	movq	%rdi, -40(%rbp)
	.loc 1 56 13
	movq	_ZL10STRING_ARR(%rip), %rdx
	movq	-40(%rbp), %rax
	leaq	.LC35(%rip), %rcx
	movq	%rcx, %rsi
	movq	%rax, %rdi
	call	_Z8LogTokenPK5TokenPKcPS3_@PLT
	.loc 1 58 5
	cmpq	$0, -40(%rbp)
	jne	.L10
	.loc 1 60 17
	leaq	.LC36(%rip), %rax
	movq	%rax, %rdi
	movl	$0, %eax
	call	_ZL8stdprintPKcz
	.loc 1 61 16
	movl	$0, %eax
	jmp	.L11
.L10:
.LBB2:
	.loc 1 64 20
	movq	-40(%rbp), %rax
	addq	$16, %rax
	movq	%rax, %rdx
	movq	%rdx, %rax
	shrq	$3, %rax
	addq	$2147450880, %rax
	movzbl	(%rax), %eax
	testb	%al, %al
	setne	%cl
	cmpb	$3, %al
	setle	%al
	andl	%ecx, %eax
	testb	%al, %al
	je	.L12
	movq	%rdx, %rdi
	call	__asan_report_load4@PLT
.L12:
	movq	-40(%rbp), %rax
	movl	16(%rax), %eax
	.loc 1 64 5
	cmpl	$61, %eax
	ja	.L13
	movl	%eax, %eax
	leaq	0(,%rax,4), %rdx
	leaq	.L15(%rip), %rax
	movl	(%rdx,%rax), %eax
	cltq
	leaq	.L15(%rip), %rdx
	addq	%rdx, %rax
	notrack jmp	*%rax
	.section	.rodata
	.align 4
	.align 4
.L15:
	.long	.L13-.L15
	.long	.L26-.L15
	.long	.L25-.L15
	.long	.L24-.L15
	.long	.L23-.L15
	.long	.L22-.L15
	.long	.L21-.L15
	.long	.L20-.L15
	.long	.L19-.L15
	.long	.L18-.L15
	.long	.L17-.L15
	.long	.L16-.L15
	.long	.L13-.L15
	.long	.L13-.L15
	.long	.L13-.L15
	.long	.L13-.L15
	.long	.L13-.L15
	.long	.L13-.L15
	.long	.L13-.L15
	.long	.L13-.L15
	.long	.L13-.L15
	.long	.L13-.L15
	.long	.L13-.L15
	.long	.L13-.L15
	.long	.L13-.L15
	.long	.L13-.L15
	.long	.L13-.L15
	.long	.L13-.L15
	.long	.L13-.L15
	.long	.L13-.L15
	.long	.L13-.L15
	.long	.L13-.L15
	.long	.L13-.L15
	.long	.L13-.L15
	.long	.L13-.L15
	.long	.L13-.L15
	.long	.L13-.L15
	.long	.L13-.L15
	.long	.L13-.L15
	.long	.L13-.L15
	.long	.L13-.L15
	.long	.L13-.L15
	.long	.L13-.L15
	.long	.L13-.L15
	.long	.L13-.L15
	.long	.L13-.L15
	.long	.L13-.L15
	.long	.L13-.L15
	.long	.L13-.L15
	.long	.L13-.L15
	.long	.L13-.L15
	.long	.L13-.L15
	.long	.L13-.L15
	.long	.L13-.L15
	.long	.L13-.L15
	.long	.L13-.L15
	.long	.L13-.L15
	.long	.L13-.L15
	.long	.L13-.L15
	.long	.L13-.L15
	.long	.L13-.L15
	.long	.L14-.L15
	.text
.L19:
.LBB3:
	.loc 1 67 47
	movq	-40(%rbp), %rax
	addq	$24, %rax
	movq	%rax, %rdx
	shrq	$3, %rdx
	addq	$2147450880, %rdx
	movzbl	(%rdx), %edx
	testb	%dl, %dl
	je	.L27
	movq	%rax, %rdi
	call	__asan_report_load8@PLT
.L27:
	movq	-40(%rbp), %rax
	movq	24(%rax), %rax
	.loc 1 67 21
	movq	%rax, %xmm0
	leaq	.LC37(%rip), %rax
	movq	%rax, %rdi
	movl	$1, %eax
	call	_ZL8stdprintPKcz
	.loc 1 68 19
	movl	$0, %eax
	jmp	.L11
.L21:
	.loc 1 71 71
	movq	_ZL10STRING_ARR(%rip), %rcx
	.loc 1 71 62
	movq	-40(%rbp), %rax
	addq	$24, %rax
	movq	%rax, %rdx
	movq	%rdx, %rax
	shrq	$3, %rax
	addq	$2147450880, %rax
	movzbl	(%rax), %eax
	testb	%al, %al
	setne	%sil
	cmpb	$3, %al
	setle	%al
	andl	%esi, %eax
	testb	%al, %al
	je	.L28
	movq	%rdx, %rdi
	call	__asan_report_load4@PLT
.L28:
	movq	-40(%rbp), %rax
	movl	24(%rax), %eax
	cltq
	.loc 1 71 71
	salq	$3, %rax
	addq	%rcx, %rax
	.loc 1 71 22
	movq	%rax, %rdx
	movq	%rdx, %rcx
	shrq	$3, %rcx
	addq	$2147450880, %rcx
	movzbl	(%rcx), %ecx
	testb	%cl, %cl
	je	.L29
	movq	%rdx, %rdi
	call	__asan_report_load8@PLT
.L29:
	movq	(%rax), %rax
	movq	%rax, %rsi
	leaq	.LC38(%rip), %rax
	movq	%rax, %rdi
	movl	$0, %eax
	call	_ZL8stdprintPKcz
	.loc 1 72 20
	movl	$0, %eax
	jmp	.L11
.L26:
	.loc 1 75 22
	leaq	.LC39(%rip), %rax
	movq	%rax, %rdi
	movl	$0, %eax
	call	_ZL8stdprintPKcz
	.loc 1 77 34
	movq	-40(%rbp), %rax
	movq	%rax, %rdx
	shrq	$3, %rdx
	addq	$2147450880, %rdx
	movzbl	(%rdx), %edx
	testb	%dl, %dl
	je	.L30
	movq	%rax, %rdi
	call	__asan_report_load8@PLT
.L30:
	movq	-40(%rbp), %rax
	movq	(%rax), %rax
	.loc 1 77 25
	movq	%rax, %rdi
	call	_ZL8PutTokenPK5Token
	.loc 1 78 33
	movq	-40(%rbp), %rax
	addq	$8, %rax
	movq	%rax, %rdx
	shrq	$3, %rdx
	addq	$2147450880, %rdx
	movzbl	(%rdx), %edx
	testb	%dl, %dl
	je	.L31
	movq	%rax, %rdi
	call	__asan_report_load8@PLT
.L31:
	movq	-40(%rbp), %rax
	movq	8(%rax), %rax
	.loc 1 78 25
	movq	%rax, %rdi
	call	_ZL8PutTokenPK5Token
	.loc 1 80 22
	leaq	.LC40(%rip), %rax
	movq	%rax, %rdi
	movl	$0, %eax
	call	_ZL8stdprintPKcz
	.loc 1 82 20
	movl	$0, %eax
	jmp	.L11
.L18:
.LBB4:
	.loc 1 86 22
	leaq	.LC41(%rip), %rax
	movq	%rax, %rdi
	movl	$0, %eax
	call	_ZL8stdprintPKcz
	.loc 1 89 24
	movq	-40(%rbp), %rax
	movq	%rax, %rdx
	shrq	$3, %rdx
	addq	$2147450880, %rdx
	movzbl	(%rdx), %edx
	testb	%dl, %dl
	je	.L32
	movq	%rax, %rdi
	call	__asan_report_load8@PLT
.L32:
	movq	-40(%rbp), %rax
	movq	(%rax), %rax
	movq	%rax, -8(%rbp)
	.loc 1 90 71
	movq	_ZL10STRING_ARR(%rip), %rcx
	.loc 1 90 62
	movq	-8(%rbp), %rax
	addq	$24, %rax
	movq	%rax, %rdx
	movq	%rdx, %rax
	shrq	$3, %rax
	addq	$2147450880, %rax
	movzbl	(%rax), %eax
	testb	%al, %al
	setne	%sil
	cmpb	$3, %al
	setle	%al
	andl	%esi, %eax
	testb	%al, %al
	je	.L33
	movq	%rdx, %rdi
	call	__asan_report_load4@PLT
.L33:
	movq	-8(%rbp), %rax
	movl	24(%rax), %eax
	cltq
	.loc 1 90 71
	salq	$3, %rax
	addq	%rcx, %rax
	.loc 1 90 25
	movq	%rax, %rdx
	movq	%rdx, %rcx
	shrq	$3, %rcx
	addq	$2147450880, %rcx
	movzbl	(%rcx), %ecx
	testb	%cl, %cl
	je	.L34
	movq	%rdx, %rdi
	call	__asan_report_load8@PLT
.L34:
	movq	(%rax), %rax
	movq	%rax, %rsi
	leaq	.LC42(%rip), %rax
	movq	%rax, %rdi
	movl	$0, %eax
	call	_ZL8stdprintPKcz
	.loc 1 93 30
	leaq	.LC36(%rip), %rax
	movq	%rax, %rdi
	movl	$0, %eax
	call	_ZL8stdprintPKcz
	.loc 1 96 36
	movq	-8(%rbp), %rax
	addq	$8, %rax
	movq	%rax, %rdx
	shrq	$3, %rdx
	addq	$2147450880, %rdx
	movzbl	(%rdx), %edx
	testb	%dl, %dl
	je	.L35
	movq	%rax, %rdi
	call	__asan_report_load8@PLT
.L35:
	movq	-8(%rbp), %rax
	movq	8(%rax), %rax
	.loc 1 96 29
	movq	%rax, %rdi
	call	_ZL8PutTokenPK5Token
	.loc 1 98 25
	leaq	.LC40(%rip), %rax
	movq	%rax, %rdi
	movl	$0, %eax
	call	_ZL8stdprintPKcz
	.loc 1 101 33
	movq	-40(%rbp), %rax
	addq	$8, %rax
	movq	%rax, %rdx
	shrq	$3, %rdx
	addq	$2147450880, %rdx
	movzbl	(%rdx), %edx
	testb	%dl, %dl
	je	.L36
	movq	%rax, %rdi
	call	__asan_report_load8@PLT
.L36:
	movq	-40(%rbp), %rax
	movq	8(%rax), %rax
	.loc 1 101 25
	movq	%rax, %rdi
	call	_ZL8PutTokenPK5Token
	.loc 1 103 22
	leaq	.LC40(%rip), %rax
	movq	%rax, %rdi
	movl	$0, %eax
	call	_ZL8stdprintPKcz
	.loc 1 105 20
	movl	$0, %eax
	jmp	.L11
.L23:
.LBE4:
	.loc 1 110 67
	movq	-40(%rbp), %rax
	addq	$24, %rax
	movq	%rax, %rdx
	movq	%rdx, %rax
	shrq	$3, %rax
	addq	$2147450880, %rax
	movzbl	(%rax), %eax
	testb	%al, %al
	setne	%cl
	cmpb	$3, %al
	setle	%al
	andl	%ecx, %eax
	testb	%al, %al
	je	.L37
	movq	%rdx, %rdi
	call	__asan_report_load4@PLT
.L37:
	movq	-40(%rbp), %rax
	movl	24(%rax), %eax
	.loc 1 110 22
	movslq	%eax, %rdx
	leaq	0(,%rdx,8), %rcx
	leaq	STD_FUNCTION_RET_TYPE(%rip), %rdx
	addq	%rcx, %rdx
	movq	%rdx, %rcx
	shrq	$3, %rcx
	addq	$2147450880, %rcx
	movzbl	(%rcx), %ecx
	testb	%cl, %cl
	je	.L38
	movq	%rdx, %rdi
	call	__asan_report_load8@PLT
.L38:
	cltq
	leaq	0(,%rax,8), %rdx
	leaq	STD_FUNCTION_RET_TYPE(%rip), %rax
	movq	(%rdx,%rax), %rax
	movq	%rax, %rsi
	leaq	.LC43(%rip), %rax
	movq	%rax, %rdi
	movl	$0, %eax
	call	_ZL8stdprintPKcz
	.loc 1 112 34
	movq	-40(%rbp), %rax
	movq	%rax, %rdx
	shrq	$3, %rdx
	addq	$2147450880, %rdx
	movzbl	(%rdx), %edx
	testb	%dl, %dl
	je	.L39
	movq	%rax, %rdi
	call	__asan_report_load8@PLT
.L39:
	movq	-40(%rbp), %rax
	movq	(%rax), %rax
	.loc 1 112 25
	movq	%rax, %rdi
	call	_ZL8PutTokenPK5Token
	.loc 1 113 33
	movq	-40(%rbp), %rax
	addq	$8, %rax
	movq	%rax, %rdx
	shrq	$3, %rdx
	addq	$2147450880, %rdx
	movzbl	(%rdx), %edx
	testb	%dl, %dl
	je	.L40
	movq	%rax, %rdi
	call	__asan_report_load8@PLT
.L40:
	movq	-40(%rbp), %rax
	movq	8(%rax), %rax
	.loc 1 113 25
	movq	%rax, %rdi
	call	_ZL8PutTokenPK5Token
	.loc 1 115 21
	leaq	.LC40(%rip), %rax
	movq	%rax, %rdi
	movl	$0, %eax
	call	_ZL8stdprintPKcz
	.loc 1 117 20
	movl	$0, %eax
	jmp	.L11
.L17:
.LBB5:
	.loc 1 122 22
	leaq	.LC44(%rip), %rax
	movq	%rax, %rdi
	movl	$0, %eax
	call	_ZL8stdprintPKcz
	.loc 1 125 24
	movq	-40(%rbp), %rax
	movq	%rax, %rdx
	shrq	$3, %rdx
	addq	$2147450880, %rdx
	movzbl	(%rdx), %edx
	testb	%dl, %dl
	je	.L41
	movq	%rax, %rdi
	call	__asan_report_load8@PLT
.L41:
	movq	-40(%rbp), %rax
	movq	(%rax), %rax
	movq	%rax, -16(%rbp)
	.loc 1 126 71
	movq	_ZL10STRING_ARR(%rip), %rcx
	.loc 1 126 62
	movq	-16(%rbp), %rax
	addq	$24, %rax
	movq	%rax, %rdx
	movq	%rdx, %rax
	shrq	$3, %rax
	addq	$2147450880, %rax
	movzbl	(%rax), %eax
	testb	%al, %al
	setne	%sil
	cmpb	$3, %al
	setle	%al
	andl	%esi, %eax
	testb	%al, %al
	je	.L42
	movq	%rdx, %rdi
	call	__asan_report_load4@PLT
.L42:
	movq	-16(%rbp), %rax
	movl	24(%rax), %eax
	cltq
	.loc 1 126 71
	salq	$3, %rax
	addq	%rcx, %rax
	.loc 1 126 25
	movq	%rax, %rdx
	movq	%rdx, %rcx
	shrq	$3, %rcx
	addq	$2147450880, %rcx
	movzbl	(%rcx), %ecx
	testb	%cl, %cl
	je	.L43
	movq	%rdx, %rdi
	call	__asan_report_load8@PLT
.L43:
	movq	(%rax), %rax
	movq	%rax, %rsi
	leaq	.LC42(%rip), %rax
	movq	%rax, %rdi
	movl	$0, %eax
	call	_ZL8stdprintPKcz
	.loc 1 129 30
	leaq	.LC36(%rip), %rax
	movq	%rax, %rdi
	movl	$0, %eax
	call	_ZL8stdprintPKcz
	.loc 1 132 30
	leaq	.LC36(%rip), %rax
	movq	%rax, %rdi
	movl	$0, %eax
	call	_ZL8stdprintPKcz
	.loc 1 134 25
	leaq	.LC40(%rip), %rax
	movq	%rax, %rdi
	movl	$0, %eax
	call	_ZL8stdprintPKcz
	.loc 1 136 21
	leaq	.LC36(%rip), %rax
	movq	%rax, %rdi
	movl	$0, %eax
	call	_ZL8stdprintPKcz
	.loc 1 137 21
	leaq	.LC40(%rip), %rax
	movq	%rax, %rdi
	movl	$0, %eax
	call	_ZL8stdprintPKcz
	.loc 1 139 20
	movl	$0, %eax
	jmp	.L11
.L25:
.LBE5:
	.loc 1 143 34
	movq	-40(%rbp), %rax
	movq	%rax, %rdi
	call	_ZL14PutInstructionPK5Token
	.loc 1 143 40
	jmp	.L11
.L16:
	.loc 1 146 37
	movq	-40(%rbp), %rax
	movq	%rax, %rdi
	call	_ZL17PutNativeFunctionPK5Token
	.loc 1 146 43
	jmp	.L11
.L24:
	.loc 1 149 21
	leaq	.LC45(%rip), %rax
	movq	%rax, %rdi
	movl	$0, %eax
	call	_ZL8stdprintPKcz
	.loc 1 152 33
	movq	-40(%rbp), %rax
	movq	%rax, %rdx
	shrq	$3, %rdx
	addq	$2147450880, %rdx
	movzbl	(%rdx), %edx
	testb	%dl, %dl
	je	.L44
	movq	%rax, %rdi
	call	__asan_report_load8@PLT
.L44:
	movq	-40(%rbp), %rax
	movq	(%rax), %rax
	.loc 1 152 25
	movq	%rax, %rdi
	call	_ZL8PutTokenPK5Token
	.loc 1 155 33
	movq	-40(%rbp), %rax
	addq	$8, %rax
	movq	%rax, %rdx
	shrq	$3, %rdx
	addq	$2147450880, %rdx
	movzbl	(%rdx), %edx
	testb	%dl, %dl
	je	.L45
	movq	%rax, %rdi
	call	__asan_report_load8@PLT
.L45:
	movq	-40(%rbp), %rax
	movq	8(%rax), %rax
	.loc 1 155 25
	movq	%rax, %rdi
	call	_ZL8PutTokenPK5Token
	.loc 1 157 21
	leaq	.LC40(%rip), %rax
	movq	%rax, %rdi
	movl	$0, %eax
	call	_ZL8stdprintPKcz
	.loc 1 159 20
	movl	$0, %eax
	jmp	.L11
.L22:
	.loc 1 162 31
	movq	-40(%rbp), %rax
	movq	%rax, %rdi
	call	_ZL11PutOperatorPK5Token
	.loc 1 162 37
	jmp	.L11
.L14:
.LBB6:
	.loc 1 166 21
	leaq	.LC46(%rip), %rax
	movq	%rax, %rdi
	movl	$0, %eax
	call	_ZL8stdprintPKcz
	.loc 1 169 24
	movq	-40(%rbp), %rax
	movq	%rax, %rdx
	shrq	$3, %rdx
	addq	$2147450880, %rdx
	movzbl	(%rdx), %edx
	testb	%dl, %dl
	je	.L46
	movq	%rax, %rdi
	call	__asan_report_load8@PLT
.L46:
	movq	-40(%rbp), %rax
	movq	(%rax), %rax
	movq	%rax, -32(%rbp)
	.loc 1 171 26
	movq	-32(%rbp), %rax
	addq	$16, %rax
	movq	%rax, %rdx
	movq	%rdx, %rax
	shrq	$3, %rax
	addq	$2147450880, %rax
	movzbl	(%rax), %eax
	testb	%al, %al
	setne	%cl
	cmpb	$3, %al
	setle	%al
	andl	%ecx, %eax
	testb	%al, %al
	je	.L47
	movq	%rdx, %rdi
	call	__asan_report_load4@PLT
.L47:
	movq	-32(%rbp), %rax
	movl	16(%rax), %eax
	.loc 1 171 17
	cmpl	$7, %eax
	je	.L48
	.loc 1 173 29
	leaq	.LC47(%rip), %rax
	movq	%rax, %rsi
	leaq	.LC33(%rip), %rax
	movq	%rax, %rdi
	movl	$0, %eax
	call	printf@PLT
	.loc 1 173 57
	leaq	.LC48(%rip), %rax
	movq	%rax, %rdi
	call	puts@PLT
	.loc 1 174 28
	movl	$-1, %eax
	jmp	.L11
.L48:
	.loc 1 177 25
	movq	-32(%rbp), %rax
	movq	%rax, %rdi
	call	_ZL8PutTokenPK5Token
	.loc 1 180 24
	movq	-40(%rbp), %rax
	addq	$8, %rax
	movq	%rax, %rdx
	shrq	$3, %rdx
	addq	$2147450880, %rdx
	movzbl	(%rdx), %edx
	testb	%dl, %dl
	je	.L49
	movq	%rax, %rdi
	call	__asan_report_load8@PLT
.L49:
	movq	-40(%rbp), %rax
	movq	8(%rax), %rax
	movq	%rax, -24(%rbp)
	.loc 1 182 25
	movq	-24(%rbp), %rax
	movq	%rax, %rdi
	call	_ZL8PutTokenPK5Token
	.loc 1 184 21
	leaq	.LC40(%rip), %rax
	movq	%rax, %rdi
	movl	$0, %eax
	call	_ZL8stdprintPKcz
	.loc 1 186 20
	movl	$0, %eax
	jmp	.L11
.L20:
.LBE6:
	.loc 1 191 70
	movq	_ZL10STRING_ARR(%rip), %rcx
	.loc 1 191 61
	movq	-40(%rbp), %rax
	addq	$24, %rax
	movq	%rax, %rdx
	movq	%rdx, %rax
	shrq	$3, %rax
	addq	$2147450880, %rax
	movzbl	(%rax), %eax
	testb	%al, %al
	setne	%sil
	cmpb	$3, %al
	setle	%al
	andl	%esi, %eax
	testb	%al, %al
	je	.L50
	movq	%rdx, %rdi
	call	__asan_report_load4@PLT
.L50:
	movq	-40(%rbp), %rax
	movl	24(%rax), %eax
	cltq
	.loc 1 191 70
	salq	$3, %rax
	addq	%rcx, %rax
	.loc 1 191 21
	movq	%rax, %rdx
	movq	%rdx, %rcx
	shrq	$3, %rcx
	addq	$2147450880, %rcx
	movzbl	(%rcx), %ecx
	testb	%cl, %cl
	je	.L51
	movq	%rdx, %rdi
	call	__asan_report_load8@PLT
.L51:
	movq	(%rax), %rax
	movq	%rax, %rsi
	leaq	.LC38(%rip), %rax
	movq	%rax, %rdi
	movl	$0, %eax
	call	_ZL8stdprintPKcz
	.loc 1 193 20
	movl	$0, %eax
	jmp	.L11
.L13:
	.loc 1 196 19
	leaq	.LC49(%rip), %rax
	movq	%rax, %rdi
	call	puts@PLT
	.loc 1 198 23
	movq	_ZL10STRING_ARR(%rip), %rdx
	movq	-40(%rbp), %rax
	movq	%rdx, %rsi
	movq	%rax, %rdi
	call	_Z10PrintTokenPK5TokenPPKc@PLT
	.loc 1 200 20
	movl	$-1, %eax
.L11:
.LBE3:
.LBE2:
	.loc 1 206 5
	leave
	.cfi_def_cfa 7, 8
	ret
	.cfi_endproc
.LFE2271:
	.size	_ZL8PutTokenPK5Token, .-_ZL8PutTokenPK5Token
	.section	.rodata
	.align 32
.LC50:
	.string	"int PutInstruction(const Token*)"
	.zero	63
	.align 32
.LC51:
	.string	"PutInstruction"
	.zero	49
	.align 32
.LC52:
	.string	"Ebat, not a instruction token"
	.zero	34
	.align 32
.LC53:
	.string	"{ IF "
	.zero	58
	.align 32
.LC54:
	.string	"{ ELSE "
	.zero	56
	.align 32
.LC55:
	.string	"{ RET "
	.zero	57
	.text
	.type	_ZL14PutInstructionPK5Token, @function
_ZL14PutInstructionPK5Token:
.LASANPC2272:
.LFB2272:
	.loc 1 209 5
	.cfi_startproc
	endbr64
	pushq	%rbp
	.cfi_def_cfa_offset 16
	.cfi_offset 6, -16
	movq	%rsp, %rbp
	.cfi_def_cfa_register 6
	pushq	%rbx
	subq	$24, %rsp
	.cfi_offset 3, -24
	movq	%rdi, -24(%rbp)
	.loc 1 210 10
	cmpq	$0, -24(%rbp)
	jne	.L53
	.loc 1 210 45 discriminator 1
	call	_ZN6Logger11getInstanceEv@PLT
	movq	%rax, %rcx
	.loc 1 210 51 discriminator 1
	leaq	.LC35(%rip), %rax
	movq	%rax, %rdx
	leaq	.LC20(%rip), %rax
	movq	%rax, %rsi
	movq	%rcx, %rdi
	movl	$0, %eax
	call	_ZN6Logger3logEPKcz@PLT
	.loc 1 210 109 discriminator 1
	leaq	.LC35(%rip), %rax
	movq	%rax, %rsi
	leaq	.LC21(%rip), %rax
	movq	%rax, %rdi
	movl	$0, %eax
	call	printf@PLT
	.loc 1 210 255 discriminator 1
	call	_ZN6Logger11getInstanceEv@PLT
	movq	%rax, %rdi
	.loc 1 210 261 discriminator 1
	leaq	.LC50(%rip), %r8
	movl	$210, %ecx
	leaq	.LC23(%rip), %rax
	movq	%rax, %rdx
	leaq	.LC24(%rip), %rax
	movq	%rax, %rsi
	movl	$0, %eax
	call	_ZN6Logger3logEPKcz@PLT
	.loc 1 210 358 discriminator 1
	leaq	.LC50(%rip), %rax
	movq	%rax, %rcx
	movl	$210, %edx
	leaq	.LC23(%rip), %rax
	movq	%rax, %rsi
	leaq	.LC24(%rip), %rax
	movq	%rax, %rdi
	movl	$0, %eax
	call	printf@PLT
	.loc 1 210 468 discriminator 1
	call	_ZN6Logger11getInstanceEv@PLT
	movq	%rax, %rbx
	.loc 1 210 474 discriminator 1
	movl	$14, %edi
	call	strerror@PLT
	movq	%rax, %rcx
	movl	$14, %edx
	leaq	.LC25(%rip), %rax
	movq	%rax, %rsi
	movq	%rbx, %rdi
	movl	$0, %eax
	call	_ZN6Logger3logEPKcz@PLT
	.loc 1 210 27 discriminator 1
	call	_ZN6Logger11getInstanceEv@PLT
	movq	%rax, %rdi
	.loc 1 210 33 discriminator 1
	movl	$210, %ecx
	leaq	.LC51(%rip), %rax
	movq	%rax, %rdx
	leaq	.LC27(%rip), %rax
	movq	%rax, %rsi
	movl	$0, %eax
	call	_ZN6Logger3logEPKcz@PLT
	.loc 1 210 92 discriminator 1
	leaq	.LC28(%rip), %rax
	movq	%rax, %rdi
	call	system@PLT
	.loc 1 210 134 discriminator 1
	call	_ZN6Logger11getInstanceEv@PLT
	.loc 1 210 156 discriminator 1
	call	_ZN6Logger11getInstanceEv@PLT
	movq	%rax, %rbx
	.loc 1 210 169 discriminator 1
	movl	$210, %r9d
	leaq	.LC51(%rip), %r8
	movl	$210, %ecx
	leaq	.LC23(%rip), %rax
	movq	%rax, %rdx
	leaq	.LC29(%rip), %rax
	movq	%rax, %rsi
	movl	$-1, %edi
	movl	$0, %eax
	call	_Z6MsgRetiPKcz@PLT
	movl	%eax, %esi
	subq	$8, %rsp
	pushq	$210
	leaq	.LC51(%rip), %r9
	movl	$210, %r8d
	leaq	.LC23(%rip), %rax
	movq	%rax, %rcx
	leaq	.LC30(%rip), %rax
	movq	%rax, %rdx
	movq	%rbx, %rdi
	movl	$0, %eax
	call	_ZN6Logger9LogMsgRetEiPKcz@PLT
	addq	$16, %rsp
	.loc 1 210 370 discriminator 1
	jmp	.L54
.L53:
	.loc 1 212 16
	movq	-24(%rbp), %rax
	addq	$16, %rax
	movq	%rax, %rdx
	movq	%rdx, %rax
	shrq	$3, %rax
	addq	$2147450880, %rax
	movzbl	(%rax), %eax
	testb	%al, %al
	setne	%cl
	cmpb	$3, %al
	setle	%al
	andl	%ecx, %eax
	testb	%al, %al
	je	.L55
	movq	%rdx, %rdi
	call	__asan_report_load4@PLT
.L55:
	movq	-24(%rbp), %rax
	movl	16(%rax), %eax
	.loc 1 212 5
	cmpl	$2, %eax
	je	.L56
	.loc 1 214 17
	leaq	.LC51(%rip), %rax
	movq	%rax, %rsi
	leaq	.LC33(%rip), %rax
	movq	%rax, %rdi
	movl	$0, %eax
	call	printf@PLT
	.loc 1 214 45
	leaq	.LC52(%rip), %rax
	movq	%rax, %rdi
	call	puts@PLT
	.loc 1 215 19
	movq	_ZL10STRING_ARR(%rip), %rdx
	movq	-24(%rbp), %rax
	movq	%rdx, %rsi
	movq	%rax, %rdi
	call	_Z10PrintTokenPK5TokenPPKc@PLT
	.loc 1 216 16
	movl	$-1, %eax
	jmp	.L54
.L56:
	.loc 1 219 25
	movq	-24(%rbp), %rax
	addq	$24, %rax
	movq	%rax, %rdx
	movq	%rdx, %rax
	shrq	$3, %rax
	addq	$2147450880, %rax
	movzbl	(%rax), %eax
	testb	%al, %al
	setne	%cl
	cmpb	$3, %al
	setle	%al
	andl	%ecx, %eax
	testb	%al, %al
	je	.L57
	movq	%rdx, %rdi
	call	__asan_report_load4@PLT
.L57:
	movq	-24(%rbp), %rax
	movl	24(%rax), %eax
	.loc 1 219 5
	cmpl	$3, %eax
	je	.L58
	cmpl	$3, %eax
	jg	.L59
	cmpl	$2, %eax
	je	.L60
	cmpl	$2, %eax
	jg	.L59
	testl	%eax, %eax
	je	.L60
	cmpl	$1, %eax
	je	.L61
	jmp	.L59
.L60:
	.loc 1 223 21
	leaq	.LC53(%rip), %rax
	movq	%rax, %rdi
	movl	$0, %eax
	call	_ZL8stdprintPKcz
	.loc 1 226 33
	movq	-24(%rbp), %rax
	movq	%rax, %rdx
	shrq	$3, %rdx
	addq	$2147450880, %rdx
	movzbl	(%rdx), %edx
	testb	%dl, %dl
	je	.L62
	movq	%rax, %rdi
	call	__asan_report_load8@PLT
.L62:
	movq	-24(%rbp), %rax
	movq	(%rax), %rax
	.loc 1 226 25
	movq	%rax, %rdi
	call	_ZL8PutTokenPK5Token
	.loc 1 229 33
	movq	-24(%rbp), %rax
	addq	$8, %rax
	movq	%rax, %rdx
	shrq	$3, %rdx
	addq	$2147450880, %rdx
	movzbl	(%rdx), %edx
	testb	%dl, %dl
	je	.L63
	movq	%rax, %rdi
	call	__asan_report_load8@PLT
.L63:
	movq	-24(%rbp), %rax
	movq	8(%rax), %rax
	.loc 1 229 25
	movq	%rax, %rdi
	call	_ZL8PutTokenPK5Token
	.loc 1 231 21
	leaq	.LC40(%rip), %rax
	movq	%rax, %rdi
	movl	$0, %eax
	call	_ZL8stdprintPKcz
	.loc 1 233 20
	movl	$0, %eax
	jmp	.L54
.L61:
	.loc 1 236 21
	leaq	.LC54(%rip), %rax
	movq	%rax, %rdi
	movl	$0, %eax
	call	_ZL8stdprintPKcz
	.loc 1 239 34
	movq	-24(%rbp), %rax
	movq	%rax, %rdx
	shrq	$3, %rdx
	addq	$2147450880, %rdx
	movzbl	(%rdx), %edx
	testb	%dl, %dl
	je	.L64
	movq	%rax, %rdi
	call	__asan_report_load8@PLT
.L64:
	movq	-24(%rbp), %rax
	movq	(%rax), %rax
	.loc 1 239 25
	movq	%rax, %rdi
	call	_ZL8PutTokenPK5Token
	.loc 1 242 33
	movq	-24(%rbp), %rax
	addq	$8, %rax
	movq	%rax, %rdx
	shrq	$3, %rdx
	addq	$2147450880, %rdx
	movzbl	(%rdx), %edx
	testb	%dl, %dl
	je	.L65
	movq	%rax, %rdi
	call	__asan_report_load8@PLT
.L65:
	movq	-24(%rbp), %rax
	movq	8(%rax), %rax
	.loc 1 242 25
	movq	%rax, %rdi
	call	_ZL8PutTokenPK5Token
	.loc 1 244 21
	leaq	.LC40(%rip), %rax
	movq	%rax, %rdi
	movl	$0, %eax
	call	_ZL8stdprintPKcz
	.loc 1 246 20
	movl	$0, %eax
	jmp	.L54
.L58:
	.loc 1 249 21
	leaq	.LC55(%rip), %rax
	movq	%rax, %rdi
	movl	$0, %eax
	call	_ZL8stdprintPKcz
	.loc 1 252 33
	movq	-24(%rbp), %rax
	movq	%rax, %rdx
	shrq	$3, %rdx
	addq	$2147450880, %rdx
	movzbl	(%rdx), %edx
	testb	%dl, %dl
	je	.L66
	movq	%rax, %rdi
	call	__asan_report_load8@PLT
.L66:
	movq	-24(%rbp), %rax
	movq	(%rax), %rax
	.loc 1 252 25
	movq	%rax, %rdi
	call	_ZL8PutTokenPK5Token
	.loc 1 255 25
	leaq	.LC36(%rip), %rax
	movq	%rax, %rdi
	movl	$0, %eax
	call	_ZL8stdprintPKcz
	.loc 1 257 21
	leaq	.LC40(%rip), %rax
	movq	%rax, %rdi
	movl	$0, %eax
	call	_ZL8stdprintPKcz
	.loc 1 259 20
	movl	$0, %eax
	jmp	.L54
.L59:
	.loc 1 262 19
	leaq	.LC49(%rip), %rax
	movq	%rax, %rdi
	call	puts@PLT
	.loc 1 264 23
	movq	_ZL10STRING_ARR(%rip), %rdx
	movq	-24(%rbp), %rax
	movq	%rdx, %rsi
	movq	%rax, %rdi
	call	_Z10PrintTokenPK5TokenPPKc@PLT
	.loc 1 266 20
	movl	$-1, %eax
.L54:
	.loc 1 272 5
	movq	-8(%rbp), %rbx
	leave
	.cfi_def_cfa 7, 8
	ret
	.cfi_endproc
.LFE2272:
	.size	_ZL14PutInstructionPK5Token, .-_ZL14PutInstructionPK5Token
	.section	.rodata
	.align 32
.LC56:
	.string	"int PutNativeFunction(const Token*)"
	.zero	60
	.align 32
.LC57:
	.string	"PutNativeFunction"
	.zero	46
	.align 32
.LC58:
	.string	"Ebat, not a native function token"
	.zero	62
	.align 32
.LC59:
	.string	"{ PARAM "
	.zero	55
	.text
	.type	_ZL17PutNativeFunctionPK5Token, @function
_ZL17PutNativeFunctionPK5Token:
.LASANPC2273:
.LFB2273:
	.loc 1 275 5
	.cfi_startproc
	endbr64
	pushq	%rbp
	.cfi_def_cfa_offset 16
	.cfi_offset 6, -16
	movq	%rsp, %rbp
	.cfi_def_cfa_register 6
	pushq	%rbx
	subq	$24, %rsp
	.cfi_offset 3, -24
	movq	%rdi, -24(%rbp)
	.loc 1 276 10
	cmpq	$0, -24(%rbp)
	jne	.L68
	.loc 1 276 45 discriminator 1
	call	_ZN6Logger11getInstanceEv@PLT
	movq	%rax, %rcx
	.loc 1 276 51 discriminator 1
	leaq	.LC35(%rip), %rax
	movq	%rax, %rdx
	leaq	.LC20(%rip), %rax
	movq	%rax, %rsi
	movq	%rcx, %rdi
	movl	$0, %eax
	call	_ZN6Logger3logEPKcz@PLT
	.loc 1 276 109 discriminator 1
	leaq	.LC35(%rip), %rax
	movq	%rax, %rsi
	leaq	.LC21(%rip), %rax
	movq	%rax, %rdi
	movl	$0, %eax
	call	printf@PLT
	.loc 1 276 255 discriminator 1
	call	_ZN6Logger11getInstanceEv@PLT
	movq	%rax, %rdi
	.loc 1 276 261 discriminator 1
	leaq	.LC56(%rip), %r8
	movl	$276, %ecx
	leaq	.LC23(%rip), %rax
	movq	%rax, %rdx
	leaq	.LC24(%rip), %rax
	movq	%rax, %rsi
	movl	$0, %eax
	call	_ZN6Logger3logEPKcz@PLT
	.loc 1 276 358 discriminator 1
	leaq	.LC56(%rip), %rax
	movq	%rax, %rcx
	movl	$276, %edx
	leaq	.LC23(%rip), %rax
	movq	%rax, %rsi
	leaq	.LC24(%rip), %rax
	movq	%rax, %rdi
	movl	$0, %eax
	call	printf@PLT
	.loc 1 276 468 discriminator 1
	call	_ZN6Logger11getInstanceEv@PLT
	movq	%rax, %rbx
	.loc 1 276 474 discriminator 1
	movl	$14, %edi
	call	strerror@PLT
	movq	%rax, %rcx
	movl	$14, %edx
	leaq	.LC25(%rip), %rax
	movq	%rax, %rsi
	movq	%rbx, %rdi
	movl	$0, %eax
	call	_ZN6Logger3logEPKcz@PLT
	.loc 1 276 27 discriminator 1
	call	_ZN6Logger11getInstanceEv@PLT
	movq	%rax, %rdi
	.loc 1 276 33 discriminator 1
	movl	$276, %ecx
	leaq	.LC57(%rip), %rax
	movq	%rax, %rdx
	leaq	.LC27(%rip), %rax
	movq	%rax, %rsi
	movl	$0, %eax
	call	_ZN6Logger3logEPKcz@PLT
	.loc 1 276 92 discriminator 1
	leaq	.LC28(%rip), %rax
	movq	%rax, %rdi
	call	system@PLT
	.loc 1 276 134 discriminator 1
	call	_ZN6Logger11getInstanceEv@PLT
	.loc 1 276 156 discriminator 1
	call	_ZN6Logger11getInstanceEv@PLT
	movq	%rax, %rbx
	.loc 1 276 169 discriminator 1
	movl	$276, %r9d
	leaq	.LC57(%rip), %r8
	movl	$276, %ecx
	leaq	.LC23(%rip), %rax
	movq	%rax, %rdx
	leaq	.LC29(%rip), %rax
	movq	%rax, %rsi
	movl	$-1, %edi
	movl	$0, %eax
	call	_Z6MsgRetiPKcz@PLT
	movl	%eax, %esi
	subq	$8, %rsp
	pushq	$276
	leaq	.LC57(%rip), %r9
	movl	$276, %r8d
	leaq	.LC23(%rip), %rax
	movq	%rax, %rcx
	leaq	.LC30(%rip), %rax
	movq	%rax, %rdx
	movq	%rbx, %rdi
	movl	$0, %eax
	call	_ZN6Logger9LogMsgRetEiPKcz@PLT
	addq	$16, %rsp
	.loc 1 276 370 discriminator 1
	jmp	.L69
.L68:
	.loc 1 278 16
	movq	-24(%rbp), %rax
	addq	$16, %rax
	movq	%rax, %rdx
	movq	%rdx, %rax
	shrq	$3, %rax
	addq	$2147450880, %rax
	movzbl	(%rax), %eax
	testb	%al, %al
	setne	%cl
	cmpb	$3, %al
	setle	%al
	andl	%ecx, %eax
	testb	%al, %al
	je	.L70
	movq	%rdx, %rdi
	call	__asan_report_load4@PLT
.L70:
	movq	-24(%rbp), %rax
	movl	16(%rax), %eax
	.loc 1 278 5
	cmpl	$11, %eax
	je	.L71
	.loc 1 280 17
	leaq	.LC57(%rip), %rax
	movq	%rax, %rsi
	leaq	.LC33(%rip), %rax
	movq	%rax, %rdi
	movl	$0, %eax
	call	printf@PLT
	.loc 1 280 45
	leaq	.LC58(%rip), %rax
	movq	%rax, %rdi
	call	puts@PLT
	.loc 1 281 19
	movq	_ZL10STRING_ARR(%rip), %rdx
	movq	-24(%rbp), %rax
	movq	%rdx, %rsi
	movq	%rax, %rdi
	call	_Z10PrintTokenPK5TokenPPKc@PLT
	.loc 1 282 16
	movl	$-1, %eax
	jmp	.L69
.L71:
	.loc 1 285 25
	movq	-24(%rbp), %rax
	addq	$24, %rax
	movq	%rax, %rdx
	movq	%rdx, %rax
	shrq	$3, %rax
	addq	$2147450880, %rax
	movzbl	(%rax), %eax
	testb	%al, %al
	setne	%cl
	cmpb	$3, %al
	setle	%al
	andl	%ecx, %eax
	testb	%al, %al
	je	.L72
	movq	%rdx, %rdi
	call	__asan_report_load4@PLT
.L72:
	movq	-24(%rbp), %rax
	movl	24(%rax), %eax
	.loc 1 285 5
	cmpl	$1, %eax
	jg	.L73
	testl	%eax, %eax
	jns	.L74
	jmp	.L75
.L73:
	subl	$2, %eax
	cmpl	$1, %eax
	ja	.L75
	.loc 1 289 65
	movq	-24(%rbp), %rax
	addq	$24, %rax
	movq	%rax, %rdx
	movq	%rdx, %rax
	shrq	$3, %rax
	addq	$2147450880, %rax
	movzbl	(%rax), %eax
	testb	%al, %al
	setne	%cl
	cmpb	$3, %al
	setle	%al
	andl	%ecx, %eax
	testb	%al, %al
	je	.L76
	movq	%rdx, %rdi
	call	__asan_report_load4@PLT
.L76:
	movq	-24(%rbp), %rax
	movl	24(%rax), %eax
	.loc 1 289 21
	movslq	%eax, %rdx
	leaq	0(,%rdx,8), %rcx
	leaq	NATIVE_FUNCTIONS_STD(%rip), %rdx
	addq	%rcx, %rdx
	movq	%rdx, %rcx
	shrq	$3, %rcx
	addq	$2147450880, %rcx
	movzbl	(%rcx), %ecx
	testb	%cl, %cl
	je	.L77
	movq	%rdx, %rdi
	call	__asan_report_load8@PLT
.L77:
	cltq
	leaq	0(,%rax,8), %rdx
	leaq	NATIVE_FUNCTIONS_STD(%rip), %rax
	movq	(%rdx,%rax), %rax
	movq	%rax, %rsi
	leaq	.LC43(%rip), %rax
	movq	%rax, %rdi
	movl	$0, %eax
	call	_ZL8stdprintPKcz
	.loc 1 292 33
	movq	-24(%rbp), %rax
	movq	%rax, %rdx
	shrq	$3, %rdx
	addq	$2147450880, %rdx
	movzbl	(%rdx), %edx
	testb	%dl, %dl
	je	.L78
	movq	%rax, %rdi
	call	__asan_report_load8@PLT
.L78:
	movq	-24(%rbp), %rax
	movq	(%rax), %rax
	.loc 1 292 25
	movq	%rax, %rdi
	call	_ZL8PutTokenPK5Token
	.loc 1 295 25
	leaq	.LC36(%rip), %rax
	movq	%rax, %rdi
	movl	$0, %eax
	call	_ZL8stdprintPKcz
	.loc 1 297 21
	leaq	.LC40(%rip), %rax
	movq	%rax, %rdi
	movl	$0, %eax
	call	_ZL8stdprintPKcz
	.loc 1 299 20
	movl	$0, %eax
	jmp	.L69
.L74:
	.loc 1 303 65
	movq	-24(%rbp), %rax
	addq	$24, %rax
	movq	%rax, %rdx
	movq	%rdx, %rax
	shrq	$3, %rax
	addq	$2147450880, %rax
	movzbl	(%rax), %eax
	testb	%al, %al
	setne	%cl
	cmpb	$3, %al
	setle	%al
	andl	%ecx, %eax
	testb	%al, %al
	je	.L79
	movq	%rdx, %rdi
	call	__asan_report_load4@PLT
.L79:
	movq	-24(%rbp), %rax
	movl	24(%rax), %eax
	.loc 1 303 21
	movslq	%eax, %rdx
	leaq	0(,%rdx,8), %rcx
	leaq	NATIVE_FUNCTIONS_STD(%rip), %rdx
	addq	%rcx, %rdx
	movq	%rdx, %rcx
	shrq	$3, %rcx
	addq	$2147450880, %rcx
	movzbl	(%rcx), %ecx
	testb	%cl, %cl
	je	.L80
	movq	%rdx, %rdi
	call	__asan_report_load8@PLT
.L80:
	cltq
	leaq	0(,%rax,8), %rdx
	leaq	NATIVE_FUNCTIONS_STD(%rip), %rax
	movq	(%rdx,%rax), %rax
	movq	%rax, %rsi
	leaq	.LC43(%rip), %rax
	movq	%rax, %rdi
	movl	$0, %eax
	call	_ZL8stdprintPKcz
	.loc 1 306 25
	leaq	.LC59(%rip), %rax
	movq	%rax, %rdi
	movl	$0, %eax
	call	_ZL8stdprintPKcz
	.loc 1 308 34
	movq	-24(%rbp), %rax
	movq	%rax, %rdx
	shrq	$3, %rdx
	addq	$2147450880, %rdx
	movzbl	(%rdx), %edx
	testb	%dl, %dl
	je	.L81
	movq	%rax, %rdi
	call	__asan_report_load8@PLT
.L81:
	movq	-24(%rbp), %rax
	movq	(%rax), %rax
	.loc 1 308 25
	movq	%rax, %rdi
	call	_ZL8PutTokenPK5Token
	.loc 1 309 33
	movq	-24(%rbp), %rax
	addq	$8, %rax
	movq	%rax, %rdx
	shrq	$3, %rdx
	addq	$2147450880, %rdx
	movzbl	(%rdx), %edx
	testb	%dl, %dl
	je	.L82
	movq	%rax, %rdi
	call	__asan_report_load8@PLT
.L82:
	movq	-24(%rbp), %rax
	movq	8(%rax), %rax
	.loc 1 309 25
	movq	%rax, %rdi
	call	_ZL8PutTokenPK5Token
	.loc 1 311 25
	leaq	.LC40(%rip), %rax
	movq	%rax, %rdi
	movl	$0, %eax
	call	_ZL8stdprintPKcz
	.loc 1 313 21
	leaq	.LC36(%rip), %rax
	movq	%rax, %rdi
	movl	$0, %eax
	call	_ZL8stdprintPKcz
	.loc 1 315 21
	leaq	.LC40(%rip), %rax
	movq	%rax, %rdi
	movl	$0, %eax
	call	_ZL8stdprintPKcz
	.loc 1 317 20
	movl	$0, %eax
	jmp	.L69
.L75:
	.loc 1 320 19
	leaq	.LC49(%rip), %rax
	movq	%rax, %rdi
	call	puts@PLT
	.loc 1 322 23
	movq	_ZL10STRING_ARR(%rip), %rdx
	movq	-24(%rbp), %rax
	movq	%rdx, %rsi
	movq	%rax, %rdi
	call	_Z10PrintTokenPK5TokenPPKc@PLT
	.loc 1 324 20
	movl	$-1, %eax
.L69:
	.loc 1 330 5
	movq	-8(%rbp), %rbx
	leave
	.cfi_def_cfa 7, 8
	ret
	.cfi_endproc
.LFE2273:
	.size	_ZL17PutNativeFunctionPK5Token, .-_ZL17PutNativeFunctionPK5Token
	.section	.rodata
	.align 32
.LC60:
	.string	"int PutOperator(const Token*)"
	.zero	34
	.align 32
.LC61:
	.string	"PutOperator"
	.zero	52
	.align 32
.LC62:
	.string	"Ebat, not a operator token"
	.zero	37
	.text
	.type	_ZL11PutOperatorPK5Token, @function
_ZL11PutOperatorPK5Token:
.LASANPC2274:
.LFB2274:
	.loc 1 333 5
	.cfi_startproc
	endbr64
	pushq	%rbp
	.cfi_def_cfa_offset 16
	.cfi_offset 6, -16
	movq	%rsp, %rbp
	.cfi_def_cfa_register 6
	pushq	%rbx
	subq	$24, %rsp
	.cfi_offset 3, -24
	movq	%rdi, -24(%rbp)
	.loc 1 334 10
	cmpq	$0, -24(%rbp)
	jne	.L84
	.loc 1 334 45 discriminator 1
	call	_ZN6Logger11getInstanceEv@PLT
	movq	%rax, %rcx
	.loc 1 334 51 discriminator 1
	leaq	.LC35(%rip), %rax
	movq	%rax, %rdx
	leaq	.LC20(%rip), %rax
	movq	%rax, %rsi
	movq	%rcx, %rdi
	movl	$0, %eax
	call	_ZN6Logger3logEPKcz@PLT
	.loc 1 334 109 discriminator 1
	leaq	.LC35(%rip), %rax
	movq	%rax, %rsi
	leaq	.LC21(%rip), %rax
	movq	%rax, %rdi
	movl	$0, %eax
	call	printf@PLT
	.loc 1 334 255 discriminator 1
	call	_ZN6Logger11getInstanceEv@PLT
	movq	%rax, %rdi
	.loc 1 334 261 discriminator 1
	leaq	.LC60(%rip), %r8
	movl	$334, %ecx
	leaq	.LC23(%rip), %rax
	movq	%rax, %rdx
	leaq	.LC24(%rip), %rax
	movq	%rax, %rsi
	movl	$0, %eax
	call	_ZN6Logger3logEPKcz@PLT
	.loc 1 334 358 discriminator 1
	leaq	.LC60(%rip), %rax
	movq	%rax, %rcx
	movl	$334, %edx
	leaq	.LC23(%rip), %rax
	movq	%rax, %rsi
	leaq	.LC24(%rip), %rax
	movq	%rax, %rdi
	movl	$0, %eax
	call	printf@PLT
	.loc 1 334 468 discriminator 1
	call	_ZN6Logger11getInstanceEv@PLT
	movq	%rax, %rbx
	.loc 1 334 474 discriminator 1
	movl	$14, %edi
	call	strerror@PLT
	movq	%rax, %rcx
	movl	$14, %edx
	leaq	.LC25(%rip), %rax
	movq	%rax, %rsi
	movq	%rbx, %rdi
	movl	$0, %eax
	call	_ZN6Logger3logEPKcz@PLT
	.loc 1 334 27 discriminator 1
	call	_ZN6Logger11getInstanceEv@PLT
	movq	%rax, %rdi
	.loc 1 334 33 discriminator 1
	movl	$334, %ecx
	leaq	.LC61(%rip), %rax
	movq	%rax, %rdx
	leaq	.LC27(%rip), %rax
	movq	%rax, %rsi
	movl	$0, %eax
	call	_ZN6Logger3logEPKcz@PLT
	.loc 1 334 92 discriminator 1
	leaq	.LC28(%rip), %rax
	movq	%rax, %rdi
	call	system@PLT
	.loc 1 334 115 discriminator 1
	movl	$-2, %eax
	jmp	.L85
.L84:
	.loc 1 336 16
	movq	-24(%rbp), %rax
	addq	$16, %rax
	movq	%rax, %rdx
	movq	%rdx, %rax
	shrq	$3, %rax
	addq	$2147450880, %rax
	movzbl	(%rax), %eax
	testb	%al, %al
	setne	%cl
	cmpb	$3, %al
	setle	%al
	andl	%ecx, %eax
	testb	%al, %al
	je	.L86
	movq	%rdx, %rdi
	call	__asan_report_load4@PLT
.L86:
	movq	-24(%rbp), %rax
	movl	16(%rax), %eax
	.loc 1 336 5
	cmpl	$5, %eax
	je	.L87
	.loc 1 338 17
	leaq	.LC61(%rip), %rax
	movq	%rax, %rsi
	leaq	.LC33(%rip), %rax
	movq	%rax, %rdi
	movl	$0, %eax
	call	printf@PLT
	.loc 1 338 45
	leaq	.LC62(%rip), %rax
	movq	%rax, %rdi
	call	puts@PLT
	.loc 1 339 19
	movq	_ZL10STRING_ARR(%rip), %rdx
	movq	-24(%rbp), %rax
	movq	%rdx, %rsi
	movq	%rax, %rdi
	call	_Z10PrintTokenPK5TokenPPKc@PLT
	.loc 1 340 16
	movl	$-1, %eax
	jmp	.L85
.L87:
	.loc 1 343 25
	movq	-24(%rbp), %rax
	addq	$24, %rax
	movq	%rax, %rdx
	movq	%rdx, %rax
	shrq	$3, %rax
	addq	$2147450880, %rax
	movzbl	(%rax), %eax
	testb	%al, %al
	setne	%cl
	testb	%al, %al
	setle	%al
	andl	%ecx, %eax
	testb	%al, %al
	je	.L88
	movq	%rdx, %rdi
	call	__asan_report_load1@PLT
.L88:
	movq	-24(%rbp), %rax
	movzbl	24(%rax), %eax
	movsbl	%al, %eax
	.loc 1 343 5
	subl	$42, %eax
	cmpl	$52, %eax
	seta	%dl
	testb	%dl, %dl
	jne	.L89
	movabsq	$4503599627370539, %rdx
	movl	%eax, %ecx
	shrq	%cl, %rdx
	movq	%rdx, %rax
	andl	$1, %eax
	testq	%rax, %rax
	setne	%al
	testb	%al, %al
	je	.L89
	.loc 1 350 58
	movq	-24(%rbp), %rax
	movzbl	24(%rax), %eax
	.loc 1 350 17
	movsbl	%al, %eax
	movl	%eax, %edi
	call	_ZL17MathOperatorToStdi
	movq	%rax, %rsi
	leaq	.LC43(%rip), %rax
	movq	%rax, %rdi
	movl	$0, %eax
	call	_ZL8stdprintPKcz
	.loc 1 352 30
	movq	-24(%rbp), %rax
	movq	%rax, %rdx
	shrq	$3, %rdx
	addq	$2147450880, %rdx
	movzbl	(%rdx), %edx
	testb	%dl, %dl
	je	.L90
	movq	%rax, %rdi
	call	__asan_report_load8@PLT
.L90:
	movq	-24(%rbp), %rax
	movq	(%rax), %rax
	.loc 1 352 21
	movq	%rax, %rdi
	call	_ZL8PutTokenPK5Token
	.loc 1 353 29
	movq	-24(%rbp), %rax
	addq	$8, %rax
	movq	%rax, %rdx
	shrq	$3, %rdx
	addq	$2147450880, %rdx
	movzbl	(%rdx), %edx
	testb	%dl, %dl
	je	.L91
	movq	%rax, %rdi
	call	__asan_report_load8@PLT
.L91:
	movq	-24(%rbp), %rax
	movq	8(%rax), %rax
	.loc 1 353 21
	movq	%rax, %rdi
	call	_ZL8PutTokenPK5Token
	.loc 1 355 17
	leaq	.LC40(%rip), %rax
	movq	%rax, %rdi
	movl	$0, %eax
	call	_ZL8stdprintPKcz
	.loc 1 357 16
	movl	$0, %eax
	jmp	.L85
.L89:
	.loc 1 360 15
	leaq	.LC49(%rip), %rax
	movq	%rax, %rdi
	call	puts@PLT
	.loc 1 362 19
	movq	_ZL10STRING_ARR(%rip), %rdx
	movq	-24(%rbp), %rax
	movq	%rdx, %rsi
	movq	%rax, %rdi
	call	_Z10PrintTokenPK5TokenPPKc@PLT
	.loc 1 364 16
	movl	$-1, %eax
.L85:
	.loc 1 370 5
	movq	-8(%rbp), %rbx
	leave
	.cfi_def_cfa 7, 8
	ret
	.cfi_endproc
.LFE2274:
	.size	_ZL11PutOperatorPK5Token, .-_ZL11PutOperatorPK5Token
	.section	.rodata
	.align 32
.LC63:
	.string	"ADD"
	.zero	60
	.align 32
.LC64:
	.string	"SUB"
	.zero	60
	.align 32
.LC65:
	.string	"DIV"
	.zero	60
	.align 32
.LC66:
	.string	"MUL"
	.zero	60
	.align 32
.LC67:
	.string	"POW"
	.zero	60
	.align 32
.LC68:
	.string	"NOT SUPPORTED MATH OPERATOR"
	.zero	36
	.text
	.type	_ZL17MathOperatorToStdi, @function
_ZL17MathOperatorToStdi:
.LASANPC2275:
.LFB2275:
	.loc 1 373 5
	.cfi_startproc
	endbr64
	pushq	%rbp
	.cfi_def_cfa_offset 16
	.cfi_offset 6, -16
	movq	%rsp, %rbp
	.cfi_def_cfa_register 6
	movl	%edi, -4(%rbp)
	.loc 1 374 5
	cmpl	$94, -4(%rbp)
	je	.L93
	cmpl	$94, -4(%rbp)
	jg	.L94
	cmpl	$47, -4(%rbp)
	je	.L95
	cmpl	$47, -4(%rbp)
	jg	.L94
	cmpl	$45, -4(%rbp)
	je	.L96
	cmpl	$45, -4(%rbp)
	jg	.L94
	cmpl	$42, -4(%rbp)
	je	.L97
	cmpl	$43, -4(%rbp)
	jne	.L94
	.loc 1 376 26
	leaq	.LC63(%rip), %rax
	jmp	.L98
.L96:
	.loc 1 377 26
	leaq	.LC64(%rip), %rax
	jmp	.L98
.L95:
	.loc 1 378 26
	leaq	.LC65(%rip), %rax
	jmp	.L98
.L97:
	.loc 1 379 26
	leaq	.LC66(%rip), %rax
	jmp	.L98
.L93:
	.loc 1 380 26
	leaq	.LC67(%rip), %rax
	jmp	.L98
.L94:
	.loc 1 382 25
	leaq	.LC68(%rip), %rax
.L98:
	.loc 1 388 5
	popq	%rbp
	.cfi_def_cfa 7, 8
	ret
	.cfi_endproc
.LFE2275:
	.size	_ZL17MathOperatorToStdi, .-_ZL17MathOperatorToStdi
	.globl	__asan_stack_malloc_1
	.section	.rodata
.LC69:
	.string	"1 32 24 3 ptr"
	.align 32
.LC70:
	.string	"format"
	.zero	57
	.align 32
.LC71:
	.string	"void stdprint(const char*, ...)"
	.zero	32
	.align 32
.LC72:
	.string	"stdprint"
	.zero	55
	.text
	.type	_ZL8stdprintPKcz, @function
_ZL8stdprintPKcz:
.LASANPC2276:
.LFB2276:
	.loc 1 391 5
	.cfi_startproc
	endbr64
	pushq	%rbp
	.cfi_def_cfa_offset 16
	.cfi_offset 6, -16
	movq	%rsp, %rbp
	.cfi_def_cfa_register 6
	pushq	%r14
	pushq	%r13
	pushq	%r12
	pushq	%rbx
	subq	$288, %rsp
	.cfi_offset 14, -24
	.cfi_offset 13, -32
	.cfi_offset 12, -40
	.cfi_offset 3, -48
	movq	%rdi, -312(%rbp)
	movq	%rsi, -200(%rbp)
	movq	%rdx, -192(%rbp)
	movq	%rcx, -184(%rbp)
	movq	%r8, -176(%rbp)
	movq	%r9, -168(%rbp)
	testb	%al, %al
	je	.L103
	movaps	%xmm0, -160(%rbp)
	movaps	%xmm1, -144(%rbp)
	movaps	%xmm2, -128(%rbp)
	movaps	%xmm3, -112(%rbp)
	movaps	%xmm4, -96(%rbp)
	movaps	%xmm5, -80(%rbp)
	movaps	%xmm6, -64(%rbp)
	movaps	%xmm7, -48(%rbp)
.L103:
	leaq	-304(%rbp), %rbx
	movq	%rbx, %r14
	cmpl	$0, __asan_option_detect_stack_use_after_return(%rip)
	je	.L99
	movl	$96, %edi
	call	__asan_stack_malloc_1@PLT
	testq	%rax, %rax
	je	.L99
	movq	%rax, %rbx
.L99:
	leaq	96(%rbx), %rax
	movq	$1102416563, (%rbx)
	leaq	.LC69(%rip), %rdx
	movq	%rdx, 8(%rbx)
	leaq	.LASANPC2276(%rip), %rdx
	movq	%rdx, 16(%rbx)
	movq	%rbx, %r12
	shrq	$3, %r12
	movl	$-235802127, 2147450880(%r12)
	movl	$-218103808, 2147450884(%r12)
	movl	$-202116109, 2147450888(%r12)
	.loc 1 392 10
	cmpq	$0, -312(%rbp)
	jne	.L104
	.loc 1 392 46 discriminator 1
	call	_ZN6Logger11getInstanceEv@PLT
	movq	%rax, %rcx
	.loc 1 392 52 discriminator 1
	leaq	.LC70(%rip), %rax
	movq	%rax, %rdx
	leaq	.LC20(%rip), %rax
	movq	%rax, %rsi
	movq	%rcx, %rdi
	movl	$0, %eax
	call	_ZN6Logger3logEPKcz@PLT
	.loc 1 392 111 discriminator 1
	leaq	.LC70(%rip), %rax
	movq	%rax, %rsi
	leaq	.LC21(%rip), %rax
	movq	%rax, %rdi
	movl	$0, %eax
	call	printf@PLT
	.loc 1 392 258 discriminator 1
	call	_ZN6Logger11getInstanceEv@PLT
	movq	%rax, %rdi
	.loc 1 392 264 discriminator 1
	leaq	.LC71(%rip), %r8
	movl	$392, %ecx
	leaq	.LC23(%rip), %rax
	movq	%rax, %rdx
	leaq	.LC24(%rip), %rax
	movq	%rax, %rsi
	movl	$0, %eax
	call	_ZN6Logger3logEPKcz@PLT
	.loc 1 392 361 discriminator 1
	leaq	.LC71(%rip), %rax
	movq	%rax, %rcx
	movl	$392, %edx
	leaq	.LC23(%rip), %rax
	movq	%rax, %rsi
	leaq	.LC24(%rip), %rax
	movq	%rax, %rdi
	movl	$0, %eax
	call	printf@PLT
	.loc 1 392 471 discriminator 1
	call	_ZN6Logger11getInstanceEv@PLT
	movq	%rax, %r13
	.loc 1 392 477 discriminator 1
	movl	$14, %edi
	call	strerror@PLT
	movq	%rax, %rcx
	movl	$14, %edx
	leaq	.LC25(%rip), %rax
	movq	%rax, %rsi
	movq	%r13, %rdi
	movl	$0, %eax
	call	_ZN6Logger3logEPKcz@PLT
	.loc 1 392 27 discriminator 1
	call	_ZN6Logger11getInstanceEv@PLT
	movq	%rax, %rdi
	.loc 1 392 33 discriminator 1
	movl	$392, %ecx
	leaq	.LC72(%rip), %rax
	movq	%rax, %rdx
	leaq	.LC27(%rip), %rax
	movq	%rax, %rsi
	movl	$0, %eax
	call	_ZN6Logger3logEPKcz@PLT
	.loc 1 392 92 discriminator 1
	leaq	.LC28(%rip), %rax
	movq	%rax, %rdi
	call	system@PLT
	.loc 1 392 108 discriminator 1
	jmp	.L102
.L104:
	.loc 1 394 13
	leaq	-64(%rax), %rdx
	movq	%rdx, %rcx
	shrq	$3, %rcx
	addq	$2147450880, %rcx
	movzbl	(%rcx), %ecx
	testb	%cl, %cl
	setne	%sil
	testb	%cl, %cl
	setle	%cl
	andl	%ecx, %esi
	movl	%esi, %edi
	movl	$24, %ecx
	subq	$1, %rcx
	leaq	(%rdx,%rcx), %rsi
	movq	%rsi, %rcx
	shrq	$3, %rcx
	addq	$2147450880, %rcx
	movzbl	(%rcx), %ecx
	testb	%cl, %cl
	setne	%r8b
	andl	$7, %esi
	cmpb	%cl, %sil
	setge	%cl
	andl	%r8d, %ecx
	orl	%edi, %ecx
	testb	%cl, %cl
	je	.L106
	movl	$24, %esi
	movq	%rdx, %rdi
	call	__asan_report_store_n@PLT
.L106:
	movq	$0, -64(%rax)
	movq	$0, -56(%rax)
	movq	$0, -48(%rax)
	.loc 1 395 22
	movl	$8, -64(%rax)
	movl	$48, -60(%rax)
	leaq	16(%rbp), %rdi
	movq	%rdi, -56(%rax)
	leaq	-208(%rbp), %rdx
	movq	%rdx, -48(%rax)
	.loc 1 397 13
	movq	_ZL8STD_FILE(%rip), %rcx
	leaq	-64(%rax), %rdx
	movq	-312(%rbp), %rax
	movq	%rax, %rsi
	movq	%rcx, %rdi
	call	vfprintf@PLT
	.loc 1 401 5
	nop
.L102:
	.loc 1 391 5
	cmpq	%rbx, %r14
	je	.L100
	movq	$1172321806, (%rbx)
	movabsq	$-723401728380766731, %rax
	movq	%rax, 2147450880(%r12)
	movl	$-168430091, 2147450888(%r12)
	movq	120(%rbx), %rax
	movb	$0, (%rax)
	jmp	.L101
.L100:
	movq	$0, 2147450880(%r12)
	movl	$0, 2147450888(%r12)
.L101:
	.loc 1 402 5
	addq	$288, %rsp
	popq	%rbx
	popq	%r12
	popq	%r13
	popq	%r14
	popq	%rbp
	.cfi_def_cfa 7, 8
	ret
	.cfi_endproc
.LFE2276:
	.size	_ZL8stdprintPKcz, .-_ZL8stdprintPKcz
	.type	_Z41__static_initialization_and_destruction_0ii, @function
_Z41__static_initialization_and_destruction_0ii:
.LASANPC2943:
.LFB2943:
	.loc 1 402 5
	.cfi_startproc
	endbr64
	pushq	%rbp
	.cfi_def_cfa_offset 16
	.cfi_offset 6, -16
	movq	%rsp, %rbp
	.cfi_def_cfa_register 6
	subq	$16, %rsp
	movl	%edi, -4(%rbp)
	movl	%esi, -8(%rbp)
	.loc 1 402 5
	cmpl	$1, -4(%rbp)
	jne	.L111
	.loc 1 402 5 is_stmt 0 discriminator 1
	leaq	.LC23(%rip), %rax
	movq	%rax, %rdi
	call	__asan_before_dynamic_init@PLT
	cmpl	$65535, -8(%rbp)
	jne	.L110
	.file 2 "/usr/include/c++/11/iostream"
	.loc 2 74 25 is_stmt 1
	leaq	_ZStL8__ioinit(%rip), %rax
	movq	%rax, %rdi
	call	_ZNSt8ios_base4InitC1Ev@PLT
	leaq	__dso_handle(%rip), %rax
	movq	%rax, %rdx
	leaq	_ZStL8__ioinit(%rip), %rax
	movq	%rax, %rsi
	movq	_ZNSt8ios_base4InitD1Ev@GOTPCREL(%rip), %rax
	movq	%rax, %rdi
	call	__cxa_atexit@PLT
.L110:
	.loc 2 74 25 is_stmt 0 discriminator 1
	call	__asan_after_dynamic_init@PLT
.L111:
	.loc 1 402 5 is_stmt 1
	nop
	leave
	.cfi_def_cfa 7, 8
	ret
	.cfi_endproc
.LFE2943:
	.size	_Z41__static_initialization_and_destruction_0ii, .-_Z41__static_initialization_and_destruction_0ii
	.type	_GLOBAL__sub_I_STD_FUNCTION_RET_TYPE, @function
_GLOBAL__sub_I_STD_FUNCTION_RET_TYPE:
.LASANPC2944:
.LFB2944:
	.loc 1 402 5
	.cfi_startproc
	endbr64
	pushq	%rbp
	.cfi_def_cfa_offset 16
	.cfi_offset 6, -16
	movq	%rsp, %rbp
	.cfi_def_cfa_register 6
	.loc 1 402 5
	movl	$65535, %esi
	movl	$1, %edi
	call	_Z41__static_initialization_and_destruction_0ii
	popq	%rbp
	.cfi_def_cfa 7, 8
	ret
	.cfi_endproc
.LFE2944:
	.size	_GLOBAL__sub_I_STD_FUNCTION_RET_TYPE, .-_GLOBAL__sub_I_STD_FUNCTION_RET_TYPE
	.section	.init_array,"aw"
	.align 8
	.quad	_GLOBAL__sub_I_STD_FUNCTION_RET_TYPE
	.globl	__odr_asan.NATIVE_FUNCTIONS_STD
	.bss
	.type	__odr_asan.NATIVE_FUNCTIONS_STD, @object
	.size	__odr_asan.NATIVE_FUNCTIONS_STD, 1
__odr_asan.NATIVE_FUNCTIONS_STD:
	.zero	1
	.section	.data.rel.local
	.align 16
	.type	.LASANLOC1, @object
	.size	.LASANLOC1, 16
.LASANLOC1:
	.quad	.LC23
	.long	17
	.long	13
	.globl	__odr_asan.STD_FUNCTION_RET_TYPE
	.bss
	.type	__odr_asan.STD_FUNCTION_RET_TYPE, @object
	.size	__odr_asan.STD_FUNCTION_RET_TYPE, 1
__odr_asan.STD_FUNCTION_RET_TYPE:
	.zero	1
	.section	.data.rel.local
	.align 16
	.type	.LASANLOC2, @object
	.size	.LASANLOC2, 16
.LASANLOC2:
	.quad	.LC23
	.long	16
	.long	13
	.align 16
	.type	.LASANLOC3, @object
	.size	.LASANLOC3, 16
.LASANLOC3:
	.quad	.LC23
	.long	14
	.long	21
	.align 16
	.type	.LASANLOC4, @object
	.size	.LASANLOC4, 16
.LASANLOC4:
	.quad	.LC23
	.long	13
	.long	14
	.section	.rodata
	.align 8
.LC73:
	.string	"../ATC/RandomStuff/CommonEnums.h"
	.section	.data.rel.local
	.align 16
	.type	.LASANLOC5, @object
	.size	.LASANLOC5, 16
.LASANLOC5:
	.quad	.LC73
	.long	3
	.long	11
	.section	.rodata
.LC74:
	.string	"../ATC/Logger/LogConfig.h"
	.section	.data.rel.local
	.align 16
	.type	.LASANLOC6, @object
	.size	.LASANLOC6, 16
.LASANLOC6:
	.quad	.LC74
	.long	3
	.long	12
	.section	.rodata
.LC75:
	.string	"/usr/include/c++/11/iostream"
	.section	.data.rel.local
	.align 16
	.type	.LASANLOC7, @object
	.size	.LASANLOC7, 16
.LASANLOC7:
	.quad	.LC75
	.long	74
	.long	25
	.section	.rodata
.LC76:
	.string	"../Common/Grammar.h"
	.section	.data.rel.local
	.align 16
	.type	.LASANLOC8, @object
	.size	.LASANLOC8, 16
.LASANLOC8:
	.quad	.LC76
	.long	65
	.long	11
	.align 16
	.type	.LASANLOC9, @object
	.size	.LASANLOC9, 16
.LASANLOC9:
	.quad	.LC76
	.long	64
	.long	11
	.align 16
	.type	.LASANLOC10, @object
	.size	.LASANLOC10, 16
.LASANLOC10:
	.quad	.LC76
	.long	62
	.long	19
	.align 16
	.type	.LASANLOC11, @object
	.size	.LASANLOC11, 16
.LASANLOC11:
	.quad	.LC76
	.long	60
	.long	12
	.align 16
	.type	.LASANLOC12, @object
	.size	.LASANLOC12, 16
.LASANLOC12:
	.quad	.LC76
	.long	49
	.long	12
	.align 16
	.type	.LASANLOC13, @object
	.size	.LASANLOC13, 16
.LASANLOC13:
	.quad	.LC76
	.long	42
	.long	19
	.align 16
	.type	.LASANLOC14, @object
	.size	.LASANLOC14, 16
.LASANLOC14:
	.quad	.LC76
	.long	41
	.long	11
	.align 16
	.type	.LASANLOC15, @object
	.size	.LASANLOC15, 16
.LASANLOC15:
	.quad	.LC76
	.long	34
	.long	19
	.align 16
	.type	.LASANLOC16, @object
	.size	.LASANLOC16, 16
.LASANLOC16:
	.quad	.LC76
	.long	33
	.long	11
	.align 16
	.type	.LASANLOC17, @object
	.size	.LASANLOC17, 16
.LASANLOC17:
	.quad	.LC76
	.long	24
	.long	19
	.align 16
	.type	.LASANLOC18, @object
	.size	.LASANLOC18, 16
.LASANLOC18:
	.quad	.LC76
	.long	23
	.long	11
	.align 16
	.type	.LASANLOC19, @object
	.size	.LASANLOC19, 16
.LASANLOC19:
	.quad	.LC76
	.long	14
	.long	19
	.align 16
	.type	.LASANLOC20, @object
	.size	.LASANLOC20, 16
.LASANLOC20:
	.quad	.LC76
	.long	13
	.long	11
	.section	.rodata
	.align 8
.LC77:
	.string	"../Common/Structures/Tabels/Tabels.h"
	.section	.data.rel.local
	.align 16
	.type	.LASANLOC21, @object
	.size	.LASANLOC21, 16
.LASANLOC21:
	.quad	.LC77
	.long	8
	.long	11
	.align 16
	.type	.LASANLOC22, @object
	.size	.LASANLOC22, 16
.LASANLOC22:
	.quad	.LC77
	.long	7
	.long	11
	.section	.rodata
.LC78:
	.string	"NATIVE_FUNCTIONS_STD"
.LC79:
	.string	"STD_FUNCTION_RET_TYPE"
.LC80:
	.string	"STRING_ARR"
.LC81:
	.string	"STD_FILE"
.LC82:
	.string	"CRINGE"
.LC83:
	.string	"STD_LOG_NAME"
.LC84:
	.string	"__ioinit"
.LC85:
	.string	"MAX_WORD_LENGTH"
.LC86:
	.string	"MAX_FUNCTION_NAME_LENGTH"
.LC87:
	.string	"MAIN_NAME"
.LC88:
	.string	"COMMENT"
.LC89:
	.string	"OPERATORS"
.LC90:
	.string	"FUNCTION_RET_TYPES"
.LC91:
	.string	"NUMBER_OF_FUNCTION_RET_TYPES"
.LC92:
	.string	"INITIALIZATORS"
.LC93:
	.string	"NUMBER_OF_INITIALIZATORS"
.LC94:
	.string	"NATIVE_FUNCTIONS"
.LC95:
	.string	"NUMBER_OF_NATIVE_FUNCTIONS"
.LC96:
	.string	"INSTRUCTIONS"
.LC97:
	.string	"NUMBER_OF_INSTUCTIONS"
.LC98:
	.string	"NOT_A_LABEL"
.LC99:
	.string	"NOT_DECLARED"
.LC100:
	.string	"*.LC59"
.LC101:
	.string	"*.LC25"
.LC102:
	.string	"*.LC18"
.LC103:
	.string	"*.LC22"
.LC104:
	.string	"*.LC49"
.LC105:
	.string	"*.LC16"
.LC106:
	.string	"*.LC45"
.LC107:
	.string	"*.LC35"
.LC108:
	.string	"*.LC51"
.LC109:
	.string	"*.LC62"
.LC110:
	.string	"*.LC26"
.LC111:
	.string	"*.LC37"
.LC112:
	.string	"*.LC41"
.LC113:
	.string	"*.LC20"
.LC114:
	.string	"*.LC53"
.LC115:
	.string	"*.LC6"
.LC116:
	.string	"*.LC61"
.LC117:
	.string	"*.LC5"
.LC118:
	.string	"*.LC39"
.LC119:
	.string	"*.LC40"
.LC120:
	.string	"*.LC2"
.LC121:
	.string	"*.LC46"
.LC122:
	.string	"*.LC12"
.LC123:
	.string	"*.LC68"
.LC124:
	.string	"*.LC23"
.LC125:
	.string	"*.LC21"
.LC126:
	.string	"*.LC42"
.LC127:
	.string	"*.LC28"
.LC128:
	.string	"*.LC72"
.LC129:
	.string	"*.LC27"
.LC130:
	.string	"*.LC14"
.LC131:
	.string	"*.LC43"
.LC132:
	.string	"*.LC4"
.LC133:
	.string	"*.LC47"
.LC134:
	.string	"*.LC63"
.LC135:
	.string	"*.LC38"
.LC136:
	.string	"*.LC0"
.LC137:
	.string	"*.LC29"
.LC138:
	.string	"*.LC9"
.LC139:
	.string	"*.LC36"
.LC140:
	.string	"*.LC52"
.LC141:
	.string	"*.LC33"
.LC142:
	.string	"*.LC56"
.LC143:
	.string	"*.LC65"
.LC144:
	.string	"*.LC70"
.LC145:
	.string	"*.LC8"
.LC146:
	.string	"*.LC60"
.LC147:
	.string	"*.LC44"
.LC148:
	.string	"*.LC50"
.LC149:
	.string	"*.LC55"
.LC150:
	.string	"*.LC48"
.LC151:
	.string	"*.LC31"
.LC152:
	.string	"*.LC3"
.LC153:
	.string	"*.LC1"
.LC154:
	.string	"*.LC64"
.LC155:
	.string	"*.LC67"
.LC156:
	.string	"*.LC15"
.LC157:
	.string	"*.LC66"
.LC158:
	.string	"*.LC34"
.LC159:
	.string	"*.LC57"
.LC160:
	.string	"*.LC32"
.LC161:
	.string	"*.LC10"
.LC162:
	.string	"*.LC30"
.LC163:
	.string	"*.LC7"
.LC164:
	.string	"*.LC19"
.LC165:
	.string	"*.LC58"
.LC166:
	.string	"*.LC13"
.LC167:
	.string	"*.LC11"
.LC168:
	.string	"*.LC24"
.LC169:
	.string	"*.LC71"
.LC170:
	.string	"*.LC17"
.LC171:
	.string	"*.LC54"
	.section	.data.rel.local
	.align 32
	.type	.LASAN0, @object
	.size	.LASAN0, 6016
.LASAN0:
	.quad	NATIVE_FUNCTIONS_STD
	.quad	32
	.quad	64
	.quad	.LC78
	.quad	.LC23
	.quad	0
	.quad	.LASANLOC1
	.quad	__odr_asan.NATIVE_FUNCTIONS_STD
	.quad	STD_FUNCTION_RET_TYPE
	.quad	16
	.quad	64
	.quad	.LC79
	.quad	.LC23
	.quad	0
	.quad	.LASANLOC2
	.quad	__odr_asan.STD_FUNCTION_RET_TYPE
	.quad	_ZL10STRING_ARR
	.quad	8
	.quad	64
	.quad	.LC80
	.quad	.LC23
	.quad	0
	.quad	.LASANLOC3
	.quad	0
	.quad	_ZL8STD_FILE
	.quad	8
	.quad	64
	.quad	.LC81
	.quad	.LC23
	.quad	0
	.quad	.LASANLOC4
	.quad	0
	.quad	_ZL6CRINGE
	.quad	4
	.quad	64
	.quad	.LC82
	.quad	.LC23
	.quad	0
	.quad	.LASANLOC5
	.quad	0
	.quad	_ZL12STD_LOG_NAME
	.quad	18
	.quad	64
	.quad	.LC83
	.quad	.LC23
	.quad	0
	.quad	.LASANLOC6
	.quad	0
	.quad	_ZStL8__ioinit
	.quad	1
	.quad	64
	.quad	.LC84
	.quad	.LC23
	.quad	1
	.quad	.LASANLOC7
	.quad	0
	.quad	_ZL15MAX_WORD_LENGTH
	.quad	4
	.quad	64
	.quad	.LC85
	.quad	.LC23
	.quad	0
	.quad	.LASANLOC8
	.quad	0
	.quad	_ZL24MAX_FUNCTION_NAME_LENGTH
	.quad	4
	.quad	64
	.quad	.LC86
	.quad	.LC23
	.quad	0
	.quad	.LASANLOC9
	.quad	0
	.quad	_ZL9MAIN_NAME
	.quad	8
	.quad	64
	.quad	.LC87
	.quad	.LC23
	.quad	0
	.quad	.LASANLOC10
	.quad	0
	.quad	_ZL7COMMENT
	.quad	1
	.quad	64
	.quad	.LC88
	.quad	.LC23
	.quad	0
	.quad	.LASANLOC11
	.quad	0
	.quad	_ZL9OPERATORS
	.quad	8
	.quad	64
	.quad	.LC89
	.quad	.LC23
	.quad	0
	.quad	.LASANLOC12
	.quad	0
	.quad	_ZL18FUNCTION_RET_TYPES
	.quad	16
	.quad	64
	.quad	.LC90
	.quad	.LC23
	.quad	0
	.quad	.LASANLOC13
	.quad	0
	.quad	_ZL28NUMBER_OF_FUNCTION_RET_TYPES
	.quad	4
	.quad	64
	.quad	.LC91
	.quad	.LC23
	.quad	0
	.quad	.LASANLOC14
	.quad	0
	.quad	_ZL14INITIALIZATORS
	.quad	16
	.quad	64
	.quad	.LC92
	.quad	.LC23
	.quad	0
	.quad	.LASANLOC15
	.quad	0
	.quad	_ZL24NUMBER_OF_INITIALIZATORS
	.quad	4
	.quad	64
	.quad	.LC93
	.quad	.LC23
	.quad	0
	.quad	.LASANLOC16
	.quad	0
	.quad	_ZL16NATIVE_FUNCTIONS
	.quad	32
	.quad	64
	.quad	.LC94
	.quad	.LC23
	.quad	0
	.quad	.LASANLOC17
	.quad	0
	.quad	_ZL26NUMBER_OF_NATIVE_FUNCTIONS
	.quad	4
	.quad	64
	.quad	.LC95
	.quad	.LC23
	.quad	0
	.quad	.LASANLOC18
	.quad	0
	.quad	_ZL12INSTRUCTIONS
	.quad	32
	.quad	64
	.quad	.LC96
	.quad	.LC23
	.quad	0
	.quad	.LASANLOC19
	.quad	0
	.quad	_ZL21NUMBER_OF_INSTUCTIONS
	.quad	4
	.quad	64
	.quad	.LC97
	.quad	.LC23
	.quad	0
	.quad	.LASANLOC20
	.quad	0
	.quad	_ZL11NOT_A_LABEL
	.quad	4
	.quad	64
	.quad	.LC98
	.quad	.LC23
	.quad	0
	.quad	.LASANLOC21
	.quad	0
	.quad	_ZL12NOT_DECLARED
	.quad	4
	.quad	64
	.quad	.LC99
	.quad	.LC23
	.quad	0
	.quad	.LASANLOC22
	.quad	0
	.quad	.LC59
	.quad	9
	.quad	64
	.quad	.LC100
	.quad	.LC23
	.quad	0
	.quad	0
	.quad	0
	.quad	.LC25
	.quad	36
	.quad	96
	.quad	.LC101
	.quad	.LC23
	.quad	0
	.quad	0
	.quad	0
	.quad	.LC18
	.quad	4
	.quad	64
	.quad	.LC102
	.quad	.LC23
	.quad	0
	.quad	0
	.quad	0
	.quad	.LC22
	.quad	52
	.quad	96
	.quad	.LC103
	.quad	.LC23
	.quad	0
	.quad	0
	.quad	0
	.quad	.LC49
	.quad	11
	.quad	64
	.quad	.LC104
	.quad	.LC23
	.quad	0
	.quad	0
	.quad	0
	.quad	.LC16
	.quad	3
	.quad	64
	.quad	.LC105
	.quad	.LC23
	.quad	0
	.quad	0
	.quad	0
	.quad	.LC45
	.quad	7
	.quad	64
	.quad	.LC106
	.quad	.LC23
	.quad	0
	.quad	0
	.quad	0
	.quad	.LC35
	.quad	6
	.quad	64
	.quad	.LC107
	.quad	.LC23
	.quad	0
	.quad	0
	.quad	0
	.quad	.LC51
	.quad	15
	.quad	64
	.quad	.LC108
	.quad	.LC23
	.quad	0
	.quad	0
	.quad	0
	.quad	.LC62
	.quad	27
	.quad	64
	.quad	.LC109
	.quad	.LC23
	.quad	0
	.quad	0
	.quad	0
	.quad	.LC26
	.quad	19
	.quad	64
	.quad	.LC110
	.quad	.LC23
	.quad	0
	.quad	0
	.quad	0
	.quad	.LC37
	.quad	9
	.quad	64
	.quad	.LC111
	.quad	.LC23
	.quad	0
	.quad	0
	.quad	0
	.quad	.LC41
	.quad	8
	.quad	64
	.quad	.LC112
	.quad	.LC23
	.quad	0
	.quad	0
	.quad	0
	.quad	.LC20
	.quad	37
	.quad	96
	.quad	.LC113
	.quad	.LC23
	.quad	0
	.quad	0
	.quad	0
	.quad	.LC53
	.quad	6
	.quad	64
	.quad	.LC114
	.quad	.LC23
	.quad	0
	.quad	0
	.quad	0
	.quad	.LC6
	.quad	4
	.quad	64
	.quad	.LC115
	.quad	.LC23
	.quad	0
	.quad	0
	.quad	0
	.quad	.LC61
	.quad	12
	.quad	64
	.quad	.LC116
	.quad	.LC23
	.quad	0
	.quad	0
	.quad	0
	.quad	.LC5
	.quad	4
	.quad	64
	.quad	.LC117
	.quad	.LC23
	.quad	0
	.quad	0
	.quad	0
	.quad	.LC39
	.quad	6
	.quad	64
	.quad	.LC118
	.quad	.LC23
	.quad	0
	.quad	0
	.quad	0
	.quad	.LC40
	.quad	3
	.quad	64
	.quad	.LC119
	.quad	.LC23
	.quad	0
	.quad	0
	.quad	0
	.quad	.LC2
	.quad	6
	.quad	64
	.quad	.LC120
	.quad	.LC23
	.quad	0
	.quad	0
	.quad	0
	.quad	.LC46
	.quad	6
	.quad	64
	.quad	.LC121
	.quad	.LC23
	.quad	0
	.quad	0
	.quad	0
	.quad	.LC12
	.quad	5
	.quad	64
	.quad	.LC122
	.quad	.LC23
	.quad	0
	.quad	0
	.quad	0
	.quad	.LC68
	.quad	28
	.quad	64
	.quad	.LC123
	.quad	.LC23
	.quad	0
	.quad	0
	.quad	0
	.quad	.LC23
	.quad	33
	.quad	96
	.quad	.LC124
	.quad	.LC23
	.quad	0
	.quad	0
	.quad	0
	.quad	.LC21
	.quad	64
	.quad	96
	.quad	.LC125
	.quad	.LC23
	.quad	0
	.quad	0
	.quad	0
	.quad	.LC42
	.quad	8
	.quad	64
	.quad	.LC126
	.quad	.LC23
	.quad	0
	.quad	0
	.quad	0
	.quad	.LC28
	.quad	10
	.quad	64
	.quad	.LC127
	.quad	.LC23
	.quad	0
	.quad	0
	.quad	0
	.quad	.LC72
	.quad	9
	.quad	64
	.quad	.LC128
	.quad	.LC23
	.quad	0
	.quad	0
	.quad	0
	.quad	.LC27
	.quad	33
	.quad	96
	.quad	.LC129
	.quad	.LC23
	.quad	0
	.quad	0
	.quad	0
	.quad	.LC14
	.quad	5
	.quad	64
	.quad	.LC130
	.quad	.LC23
	.quad	0
	.quad	0
	.quad	0
	.quad	.LC43
	.quad	6
	.quad	64
	.quad	.LC131
	.quad	.LC23
	.quad	0
	.quad	0
	.quad	0
	.quad	.LC4
	.quad	5
	.quad	64
	.quad	.LC132
	.quad	.LC23
	.quad	0
	.quad	0
	.quad	0
	.quad	.LC47
	.quad	9
	.quad	64
	.quad	.LC133
	.quad	.LC23
	.quad	0
	.quad	0
	.quad	0
	.quad	.LC63
	.quad	4
	.quad	64
	.quad	.LC134
	.quad	.LC23
	.quad	0
	.quad	0
	.quad	0
	.quad	.LC38
	.quad	10
	.quad	64
	.quad	.LC135
	.quad	.LC23
	.quad	0
	.quad	0
	.quad	0
	.quad	.LC0
	.quad	3
	.quad	64
	.quad	.LC136
	.quad	.LC23
	.quad	0
	.quad	0
	.quad	0
	.quad	.LC29
	.quad	31
	.quad	64
	.quad	.LC137
	.quad	.LC23
	.quad	0
	.quad	0
	.quad	0
	.quad	.LC9
	.quad	4
	.quad	64
	.quad	.LC138
	.quad	.LC23
	.quad	0
	.quad	0
	.quad	0
	.quad	.LC36
	.quad	9
	.quad	64
	.quad	.LC139
	.quad	.LC23
	.quad	0
	.quad	0
	.quad	0
	.quad	.LC52
	.quad	30
	.quad	64
	.quad	.LC140
	.quad	.LC23
	.quad	0
	.quad	0
	.quad	0
	.quad	.LC33
	.quad	6
	.quad	64
	.quad	.LC141
	.quad	.LC23
	.quad	0
	.quad	0
	.quad	0
	.quad	.LC56
	.quad	36
	.quad	96
	.quad	.LC142
	.quad	.LC23
	.quad	0
	.quad	0
	.quad	0
	.quad	.LC65
	.quad	4
	.quad	64
	.quad	.LC143
	.quad	.LC23
	.quad	0
	.quad	0
	.quad	0
	.quad	.LC70
	.quad	7
	.quad	64
	.quad	.LC144
	.quad	.LC23
	.quad	0
	.quad	0
	.quad	0
	.quad	.LC8
	.quad	7
	.quad	64
	.quad	.LC145
	.quad	.LC23
	.quad	0
	.quad	0
	.quad	0
	.quad	.LC60
	.quad	30
	.quad	64
	.quad	.LC146
	.quad	.LC23
	.quad	0
	.quad	0
	.quad	0
	.quad	.LC44
	.quad	8
	.quad	64
	.quad	.LC147
	.quad	.LC23
	.quad	0
	.quad	0
	.quad	0
	.quad	.LC50
	.quad	33
	.quad	96
	.quad	.LC148
	.quad	.LC23
	.quad	0
	.quad	0
	.quad	0
	.quad	.LC55
	.quad	7
	.quad	64
	.quad	.LC149
	.quad	.LC23
	.quad	0
	.quad	0
	.quad	0
	.quad	.LC48
	.quad	49
	.quad	96
	.quad	.LC150
	.quad	.LC23
	.quad	0
	.quad	0
	.quad	0
	.quad	.LC31
	.quad	10
	.quad	64
	.quad	.LC151
	.quad	.LC23
	.quad	0
	.quad	0
	.quad	0
	.quad	.LC3
	.quad	7
	.quad	64
	.quad	.LC152
	.quad	.LC23
	.quad	0
	.quad	0
	.quad	0
	.quad	.LC1
	.quad	5
	.quad	64
	.quad	.LC153
	.quad	.LC23
	.quad	0
	.quad	0
	.quad	0
	.quad	.LC64
	.quad	4
	.quad	64
	.quad	.LC154
	.quad	.LC23
	.quad	0
	.quad	0
	.quad	0
	.quad	.LC67
	.quad	4
	.quad	64
	.quad	.LC155
	.quad	.LC23
	.quad	0
	.quad	0
	.quad	0
	.quad	.LC15
	.quad	4
	.quad	64
	.quad	.LC156
	.quad	.LC23
	.quad	0
	.quad	0
	.quad	0
	.quad	.LC66
	.quad	4
	.quad	64
	.quad	.LC157
	.quad	.LC23
	.quad	0
	.quad	0
	.quad	0
	.quad	.LC34
	.quad	23
	.quad	64
	.quad	.LC158
	.quad	.LC23
	.quad	0
	.quad	0
	.quad	0
	.quad	.LC57
	.quad	18
	.quad	64
	.quad	.LC159
	.quad	.LC23
	.quad	0
	.quad	0
	.quad	0
	.quad	.LC32
	.quad	2
	.quad	64
	.quad	.LC160
	.quad	.LC23
	.quad	0
	.quad	0
	.quad	0
	.quad	.LC10
	.quad	7
	.quad	64
	.quad	.LC161
	.quad	.LC23
	.quad	0
	.quad	0
	.quad	0
	.quad	.LC30
	.quad	22
	.quad	64
	.quad	.LC162
	.quad	.LC23
	.quad	0
	.quad	0
	.quad	0
	.quad	.LC7
	.quad	4
	.quad	64
	.quad	.LC163
	.quad	.LC23
	.quad	0
	.quad	0
	.quad	0
	.quad	.LC19
	.quad	8
	.quad	64
	.quad	.LC164
	.quad	.LC23
	.quad	0
	.quad	0
	.quad	0
	.quad	.LC58
	.quad	34
	.quad	96
	.quad	.LC165
	.quad	.LC23
	.quad	0
	.quad	0
	.quad	0
	.quad	.LC13
	.quad	5
	.quad	64
	.quad	.LC166
	.quad	.LC23
	.quad	0
	.quad	0
	.quad	0
	.quad	.LC11
	.quad	5
	.quad	64
	.quad	.LC167
	.quad	.LC23
	.quad	0
	.quad	0
	.quad	0
	.quad	.LC24
	.quad	22
	.quad	64
	.quad	.LC168
	.quad	.LC23
	.quad	0
	.quad	0
	.quad	0
	.quad	.LC71
	.quad	32
	.quad	64
	.quad	.LC169
	.quad	.LC23
	.quad	0
	.quad	0
	.quad	0
	.quad	.LC17
	.quad	4
	.quad	64
	.quad	.LC170
	.quad	.LC23
	.quad	0
	.quad	0
	.quad	0
	.quad	.LC54
	.quad	8
	.quad	64
	.quad	.LC171
	.quad	.LC23
	.quad	0
	.quad	0
	.quad	0
	.text
	.type	_sub_D_00099_0, @function
_sub_D_00099_0:
.LFB2945:
	.cfi_startproc
	endbr64
	pushq	%rbp
	.cfi_def_cfa_offset 16
	.cfi_offset 6, -16
	movq	%rsp, %rbp
	.cfi_def_cfa_register 6
	movl	$94, %esi
	leaq	.LASAN0(%rip), %rax
	movq	%rax, %rdi
	call	__asan_unregister_globals@PLT
	popq	%rbp
	.cfi_def_cfa 7, 8
	ret
	.cfi_endproc
.LFE2945:
	.size	_sub_D_00099_0, .-_sub_D_00099_0
	.section	.fini_array.00099,"aw"
	.align 8
	.quad	_sub_D_00099_0
	.text
	.type	_sub_I_00099_1, @function
_sub_I_00099_1:
.LFB2946:
	.cfi_startproc
	endbr64
	pushq	%rbp
	.cfi_def_cfa_offset 16
	.cfi_offset 6, -16
	movq	%rsp, %rbp
	.cfi_def_cfa_register 6
	call	__asan_init@PLT
	call	__asan_version_mismatch_check_v8@PLT
	movl	$94, %esi
	leaq	.LASAN0(%rip), %rax
	movq	%rax, %rdi
	call	__asan_register_globals@PLT
	popq	%rbp
	.cfi_def_cfa 7, 8
	ret
	.cfi_endproc
.LFE2946:
	.size	_sub_I_00099_1, .-_sub_I_00099_1
	.section	.init_array.00099,"aw"
	.align 8
	.quad	_sub_I_00099_1
	.text
.Letext0:
	.file 3 "../Common/Structures/Token/Token.h"
	.file 4 "../Common/Structures/Tabels/Tabels.h"
	.file 5 "../Common/Structures/Program/Program.h"
	.file 6 "/usr/lib/gcc/x86_64-linux-gnu/11/include/stddef.h"
	.file 7 "/usr/lib/gcc/x86_64-linux-gnu/11/include/stdarg.h"
	.file 8 "<built-in>"
	.file 9 "/usr/include/x86_64-linux-gnu/bits/types.h"
	.file 10 "/usr/include/x86_64-linux-gnu/bits/types/__mbstate_t.h"
	.file 11 "/usr/include/x86_64-linux-gnu/bits/types/__fpos_t.h"
	.file 12 "/usr/include/x86_64-linux-gnu/bits/types/__FILE.h"
	.file 13 "/usr/include/x86_64-linux-gnu/bits/types/struct_FILE.h"
	.file 14 "/usr/include/x86_64-linux-gnu/bits/types/FILE.h"
	.file 15 "/usr/include/stdio.h"
	.file 16 "../Common/Grammar.h"
	.file 17 "/usr/include/x86_64-linux-gnu/bits/types/wint_t.h"
	.file 18 "/usr/include/x86_64-linux-gnu/bits/types/mbstate_t.h"
	.file 19 "/usr/include/c++/11/cwchar"
	.file 20 "/usr/include/c++/11/type_traits"
	.file 21 "/usr/include/c++/11/bits/exception_ptr.h"
	.file 22 "/usr/include/x86_64-linux-gnu/c++/11/bits/c++config.h"
	.file 23 "/usr/include/c++/11/concepts"
	.file 24 "/usr/include/c++/11/bits/iterator_concepts.h"
	.file 25 "/usr/include/c++/11/bits/ranges_cmp.h"
	.file 26 "/usr/include/c++/11/compare"
	.file 27 "/usr/include/c++/11/debug/debug.h"
	.file 28 "/usr/include/c++/11/cstdint"
	.file 29 "/usr/include/c++/11/clocale"
	.file 30 "/usr/include/c++/11/cstdlib"
	.file 31 "/usr/include/c++/11/numbers"
	.file 32 "/usr/include/c++/11/cstdio"
	.file 33 "/usr/include/c++/11/bits/ios_base.h"
	.file 34 "/usr/include/c++/11/cwctype"
	.file 35 "/usr/include/wchar.h"
	.file 36 "/usr/include/x86_64-linux-gnu/bits/types/struct_tm.h"
	.file 37 "/usr/include/c++/11/bits/predefined_ops.h"
	.file 38 "/usr/include/c++/11/bits/ptr_traits.h"
	.file 39 "/usr/include/x86_64-linux-gnu/bits/stdint-intn.h"
	.file 40 "/usr/include/x86_64-linux-gnu/bits/stdint-uintn.h"
	.file 41 "/usr/include/stdint.h"
	.file 42 "/usr/include/locale.h"
	.file 43 "/usr/include/stdlib.h"
	.file 44 "/usr/include/x86_64-linux-gnu/bits/wctype-wchar.h"
	.file 45 "/usr/include/wctype.h"
	.file 46 "../ATC/Logger/LogConfig.h"
	.file 47 "../ATC/RandomStuff/CommonEnums.h"
	.file 48 "../Common/Utils/LangUtils.h"
	.file 49 "../ATC/Logger/Logger.h"
	.file 50 "../ATC/Utils/Utils.h"
	.file 51 "/usr/include/string.h"
	.file 52 "/usr/include/c++/11/bits/algorithmfwd.h"
	.section	.note.GNU-stack,"",@progbits
	.section	.note.gnu.property,"a"
	.align 8
	.long	1f - 0f
	.long	4f - 1f
	.long	5
0:
	.string	"GNU"
1:
	.align 8
	.long	0xc0000002
	.long	3f - 2f
2:
	.long	0x3
3:
	.align 8
4:
