	.file	"StandartAWP.cpp"
	.text
.Ltext0:
	.file 0 "/home/arsenyfucker/Cprojects/Lang/Translator/FrontEnd" "../Common/StandartAWP/StandartAWP.cpp"
	.section	.rodata
	.align 32
	.type	_ZL12NOT_DECLARED, @object
	.size	_ZL12NOT_DECLARED, 4
_ZL12NOT_DECLARED:
	.long	-111
	.zero	60
	.align 32
	.type	_ZL21NUMBER_OF_INSTUCTIONS, @object
	.size	_ZL21NUMBER_OF_INSTUCTIONS, 4
_ZL21NUMBER_OF_INSTUCTIONS:
	.long	4
	.zero	60
	.align 32
.LC0:
	.string	"if"
	.zero	61
	.align 32
.LC1:
	.string	"else"
	.zero	59
	.align 32
.LC2:
	.string	"while"
	.zero	58
	.align 32
.LC3:
	.string	"return"
	.zero	57
	.section	.data.rel.ro.local,"aw"
	.align 32
	.type	_ZL12INSTRUCTIONS, @object
	.size	_ZL12INSTRUCTIONS, 32
_ZL12INSTRUCTIONS:
	.quad	.LC0
	.quad	.LC1
	.quad	.LC2
	.quad	.LC3
	.zero	32
	.section	.rodata
	.align 32
	.type	_ZL26NUMBER_OF_NATIVE_FUNCTIONS, @object
	.size	_ZL26NUMBER_OF_NATIVE_FUNCTIONS, 4
_ZL26NUMBER_OF_NATIVE_FUNCTIONS:
	.long	4
	.zero	60
	.align 32
.LC4:
	.string	"fout"
	.zero	59
	.align 32
.LC5:
	.string	"fin"
	.zero	60
	.align 32
.LC6:
	.string	"sin"
	.zero	60
	.align 32
.LC7:
	.string	"cos"
	.zero	60
	.section	.data.rel.ro.local
	.align 32
	.type	_ZL16NATIVE_FUNCTIONS, @object
	.size	_ZL16NATIVE_FUNCTIONS, 32
_ZL16NATIVE_FUNCTIONS:
	.quad	.LC4
	.quad	.LC5
	.quad	.LC6
	.quad	.LC7
	.zero	32
	.section	.rodata
	.align 32
	.type	_ZL24NUMBER_OF_INITIALIZATORS, @object
	.size	_ZL24NUMBER_OF_INITIALIZATORS, 4
_ZL24NUMBER_OF_INITIALIZATORS:
	.long	2
	.zero	60
	.align 32
.LC8:
	.string	"func"
	.zero	59
	.align 32
.LC9:
	.string	"var"
	.zero	60
	.section	.data.rel.ro.local
	.align 32
	.type	_ZL14INITIALIZATORS, @object
	.size	_ZL14INITIALIZATORS, 16
_ZL14INITIALIZATORS:
	.quad	.LC8
	.quad	.LC9
	.zero	48
	.section	.rodata
	.align 32
	.type	_ZL28NUMBER_OF_FUNCTION_RET_TYPES, @object
	.size	_ZL28NUMBER_OF_FUNCTION_RET_TYPES, 4
_ZL28NUMBER_OF_FUNCTION_RET_TYPES:
	.long	2
	.zero	60
	.align 32
.LC10:
	.string	"double"
	.zero	57
	.align 32
.LC11:
	.string	"void"
	.zero	59
	.section	.data.rel.ro.local
	.align 32
	.type	_ZL18FUNCTION_RET_TYPES, @object
	.size	_ZL18FUNCTION_RET_TYPES, 16
_ZL18FUNCTION_RET_TYPES:
	.quad	.LC10
	.quad	.LC11
	.zero	48
	.section	.rodata
	.align 32
	.type	_ZL9OPERATORS, @object
	.size	_ZL9OPERATORS, 8
_ZL9OPERATORS:
	.string	"+-/*^<<"
	.zero	56
	.align 32
	.type	_ZL7COMMENT, @object
	.size	_ZL7COMMENT, 1
_ZL7COMMENT:
	.byte	35
	.zero	63
	.align 32
	.type	_ZL24MAX_FUNCTION_NAME_LENGTH, @object
	.size	_ZL24MAX_FUNCTION_NAME_LENGTH, 4
_ZL24MAX_FUNCTION_NAME_LENGTH:
	.long	16
	.zero	60
	.align 32
	.type	_ZL15MAX_WORD_LENGTH, @object
	.size	_ZL15MAX_WORD_LENGTH, 4
_ZL15MAX_WORD_LENGTH:
	.long	16
	.zero	60
	.bss
	.align 32
	.type	_ZStL8__ioinit, @object
	.size	_ZStL8__ioinit, 1
_ZStL8__ioinit:
	.zero	64
	.section	.rodata
	.align 32
	.type	_ZL12STD_LOG_NAME, @object
	.size	_ZL12STD_LOG_NAME, 18
_ZL12STD_LOG_NAME:
	.string	"./logs/stdlog.ars"
	.zero	46
	.align 32
	.type	_ZL6CRINGE, @object
	.size	_ZL6CRINGE, 4
_ZL6CRINGE:
	.long	3565
	.zero	60
	.bss
	.align 32
	.type	_ZL8STD_FILE, @object
	.size	_ZL8STD_FILE, 8
_ZL8STD_FILE:
	.zero	64
	.align 32
	.type	_ZL10STRING_ARR, @object
	.size	_ZL10STRING_ARR, 8
_ZL10STRING_ARR:
	.zero	64
	.globl	STD_FUNCTION_RET_TYPE
	.section	.rodata
	.align 32
.LC12:
	.string	"TYPE"
	.zero	59
	.align 32
.LC13:
	.string	"VOID"
	.zero	59
	.section	.data.rel.local,"aw"
	.align 32
	.type	STD_FUNCTION_RET_TYPE, @object
	.size	STD_FUNCTION_RET_TYPE, 16
STD_FUNCTION_RET_TYPE:
	.quad	.LC12
	.quad	.LC13
	.zero	48
	.globl	NATIVE_FUNCTIONS_STD
	.section	.rodata
	.align 32
.LC14:
	.string	"OUT"
	.zero	60
	.align 32
.LC15:
	.string	"IN"
	.zero	61
	.align 32
.LC16:
	.string	"SIN"
	.zero	60
	.align 32
.LC17:
	.string	"COS"
	.zero	60
	.section	.data.rel.local
	.align 32
	.type	NATIVE_FUNCTIONS_STD, @object
	.size	NATIVE_FUNCTIONS_STD, 32
NATIVE_FUNCTIONS_STD:
	.quad	.LC14
	.quad	.LC15
	.quad	.LC16
	.quad	.LC17
	.zero	32
	.section	.rodata
	.align 32
.LC18:
	.string	"program"
	.zero	56
	.align 32
.LC19:
	.string	"ASSERTLOG:: Condition (%s) is false\n"
	.zero	59
	.align 32
.LC20:
	.string	"\033[93mASSERTLOG:: \033[0mCondition\033[95m (%s) \033[0mis \033[91mfalse\n\033[0m"
	.zero	32
	.align 32
.LC21:
	.string	"int PutProgramToStdAWP(const Program*, const char*)"
	.zero	44
	.align 32
.LC22:
	.string	"../Common/StandartAWP/StandartAWP.cpp"
	.zero	58
	.align 32
.LC23:
	.string	"\t%s:%d, function: %s\n"
	.zero	42
	.align 32
.LC24:
	.string	"It matches to error: (code %d) %s\n\n"
	.zero	60
	.align 32
.LC25:
	.string	"PutProgramToStdAWP"
	.zero	45
	.align 32
.LC26:
	.string	"Shutting down the system (%s:%d)"
	.zero	63
	.align 32
.LC27:
	.string	"echo LOX\n"
	.zero	54
	.align 32
.LC28:
	.string	"\033[91mFailed %s:%d (%s:%d)\n\033[0m"
	.zero	33
	.align 32
.LC29:
	.string	"Failed (%s:%d, %s:%d)"
	.zero	42
	.align 32
.LC30:
	.string	"file_name"
	.zero	54
	.align 32
.LC31:
	.string	"w"
	.zero	62
	.align 32
.LC32:
	.string	"\t%s: "
	.zero	58
	.align 32
.LC33:
	.string	"Couldn't open file %s\n"
	.zero	41
	.text
	.globl	_Z18PutProgramToStdAWPPK7ProgramPKc
	.type	_Z18PutProgramToStdAWPPK7ProgramPKc, @function
_Z18PutProgramToStdAWPPK7ProgramPKc:
.LASANPC2270:
.LFB2270:
	.file 1 "../Common/StandartAWP/StandartAWP.cpp"
	.loc 1 31 5
	.cfi_startproc
	endbr64
	pushq	%rbp
	.cfi_def_cfa_offset 16
	.cfi_offset 6, -16
	movq	%rsp, %rbp
	.cfi_def_cfa_register 6
	pushq	%rbx
	subq	$24, %rsp
	.cfi_offset 3, -24
	movq	%rdi, -24(%rbp)
	movq	%rsi, -32(%rbp)
	.loc 1 32 10
	cmpq	$0, -24(%rbp)
	jne	.L2
	.loc 1 32 47 discriminator 1
	call	_ZN6Logger11getInstanceEv@PLT
	movq	%rax, %rcx
	.loc 1 32 53 discriminator 1
	leaq	.LC18(%rip), %rax
	movq	%rax, %rdx
	leaq	.LC19(%rip), %rax
	movq	%rax, %rsi
	movq	%rcx, %rdi
	movl	$0, %eax
	call	_ZN6Logger3logEPKcz@PLT
	.loc 1 32 113 discriminator 1
	leaq	.LC18(%rip), %rax
	movq	%rax, %rsi
	leaq	.LC20(%rip), %rax
	movq	%rax, %rdi
	movl	$0, %eax
	call	printf@PLT
	.loc 1 32 261 discriminator 1
	call	_ZN6Logger11getInstanceEv@PLT
	movq	%rax, %rdi
	.loc 1 32 267 discriminator 1
	leaq	.LC21(%rip), %r8
	movl	$32, %ecx
	leaq	.LC22(%rip), %rax
	movq	%rax, %rdx
	leaq	.LC23(%rip), %rax
	movq	%rax, %rsi
	movl	$0, %eax
	call	_ZN6Logger3logEPKcz@PLT
	.loc 1 32 368 discriminator 1
	leaq	.LC21(%rip), %rax
	movq	%rax, %rcx
	movl	$32, %edx
	leaq	.LC22(%rip), %rax
	movq	%rax, %rsi
	leaq	.LC23(%rip), %rax
	movq	%rax, %rdi
	movl	$0, %eax
	call	printf@PLT
	.loc 1 32 482 discriminator 1
	call	_ZN6Logger11getInstanceEv@PLT
	movq	%rax, %rbx
	.loc 1 32 488 discriminator 1
	movl	$14, %edi
	call	strerror@PLT
	movq	%rax, %rcx
	movl	$14, %edx
	leaq	.LC24(%rip), %rax
	movq	%rax, %rsi
	movq	%rbx, %rdi
	movl	$0, %eax
	call	_ZN6Logger3logEPKcz@PLT
	.loc 1 32 27 discriminator 1
	call	_ZN6Logger11getInstanceEv@PLT
	movq	%rax, %rdi
	.loc 1 32 33 discriminator 1
	movl	$32, %ecx
	leaq	.LC25(%rip), %rax
	movq	%rax, %rdx
	leaq	.LC26(%rip), %rax
	movq	%rax, %rsi
	movl	$0, %eax
	call	_ZN6Logger3logEPKcz@PLT
	.loc 1 32 91 discriminator 1
	leaq	.LC27(%rip), %rax
	movq	%rax, %rdi
	call	system@PLT
	.loc 1 32 133 discriminator 1
	call	_ZN6Logger11getInstanceEv@PLT
	.loc 1 32 155 discriminator 1
	call	_ZN6Logger11getInstanceEv@PLT
	movq	%rax, %rbx
	.loc 1 32 168 discriminator 1
	movl	$32, %r9d
	leaq	.LC25(%rip), %r8
	movl	$32, %ecx
	leaq	.LC22(%rip), %rax
	movq	%rax, %rdx
	leaq	.LC28(%rip), %rax
	movq	%rax, %rsi
	movl	$-1, %edi
	movl	$0, %eax
	call	_Z6MsgRetiPKcz@PLT
	movl	%eax, %esi
	subq	$8, %rsp
	pushq	$32
	leaq	.LC25(%rip), %r9
	movl	$32, %r8d
	leaq	.LC22(%rip), %rax
	movq	%rax, %rcx
	leaq	.LC29(%rip), %rax
	movq	%rax, %rdx
	movq	%rbx, %rdi
	movl	$0, %eax
	call	_ZN6Logger9LogMsgRetEiPKcz@PLT
	addq	$16, %rsp
	.loc 1 32 375 discriminator 1
	jmp	.L3
.L2:
	.loc 1 33 10
	cmpq	$0, -32(%rbp)
	jne	.L4
	.loc 1 33 49 discriminator 1
	call	_ZN6Logger11getInstanceEv@PLT
	movq	%rax, %rcx
	.loc 1 33 55 discriminator 1
	leaq	.LC30(%rip), %rax
	movq	%rax, %rdx
	leaq	.LC19(%rip), %rax
	movq	%rax, %rsi
	movq	%rcx, %rdi
	movl	$0, %eax
	call	_ZN6Logger3logEPKcz@PLT
	.loc 1 33 117 discriminator 1
	leaq	.LC30(%rip), %rax
	movq	%rax, %rsi
	leaq	.LC20(%rip), %rax
	movq	%rax, %rdi
	movl	$0, %eax
	call	printf@PLT
	.loc 1 33 267 discriminator 1
	call	_ZN6Logger11getInstanceEv@PLT
	movq	%rax, %rdi
	.loc 1 33 273 discriminator 1
	leaq	.LC21(%rip), %r8
	movl	$33, %ecx
	leaq	.LC22(%rip), %rax
	movq	%rax, %rdx
	leaq	.LC23(%rip), %rax
	movq	%rax, %rsi
	movl	$0, %eax
	call	_ZN6Logger3logEPKcz@PLT
	.loc 1 33 374 discriminator 1
	leaq	.LC21(%rip), %rax
	movq	%rax, %rcx
	movl	$33, %edx
	leaq	.LC22(%rip), %rax
	movq	%rax, %rsi
	leaq	.LC23(%rip), %rax
	movq	%rax, %rdi
	movl	$0, %eax
	call	printf@PLT
	.loc 1 33 488 discriminator 1
	call	_ZN6Logger11getInstanceEv@PLT
	movq	%rax, %rbx
	.loc 1 33 494 discriminator 1
	movl	$14, %edi
	call	strerror@PLT
	movq	%rax, %rcx
	movl	$14, %edx
	leaq	.LC24(%rip), %rax
	movq	%rax, %rsi
	movq	%rbx, %rdi
	movl	$0, %eax
	call	_ZN6Logger3logEPKcz@PLT
	.loc 1 33 27 discriminator 1
	call	_ZN6Logger11getInstanceEv@PLT
	movq	%rax, %rdi
	.loc 1 33 33 discriminator 1
	movl	$33, %ecx
	leaq	.LC25(%rip), %rax
	movq	%rax, %rdx
	leaq	.LC26(%rip), %rax
	movq	%rax, %rsi
	movl	$0, %eax
	call	_ZN6Logger3logEPKcz@PLT
	.loc 1 33 91 discriminator 1
	leaq	.LC27(%rip), %rax
	movq	%rax, %rdi
	call	system@PLT
	.loc 1 33 133 discriminator 1
	call	_ZN6Logger11getInstanceEv@PLT
	.loc 1 33 155 discriminator 1
	call	_ZN6Logger11getInstanceEv@PLT
	movq	%rax, %rbx
	.loc 1 33 168 discriminator 1
	movl	$33, %r9d
	leaq	.LC25(%rip), %r8
	movl	$33, %ecx
	leaq	.LC22(%rip), %rax
	movq	%rax, %rdx
	leaq	.LC28(%rip), %rax
	movq	%rax, %rsi
	movl	$-1, %edi
	movl	$0, %eax
	call	_Z6MsgRetiPKcz@PLT
	movl	%eax, %esi
	subq	$8, %rsp
	pushq	$33
	leaq	.LC25(%rip), %r9
	movl	$33, %r8d
	leaq	.LC22(%rip), %rax
	movq	%rax, %rcx
	leaq	.LC29(%rip), %rax
	movq	%rax, %rdx
	movq	%rbx, %rdi
	movl	$0, %eax
	call	_ZN6Logger9LogMsgRetEiPKcz@PLT
	addq	$16, %rsp
	.loc 1 33 375 discriminator 1
	jmp	.L3
.L4:
	.loc 1 35 22
	movq	-32(%rbp), %rax
	leaq	.LC31(%rip), %rdx
	movq	%rdx, %rsi
	movq	%rax, %rdi
	call	fopen@PLT
	.loc 1 35 14
	movq	%rax, _ZL8STD_FILE(%rip)
	.loc 1 36 9
	movq	_ZL8STD_FILE(%rip), %rax
	.loc 1 36 5
	testq	%rax, %rax
	jne	.L5
	.loc 1 38 17
	leaq	.LC25(%rip), %rax
	movq	%rax, %rsi
	leaq	.LC32(%rip), %rax
	movq	%rax, %rdi
	movl	$0, %eax
	call	printf@PLT
	.loc 1 38 45
	movq	-32(%rbp), %rax
	movq	%rax, %rsi
	leaq	.LC33(%rip), %rax
	movq	%rax, %rdi
	movl	$0, %eax
	call	printf@PLT
	.loc 1 39 16
	movl	$-1, %eax
	jmp	.L3
.L5:
	.loc 1 42 27
	movq	-24(%rbp), %rax
	addq	$24, %rax
	movq	%rax, %rdx
	shrq	$3, %rdx
	addq	$2147450880, %rdx
	movzbl	(%rdx), %edx
	testb	%dl, %dl
	je	.L6
	movq	%rax, %rdi
	call	__asan_report_load8@PLT
.L6:
	movq	-24(%rbp), %rax
	movq	24(%rax), %rax
	.loc 1 42 16
	movq	%rax, _ZL10STRING_ARR(%rip)
	.loc 1 44 27
	movq	-24(%rbp), %rax
	addq	$16, %rax
	movq	%rax, %rdx
	shrq	$3, %rdx
	addq	$2147450880, %rdx
	movzbl	(%rdx), %edx
	testb	%dl, %dl
	je	.L7
	movq	%rax, %rdi
	call	__asan_report_load8@PLT
.L7:
	movq	-24(%rbp), %rax
	movq	16(%rax), %rax
	.loc 1 44 17
	movq	%rax, %rdi
	call	_ZL8PutTokenPK5Token
	.loc 1 44 33
	testl	%eax, %eax
	setne	%al
	.loc 1 44 5
	testb	%al, %al
	je	.L8
	.loc 1 45 16
	movl	$-1, %eax
	jmp	.L3
.L8:
	.loc 1 47 11
	movq	_ZL8STD_FILE(%rip), %rax
	movq	%rax, %rdi
	call	fclose@PLT
	.loc 1 49 12
	movl	$0, %eax
.L3:
	.loc 1 50 5
	movq	-8(%rbp), %rbx
	leave
	.cfi_def_cfa 7, 8
	ret
	.cfi_endproc
.LFE2270:
	.size	_Z18PutProgramToStdAWPPK7ProgramPKc, .-_Z18PutProgramToStdAWPPK7ProgramPKc
	.section	.rodata
	.align 32
.LC34:
	.string	"token"
	.zero	58
	.align 32
.LC35:
	.string	"{ NIL } "
	.zero	55
	.align 32
.LC36:
	.string	"{ %lg } "
	.zero	55
	.align 32
.LC37:
	.string	"{ \"%s\" } "
	.zero	54
	.align 32
.LC38:
	.string	"{ ST "
	.zero	58
	.align 32
.LC39:
	.string	"} "
	.zero	61
	.align 32
.LC40:
	.string	"{ FUNC "
	.zero	56
	.align 32
.LC41:
	.string	"{ \"%s\" "
	.zero	56
	.align 32
.LC42:
	.string	"{ %s } "
	.zero	56
	.align 32
.LC43:
	.string	"{ CALL "
	.zero	56
	.align 32
.LC44:
	.string	"{ NILL } "
	.zero	54
	.align 32
.LC45:
	.string	"{ VAR "
	.zero	57
	.align 32
.LC46:
	.string	"{ EQ "
	.zero	58
	.align 32
.LC47:
	.string	"PutToken"
	.zero	55
	.align 32
.LC48:
	.string	"Ebat, assigment must have left token, as varible"
	.zero	47
	.align 32
.LC49:
	.string	"Wrong type"
	.zero	53
	.text
	.type	_ZL8PutTokenPK5Token, @function
_ZL8PutTokenPK5Token:
.LASANPC2271:
.LFB2271:
	.loc 1 53 5
	.cfi_startproc
	endbr64
	pushq	%rbp
	.cfi_def_cfa_offset 16
	.cfi_offset 6, -16
	movq	%rsp, %rbp
	.cfi_def_cfa_register 6
	subq	$48, %rsp
	movq	%rdi, -40(%rbp)
	.loc 1 56 13
	movq	_ZL10STRING_ARR(%rip), %rdx
	movq	-40(%rbp), %rax
	leaq	.LC34(%rip), %rcx
	movq	%rcx, %rsi
	movq	%rax, %rdi
	call	_Z8LogTokenPK5TokenPKcPS3_@PLT
	.loc 1 58 5
	cmpq	$0, -40(%rbp)
	jne	.L10
	.loc 1 60 17
	leaq	.LC35(%rip), %rax
	movq	%rax, %rdi
	movl	$0, %eax
	call	_ZL8stdprintPKcz
	.loc 1 61 16
	movl	$0, %eax
	jmp	.L11
.L10:
.LBB2:
	.loc 1 64 20
	movq	-40(%rbp), %rax
	addq	$16, %rax
	movq	%rax, %rdx
	movq	%rdx, %rax
	shrq	$3, %rax
	addq	$2147450880, %rax
	movzbl	(%rax), %eax
	testb	%al, %al
	setne	%cl
	cmpb	$3, %al
	setle	%al
	andl	%ecx, %eax
	testb	%al, %al
	je	.L12
	movq	%rdx, %rdi
	call	__asan_report_load4@PLT
.L12:
	movq	-40(%rbp), %rax
	movl	16(%rax), %eax
	.loc 1 64 5
	cmpl	$61, %eax
	ja	.L13
	movl	%eax, %eax
	leaq	0(,%rax,4), %rdx
	leaq	.L15(%rip), %rax
	movl	(%rdx,%rax), %eax
	cltq
	leaq	.L15(%rip), %rdx
	addq	%rdx, %rax
	notrack jmp	*%rax
	.section	.rodata
	.align 4
	.align 4
.L15:
	.long	.L13-.L15
	.long	.L26-.L15
	.long	.L25-.L15
	.long	.L24-.L15
	.long	.L23-.L15
	.long	.L22-.L15
	.long	.L21-.L15
	.long	.L20-.L15
	.long	.L19-.L15
	.long	.L18-.L15
	.long	.L17-.L15
	.long	.L16-.L15
	.long	.L13-.L15
	.long	.L13-.L15
	.long	.L13-.L15
	.long	.L13-.L15
	.long	.L13-.L15
	.long	.L13-.L15
	.long	.L13-.L15
	.long	.L13-.L15
	.long	.L13-.L15
	.long	.L13-.L15
	.long	.L13-.L15
	.long	.L13-.L15
	.long	.L13-.L15
	.long	.L13-.L15
	.long	.L13-.L15
	.long	.L13-.L15
	.long	.L13-.L15
	.long	.L13-.L15
	.long	.L13-.L15
	.long	.L13-.L15
	.long	.L13-.L15
	.long	.L13-.L15
	.long	.L13-.L15
	.long	.L13-.L15
	.long	.L13-.L15
	.long	.L13-.L15
	.long	.L13-.L15
	.long	.L13-.L15
	.long	.L13-.L15
	.long	.L13-.L15
	.long	.L13-.L15
	.long	.L13-.L15
	.long	.L13-.L15
	.long	.L13-.L15
	.long	.L13-.L15
	.long	.L13-.L15
	.long	.L13-.L15
	.long	.L13-.L15
	.long	.L13-.L15
	.long	.L13-.L15
	.long	.L13-.L15
	.long	.L13-.L15
	.long	.L13-.L15
	.long	.L13-.L15
	.long	.L13-.L15
	.long	.L13-.L15
	.long	.L13-.L15
	.long	.L13-.L15
	.long	.L13-.L15
	.long	.L14-.L15
	.text
.L19:
.LBB3:
	.loc 1 67 47
	movq	-40(%rbp), %rax
	addq	$24, %rax
	movq	%rax, %rdx
	shrq	$3, %rdx
	addq	$2147450880, %rdx
	movzbl	(%rdx), %edx
	testb	%dl, %dl
	je	.L27
	movq	%rax, %rdi
	call	__asan_report_load8@PLT
.L27:
	movq	-40(%rbp), %rax
	movq	24(%rax), %rax
	.loc 1 67 21
	movq	%rax, %xmm0
	leaq	.LC36(%rip), %rax
	movq	%rax, %rdi
	movl	$1, %eax
	call	_ZL8stdprintPKcz
	.loc 1 68 19
	movl	$0, %eax
	jmp	.L11
.L21:
	.loc 1 71 71
	movq	_ZL10STRING_ARR(%rip), %rcx
	.loc 1 71 62
	movq	-40(%rbp), %rax
	addq	$24, %rax
	movq	%rax, %rdx
	movq	%rdx, %rax
	shrq	$3, %rax
	addq	$2147450880, %rax
	movzbl	(%rax), %eax
	testb	%al, %al
	setne	%sil
	cmpb	$3, %al
	setle	%al
	andl	%esi, %eax
	testb	%al, %al
	je	.L28
	movq	%rdx, %rdi
	call	__asan_report_load4@PLT
.L28:
	movq	-40(%rbp), %rax
	movl	24(%rax), %eax
	cltq
	.loc 1 71 71
	salq	$3, %rax
	addq	%rcx, %rax
	.loc 1 71 22
	movq	%rax, %rdx
	movq	%rdx, %rcx
	shrq	$3, %rcx
	addq	$2147450880, %rcx
	movzbl	(%rcx), %ecx
	testb	%cl, %cl
	je	.L29
	movq	%rdx, %rdi
	call	__asan_report_load8@PLT
.L29:
	movq	(%rax), %rax
	movq	%rax, %rsi
	leaq	.LC37(%rip), %rax
	movq	%rax, %rdi
	movl	$0, %eax
	call	_ZL8stdprintPKcz
	.loc 1 72 20
	movl	$0, %eax
	jmp	.L11
.L26:
	.loc 1 75 22
	leaq	.LC38(%rip), %rax
	movq	%rax, %rdi
	movl	$0, %eax
	call	_ZL8stdprintPKcz
	.loc 1 77 33
	movq	-40(%rbp), %rax
	addq	$8, %rax
	movq	%rax, %rdx
	shrq	$3, %rdx
	addq	$2147450880, %rdx
	movzbl	(%rdx), %edx
	testb	%dl, %dl
	je	.L30
	movq	%rax, %rdi
	call	__asan_report_load8@PLT
.L30:
	movq	-40(%rbp), %rax
	movq	8(%rax), %rax
	.loc 1 77 25
	movq	%rax, %rdi
	call	_ZL8PutTokenPK5Token
	.loc 1 78 34
	movq	-40(%rbp), %rax
	movq	%rax, %rdx
	shrq	$3, %rdx
	addq	$2147450880, %rdx
	movzbl	(%rdx), %edx
	testb	%dl, %dl
	je	.L31
	movq	%rax, %rdi
	call	__asan_report_load8@PLT
.L31:
	movq	-40(%rbp), %rax
	movq	(%rax), %rax
	.loc 1 78 25
	movq	%rax, %rdi
	call	_ZL8PutTokenPK5Token
	.loc 1 80 22
	leaq	.LC39(%rip), %rax
	movq	%rax, %rdi
	movl	$0, %eax
	call	_ZL8stdprintPKcz
	.loc 1 82 20
	movl	$0, %eax
	jmp	.L11
.L18:
.LBB4:
	.loc 1 86 22
	leaq	.LC40(%rip), %rax
	movq	%rax, %rdi
	movl	$0, %eax
	call	_ZL8stdprintPKcz
	.loc 1 89 24
	movq	-40(%rbp), %rax
	movq	%rax, %rdx
	shrq	$3, %rdx
	addq	$2147450880, %rdx
	movzbl	(%rdx), %edx
	testb	%dl, %dl
	je	.L32
	movq	%rax, %rdi
	call	__asan_report_load8@PLT
.L32:
	movq	-40(%rbp), %rax
	movq	(%rax), %rax
	movq	%rax, -8(%rbp)
	.loc 1 90 71
	movq	_ZL10STRING_ARR(%rip), %rcx
	.loc 1 90 62
	movq	-8(%rbp), %rax
	addq	$24, %rax
	movq	%rax, %rdx
	movq	%rdx, %rax
	shrq	$3, %rax
	addq	$2147450880, %rax
	movzbl	(%rax), %eax
	testb	%al, %al
	setne	%sil
	cmpb	$3, %al
	setle	%al
	andl	%esi, %eax
	testb	%al, %al
	je	.L33
	movq	%rdx, %rdi
	call	__asan_report_load4@PLT
.L33:
	movq	-8(%rbp), %rax
	movl	24(%rax), %eax
	cltq
	.loc 1 90 71
	salq	$3, %rax
	addq	%rcx, %rax
	.loc 1 90 25
	movq	%rax, %rdx
	movq	%rdx, %rcx
	shrq	$3, %rcx
	addq	$2147450880, %rcx
	movzbl	(%rcx), %ecx
	testb	%cl, %cl
	je	.L34
	movq	%rdx, %rdi
	call	__asan_report_load8@PLT
.L34:
	movq	(%rax), %rax
	movq	%rax, %rsi
	leaq	.LC41(%rip), %rax
	movq	%rax, %rdi
	movl	$0, %eax
	call	_ZL8stdprintPKcz
	.loc 1 93 30
	leaq	.LC35(%rip), %rax
	movq	%rax, %rdi
	movl	$0, %eax
	call	_ZL8stdprintPKcz
	.loc 1 96 36
	movq	-8(%rbp), %rax
	addq	$8, %rax
	movq	%rax, %rdx
	shrq	$3, %rdx
	addq	$2147450880, %rdx
	movzbl	(%rdx), %edx
	testb	%dl, %dl
	je	.L35
	movq	%rax, %rdi
	call	__asan_report_load8@PLT
.L35:
	movq	-8(%rbp), %rax
	movq	8(%rax), %rax
	.loc 1 96 29
	movq	%rax, %rdi
	call	_ZL8PutTokenPK5Token
	.loc 1 98 25
	leaq	.LC39(%rip), %rax
	movq	%rax, %rdi
	movl	$0, %eax
	call	_ZL8stdprintPKcz
	.loc 1 101 33
	movq	-40(%rbp), %rax
	addq	$8, %rax
	movq	%rax, %rdx
	shrq	$3, %rdx
	addq	$2147450880, %rdx
	movzbl	(%rdx), %edx
	testb	%dl, %dl
	je	.L36
	movq	%rax, %rdi
	call	__asan_report_load8@PLT
.L36:
	movq	-40(%rbp), %rax
	movq	8(%rax), %rax
	.loc 1 101 25
	movq	%rax, %rdi
	call	_ZL8PutTokenPK5Token
	.loc 1 103 22
	leaq	.LC39(%rip), %rax
	movq	%rax, %rdi
	movl	$0, %eax
	call	_ZL8stdprintPKcz
	.loc 1 105 20
	movl	$0, %eax
	jmp	.L11
.L23:
.LBE4:
	.loc 1 110 69
	movq	-40(%rbp), %rax
	addq	$24, %rax
	movq	%rax, %rdx
	movq	%rdx, %rax
	shrq	$3, %rax
	addq	$2147450880, %rax
	movzbl	(%rax), %eax
	testb	%al, %al
	setne	%cl
	cmpb	$3, %al
	setle	%al
	andl	%ecx, %eax
	testb	%al, %al
	je	.L37
	movq	%rdx, %rdi
	call	__asan_report_load4@PLT
.L37:
	movq	-40(%rbp), %rax
	movl	24(%rax), %eax
	.loc 1 110 22
	movslq	%eax, %rdx
	leaq	0(,%rdx,8), %rcx
	leaq	STD_FUNCTION_RET_TYPE(%rip), %rdx
	addq	%rcx, %rdx
	movq	%rdx, %rcx
	shrq	$3, %rcx
	addq	$2147450880, %rcx
	movzbl	(%rcx), %ecx
	testb	%cl, %cl
	je	.L38
	movq	%rdx, %rdi
	call	__asan_report_load8@PLT
.L38:
	cltq
	leaq	0(,%rax,8), %rdx
	leaq	STD_FUNCTION_RET_TYPE(%rip), %rax
	movq	(%rdx,%rax), %rax
	movq	%rax, %rsi
	leaq	.LC42(%rip), %rax
	movq	%rax, %rdi
	movl	$0, %eax
	call	_ZL8stdprintPKcz
	.loc 1 112 20
	movl	$0, %eax
	jmp	.L11
.L17:
.LBB5:
	.loc 1 117 22
	leaq	.LC43(%rip), %rax
	movq	%rax, %rdi
	movl	$0, %eax
	call	_ZL8stdprintPKcz
	.loc 1 120 24
	movq	-40(%rbp), %rax
	movq	%rax, %rdx
	shrq	$3, %rdx
	addq	$2147450880, %rdx
	movzbl	(%rdx), %edx
	testb	%dl, %dl
	je	.L39
	movq	%rax, %rdi
	call	__asan_report_load8@PLT
.L39:
	movq	-40(%rbp), %rax
	movq	(%rax), %rax
	movq	%rax, -16(%rbp)
	.loc 1 121 71
	movq	_ZL10STRING_ARR(%rip), %rcx
	.loc 1 121 62
	movq	-16(%rbp), %rax
	addq	$24, %rax
	movq	%rax, %rdx
	movq	%rdx, %rax
	shrq	$3, %rax
	addq	$2147450880, %rax
	movzbl	(%rax), %eax
	testb	%al, %al
	setne	%sil
	cmpb	$3, %al
	setle	%al
	andl	%esi, %eax
	testb	%al, %al
	je	.L40
	movq	%rdx, %rdi
	call	__asan_report_load4@PLT
.L40:
	movq	-16(%rbp), %rax
	movl	24(%rax), %eax
	cltq
	.loc 1 121 71
	salq	$3, %rax
	addq	%rcx, %rax
	.loc 1 121 25
	movq	%rax, %rdx
	movq	%rdx, %rcx
	shrq	$3, %rcx
	addq	$2147450880, %rcx
	movzbl	(%rcx), %ecx
	testb	%cl, %cl
	je	.L41
	movq	%rdx, %rdi
	call	__asan_report_load8@PLT
.L41:
	movq	(%rax), %rax
	movq	%rax, %rsi
	leaq	.LC41(%rip), %rax
	movq	%rax, %rdi
	movl	$0, %eax
	call	_ZL8stdprintPKcz
	.loc 1 124 30
	leaq	.LC35(%rip), %rax
	movq	%rax, %rdi
	movl	$0, %eax
	call	_ZL8stdprintPKcz
	.loc 1 127 30
	leaq	.LC35(%rip), %rax
	movq	%rax, %rdi
	movl	$0, %eax
	call	_ZL8stdprintPKcz
	.loc 1 129 25
	leaq	.LC39(%rip), %rax
	movq	%rax, %rdi
	movl	$0, %eax
	call	_ZL8stdprintPKcz
	.loc 1 131 21
	leaq	.LC44(%rip), %rax
	movq	%rax, %rdi
	movl	$0, %eax
	call	_ZL8stdprintPKcz
	.loc 1 132 21
	leaq	.LC39(%rip), %rax
	movq	%rax, %rdi
	movl	$0, %eax
	call	_ZL8stdprintPKcz
	.loc 1 134 20
	movl	$0, %eax
	jmp	.L11
.L25:
.LBE5:
	.loc 1 138 34
	movq	-40(%rbp), %rax
	movq	%rax, %rdi
	call	_ZL14PutInstructionPK5Token
	.loc 1 138 40
	jmp	.L11
.L16:
	.loc 1 141 37
	movq	-40(%rbp), %rax
	movq	%rax, %rdi
	call	_ZL17PutNativeFunctionPK5Token
	.loc 1 141 43
	jmp	.L11
.L24:
	.loc 1 144 21
	leaq	.LC45(%rip), %rax
	movq	%rax, %rdi
	movl	$0, %eax
	call	_ZL8stdprintPKcz
	.loc 1 147 33
	movq	-40(%rbp), %rax
	movq	%rax, %rdx
	shrq	$3, %rdx
	addq	$2147450880, %rdx
	movzbl	(%rdx), %edx
	testb	%dl, %dl
	je	.L42
	movq	%rax, %rdi
	call	__asan_report_load8@PLT
.L42:
	movq	-40(%rbp), %rax
	movq	(%rax), %rax
	.loc 1 147 25
	movq	%rax, %rdi
	call	_ZL8PutTokenPK5Token
	.loc 1 150 33
	movq	-40(%rbp), %rax
	addq	$8, %rax
	movq	%rax, %rdx
	shrq	$3, %rdx
	addq	$2147450880, %rdx
	movzbl	(%rdx), %edx
	testb	%dl, %dl
	je	.L43
	movq	%rax, %rdi
	call	__asan_report_load8@PLT
.L43:
	movq	-40(%rbp), %rax
	movq	8(%rax), %rax
	.loc 1 150 25
	movq	%rax, %rdi
	call	_ZL8PutTokenPK5Token
	.loc 1 152 21
	leaq	.LC39(%rip), %rax
	movq	%rax, %rdi
	movl	$0, %eax
	call	_ZL8stdprintPKcz
	.loc 1 154 20
	movl	$0, %eax
	jmp	.L11
.L22:
	.loc 1 157 31
	movq	-40(%rbp), %rax
	movq	%rax, %rdi
	call	_ZL11PutOperatorPK5Token
	.loc 1 157 37
	jmp	.L11
.L14:
.LBB6:
	.loc 1 161 21
	leaq	.LC46(%rip), %rax
	movq	%rax, %rdi
	movl	$0, %eax
	call	_ZL8stdprintPKcz
	.loc 1 164 24
	movq	-40(%rbp), %rax
	movq	%rax, %rdx
	shrq	$3, %rdx
	addq	$2147450880, %rdx
	movzbl	(%rdx), %edx
	testb	%dl, %dl
	je	.L44
	movq	%rax, %rdi
	call	__asan_report_load8@PLT
.L44:
	movq	-40(%rbp), %rax
	movq	(%rax), %rax
	movq	%rax, -32(%rbp)
	.loc 1 166 26
	movq	-32(%rbp), %rax
	addq	$16, %rax
	movq	%rax, %rdx
	movq	%rdx, %rax
	shrq	$3, %rax
	addq	$2147450880, %rax
	movzbl	(%rax), %eax
	testb	%al, %al
	setne	%cl
	cmpb	$3, %al
	setle	%al
	andl	%ecx, %eax
	testb	%al, %al
	je	.L45
	movq	%rdx, %rdi
	call	__asan_report_load4@PLT
.L45:
	movq	-32(%rbp), %rax
	movl	16(%rax), %eax
	.loc 1 166 17
	cmpl	$7, %eax
	je	.L46
	.loc 1 168 29
	leaq	.LC47(%rip), %rax
	movq	%rax, %rsi
	leaq	.LC32(%rip), %rax
	movq	%rax, %rdi
	movl	$0, %eax
	call	printf@PLT
	.loc 1 168 57
	leaq	.LC48(%rip), %rax
	movq	%rax, %rdi
	call	puts@PLT
	.loc 1 169 28
	movl	$-1, %eax
	jmp	.L11
.L46:
	.loc 1 172 25
	movq	-32(%rbp), %rax
	movq	%rax, %rdi
	call	_ZL8PutTokenPK5Token
	.loc 1 175 24
	movq	-40(%rbp), %rax
	addq	$8, %rax
	movq	%rax, %rdx
	shrq	$3, %rdx
	addq	$2147450880, %rdx
	movzbl	(%rdx), %edx
	testb	%dl, %dl
	je	.L47
	movq	%rax, %rdi
	call	__asan_report_load8@PLT
.L47:
	movq	-40(%rbp), %rax
	movq	8(%rax), %rax
	movq	%rax, -24(%rbp)
	.loc 1 177 25
	movq	-24(%rbp), %rax
	movq	%rax, %rdi
	call	_ZL8PutTokenPK5Token
	.loc 1 179 21
	leaq	.LC39(%rip), %rax
	movq	%rax, %rdi
	movl	$0, %eax
	call	_ZL8stdprintPKcz
	.loc 1 181 20
	movl	$0, %eax
	jmp	.L11
.L20:
.LBE6:
	.loc 1 186 70
	movq	_ZL10STRING_ARR(%rip), %rcx
	.loc 1 186 61
	movq	-40(%rbp), %rax
	addq	$24, %rax
	movq	%rax, %rdx
	movq	%rdx, %rax
	shrq	$3, %rax
	addq	$2147450880, %rax
	movzbl	(%rax), %eax
	testb	%al, %al
	setne	%sil
	cmpb	$3, %al
	setle	%al
	andl	%esi, %eax
	testb	%al, %al
	je	.L48
	movq	%rdx, %rdi
	call	__asan_report_load4@PLT
.L48:
	movq	-40(%rbp), %rax
	movl	24(%rax), %eax
	cltq
	.loc 1 186 70
	salq	$3, %rax
	addq	%rcx, %rax
	.loc 1 186 21
	movq	%rax, %rdx
	movq	%rdx, %rcx
	shrq	$3, %rcx
	addq	$2147450880, %rcx
	movzbl	(%rcx), %ecx
	testb	%cl, %cl
	je	.L49
	movq	%rdx, %rdi
	call	__asan_report_load8@PLT
.L49:
	movq	(%rax), %rax
	movq	%rax, %rsi
	leaq	.LC37(%rip), %rax
	movq	%rax, %rdi
	movl	$0, %eax
	call	_ZL8stdprintPKcz
	.loc 1 188 20
	movl	$0, %eax
	jmp	.L11
.L13:
	.loc 1 191 19
	leaq	.LC49(%rip), %rax
	movq	%rax, %rdi
	call	puts@PLT
	.loc 1 193 23
	movq	_ZL10STRING_ARR(%rip), %rdx
	movq	-40(%rbp), %rax
	movq	%rdx, %rsi
	movq	%rax, %rdi
	call	_Z10PrintTokenPK5TokenPPKc@PLT
	.loc 1 195 20
	movl	$-1, %eax
.L11:
.LBE3:
.LBE2:
	.loc 1 201 5
	leave
	.cfi_def_cfa 7, 8
	ret
	.cfi_endproc
.LFE2271:
	.size	_ZL8PutTokenPK5Token, .-_ZL8PutTokenPK5Token
	.section	.rodata
	.align 32
.LC50:
	.string	"int PutInstruction(const Token*)"
	.zero	63
	.align 32
.LC51:
	.string	"PutInstruction"
	.zero	49
	.align 32
.LC52:
	.string	"Ebat, not a instruction token"
	.zero	34
	.align 32
.LC53:
	.string	"{ IF "
	.zero	58
	.align 32
.LC54:
	.string	"{ ELSE "
	.zero	56
	.align 32
.LC55:
	.string	"{ RET "
	.zero	57
	.text
	.type	_ZL14PutInstructionPK5Token, @function
_ZL14PutInstructionPK5Token:
.LASANPC2272:
.LFB2272:
	.loc 1 204 5
	.cfi_startproc
	endbr64
	pushq	%rbp
	.cfi_def_cfa_offset 16
	.cfi_offset 6, -16
	movq	%rsp, %rbp
	.cfi_def_cfa_register 6
	pushq	%rbx
	subq	$24, %rsp
	.cfi_offset 3, -24
	movq	%rdi, -24(%rbp)
	.loc 1 205 10
	cmpq	$0, -24(%rbp)
	jne	.L51
	.loc 1 205 45 discriminator 1
	call	_ZN6Logger11getInstanceEv@PLT
	movq	%rax, %rcx
	.loc 1 205 51 discriminator 1
	leaq	.LC34(%rip), %rax
	movq	%rax, %rdx
	leaq	.LC19(%rip), %rax
	movq	%rax, %rsi
	movq	%rcx, %rdi
	movl	$0, %eax
	call	_ZN6Logger3logEPKcz@PLT
	.loc 1 205 109 discriminator 1
	leaq	.LC34(%rip), %rax
	movq	%rax, %rsi
	leaq	.LC20(%rip), %rax
	movq	%rax, %rdi
	movl	$0, %eax
	call	printf@PLT
	.loc 1 205 255 discriminator 1
	call	_ZN6Logger11getInstanceEv@PLT
	movq	%rax, %rdi
	.loc 1 205 261 discriminator 1
	leaq	.LC50(%rip), %r8
	movl	$205, %ecx
	leaq	.LC22(%rip), %rax
	movq	%rax, %rdx
	leaq	.LC23(%rip), %rax
	movq	%rax, %rsi
	movl	$0, %eax
	call	_ZN6Logger3logEPKcz@PLT
	.loc 1 205 363 discriminator 1
	leaq	.LC50(%rip), %rax
	movq	%rax, %rcx
	movl	$205, %edx
	leaq	.LC22(%rip), %rax
	movq	%rax, %rsi
	leaq	.LC23(%rip), %rax
	movq	%rax, %rdi
	movl	$0, %eax
	call	printf@PLT
	.loc 1 205 478 discriminator 1
	call	_ZN6Logger11getInstanceEv@PLT
	movq	%rax, %rbx
	.loc 1 205 484 discriminator 1
	movl	$14, %edi
	call	strerror@PLT
	movq	%rax, %rcx
	movl	$14, %edx
	leaq	.LC24(%rip), %rax
	movq	%rax, %rsi
	movq	%rbx, %rdi
	movl	$0, %eax
	call	_ZN6Logger3logEPKcz@PLT
	.loc 1 205 27 discriminator 1
	call	_ZN6Logger11getInstanceEv@PLT
	movq	%rax, %rdi
	.loc 1 205 33 discriminator 1
	movl	$205, %ecx
	leaq	.LC51(%rip), %rax
	movq	%rax, %rdx
	leaq	.LC26(%rip), %rax
	movq	%rax, %rsi
	movl	$0, %eax
	call	_ZN6Logger3logEPKcz@PLT
	.loc 1 205 92 discriminator 1
	leaq	.LC27(%rip), %rax
	movq	%rax, %rdi
	call	system@PLT
	.loc 1 205 134 discriminator 1
	call	_ZN6Logger11getInstanceEv@PLT
	.loc 1 205 156 discriminator 1
	call	_ZN6Logger11getInstanceEv@PLT
	movq	%rax, %rbx
	.loc 1 205 169 discriminator 1
	movl	$205, %r9d
	leaq	.LC51(%rip), %r8
	movl	$205, %ecx
	leaq	.LC22(%rip), %rax
	movq	%rax, %rdx
	leaq	.LC28(%rip), %rax
	movq	%rax, %rsi
	movl	$-1, %edi
	movl	$0, %eax
	call	_Z6MsgRetiPKcz@PLT
	movl	%eax, %esi
	subq	$8, %rsp
	pushq	$205
	leaq	.LC51(%rip), %r9
	movl	$205, %r8d
	leaq	.LC22(%rip), %rax
	movq	%rax, %rcx
	leaq	.LC29(%rip), %rax
	movq	%rax, %rdx
	movq	%rbx, %rdi
	movl	$0, %eax
	call	_ZN6Logger9LogMsgRetEiPKcz@PLT
	addq	$16, %rsp
	.loc 1 205 380 discriminator 1
	jmp	.L52
.L51:
	.loc 1 207 16
	movq	-24(%rbp), %rax
	addq	$16, %rax
	movq	%rax, %rdx
	movq	%rdx, %rax
	shrq	$3, %rax
	addq	$2147450880, %rax
	movzbl	(%rax), %eax
	testb	%al, %al
	setne	%cl
	cmpb	$3, %al
	setle	%al
	andl	%ecx, %eax
	testb	%al, %al
	je	.L53
	movq	%rdx, %rdi
	call	__asan_report_load4@PLT
.L53:
	movq	-24(%rbp), %rax
	movl	16(%rax), %eax
	.loc 1 207 5
	cmpl	$2, %eax
	je	.L54
	.loc 1 209 17
	leaq	.LC51(%rip), %rax
	movq	%rax, %rsi
	leaq	.LC32(%rip), %rax
	movq	%rax, %rdi
	movl	$0, %eax
	call	printf@PLT
	.loc 1 209 45
	leaq	.LC52(%rip), %rax
	movq	%rax, %rdi
	call	puts@PLT
	.loc 1 210 19
	movq	_ZL10STRING_ARR(%rip), %rdx
	movq	-24(%rbp), %rax
	movq	%rdx, %rsi
	movq	%rax, %rdi
	call	_Z10PrintTokenPK5TokenPPKc@PLT
	.loc 1 211 16
	movl	$-1, %eax
	jmp	.L52
.L54:
	.loc 1 214 25
	movq	-24(%rbp), %rax
	addq	$24, %rax
	movq	%rax, %rdx
	movq	%rdx, %rax
	shrq	$3, %rax
	addq	$2147450880, %rax
	movzbl	(%rax), %eax
	testb	%al, %al
	setne	%cl
	cmpb	$3, %al
	setle	%al
	andl	%ecx, %eax
	testb	%al, %al
	je	.L55
	movq	%rdx, %rdi
	call	__asan_report_load4@PLT
.L55:
	movq	-24(%rbp), %rax
	movl	24(%rax), %eax
	.loc 1 214 5
	cmpl	$3, %eax
	je	.L56
	cmpl	$3, %eax
	jg	.L57
	cmpl	$2, %eax
	je	.L58
	cmpl	$2, %eax
	jg	.L57
	testl	%eax, %eax
	je	.L58
	cmpl	$1, %eax
	je	.L59
	jmp	.L57
.L58:
	.loc 1 218 21
	leaq	.LC53(%rip), %rax
	movq	%rax, %rdi
	movl	$0, %eax
	call	_ZL8stdprintPKcz
	.loc 1 221 33
	movq	-24(%rbp), %rax
	movq	%rax, %rdx
	shrq	$3, %rdx
	addq	$2147450880, %rdx
	movzbl	(%rdx), %edx
	testb	%dl, %dl
	je	.L60
	movq	%rax, %rdi
	call	__asan_report_load8@PLT
.L60:
	movq	-24(%rbp), %rax
	movq	(%rax), %rax
	.loc 1 221 25
	movq	%rax, %rdi
	call	_ZL8PutTokenPK5Token
	.loc 1 224 33
	movq	-24(%rbp), %rax
	addq	$8, %rax
	movq	%rax, %rdx
	shrq	$3, %rdx
	addq	$2147450880, %rdx
	movzbl	(%rdx), %edx
	testb	%dl, %dl
	je	.L61
	movq	%rax, %rdi
	call	__asan_report_load8@PLT
.L61:
	movq	-24(%rbp), %rax
	movq	8(%rax), %rax
	.loc 1 224 25
	movq	%rax, %rdi
	call	_ZL8PutTokenPK5Token
	.loc 1 226 21
	leaq	.LC39(%rip), %rax
	movq	%rax, %rdi
	movl	$0, %eax
	call	_ZL8stdprintPKcz
	.loc 1 228 20
	movl	$0, %eax
	jmp	.L52
.L59:
	.loc 1 231 21
	leaq	.LC54(%rip), %rax
	movq	%rax, %rdi
	movl	$0, %eax
	call	_ZL8stdprintPKcz
	.loc 1 234 34
	movq	-24(%rbp), %rax
	movq	%rax, %rdx
	shrq	$3, %rdx
	addq	$2147450880, %rdx
	movzbl	(%rdx), %edx
	testb	%dl, %dl
	je	.L62
	movq	%rax, %rdi
	call	__asan_report_load8@PLT
.L62:
	movq	-24(%rbp), %rax
	movq	(%rax), %rax
	.loc 1 234 25
	movq	%rax, %rdi
	call	_ZL8PutTokenPK5Token
	.loc 1 237 33
	movq	-24(%rbp), %rax
	addq	$8, %rax
	movq	%rax, %rdx
	shrq	$3, %rdx
	addq	$2147450880, %rdx
	movzbl	(%rdx), %edx
	testb	%dl, %dl
	je	.L63
	movq	%rax, %rdi
	call	__asan_report_load8@PLT
.L63:
	movq	-24(%rbp), %rax
	movq	8(%rax), %rax
	.loc 1 237 25
	movq	%rax, %rdi
	call	_ZL8PutTokenPK5Token
	.loc 1 239 21
	leaq	.LC39(%rip), %rax
	movq	%rax, %rdi
	movl	$0, %eax
	call	_ZL8stdprintPKcz
	.loc 1 241 20
	movl	$0, %eax
	jmp	.L52
.L56:
	.loc 1 244 21
	leaq	.LC55(%rip), %rax
	movq	%rax, %rdi
	movl	$0, %eax
	call	_ZL8stdprintPKcz
	.loc 1 247 33
	movq	-24(%rbp), %rax
	movq	%rax, %rdx
	shrq	$3, %rdx
	addq	$2147450880, %rdx
	movzbl	(%rdx), %edx
	testb	%dl, %dl
	je	.L64
	movq	%rax, %rdi
	call	__asan_report_load8@PLT
.L64:
	movq	-24(%rbp), %rax
	movq	(%rax), %rax
	.loc 1 247 25
	movq	%rax, %rdi
	call	_ZL8PutTokenPK5Token
	.loc 1 250 25
	leaq	.LC35(%rip), %rax
	movq	%rax, %rdi
	movl	$0, %eax
	call	_ZL8stdprintPKcz
	.loc 1 252 21
	leaq	.LC39(%rip), %rax
	movq	%rax, %rdi
	movl	$0, %eax
	call	_ZL8stdprintPKcz
	.loc 1 254 20
	movl	$0, %eax
	jmp	.L52
.L57:
	.loc 1 257 19
	leaq	.LC49(%rip), %rax
	movq	%rax, %rdi
	call	puts@PLT
	.loc 1 259 23
	movq	_ZL10STRING_ARR(%rip), %rdx
	movq	-24(%rbp), %rax
	movq	%rdx, %rsi
	movq	%rax, %rdi
	call	_Z10PrintTokenPK5TokenPPKc@PLT
	.loc 1 261 20
	movl	$-1, %eax
.L52:
	.loc 1 267 5
	movq	-8(%rbp), %rbx
	leave
	.cfi_def_cfa 7, 8
	ret
	.cfi_endproc
.LFE2272:
	.size	_ZL14PutInstructionPK5Token, .-_ZL14PutInstructionPK5Token
	.section	.rodata
	.align 32
.LC56:
	.string	"int PutNativeFunction(const Token*)"
	.zero	60
	.align 32
.LC57:
	.string	"PutNativeFunction"
	.zero	46
	.align 32
.LC58:
	.string	"Ebat, not a native function token"
	.zero	62
	.align 32
.LC59:
	.string	"{ %s "
	.zero	58
	.align 32
.LC60:
	.string	"{ PARAM "
	.zero	55
	.text
	.type	_ZL17PutNativeFunctionPK5Token, @function
_ZL17PutNativeFunctionPK5Token:
.LASANPC2273:
.LFB2273:
	.loc 1 270 5
	.cfi_startproc
	endbr64
	pushq	%rbp
	.cfi_def_cfa_offset 16
	.cfi_offset 6, -16
	movq	%rsp, %rbp
	.cfi_def_cfa_register 6
	pushq	%rbx
	subq	$24, %rsp
	.cfi_offset 3, -24
	movq	%rdi, -24(%rbp)
	.loc 1 271 10
	cmpq	$0, -24(%rbp)
	jne	.L66
	.loc 1 271 45 discriminator 1
	call	_ZN6Logger11getInstanceEv@PLT
	movq	%rax, %rcx
	.loc 1 271 51 discriminator 1
	leaq	.LC34(%rip), %rax
	movq	%rax, %rdx
	leaq	.LC19(%rip), %rax
	movq	%rax, %rsi
	movq	%rcx, %rdi
	movl	$0, %eax
	call	_ZN6Logger3logEPKcz@PLT
	.loc 1 271 109 discriminator 1
	leaq	.LC34(%rip), %rax
	movq	%rax, %rsi
	leaq	.LC20(%rip), %rax
	movq	%rax, %rdi
	movl	$0, %eax
	call	printf@PLT
	.loc 1 271 255 discriminator 1
	call	_ZN6Logger11getInstanceEv@PLT
	movq	%rax, %rdi
	.loc 1 271 261 discriminator 1
	leaq	.LC56(%rip), %r8
	movl	$271, %ecx
	leaq	.LC22(%rip), %rax
	movq	%rax, %rdx
	leaq	.LC23(%rip), %rax
	movq	%rax, %rsi
	movl	$0, %eax
	call	_ZN6Logger3logEPKcz@PLT
	.loc 1 271 363 discriminator 1
	leaq	.LC56(%rip), %rax
	movq	%rax, %rcx
	movl	$271, %edx
	leaq	.LC22(%rip), %rax
	movq	%rax, %rsi
	leaq	.LC23(%rip), %rax
	movq	%rax, %rdi
	movl	$0, %eax
	call	printf@PLT
	.loc 1 271 478 discriminator 1
	call	_ZN6Logger11getInstanceEv@PLT
	movq	%rax, %rbx
	.loc 1 271 484 discriminator 1
	movl	$14, %edi
	call	strerror@PLT
	movq	%rax, %rcx
	movl	$14, %edx
	leaq	.LC24(%rip), %rax
	movq	%rax, %rsi
	movq	%rbx, %rdi
	movl	$0, %eax
	call	_ZN6Logger3logEPKcz@PLT
	.loc 1 271 27 discriminator 1
	call	_ZN6Logger11getInstanceEv@PLT
	movq	%rax, %rdi
	.loc 1 271 33 discriminator 1
	movl	$271, %ecx
	leaq	.LC57(%rip), %rax
	movq	%rax, %rdx
	leaq	.LC26(%rip), %rax
	movq	%rax, %rsi
	movl	$0, %eax
	call	_ZN6Logger3logEPKcz@PLT
	.loc 1 271 92 discriminator 1
	leaq	.LC27(%rip), %rax
	movq	%rax, %rdi
	call	system@PLT
	.loc 1 271 134 discriminator 1
	call	_ZN6Logger11getInstanceEv@PLT
	.loc 1 271 156 discriminator 1
	call	_ZN6Logger11getInstanceEv@PLT
	movq	%rax, %rbx
	.loc 1 271 169 discriminator 1
	movl	$271, %r9d
	leaq	.LC57(%rip), %r8
	movl	$271, %ecx
	leaq	.LC22(%rip), %rax
	movq	%rax, %rdx
	leaq	.LC28(%rip), %rax
	movq	%rax, %rsi
	movl	$-1, %edi
	movl	$0, %eax
	call	_Z6MsgRetiPKcz@PLT
	movl	%eax, %esi
	subq	$8, %rsp
	pushq	$271
	leaq	.LC57(%rip), %r9
	movl	$271, %r8d
	leaq	.LC22(%rip), %rax
	movq	%rax, %rcx
	leaq	.LC29(%rip), %rax
	movq	%rax, %rdx
	movq	%rbx, %rdi
	movl	$0, %eax
	call	_ZN6Logger9LogMsgRetEiPKcz@PLT
	addq	$16, %rsp
	.loc 1 271 380 discriminator 1
	jmp	.L67
.L66:
	.loc 1 273 16
	movq	-24(%rbp), %rax
	addq	$16, %rax
	movq	%rax, %rdx
	movq	%rdx, %rax
	shrq	$3, %rax
	addq	$2147450880, %rax
	movzbl	(%rax), %eax
	testb	%al, %al
	setne	%cl
	cmpb	$3, %al
	setle	%al
	andl	%ecx, %eax
	testb	%al, %al
	je	.L68
	movq	%rdx, %rdi
	call	__asan_report_load4@PLT
.L68:
	movq	-24(%rbp), %rax
	movl	16(%rax), %eax
	.loc 1 273 5
	cmpl	$11, %eax
	je	.L69
	.loc 1 275 17
	leaq	.LC57(%rip), %rax
	movq	%rax, %rsi
	leaq	.LC32(%rip), %rax
	movq	%rax, %rdi
	movl	$0, %eax
	call	printf@PLT
	.loc 1 275 45
	leaq	.LC58(%rip), %rax
	movq	%rax, %rdi
	call	puts@PLT
	.loc 1 276 19
	movq	_ZL10STRING_ARR(%rip), %rdx
	movq	-24(%rbp), %rax
	movq	%rdx, %rsi
	movq	%rax, %rdi
	call	_Z10PrintTokenPK5TokenPPKc@PLT
	.loc 1 277 16
	movl	$-1, %eax
	jmp	.L67
.L69:
	.loc 1 280 25
	movq	-24(%rbp), %rax
	addq	$24, %rax
	movq	%rax, %rdx
	movq	%rdx, %rax
	shrq	$3, %rax
	addq	$2147450880, %rax
	movzbl	(%rax), %eax
	testb	%al, %al
	setne	%cl
	cmpb	$3, %al
	setle	%al
	andl	%ecx, %eax
	testb	%al, %al
	je	.L70
	movq	%rdx, %rdi
	call	__asan_report_load4@PLT
.L70:
	movq	-24(%rbp), %rax
	movl	24(%rax), %eax
	.loc 1 280 5
	cmpl	$1, %eax
	jg	.L71
	testl	%eax, %eax
	jns	.L72
	jmp	.L73
.L71:
	subl	$2, %eax
	cmpl	$1, %eax
	ja	.L73
	.loc 1 284 65
	movq	-24(%rbp), %rax
	addq	$24, %rax
	movq	%rax, %rdx
	movq	%rdx, %rax
	shrq	$3, %rax
	addq	$2147450880, %rax
	movzbl	(%rax), %eax
	testb	%al, %al
	setne	%cl
	cmpb	$3, %al
	setle	%al
	andl	%ecx, %eax
	testb	%al, %al
	je	.L74
	movq	%rdx, %rdi
	call	__asan_report_load4@PLT
.L74:
	movq	-24(%rbp), %rax
	movl	24(%rax), %eax
	.loc 1 284 21
	movslq	%eax, %rdx
	leaq	0(,%rdx,8), %rcx
	leaq	NATIVE_FUNCTIONS_STD(%rip), %rdx
	addq	%rcx, %rdx
	movq	%rdx, %rcx
	shrq	$3, %rcx
	addq	$2147450880, %rcx
	movzbl	(%rcx), %ecx
	testb	%cl, %cl
	je	.L75
	movq	%rdx, %rdi
	call	__asan_report_load8@PLT
.L75:
	cltq
	leaq	0(,%rax,8), %rdx
	leaq	NATIVE_FUNCTIONS_STD(%rip), %rax
	movq	(%rdx,%rax), %rax
	movq	%rax, %rsi
	leaq	.LC59(%rip), %rax
	movq	%rax, %rdi
	movl	$0, %eax
	call	_ZL8stdprintPKcz
	.loc 1 287 33
	movq	-24(%rbp), %rax
	movq	%rax, %rdx
	shrq	$3, %rdx
	addq	$2147450880, %rdx
	movzbl	(%rdx), %edx
	testb	%dl, %dl
	je	.L76
	movq	%rax, %rdi
	call	__asan_report_load8@PLT
.L76:
	movq	-24(%rbp), %rax
	movq	(%rax), %rax
	.loc 1 287 25
	movq	%rax, %rdi
	call	_ZL8PutTokenPK5Token
	.loc 1 290 25
	leaq	.LC35(%rip), %rax
	movq	%rax, %rdi
	movl	$0, %eax
	call	_ZL8stdprintPKcz
	.loc 1 292 21
	leaq	.LC39(%rip), %rax
	movq	%rax, %rdi
	movl	$0, %eax
	call	_ZL8stdprintPKcz
	.loc 1 294 20
	movl	$0, %eax
	jmp	.L67
.L72:
	.loc 1 298 65
	movq	-24(%rbp), %rax
	addq	$24, %rax
	movq	%rax, %rdx
	movq	%rdx, %rax
	shrq	$3, %rax
	addq	$2147450880, %rax
	movzbl	(%rax), %eax
	testb	%al, %al
	setne	%cl
	cmpb	$3, %al
	setle	%al
	andl	%ecx, %eax
	testb	%al, %al
	je	.L77
	movq	%rdx, %rdi
	call	__asan_report_load4@PLT
.L77:
	movq	-24(%rbp), %rax
	movl	24(%rax), %eax
	.loc 1 298 21
	movslq	%eax, %rdx
	leaq	0(,%rdx,8), %rcx
	leaq	NATIVE_FUNCTIONS_STD(%rip), %rdx
	addq	%rcx, %rdx
	movq	%rdx, %rcx
	shrq	$3, %rcx
	addq	$2147450880, %rcx
	movzbl	(%rcx), %ecx
	testb	%cl, %cl
	je	.L78
	movq	%rdx, %rdi
	call	__asan_report_load8@PLT
.L78:
	cltq
	leaq	0(,%rax,8), %rdx
	leaq	NATIVE_FUNCTIONS_STD(%rip), %rax
	movq	(%rdx,%rax), %rax
	movq	%rax, %rsi
	leaq	.LC59(%rip), %rax
	movq	%rax, %rdi
	movl	$0, %eax
	call	_ZL8stdprintPKcz
	.loc 1 301 25
	leaq	.LC60(%rip), %rax
	movq	%rax, %rdi
	movl	$0, %eax
	call	_ZL8stdprintPKcz
	.loc 1 303 33
	movq	-24(%rbp), %rax
	movq	%rax, %rdx
	shrq	$3, %rdx
	addq	$2147450880, %rdx
	movzbl	(%rdx), %edx
	testb	%dl, %dl
	je	.L79
	movq	%rax, %rdi
	call	__asan_report_load8@PLT
.L79:
	movq	-24(%rbp), %rax
	movq	(%rax), %rax
	.loc 1 303 25
	movq	%rax, %rdi
	call	_ZL8PutTokenPK5Token
	.loc 1 305 25
	leaq	.LC39(%rip), %rax
	movq	%rax, %rdi
	movl	$0, %eax
	call	_ZL8stdprintPKcz
	.loc 1 308 25
	leaq	.LC35(%rip), %rax
	movq	%rax, %rdi
	movl	$0, %eax
	call	_ZL8stdprintPKcz
	.loc 1 310 21
	leaq	.LC39(%rip), %rax
	movq	%rax, %rdi
	movl	$0, %eax
	call	_ZL8stdprintPKcz
	.loc 1 312 20
	movl	$0, %eax
	jmp	.L67
.L73:
	.loc 1 315 19
	leaq	.LC49(%rip), %rax
	movq	%rax, %rdi
	call	puts@PLT
	.loc 1 317 23
	movq	_ZL10STRING_ARR(%rip), %rdx
	movq	-24(%rbp), %rax
	movq	%rdx, %rsi
	movq	%rax, %rdi
	call	_Z10PrintTokenPK5TokenPPKc@PLT
	.loc 1 319 20
	movl	$-1, %eax
.L67:
	.loc 1 325 5
	movq	-8(%rbp), %rbx
	leave
	.cfi_def_cfa 7, 8
	ret
	.cfi_endproc
.LFE2273:
	.size	_ZL17PutNativeFunctionPK5Token, .-_ZL17PutNativeFunctionPK5Token
	.section	.rodata
	.align 32
.LC61:
	.string	"int PutOperator(const Token*)"
	.zero	34
	.align 32
.LC62:
	.string	"PutOperator"
	.zero	52
	.align 32
.LC63:
	.string	"Ebat, not a operator token"
	.zero	37
	.text
	.type	_ZL11PutOperatorPK5Token, @function
_ZL11PutOperatorPK5Token:
.LASANPC2274:
.LFB2274:
	.loc 1 328 5
	.cfi_startproc
	endbr64
	pushq	%rbp
	.cfi_def_cfa_offset 16
	.cfi_offset 6, -16
	movq	%rsp, %rbp
	.cfi_def_cfa_register 6
	pushq	%rbx
	subq	$24, %rsp
	.cfi_offset 3, -24
	movq	%rdi, -24(%rbp)
	.loc 1 329 10
	cmpq	$0, -24(%rbp)
	jne	.L81
	.loc 1 329 45 discriminator 1
	call	_ZN6Logger11getInstanceEv@PLT
	movq	%rax, %rcx
	.loc 1 329 51 discriminator 1
	leaq	.LC34(%rip), %rax
	movq	%rax, %rdx
	leaq	.LC19(%rip), %rax
	movq	%rax, %rsi
	movq	%rcx, %rdi
	movl	$0, %eax
	call	_ZN6Logger3logEPKcz@PLT
	.loc 1 329 109 discriminator 1
	leaq	.LC34(%rip), %rax
	movq	%rax, %rsi
	leaq	.LC20(%rip), %rax
	movq	%rax, %rdi
	movl	$0, %eax
	call	printf@PLT
	.loc 1 329 255 discriminator 1
	call	_ZN6Logger11getInstanceEv@PLT
	movq	%rax, %rdi
	.loc 1 329 261 discriminator 1
	leaq	.LC61(%rip), %r8
	movl	$329, %ecx
	leaq	.LC22(%rip), %rax
	movq	%rax, %rdx
	leaq	.LC23(%rip), %rax
	movq	%rax, %rsi
	movl	$0, %eax
	call	_ZN6Logger3logEPKcz@PLT
	.loc 1 329 363 discriminator 1
	leaq	.LC61(%rip), %rax
	movq	%rax, %rcx
	movl	$329, %edx
	leaq	.LC22(%rip), %rax
	movq	%rax, %rsi
	leaq	.LC23(%rip), %rax
	movq	%rax, %rdi
	movl	$0, %eax
	call	printf@PLT
	.loc 1 329 478 discriminator 1
	call	_ZN6Logger11getInstanceEv@PLT
	movq	%rax, %rbx
	.loc 1 329 484 discriminator 1
	movl	$14, %edi
	call	strerror@PLT
	movq	%rax, %rcx
	movl	$14, %edx
	leaq	.LC24(%rip), %rax
	movq	%rax, %rsi
	movq	%rbx, %rdi
	movl	$0, %eax
	call	_ZN6Logger3logEPKcz@PLT
	.loc 1 329 27 discriminator 1
	call	_ZN6Logger11getInstanceEv@PLT
	movq	%rax, %rdi
	.loc 1 329 33 discriminator 1
	movl	$329, %ecx
	leaq	.LC62(%rip), %rax
	movq	%rax, %rdx
	leaq	.LC26(%rip), %rax
	movq	%rax, %rsi
	movl	$0, %eax
	call	_ZN6Logger3logEPKcz@PLT
	.loc 1 329 92 discriminator 1
	leaq	.LC27(%rip), %rax
	movq	%rax, %rdi
	call	system@PLT
	.loc 1 329 115 discriminator 1
	movl	$-2, %eax
	jmp	.L82
.L81:
	.loc 1 331 16
	movq	-24(%rbp), %rax
	addq	$16, %rax
	movq	%rax, %rdx
	movq	%rdx, %rax
	shrq	$3, %rax
	addq	$2147450880, %rax
	movzbl	(%rax), %eax
	testb	%al, %al
	setne	%cl
	cmpb	$3, %al
	setle	%al
	andl	%ecx, %eax
	testb	%al, %al
	je	.L83
	movq	%rdx, %rdi
	call	__asan_report_load4@PLT
.L83:
	movq	-24(%rbp), %rax
	movl	16(%rax), %eax
	.loc 1 331 5
	cmpl	$5, %eax
	je	.L84
	.loc 1 333 17
	leaq	.LC62(%rip), %rax
	movq	%rax, %rsi
	leaq	.LC32(%rip), %rax
	movq	%rax, %rdi
	movl	$0, %eax
	call	printf@PLT
	.loc 1 333 45
	leaq	.LC63(%rip), %rax
	movq	%rax, %rdi
	call	puts@PLT
	.loc 1 334 19
	movq	_ZL10STRING_ARR(%rip), %rdx
	movq	-24(%rbp), %rax
	movq	%rdx, %rsi
	movq	%rax, %rdi
	call	_Z10PrintTokenPK5TokenPPKc@PLT
	.loc 1 335 16
	movl	$-1, %eax
	jmp	.L82
.L84:
	.loc 1 338 25
	movq	-24(%rbp), %rax
	addq	$24, %rax
	movq	%rax, %rdx
	movq	%rdx, %rax
	shrq	$3, %rax
	addq	$2147450880, %rax
	movzbl	(%rax), %eax
	testb	%al, %al
	setne	%cl
	testb	%al, %al
	setle	%al
	andl	%ecx, %eax
	testb	%al, %al
	je	.L85
	movq	%rdx, %rdi
	call	__asan_report_load1@PLT
.L85:
	movq	-24(%rbp), %rax
	movzbl	24(%rax), %eax
	movsbl	%al, %eax
	.loc 1 338 5
	subl	$42, %eax
	cmpl	$52, %eax
	seta	%dl
	testb	%dl, %dl
	jne	.L86
	movabsq	$4503599627370539, %rdx
	movl	%eax, %ecx
	shrq	%cl, %rdx
	movq	%rdx, %rax
	andl	$1, %eax
	testq	%rax, %rax
	setne	%al
	testb	%al, %al
	je	.L86
	.loc 1 345 58
	movq	-24(%rbp), %rax
	movzbl	24(%rax), %eax
	.loc 1 345 17
	movsbl	%al, %eax
	movl	%eax, %edi
	call	_ZL17MathOperatorToStdi
	movq	%rax, %rsi
	leaq	.LC59(%rip), %rax
	movq	%rax, %rdi
	movl	$0, %eax
	call	_ZL8stdprintPKcz
	.loc 1 347 30
	movq	-24(%rbp), %rax
	movq	%rax, %rdx
	shrq	$3, %rdx
	addq	$2147450880, %rdx
	movzbl	(%rdx), %edx
	testb	%dl, %dl
	je	.L87
	movq	%rax, %rdi
	call	__asan_report_load8@PLT
.L87:
	movq	-24(%rbp), %rax
	movq	(%rax), %rax
	.loc 1 347 21
	movq	%rax, %rdi
	call	_ZL8PutTokenPK5Token
	.loc 1 348 29
	movq	-24(%rbp), %rax
	addq	$8, %rax
	movq	%rax, %rdx
	shrq	$3, %rdx
	addq	$2147450880, %rdx
	movzbl	(%rdx), %edx
	testb	%dl, %dl
	je	.L88
	movq	%rax, %rdi
	call	__asan_report_load8@PLT
.L88:
	movq	-24(%rbp), %rax
	movq	8(%rax), %rax
	.loc 1 348 21
	movq	%rax, %rdi
	call	_ZL8PutTokenPK5Token
	.loc 1 350 17
	leaq	.LC39(%rip), %rax
	movq	%rax, %rdi
	movl	$0, %eax
	call	_ZL8stdprintPKcz
	.loc 1 352 16
	movl	$0, %eax
	jmp	.L82
.L86:
	.loc 1 355 15
	leaq	.LC49(%rip), %rax
	movq	%rax, %rdi
	call	puts@PLT
	.loc 1 357 19
	movq	_ZL10STRING_ARR(%rip), %rdx
	movq	-24(%rbp), %rax
	movq	%rdx, %rsi
	movq	%rax, %rdi
	call	_Z10PrintTokenPK5TokenPPKc@PLT
	.loc 1 359 16
	movl	$-1, %eax
.L82:
	.loc 1 365 5
	movq	-8(%rbp), %rbx
	leave
	.cfi_def_cfa 7, 8
	ret
	.cfi_endproc
.LFE2274:
	.size	_ZL11PutOperatorPK5Token, .-_ZL11PutOperatorPK5Token
	.section	.rodata
	.align 32
.LC64:
	.string	"ADD"
	.zero	60
	.align 32
.LC65:
	.string	"SUB"
	.zero	60
	.align 32
.LC66:
	.string	"DIV"
	.zero	60
	.align 32
.LC67:
	.string	"MUL"
	.zero	60
	.align 32
.LC68:
	.string	"POW"
	.zero	60
	.align 32
.LC69:
	.string	"NOT SUPPORTED MATH OPERATOR"
	.zero	36
	.text
	.type	_ZL17MathOperatorToStdi, @function
_ZL17MathOperatorToStdi:
.LASANPC2275:
.LFB2275:
	.loc 1 368 5
	.cfi_startproc
	endbr64
	pushq	%rbp
	.cfi_def_cfa_offset 16
	.cfi_offset 6, -16
	movq	%rsp, %rbp
	.cfi_def_cfa_register 6
	movl	%edi, -4(%rbp)
	.loc 1 369 5
	cmpl	$94, -4(%rbp)
	je	.L90
	cmpl	$94, -4(%rbp)
	jg	.L91
	cmpl	$47, -4(%rbp)
	je	.L92
	cmpl	$47, -4(%rbp)
	jg	.L91
	cmpl	$45, -4(%rbp)
	je	.L93
	cmpl	$45, -4(%rbp)
	jg	.L91
	cmpl	$42, -4(%rbp)
	je	.L94
	cmpl	$43, -4(%rbp)
	jne	.L91
	.loc 1 371 26
	leaq	.LC64(%rip), %rax
	jmp	.L95
.L93:
	.loc 1 372 26
	leaq	.LC65(%rip), %rax
	jmp	.L95
.L92:
	.loc 1 373 26
	leaq	.LC66(%rip), %rax
	jmp	.L95
.L94:
	.loc 1 374 26
	leaq	.LC67(%rip), %rax
	jmp	.L95
.L90:
	.loc 1 375 26
	leaq	.LC68(%rip), %rax
	jmp	.L95
.L91:
	.loc 1 377 25
	leaq	.LC69(%rip), %rax
.L95:
	.loc 1 383 5
	popq	%rbp
	.cfi_def_cfa 7, 8
	ret
	.cfi_endproc
.LFE2275:
	.size	_ZL17MathOperatorToStdi, .-_ZL17MathOperatorToStdi
	.globl	__asan_stack_malloc_1
	.section	.rodata
.LC70:
	.string	"1 32 24 3 ptr"
	.align 32
.LC71:
	.string	"format"
	.zero	57
	.align 32
.LC72:
	.string	"void stdprint(const char*, ...)"
	.zero	32
	.align 32
.LC73:
	.string	"stdprint"
	.zero	55
	.text
	.type	_ZL8stdprintPKcz, @function
_ZL8stdprintPKcz:
.LASANPC2276:
.LFB2276:
	.loc 1 386 5
	.cfi_startproc
	endbr64
	pushq	%rbp
	.cfi_def_cfa_offset 16
	.cfi_offset 6, -16
	movq	%rsp, %rbp
	.cfi_def_cfa_register 6
	pushq	%r14
	pushq	%r13
	pushq	%r12
	pushq	%rbx
	subq	$288, %rsp
	.cfi_offset 14, -24
	.cfi_offset 13, -32
	.cfi_offset 12, -40
	.cfi_offset 3, -48
	movq	%rdi, -312(%rbp)
	movq	%rsi, -200(%rbp)
	movq	%rdx, -192(%rbp)
	movq	%rcx, -184(%rbp)
	movq	%r8, -176(%rbp)
	movq	%r9, -168(%rbp)
	testb	%al, %al
	je	.L100
	movaps	%xmm0, -160(%rbp)
	movaps	%xmm1, -144(%rbp)
	movaps	%xmm2, -128(%rbp)
	movaps	%xmm3, -112(%rbp)
	movaps	%xmm4, -96(%rbp)
	movaps	%xmm5, -80(%rbp)
	movaps	%xmm6, -64(%rbp)
	movaps	%xmm7, -48(%rbp)
.L100:
	leaq	-304(%rbp), %rbx
	movq	%rbx, %r14
	cmpl	$0, __asan_option_detect_stack_use_after_return(%rip)
	je	.L96
	movl	$96, %edi
	call	__asan_stack_malloc_1@PLT
	testq	%rax, %rax
	je	.L96
	movq	%rax, %rbx
.L96:
	leaq	96(%rbx), %rax
	movq	$1102416563, (%rbx)
	leaq	.LC70(%rip), %rdx
	movq	%rdx, 8(%rbx)
	leaq	.LASANPC2276(%rip), %rdx
	movq	%rdx, 16(%rbx)
	movq	%rbx, %r12
	shrq	$3, %r12
	movl	$-235802127, 2147450880(%r12)
	movl	$-218103808, 2147450884(%r12)
	movl	$-202116109, 2147450888(%r12)
	.loc 1 387 10
	cmpq	$0, -312(%rbp)
	jne	.L101
	.loc 1 387 46 discriminator 1
	call	_ZN6Logger11getInstanceEv@PLT
	movq	%rax, %rcx
	.loc 1 387 52 discriminator 1
	leaq	.LC71(%rip), %rax
	movq	%rax, %rdx
	leaq	.LC19(%rip), %rax
	movq	%rax, %rsi
	movq	%rcx, %rdi
	movl	$0, %eax
	call	_ZN6Logger3logEPKcz@PLT
	.loc 1 387 111 discriminator 1
	leaq	.LC71(%rip), %rax
	movq	%rax, %rsi
	leaq	.LC20(%rip), %rax
	movq	%rax, %rdi
	movl	$0, %eax
	call	printf@PLT
	.loc 1 387 258 discriminator 1
	call	_ZN6Logger11getInstanceEv@PLT
	movq	%rax, %rdi
	.loc 1 387 264 discriminator 1
	leaq	.LC72(%rip), %r8
	movl	$387, %ecx
	leaq	.LC22(%rip), %rax
	movq	%rax, %rdx
	leaq	.LC23(%rip), %rax
	movq	%rax, %rsi
	movl	$0, %eax
	call	_ZN6Logger3logEPKcz@PLT
	.loc 1 387 366 discriminator 1
	leaq	.LC72(%rip), %rax
	movq	%rax, %rcx
	movl	$387, %edx
	leaq	.LC22(%rip), %rax
	movq	%rax, %rsi
	leaq	.LC23(%rip), %rax
	movq	%rax, %rdi
	movl	$0, %eax
	call	printf@PLT
	.loc 1 387 481 discriminator 1
	call	_ZN6Logger11getInstanceEv@PLT
	movq	%rax, %r13
	.loc 1 387 487 discriminator 1
	movl	$14, %edi
	call	strerror@PLT
	movq	%rax, %rcx
	movl	$14, %edx
	leaq	.LC24(%rip), %rax
	movq	%rax, %rsi
	movq	%r13, %rdi
	movl	$0, %eax
	call	_ZN6Logger3logEPKcz@PLT
	.loc 1 387 27 discriminator 1
	call	_ZN6Logger11getInstanceEv@PLT
	movq	%rax, %rdi
	.loc 1 387 33 discriminator 1
	movl	$387, %ecx
	leaq	.LC73(%rip), %rax
	movq	%rax, %rdx
	leaq	.LC26(%rip), %rax
	movq	%rax, %rsi
	movl	$0, %eax
	call	_ZN6Logger3logEPKcz@PLT
	.loc 1 387 92 discriminator 1
	leaq	.LC27(%rip), %rax
	movq	%rax, %rdi
	call	system@PLT
	.loc 1 387 108 discriminator 1
	jmp	.L99
.L101:
	.loc 1 389 13
	leaq	-64(%rax), %rdx
	movq	%rdx, %rcx
	shrq	$3, %rcx
	addq	$2147450880, %rcx
	movzbl	(%rcx), %ecx
	testb	%cl, %cl
	setne	%sil
	testb	%cl, %cl
	setle	%cl
	andl	%ecx, %esi
	movl	%esi, %edi
	movl	$24, %ecx
	subq	$1, %rcx
	leaq	(%rdx,%rcx), %rsi
	movq	%rsi, %rcx
	shrq	$3, %rcx
	addq	$2147450880, %rcx
	movzbl	(%rcx), %ecx
	testb	%cl, %cl
	setne	%r8b
	andl	$7, %esi
	cmpb	%cl, %sil
	setge	%cl
	andl	%r8d, %ecx
	orl	%edi, %ecx
	testb	%cl, %cl
	je	.L103
	movl	$24, %esi
	movq	%rdx, %rdi
	call	__asan_report_store_n@PLT
.L103:
	movq	$0, -64(%rax)
	movq	$0, -56(%rax)
	movq	$0, -48(%rax)
	.loc 1 390 22
	movl	$8, -64(%rax)
	movl	$48, -60(%rax)
	leaq	16(%rbp), %rdi
	movq	%rdi, -56(%rax)
	leaq	-208(%rbp), %rdx
	movq	%rdx, -48(%rax)
	.loc 1 392 13
	movq	_ZL8STD_FILE(%rip), %rcx
	leaq	-64(%rax), %rdx
	movq	-312(%rbp), %rax
	movq	%rax, %rsi
	movq	%rcx, %rdi
	call	vfprintf@PLT
	.loc 1 396 5
	nop
.L99:
	.loc 1 386 5
	cmpq	%rbx, %r14
	je	.L97
	movq	$1172321806, (%rbx)
	movabsq	$-723401728380766731, %rax
	movq	%rax, 2147450880(%r12)
	movl	$-168430091, 2147450888(%r12)
	movq	120(%rbx), %rax
	movb	$0, (%rax)
	jmp	.L98
.L97:
	movq	$0, 2147450880(%r12)
	movl	$0, 2147450888(%r12)
.L98:
	.loc 1 397 5
	addq	$288, %rsp
	popq	%rbx
	popq	%r12
	popq	%r13
	popq	%r14
	popq	%rbp
	.cfi_def_cfa 7, 8
	ret
	.cfi_endproc
.LFE2276:
	.size	_ZL8stdprintPKcz, .-_ZL8stdprintPKcz
	.type	_Z41__static_initialization_and_destruction_0ii, @function
_Z41__static_initialization_and_destruction_0ii:
.LASANPC2943:
.LFB2943:
	.loc 1 397 5
	.cfi_startproc
	endbr64
	pushq	%rbp
	.cfi_def_cfa_offset 16
	.cfi_offset 6, -16
	movq	%rsp, %rbp
	.cfi_def_cfa_register 6
	subq	$16, %rsp
	movl	%edi, -4(%rbp)
	movl	%esi, -8(%rbp)
	.loc 1 397 5
	cmpl	$1, -4(%rbp)
	jne	.L108
	.loc 1 397 5 is_stmt 0 discriminator 1
	leaq	.LC22(%rip), %rax
	movq	%rax, %rdi
	call	__asan_before_dynamic_init@PLT
	cmpl	$65535, -8(%rbp)
	jne	.L107
	.file 2 "/usr/include/c++/11/iostream"
	.loc 2 74 25 is_stmt 1
	leaq	_ZStL8__ioinit(%rip), %rax
	movq	%rax, %rdi
	call	_ZNSt8ios_base4InitC1Ev@PLT
	leaq	__dso_handle(%rip), %rax
	movq	%rax, %rdx
	leaq	_ZStL8__ioinit(%rip), %rax
	movq	%rax, %rsi
	movq	_ZNSt8ios_base4InitD1Ev@GOTPCREL(%rip), %rax
	movq	%rax, %rdi
	call	__cxa_atexit@PLT
.L107:
	.loc 2 74 25 is_stmt 0 discriminator 1
	call	__asan_after_dynamic_init@PLT
.L108:
	.loc 1 397 5 is_stmt 1
	nop
	leave
	.cfi_def_cfa 7, 8
	ret
	.cfi_endproc
.LFE2943:
	.size	_Z41__static_initialization_and_destruction_0ii, .-_Z41__static_initialization_and_destruction_0ii
	.type	_GLOBAL__sub_I_STD_FUNCTION_RET_TYPE, @function
_GLOBAL__sub_I_STD_FUNCTION_RET_TYPE:
.LASANPC2944:
.LFB2944:
	.loc 1 397 5
	.cfi_startproc
	endbr64
	pushq	%rbp
	.cfi_def_cfa_offset 16
	.cfi_offset 6, -16
	movq	%rsp, %rbp
	.cfi_def_cfa_register 6
	.loc 1 397 5
	movl	$65535, %esi
	movl	$1, %edi
	call	_Z41__static_initialization_and_destruction_0ii
	popq	%rbp
	.cfi_def_cfa 7, 8
	ret
	.cfi_endproc
.LFE2944:
	.size	_GLOBAL__sub_I_STD_FUNCTION_RET_TYPE, .-_GLOBAL__sub_I_STD_FUNCTION_RET_TYPE
	.section	.init_array,"aw"
	.align 8
	.quad	_GLOBAL__sub_I_STD_FUNCTION_RET_TYPE
	.globl	__odr_asan.NATIVE_FUNCTIONS_STD
	.bss
	.type	__odr_asan.NATIVE_FUNCTIONS_STD, @object
	.size	__odr_asan.NATIVE_FUNCTIONS_STD, 1
__odr_asan.NATIVE_FUNCTIONS_STD:
	.zero	1
	.section	.data.rel.local
	.align 16
	.type	.LASANLOC1, @object
	.size	.LASANLOC1, 16
.LASANLOC1:
	.quad	.LC22
	.long	17
	.long	13
	.globl	__odr_asan.STD_FUNCTION_RET_TYPE
	.bss
	.type	__odr_asan.STD_FUNCTION_RET_TYPE, @object
	.size	__odr_asan.STD_FUNCTION_RET_TYPE, 1
__odr_asan.STD_FUNCTION_RET_TYPE:
	.zero	1
	.section	.data.rel.local
	.align 16
	.type	.LASANLOC2, @object
	.size	.LASANLOC2, 16
.LASANLOC2:
	.quad	.LC22
	.long	16
	.long	13
	.align 16
	.type	.LASANLOC3, @object
	.size	.LASANLOC3, 16
.LASANLOC3:
	.quad	.LC22
	.long	14
	.long	21
	.align 16
	.type	.LASANLOC4, @object
	.size	.LASANLOC4, 16
.LASANLOC4:
	.quad	.LC22
	.long	13
	.long	14
	.section	.rodata
	.align 8
.LC74:
	.string	"../ATC/RandomStuff/CommonEnums.h"
	.section	.data.rel.local
	.align 16
	.type	.LASANLOC5, @object
	.size	.LASANLOC5, 16
.LASANLOC5:
	.quad	.LC74
	.long	3
	.long	11
	.section	.rodata
.LC75:
	.string	"../ATC/Logger/LogConfig.h"
	.section	.data.rel.local
	.align 16
	.type	.LASANLOC6, @object
	.size	.LASANLOC6, 16
.LASANLOC6:
	.quad	.LC75
	.long	3
	.long	12
	.section	.rodata
.LC76:
	.string	"/usr/include/c++/11/iostream"
	.section	.data.rel.local
	.align 16
	.type	.LASANLOC7, @object
	.size	.LASANLOC7, 16
.LASANLOC7:
	.quad	.LC76
	.long	74
	.long	25
	.section	.rodata
.LC77:
	.string	"../Common/Grammar.h"
	.section	.data.rel.local
	.align 16
	.type	.LASANLOC8, @object
	.size	.LASANLOC8, 16
.LASANLOC8:
	.quad	.LC77
	.long	63
	.long	11
	.align 16
	.type	.LASANLOC9, @object
	.size	.LASANLOC9, 16
.LASANLOC9:
	.quad	.LC77
	.long	62
	.long	11
	.align 16
	.type	.LASANLOC10, @object
	.size	.LASANLOC10, 16
.LASANLOC10:
	.quad	.LC77
	.long	60
	.long	12
	.align 16
	.type	.LASANLOC11, @object
	.size	.LASANLOC11, 16
.LASANLOC11:
	.quad	.LC77
	.long	49
	.long	12
	.align 16
	.type	.LASANLOC12, @object
	.size	.LASANLOC12, 16
.LASANLOC12:
	.quad	.LC77
	.long	42
	.long	19
	.align 16
	.type	.LASANLOC13, @object
	.size	.LASANLOC13, 16
.LASANLOC13:
	.quad	.LC77
	.long	41
	.long	11
	.align 16
	.type	.LASANLOC14, @object
	.size	.LASANLOC14, 16
.LASANLOC14:
	.quad	.LC77
	.long	34
	.long	19
	.align 16
	.type	.LASANLOC15, @object
	.size	.LASANLOC15, 16
.LASANLOC15:
	.quad	.LC77
	.long	33
	.long	11
	.align 16
	.type	.LASANLOC16, @object
	.size	.LASANLOC16, 16
.LASANLOC16:
	.quad	.LC77
	.long	24
	.long	19
	.align 16
	.type	.LASANLOC17, @object
	.size	.LASANLOC17, 16
.LASANLOC17:
	.quad	.LC77
	.long	23
	.long	11
	.align 16
	.type	.LASANLOC18, @object
	.size	.LASANLOC18, 16
.LASANLOC18:
	.quad	.LC77
	.long	14
	.long	19
	.align 16
	.type	.LASANLOC19, @object
	.size	.LASANLOC19, 16
.LASANLOC19:
	.quad	.LC77
	.long	13
	.long	11
	.section	.rodata
	.align 8
.LC78:
	.string	"../Common/Structures/Tabels/Tabels.h"
	.section	.data.rel.local
	.align 16
	.type	.LASANLOC20, @object
	.size	.LASANLOC20, 16
.LASANLOC20:
	.quad	.LC78
	.long	7
	.long	11
	.section	.rodata
.LC79:
	.string	"NATIVE_FUNCTIONS_STD"
.LC80:
	.string	"STD_FUNCTION_RET_TYPE"
.LC81:
	.string	"STRING_ARR"
.LC82:
	.string	"STD_FILE"
.LC83:
	.string	"CRINGE"
.LC84:
	.string	"STD_LOG_NAME"
.LC85:
	.string	"__ioinit"
.LC86:
	.string	"MAX_WORD_LENGTH"
.LC87:
	.string	"MAX_FUNCTION_NAME_LENGTH"
.LC88:
	.string	"COMMENT"
.LC89:
	.string	"OPERATORS"
.LC90:
	.string	"FUNCTION_RET_TYPES"
.LC91:
	.string	"NUMBER_OF_FUNCTION_RET_TYPES"
.LC92:
	.string	"INITIALIZATORS"
.LC93:
	.string	"NUMBER_OF_INITIALIZATORS"
.LC94:
	.string	"NATIVE_FUNCTIONS"
.LC95:
	.string	"NUMBER_OF_NATIVE_FUNCTIONS"
.LC96:
	.string	"INSTRUCTIONS"
.LC97:
	.string	"NUMBER_OF_INSTUCTIONS"
.LC98:
	.string	"NOT_DECLARED"
.LC99:
	.string	"*.LC60"
.LC100:
	.string	"*.LC24"
.LC101:
	.string	"*.LC17"
.LC102:
	.string	"*.LC21"
.LC103:
	.string	"*.LC49"
.LC104:
	.string	"*.LC42"
.LC105:
	.string	"*.LC15"
.LC106:
	.string	"*.LC45"
.LC107:
	.string	"*.LC34"
.LC108:
	.string	"*.LC51"
.LC109:
	.string	"*.LC63"
.LC110:
	.string	"*.LC25"
.LC111:
	.string	"*.LC36"
.LC112:
	.string	"*.LC40"
.LC113:
	.string	"*.LC19"
.LC114:
	.string	"*.LC53"
.LC115:
	.string	"*.LC6"
.LC116:
	.string	"*.LC62"
.LC117:
	.string	"*.LC5"
.LC118:
	.string	"*.LC8"
.LC119:
	.string	"*.LC38"
.LC120:
	.string	"*.LC39"
.LC121:
	.string	"*.LC2"
.LC122:
	.string	"*.LC46"
.LC123:
	.string	"*.LC69"
.LC124:
	.string	"*.LC20"
.LC125:
	.string	"*.LC41"
.LC126:
	.string	"*.LC27"
.LC127:
	.string	"*.LC73"
.LC128:
	.string	"*.LC26"
.LC129:
	.string	"*.LC13"
.LC130:
	.string	"*.LC59"
.LC131:
	.string	"*.LC4"
.LC132:
	.string	"*.LC47"
.LC133:
	.string	"*.LC64"
.LC134:
	.string	"*.LC37"
.LC135:
	.string	"*.LC0"
.LC136:
	.string	"*.LC28"
.LC137:
	.string	"*.LC9"
.LC138:
	.string	"*.LC35"
.LC139:
	.string	"*.LC52"
.LC140:
	.string	"*.LC32"
.LC141:
	.string	"*.LC56"
.LC142:
	.string	"*.LC66"
.LC143:
	.string	"*.LC1"
.LC144:
	.string	"*.LC71"
.LC145:
	.string	"*.LC61"
.LC146:
	.string	"*.LC43"
.LC147:
	.string	"*.LC50"
.LC148:
	.string	"*.LC55"
.LC149:
	.string	"*.LC48"
.LC150:
	.string	"*.LC30"
.LC151:
	.string	"*.LC3"
.LC152:
	.string	"*.LC22"
.LC153:
	.string	"*.LC65"
.LC154:
	.string	"*.LC68"
.LC155:
	.string	"*.LC14"
.LC156:
	.string	"*.LC67"
.LC157:
	.string	"*.LC33"
.LC158:
	.string	"*.LC57"
.LC159:
	.string	"*.LC31"
.LC160:
	.string	"*.LC10"
.LC161:
	.string	"*.LC29"
.LC162:
	.string	"*.LC7"
.LC163:
	.string	"*.LC44"
.LC164:
	.string	"*.LC18"
.LC165:
	.string	"*.LC58"
.LC166:
	.string	"*.LC12"
.LC167:
	.string	"*.LC11"
.LC168:
	.string	"*.LC23"
.LC169:
	.string	"*.LC72"
.LC170:
	.string	"*.LC16"
.LC171:
	.string	"*.LC54"
	.section	.data.rel.local
	.align 32
	.type	.LASAN0, @object
	.size	.LASAN0, 5952
.LASAN0:
	.quad	NATIVE_FUNCTIONS_STD
	.quad	32
	.quad	64
	.quad	.LC79
	.quad	.LC22
	.quad	0
	.quad	.LASANLOC1
	.quad	__odr_asan.NATIVE_FUNCTIONS_STD
	.quad	STD_FUNCTION_RET_TYPE
	.quad	16
	.quad	64
	.quad	.LC80
	.quad	.LC22
	.quad	0
	.quad	.LASANLOC2
	.quad	__odr_asan.STD_FUNCTION_RET_TYPE
	.quad	_ZL10STRING_ARR
	.quad	8
	.quad	64
	.quad	.LC81
	.quad	.LC22
	.quad	0
	.quad	.LASANLOC3
	.quad	0
	.quad	_ZL8STD_FILE
	.quad	8
	.quad	64
	.quad	.LC82
	.quad	.LC22
	.quad	0
	.quad	.LASANLOC4
	.quad	0
	.quad	_ZL6CRINGE
	.quad	4
	.quad	64
	.quad	.LC83
	.quad	.LC22
	.quad	0
	.quad	.LASANLOC5
	.quad	0
	.quad	_ZL12STD_LOG_NAME
	.quad	18
	.quad	64
	.quad	.LC84
	.quad	.LC22
	.quad	0
	.quad	.LASANLOC6
	.quad	0
	.quad	_ZStL8__ioinit
	.quad	1
	.quad	64
	.quad	.LC85
	.quad	.LC22
	.quad	1
	.quad	.LASANLOC7
	.quad	0
	.quad	_ZL15MAX_WORD_LENGTH
	.quad	4
	.quad	64
	.quad	.LC86
	.quad	.LC22
	.quad	0
	.quad	.LASANLOC8
	.quad	0
	.quad	_ZL24MAX_FUNCTION_NAME_LENGTH
	.quad	4
	.quad	64
	.quad	.LC87
	.quad	.LC22
	.quad	0
	.quad	.LASANLOC9
	.quad	0
	.quad	_ZL7COMMENT
	.quad	1
	.quad	64
	.quad	.LC88
	.quad	.LC22
	.quad	0
	.quad	.LASANLOC10
	.quad	0
	.quad	_ZL9OPERATORS
	.quad	8
	.quad	64
	.quad	.LC89
	.quad	.LC22
	.quad	0
	.quad	.LASANLOC11
	.quad	0
	.quad	_ZL18FUNCTION_RET_TYPES
	.quad	16
	.quad	64
	.quad	.LC90
	.quad	.LC22
	.quad	0
	.quad	.LASANLOC12
	.quad	0
	.quad	_ZL28NUMBER_OF_FUNCTION_RET_TYPES
	.quad	4
	.quad	64
	.quad	.LC91
	.quad	.LC22
	.quad	0
	.quad	.LASANLOC13
	.quad	0
	.quad	_ZL14INITIALIZATORS
	.quad	16
	.quad	64
	.quad	.LC92
	.quad	.LC22
	.quad	0
	.quad	.LASANLOC14
	.quad	0
	.quad	_ZL24NUMBER_OF_INITIALIZATORS
	.quad	4
	.quad	64
	.quad	.LC93
	.quad	.LC22
	.quad	0
	.quad	.LASANLOC15
	.quad	0
	.quad	_ZL16NATIVE_FUNCTIONS
	.quad	32
	.quad	64
	.quad	.LC94
	.quad	.LC22
	.quad	0
	.quad	.LASANLOC16
	.quad	0
	.quad	_ZL26NUMBER_OF_NATIVE_FUNCTIONS
	.quad	4
	.quad	64
	.quad	.LC95
	.quad	.LC22
	.quad	0
	.quad	.LASANLOC17
	.quad	0
	.quad	_ZL12INSTRUCTIONS
	.quad	32
	.quad	64
	.quad	.LC96
	.quad	.LC22
	.quad	0
	.quad	.LASANLOC18
	.quad	0
	.quad	_ZL21NUMBER_OF_INSTUCTIONS
	.quad	4
	.quad	64
	.quad	.LC97
	.quad	.LC22
	.quad	0
	.quad	.LASANLOC19
	.quad	0
	.quad	_ZL12NOT_DECLARED
	.quad	4
	.quad	64
	.quad	.LC98
	.quad	.LC22
	.quad	0
	.quad	.LASANLOC20
	.quad	0
	.quad	.LC60
	.quad	9
	.quad	64
	.quad	.LC99
	.quad	.LC22
	.quad	0
	.quad	0
	.quad	0
	.quad	.LC24
	.quad	36
	.quad	96
	.quad	.LC100
	.quad	.LC22
	.quad	0
	.quad	0
	.quad	0
	.quad	.LC17
	.quad	4
	.quad	64
	.quad	.LC101
	.quad	.LC22
	.quad	0
	.quad	0
	.quad	0
	.quad	.LC21
	.quad	52
	.quad	96
	.quad	.LC102
	.quad	.LC22
	.quad	0
	.quad	0
	.quad	0
	.quad	.LC49
	.quad	11
	.quad	64
	.quad	.LC103
	.quad	.LC22
	.quad	0
	.quad	0
	.quad	0
	.quad	.LC42
	.quad	8
	.quad	64
	.quad	.LC104
	.quad	.LC22
	.quad	0
	.quad	0
	.quad	0
	.quad	.LC15
	.quad	3
	.quad	64
	.quad	.LC105
	.quad	.LC22
	.quad	0
	.quad	0
	.quad	0
	.quad	.LC45
	.quad	7
	.quad	64
	.quad	.LC106
	.quad	.LC22
	.quad	0
	.quad	0
	.quad	0
	.quad	.LC34
	.quad	6
	.quad	64
	.quad	.LC107
	.quad	.LC22
	.quad	0
	.quad	0
	.quad	0
	.quad	.LC51
	.quad	15
	.quad	64
	.quad	.LC108
	.quad	.LC22
	.quad	0
	.quad	0
	.quad	0
	.quad	.LC63
	.quad	27
	.quad	64
	.quad	.LC109
	.quad	.LC22
	.quad	0
	.quad	0
	.quad	0
	.quad	.LC25
	.quad	19
	.quad	64
	.quad	.LC110
	.quad	.LC22
	.quad	0
	.quad	0
	.quad	0
	.quad	.LC36
	.quad	9
	.quad	64
	.quad	.LC111
	.quad	.LC22
	.quad	0
	.quad	0
	.quad	0
	.quad	.LC40
	.quad	8
	.quad	64
	.quad	.LC112
	.quad	.LC22
	.quad	0
	.quad	0
	.quad	0
	.quad	.LC19
	.quad	37
	.quad	96
	.quad	.LC113
	.quad	.LC22
	.quad	0
	.quad	0
	.quad	0
	.quad	.LC53
	.quad	6
	.quad	64
	.quad	.LC114
	.quad	.LC22
	.quad	0
	.quad	0
	.quad	0
	.quad	.LC6
	.quad	4
	.quad	64
	.quad	.LC115
	.quad	.LC22
	.quad	0
	.quad	0
	.quad	0
	.quad	.LC62
	.quad	12
	.quad	64
	.quad	.LC116
	.quad	.LC22
	.quad	0
	.quad	0
	.quad	0
	.quad	.LC5
	.quad	4
	.quad	64
	.quad	.LC117
	.quad	.LC22
	.quad	0
	.quad	0
	.quad	0
	.quad	.LC8
	.quad	5
	.quad	64
	.quad	.LC118
	.quad	.LC22
	.quad	0
	.quad	0
	.quad	0
	.quad	.LC38
	.quad	6
	.quad	64
	.quad	.LC119
	.quad	.LC22
	.quad	0
	.quad	0
	.quad	0
	.quad	.LC39
	.quad	3
	.quad	64
	.quad	.LC120
	.quad	.LC22
	.quad	0
	.quad	0
	.quad	0
	.quad	.LC2
	.quad	6
	.quad	64
	.quad	.LC121
	.quad	.LC22
	.quad	0
	.quad	0
	.quad	0
	.quad	.LC46
	.quad	6
	.quad	64
	.quad	.LC122
	.quad	.LC22
	.quad	0
	.quad	0
	.quad	0
	.quad	.LC69
	.quad	28
	.quad	64
	.quad	.LC123
	.quad	.LC22
	.quad	0
	.quad	0
	.quad	0
	.quad	.LC20
	.quad	64
	.quad	96
	.quad	.LC124
	.quad	.LC22
	.quad	0
	.quad	0
	.quad	0
	.quad	.LC41
	.quad	8
	.quad	64
	.quad	.LC125
	.quad	.LC22
	.quad	0
	.quad	0
	.quad	0
	.quad	.LC27
	.quad	10
	.quad	64
	.quad	.LC126
	.quad	.LC22
	.quad	0
	.quad	0
	.quad	0
	.quad	.LC73
	.quad	9
	.quad	64
	.quad	.LC127
	.quad	.LC22
	.quad	0
	.quad	0
	.quad	0
	.quad	.LC26
	.quad	33
	.quad	96
	.quad	.LC128
	.quad	.LC22
	.quad	0
	.quad	0
	.quad	0
	.quad	.LC13
	.quad	5
	.quad	64
	.quad	.LC129
	.quad	.LC22
	.quad	0
	.quad	0
	.quad	0
	.quad	.LC59
	.quad	6
	.quad	64
	.quad	.LC130
	.quad	.LC22
	.quad	0
	.quad	0
	.quad	0
	.quad	.LC4
	.quad	5
	.quad	64
	.quad	.LC131
	.quad	.LC22
	.quad	0
	.quad	0
	.quad	0
	.quad	.LC47
	.quad	9
	.quad	64
	.quad	.LC132
	.quad	.LC22
	.quad	0
	.quad	0
	.quad	0
	.quad	.LC64
	.quad	4
	.quad	64
	.quad	.LC133
	.quad	.LC22
	.quad	0
	.quad	0
	.quad	0
	.quad	.LC37
	.quad	10
	.quad	64
	.quad	.LC134
	.quad	.LC22
	.quad	0
	.quad	0
	.quad	0
	.quad	.LC0
	.quad	3
	.quad	64
	.quad	.LC135
	.quad	.LC22
	.quad	0
	.quad	0
	.quad	0
	.quad	.LC28
	.quad	31
	.quad	64
	.quad	.LC136
	.quad	.LC22
	.quad	0
	.quad	0
	.quad	0
	.quad	.LC9
	.quad	4
	.quad	64
	.quad	.LC137
	.quad	.LC22
	.quad	0
	.quad	0
	.quad	0
	.quad	.LC35
	.quad	9
	.quad	64
	.quad	.LC138
	.quad	.LC22
	.quad	0
	.quad	0
	.quad	0
	.quad	.LC52
	.quad	30
	.quad	64
	.quad	.LC139
	.quad	.LC22
	.quad	0
	.quad	0
	.quad	0
	.quad	.LC32
	.quad	6
	.quad	64
	.quad	.LC140
	.quad	.LC22
	.quad	0
	.quad	0
	.quad	0
	.quad	.LC56
	.quad	36
	.quad	96
	.quad	.LC141
	.quad	.LC22
	.quad	0
	.quad	0
	.quad	0
	.quad	.LC66
	.quad	4
	.quad	64
	.quad	.LC142
	.quad	.LC22
	.quad	0
	.quad	0
	.quad	0
	.quad	.LC1
	.quad	5
	.quad	64
	.quad	.LC143
	.quad	.LC22
	.quad	0
	.quad	0
	.quad	0
	.quad	.LC71
	.quad	7
	.quad	64
	.quad	.LC144
	.quad	.LC22
	.quad	0
	.quad	0
	.quad	0
	.quad	.LC61
	.quad	30
	.quad	64
	.quad	.LC145
	.quad	.LC22
	.quad	0
	.quad	0
	.quad	0
	.quad	.LC43
	.quad	8
	.quad	64
	.quad	.LC146
	.quad	.LC22
	.quad	0
	.quad	0
	.quad	0
	.quad	.LC50
	.quad	33
	.quad	96
	.quad	.LC147
	.quad	.LC22
	.quad	0
	.quad	0
	.quad	0
	.quad	.LC55
	.quad	7
	.quad	64
	.quad	.LC148
	.quad	.LC22
	.quad	0
	.quad	0
	.quad	0
	.quad	.LC48
	.quad	49
	.quad	96
	.quad	.LC149
	.quad	.LC22
	.quad	0
	.quad	0
	.quad	0
	.quad	.LC30
	.quad	10
	.quad	64
	.quad	.LC150
	.quad	.LC22
	.quad	0
	.quad	0
	.quad	0
	.quad	.LC3
	.quad	7
	.quad	64
	.quad	.LC151
	.quad	.LC22
	.quad	0
	.quad	0
	.quad	0
	.quad	.LC22
	.quad	38
	.quad	96
	.quad	.LC152
	.quad	.LC22
	.quad	0
	.quad	0
	.quad	0
	.quad	.LC65
	.quad	4
	.quad	64
	.quad	.LC153
	.quad	.LC22
	.quad	0
	.quad	0
	.quad	0
	.quad	.LC68
	.quad	4
	.quad	64
	.quad	.LC154
	.quad	.LC22
	.quad	0
	.quad	0
	.quad	0
	.quad	.LC14
	.quad	4
	.quad	64
	.quad	.LC155
	.quad	.LC22
	.quad	0
	.quad	0
	.quad	0
	.quad	.LC67
	.quad	4
	.quad	64
	.quad	.LC156
	.quad	.LC22
	.quad	0
	.quad	0
	.quad	0
	.quad	.LC33
	.quad	23
	.quad	64
	.quad	.LC157
	.quad	.LC22
	.quad	0
	.quad	0
	.quad	0
	.quad	.LC57
	.quad	18
	.quad	64
	.quad	.LC158
	.quad	.LC22
	.quad	0
	.quad	0
	.quad	0
	.quad	.LC31
	.quad	2
	.quad	64
	.quad	.LC159
	.quad	.LC22
	.quad	0
	.quad	0
	.quad	0
	.quad	.LC10
	.quad	7
	.quad	64
	.quad	.LC160
	.quad	.LC22
	.quad	0
	.quad	0
	.quad	0
	.quad	.LC29
	.quad	22
	.quad	64
	.quad	.LC161
	.quad	.LC22
	.quad	0
	.quad	0
	.quad	0
	.quad	.LC7
	.quad	4
	.quad	64
	.quad	.LC162
	.quad	.LC22
	.quad	0
	.quad	0
	.quad	0
	.quad	.LC44
	.quad	10
	.quad	64
	.quad	.LC163
	.quad	.LC22
	.quad	0
	.quad	0
	.quad	0
	.quad	.LC18
	.quad	8
	.quad	64
	.quad	.LC164
	.quad	.LC22
	.quad	0
	.quad	0
	.quad	0
	.quad	.LC58
	.quad	34
	.quad	96
	.quad	.LC165
	.quad	.LC22
	.quad	0
	.quad	0
	.quad	0
	.quad	.LC12
	.quad	5
	.quad	64
	.quad	.LC166
	.quad	.LC22
	.quad	0
	.quad	0
	.quad	0
	.quad	.LC11
	.quad	5
	.quad	64
	.quad	.LC167
	.quad	.LC22
	.quad	0
	.quad	0
	.quad	0
	.quad	.LC23
	.quad	22
	.quad	64
	.quad	.LC168
	.quad	.LC22
	.quad	0
	.quad	0
	.quad	0
	.quad	.LC72
	.quad	32
	.quad	64
	.quad	.LC169
	.quad	.LC22
	.quad	0
	.quad	0
	.quad	0
	.quad	.LC16
	.quad	4
	.quad	64
	.quad	.LC170
	.quad	.LC22
	.quad	0
	.quad	0
	.quad	0
	.quad	.LC54
	.quad	8
	.quad	64
	.quad	.LC171
	.quad	.LC22
	.quad	0
	.quad	0
	.quad	0
	.text
	.type	_sub_D_00099_0, @function
_sub_D_00099_0:
.LFB2945:
	.cfi_startproc
	endbr64
	pushq	%rbp
	.cfi_def_cfa_offset 16
	.cfi_offset 6, -16
	movq	%rsp, %rbp
	.cfi_def_cfa_register 6
	movl	$93, %esi
	leaq	.LASAN0(%rip), %rax
	movq	%rax, %rdi
	call	__asan_unregister_globals@PLT
	popq	%rbp
	.cfi_def_cfa 7, 8
	ret
	.cfi_endproc
.LFE2945:
	.size	_sub_D_00099_0, .-_sub_D_00099_0
	.section	.fini_array.00099,"aw"
	.align 8
	.quad	_sub_D_00099_0
	.text
	.type	_sub_I_00099_1, @function
_sub_I_00099_1:
.LFB2946:
	.cfi_startproc
	endbr64
	pushq	%rbp
	.cfi_def_cfa_offset 16
	.cfi_offset 6, -16
	movq	%rsp, %rbp
	.cfi_def_cfa_register 6
	call	__asan_init@PLT
	call	__asan_version_mismatch_check_v8@PLT
	movl	$93, %esi
	leaq	.LASAN0(%rip), %rax
	movq	%rax, %rdi
	call	__asan_register_globals@PLT
	popq	%rbp
	.cfi_def_cfa 7, 8
	ret
	.cfi_endproc
.LFE2946:
	.size	_sub_I_00099_1, .-_sub_I_00099_1
	.section	.init_array.00099,"aw"
	.align 8
	.quad	_sub_I_00099_1
	.text
.Letext0:
	.file 3 "../Common/Structures/Token/Token.h"
	.file 4 "../Common/Structures/Program/Program.h"
	.file 5 "/usr/lib/gcc/x86_64-linux-gnu/11/include/stddef.h"
	.file 6 "/usr/lib/gcc/x86_64-linux-gnu/11/include/stdarg.h"
	.file 7 "<built-in>"
	.file 8 "/usr/include/x86_64-linux-gnu/bits/types.h"
	.file 9 "/usr/include/x86_64-linux-gnu/bits/types/__mbstate_t.h"
	.file 10 "/usr/include/x86_64-linux-gnu/bits/types/__fpos_t.h"
	.file 11 "/usr/include/x86_64-linux-gnu/bits/types/__FILE.h"
	.file 12 "/usr/include/x86_64-linux-gnu/bits/types/struct_FILE.h"
	.file 13 "/usr/include/x86_64-linux-gnu/bits/types/FILE.h"
	.file 14 "/usr/include/stdio.h"
	.file 15 "../Common/Structures/Tabels/Tabels.h"
	.file 16 "../Common/Grammar.h"
	.file 17 "/usr/include/x86_64-linux-gnu/bits/types/wint_t.h"
	.file 18 "/usr/include/x86_64-linux-gnu/bits/types/mbstate_t.h"
	.file 19 "/usr/include/c++/11/cwchar"
	.file 20 "/usr/include/c++/11/type_traits"
	.file 21 "/usr/include/c++/11/bits/exception_ptr.h"
	.file 22 "/usr/include/x86_64-linux-gnu/c++/11/bits/c++config.h"
	.file 23 "/usr/include/c++/11/concepts"
	.file 24 "/usr/include/c++/11/bits/iterator_concepts.h"
	.file 25 "/usr/include/c++/11/bits/ranges_cmp.h"
	.file 26 "/usr/include/c++/11/compare"
	.file 27 "/usr/include/c++/11/debug/debug.h"
	.file 28 "/usr/include/c++/11/cstdint"
	.file 29 "/usr/include/c++/11/clocale"
	.file 30 "/usr/include/c++/11/cstdlib"
	.file 31 "/usr/include/c++/11/numbers"
	.file 32 "/usr/include/c++/11/cstdio"
	.file 33 "/usr/include/c++/11/bits/ios_base.h"
	.file 34 "/usr/include/c++/11/cwctype"
	.file 35 "/usr/include/wchar.h"
	.file 36 "/usr/include/x86_64-linux-gnu/bits/types/struct_tm.h"
	.file 37 "/usr/include/c++/11/bits/predefined_ops.h"
	.file 38 "/usr/include/c++/11/bits/ptr_traits.h"
	.file 39 "/usr/include/x86_64-linux-gnu/bits/stdint-intn.h"
	.file 40 "/usr/include/x86_64-linux-gnu/bits/stdint-uintn.h"
	.file 41 "/usr/include/stdint.h"
	.file 42 "/usr/include/locale.h"
	.file 43 "/usr/include/stdlib.h"
	.file 44 "/usr/include/x86_64-linux-gnu/bits/wctype-wchar.h"
	.file 45 "/usr/include/wctype.h"
	.file 46 "../ATC/Logger/LogConfig.h"
	.file 47 "../ATC/RandomStuff/CommonEnums.h"
	.file 48 "../Common/Utils/LangUtils.h"
	.file 49 "../ATC/Logger/Logger.h"
	.file 50 "../ATC/Utils/Utils.h"
	.file 51 "/usr/include/string.h"
	.file 52 "/usr/include/c++/11/bits/algorithmfwd.h"
	.section	.note.GNU-stack,"",@progbits
	.section	.note.gnu.property,"a"
	.align 8
	.long	1f - 0f
	.long	4f - 1f
	.long	5
0:
	.string	"GNU"
1:
	.align 8
	.long	0xc0000002
	.long	3f - 2f
2:
	.long	0x3
3:
	.align 8
4:
