	.file	"SyntaxAnalysis.cpp"
	.text
.Ltext0:
	.file 0 "/home/arsenyfucker/Cprojects/Lang/Translator/FrontEnd" "./src/SyntaxAnalysis.cpp"
	.section	.rodata
	.align 32
	.type	_ZL12NOT_DECLARED, @object
	.size	_ZL12NOT_DECLARED, 4
_ZL12NOT_DECLARED:
	.long	-111
	.zero	60
	.align 32
	.type	_ZL11NOT_A_LABEL, @object
	.size	_ZL11NOT_A_LABEL, 4
_ZL11NOT_A_LABEL:
	.long	-9
	.zero	60
	.align 32
.LC0:
	.string	"if"
	.zero	61
	.align 32
.LC1:
	.string	"else"
	.zero	59
	.align 32
.LC2:
	.string	"while"
	.zero	58
	.align 32
.LC3:
	.string	"return"
	.zero	57
	.section	.data.rel.ro.local,"aw"
	.align 32
	.type	_ZL12INSTRUCTIONS, @object
	.size	_ZL12INSTRUCTIONS, 32
_ZL12INSTRUCTIONS:
	.quad	.LC0
	.quad	.LC1
	.quad	.LC2
	.quad	.LC3
	.zero	32
	.section	.rodata
	.align 32
.LC4:
	.string	"fout"
	.zero	59
	.align 32
.LC5:
	.string	"fin"
	.zero	60
	.align 32
.LC6:
	.string	"sin"
	.zero	60
	.align 32
.LC7:
	.string	"cos"
	.zero	60
	.section	.data.rel.ro.local
	.align 32
	.type	_ZL16NATIVE_FUNCTIONS, @object
	.size	_ZL16NATIVE_FUNCTIONS, 32
_ZL16NATIVE_FUNCTIONS:
	.quad	.LC4
	.quad	.LC5
	.quad	.LC6
	.quad	.LC7
	.zero	32
	.section	.rodata
	.align 32
.LC8:
	.string	"extern"
	.zero	57
	.align 32
.LC9:
	.string	"var"
	.zero	60
	.section	.data.rel.ro.local
	.align 32
	.type	_ZL14INITIALIZATORS, @object
	.size	_ZL14INITIALIZATORS, 16
_ZL14INITIALIZATORS:
	.quad	.LC8
	.quad	.LC9
	.zero	48
	.section	.rodata
	.align 32
.LC10:
	.string	"double"
	.zero	57
	.align 32
.LC11:
	.string	"void"
	.zero	59
	.section	.data.rel.ro.local
	.align 32
	.type	_ZL18FUNCTION_RET_TYPES, @object
	.size	_ZL18FUNCTION_RET_TYPES, 16
_ZL18FUNCTION_RET_TYPES:
	.quad	.LC10
	.quad	.LC11
	.zero	48
	.section	.rodata
	.align 32
	.type	_ZL9OPERATORS, @object
	.size	_ZL9OPERATORS, 8
_ZL9OPERATORS:
	.string	"+-/*^<<"
	.zero	56
	.align 32
	.type	_ZL7COMMENT, @object
	.size	_ZL7COMMENT, 1
_ZL7COMMENT:
	.byte	35
	.zero	63
	.align 32
.LC12:
	.string	"main"
	.zero	59
	.section	.data.rel.ro.local
	.align 32
	.type	_ZL9MAIN_NAME, @object
	.size	_ZL9MAIN_NAME, 8
_ZL9MAIN_NAME:
	.quad	.LC12
	.zero	56
	.section	.rodata
	.align 32
	.type	_ZL24MAX_FUNCTION_NAME_LENGTH, @object
	.size	_ZL24MAX_FUNCTION_NAME_LENGTH, 4
_ZL24MAX_FUNCTION_NAME_LENGTH:
	.long	16
	.zero	60
	.align 32
	.type	_ZL15MAX_WORD_LENGTH, @object
	.size	_ZL15MAX_WORD_LENGTH, 4
_ZL15MAX_WORD_LENGTH:
	.long	16
	.zero	60
	.bss
	.align 32
	.type	_ZStL8__ioinit, @object
	.size	_ZStL8__ioinit, 1
_ZStL8__ioinit:
	.zero	64
	.section	.rodata
	.align 32
	.type	_ZL12STD_LOG_NAME, @object
	.size	_ZL12STD_LOG_NAME, 18
_ZL12STD_LOG_NAME:
	.string	"./logs/stdlog.ars"
	.zero	46
	.align 32
	.type	_ZL6CRINGE, @object
	.size	_ZL6CRINGE, 4
_ZL6CRINGE:
	.long	3565
	.zero	60
	.align 32
	.type	_ZL13_CANARY_SIZE_, @object
	.size	_ZL13_CANARY_SIZE_, 4
_ZL13_CANARY_SIZE_:
	.long	8
	.zero	60
	.align 32
	.type	_ZL16_OPENING_CANARY_, @object
	.size	_ZL16_OPENING_CANARY_, 4
_ZL16_OPENING_CANARY_:
	.long	11259375
	.zero	60
	.align 32
	.type	_ZL16_CLOSING_CANARY_, @object
	.size	_ZL16_CLOSING_CANARY_, 4
_ZL16_CLOSING_CANARY_:
	.long	16702650
	.zero	60
	.align 32
	.type	_ZL19_HEAP_MIN_CAPACITY_, @object
	.size	_ZL19_HEAP_MIN_CAPACITY_, 8
_ZL19_HEAP_MIN_CAPACITY_:
	.quad	10
	.zero	56
	.align 32
	.type	_ZL16_ELEMENT_T_SIZE_, @object
	.size	_ZL16_ELEMENT_T_SIZE_, 8
_ZL16_ELEMENT_T_SIZE_:
	.quad	8
	.zero	56
	.align 32
	.type	_ZL11GROWTH_RATE, @object
	.size	_ZL11GROWTH_RATE, 4
_ZL11GROWTH_RATE:
	.long	2
	.zero	60
	.align 32
	.type	_ZL30START_NUMBER_OF_VAR_TABELS_STK, @object
	.size	_ZL30START_NUMBER_OF_VAR_TABELS_STK, 4
_ZL30START_NUMBER_OF_VAR_TABELS_STK:
	.long	5
	.zero	60
	.align 32
	.type	_ZL11INDENT_SIZE, @object
	.size	_ZL11INDENT_SIZE, 4
_ZL11INDENT_SIZE:
	.long	2
	.zero	60
	.globl	BLOCK_CLOSING_BRACKET_FLAG
	.data
	.align 32
	.type	BLOCK_CLOSING_BRACKET_FLAG, @object
	.size	BLOCK_CLOSING_BRACKET_FLAG, 8
BLOCK_CLOSING_BRACKET_FLAG:
	.quad	1
	.zero	56
	.section	.rodata
	.align 32
.LC13:
	.string	"ctx"
	.zero	60
	.align 32
.LC14:
	.string	"ASSERTLOG:: Condition (%s) is false\n"
	.zero	59
	.align 32
.LC15:
	.string	"\033[93mASSERTLOG:: \033[0mCondition\033[95m (%s) \033[0mis \033[91mfalse\n\033[0m"
	.zero	32
	.align 32
.LC16:
	.string	"int DefineName(SyntacticCtx*)"
	.zero	34
	.align 32
.LC17:
	.string	"./src/../src/SyntaxAnalysisUtils_.ars"
	.zero	58
	.align 32
.LC18:
	.string	"\t%s:%d, function: %s\n"
	.zero	42
	.align 32
.LC19:
	.string	"It matches to error: (code %d) %s\n\n"
	.zero	60
	.align 32
.LC20:
	.string	"DefineName"
	.zero	53
	.align 32
.LC21:
	.string	"Shutting down the system (%s:%d)"
	.zero	63
	.align 32
.LC22:
	.string	"echo LOX\n"
	.zero	54
	.align 32
.LC23:
	.string	"\033[91mSyntax ERORR\n\033[94m"
	.zero	40
	.align 32
.LC24:
	.string	"Syntax ERROR\n"
	.zero	50
	.align 32
.LC25:
	.string	""
	.zero	63
	.align 32
.LC26:
	.string	"Not a name\n"
	.zero	52
	.align 32
.LC27:
	.string	"Nill token"
	.zero	53
	.align 32
.LC28:
	.string	"In: \033[95m"
	.zero	54
	.align 32
.LC29:
	.string	"%s:%d:%d\n\033[96m"
	.zero	49
	.align 32
.LC30:
	.string	"\033[0m"
	.zero	59
	.align 32
.LC31:
	.string	"%s:%d, %s\n"
	.zero	53
	.align 32
.LC32:
	.string	"'%s' wasn't decalred\n"
	.zero	42
	.text
	.type	_ZL10DefineNameP12SyntacticCtx, @function
_ZL10DefineNameP12SyntacticCtx:
.LASANPC2270:
.LFB2270:
	.file 1 "./src/../src/SyntaxAnalysisUtils_.ars"
	.loc 1 16 5
	.cfi_startproc
	endbr64
	pushq	%rbp
	.cfi_def_cfa_offset 16
	.cfi_offset 6, -16
	movq	%rsp, %rbp
	.cfi_def_cfa_register 6
	pushq	%rbx
	subq	$24, %rsp
	.cfi_offset 3, -24
	movq	%rdi, -24(%rbp)
	.loc 1 17 10
	cmpq	$0, -24(%rbp)
	jne	.L2
	.loc 1 17 43 discriminator 1
	call	_ZN6Logger11getInstanceEv@PLT
	movq	%rax, %rcx
	.loc 1 17 49 discriminator 1
	leaq	.LC13(%rip), %rax
	movq	%rax, %rdx
	leaq	.LC14(%rip), %rax
	movq	%rax, %rsi
	movq	%rcx, %rdi
	movl	$0, %eax
	call	_ZN6Logger3logEPKcz@PLT
	.loc 1 17 105 discriminator 1
	leaq	.LC13(%rip), %rax
	movq	%rax, %rsi
	leaq	.LC15(%rip), %rax
	movq	%rax, %rdi
	movl	$0, %eax
	call	printf@PLT
	.loc 1 17 249 discriminator 1
	call	_ZN6Logger11getInstanceEv@PLT
	movq	%rax, %rdi
	.loc 1 17 255 discriminator 1
	leaq	.LC16(%rip), %r8
	movl	$17, %ecx
	leaq	.LC17(%rip), %rax
	movq	%rax, %rdx
	leaq	.LC18(%rip), %rax
	movq	%rax, %rsi
	movl	$0, %eax
	call	_ZN6Logger3logEPKcz@PLT
	.loc 1 17 356 discriminator 1
	leaq	.LC16(%rip), %rax
	movq	%rax, %rcx
	movl	$17, %edx
	leaq	.LC17(%rip), %rax
	movq	%rax, %rsi
	leaq	.LC18(%rip), %rax
	movq	%rax, %rdi
	movl	$0, %eax
	call	printf@PLT
	.loc 1 17 470 discriminator 1
	call	_ZN6Logger11getInstanceEv@PLT
	movq	%rax, %rbx
	.loc 1 17 476 discriminator 1
	movl	$14, %edi
	call	strerror@PLT
	movq	%rax, %rcx
	movl	$14, %edx
	leaq	.LC19(%rip), %rax
	movq	%rax, %rsi
	movq	%rbx, %rdi
	movl	$0, %eax
	call	_ZN6Logger3logEPKcz@PLT
	.loc 1 17 27 discriminator 1
	call	_ZN6Logger11getInstanceEv@PLT
	movq	%rax, %rdi
	.loc 1 17 33 discriminator 1
	movl	$17, %ecx
	leaq	.LC20(%rip), %rax
	movq	%rax, %rdx
	leaq	.LC21(%rip), %rax
	movq	%rax, %rsi
	movl	$0, %eax
	call	_ZN6Logger3logEPKcz@PLT
	.loc 1 17 91 discriminator 1
	leaq	.LC22(%rip), %rax
	movq	%rax, %rdi
	call	system@PLT
	.loc 1 17 114 discriminator 1
	movl	$-111, %eax
	jmp	.L3
.L2:
	.loc 1 19 17
	movq	-24(%rbp), %rax
	addq	$8, %rax
	movq	%rax, %rdx
	movq	%rdx, %rax
	shrq	$3, %rax
	addq	$2147450880, %rax
	movzbl	(%rax), %eax
	testb	%al, %al
	setne	%cl
	cmpb	$3, %al
	setle	%al
	andl	%ecx, %eax
	testb	%al, %al
	je	.L4
	movq	%rdx, %rdi
	call	__asan_report_load4@PLT
.L4:
	movq	-24(%rbp), %rax
	movl	8(%rax), %esi
	.loc 1 19 36
	movq	-24(%rbp), %rax
	movq	%rax, %rdx
	shrq	$3, %rdx
	addq	$2147450880, %rdx
	movzbl	(%rdx), %edx
	testb	%dl, %dl
	je	.L5
	movq	%rax, %rdi
	call	__asan_report_load8@PLT
.L5:
	movq	-24(%rbp), %rax
	movq	(%rax), %rax
	.loc 1 19 46
	leaq	8(%rax), %rdx
	movq	%rdx, %rcx
	movq	%rcx, %rdx
	shrq	$3, %rdx
	addq	$2147450880, %rdx
	movzbl	(%rdx), %edx
	testb	%dl, %dl
	setne	%dil
	cmpb	$3, %dl
	setle	%dl
	andl	%edi, %edx
	testb	%dl, %dl
	je	.L6
	movq	%rcx, %rdi
	call	__asan_report_load4@PLT
.L6:
	movl	8(%rax), %eax
	.loc 1 19 65
	cmpl	%eax, %esi
	jge	.L7
	.loc 1 19 74 discriminator 1
	movq	-24(%rbp), %rax
	movq	(%rax), %rax
	.loc 1 19 84 discriminator 1
	movq	%rax, %rdx
	movq	%rdx, %rcx
	shrq	$3, %rcx
	addq	$2147450880, %rcx
	movzbl	(%rcx), %ecx
	testb	%cl, %cl
	je	.L8
	.loc 1 19 84 is_stmt 0
	movq	%rdx, %rdi
	call	__asan_report_load8@PLT
.L8:
	.loc 1 19 84 discriminator 1
	movq	(%rax), %rcx
	.loc 1 19 102 is_stmt 1 discriminator 1
	movq	-24(%rbp), %rax
	movl	8(%rax), %eax
	movslq	%eax, %rdx
	.loc 1 19 94 discriminator 1
	movq	%rdx, %rax
	addq	%rax, %rax
	addq	%rdx, %rax
	salq	$4, %rax
	.loc 1 19 65 discriminator 1
	addq	%rcx, %rax
	jmp	.L9
.L7:
	.loc 1 19 65 is_stmt 0 discriminator 2
	movl	$0, %eax
.L9:
	.loc 1 19 126 is_stmt 1 discriminator 4
	leaq	16(%rax), %rdx
	movq	%rdx, %rcx
	movq	%rcx, %rdx
	shrq	$3, %rdx
	addq	$2147450880, %rdx
	movzbl	(%rdx), %edx
	testb	%dl, %dl
	setne	%sil
	cmpb	$3, %dl
	setle	%dl
	andl	%esi, %edx
	testb	%dl, %dl
	je	.L10
	.loc 1 19 126 is_stmt 0
	movq	%rcx, %rdi
	call	__asan_report_load4@PLT
.L10:
	.loc 1 19 126 discriminator 4
	movl	16(%rax), %eax
	.loc 1 19 5 is_stmt 1 discriminator 4
	cmpl	$6, %eax
	je	.L11
	.loc 1 21 20
	leaq	.LC23(%rip), %rax
	movq	%rax, %rdi
	movl	$0, %eax
	call	printf@PLT
	.loc 1 21 81
	call	_ZN6Logger11getInstanceEv@PLT
	movq	%rax, %rdx
	.loc 1 21 87
	leaq	.LC24(%rip), %rax
	movq	%rax, %rsi
	movq	%rdx, %rdi
	movl	$0, %eax
	call	_ZN6Logger3logEPKcz@PLT
	.loc 1 21 127
	call	_ZN6Logger11getInstanceEv@PLT
	movq	%rax, %rdx
	.loc 1 21 133
	leaq	.LC25(%rip), %rax
	movq	%rax, %rsi
	movq	%rdx, %rdi
	movl	$0, %eax
	call	_ZN6Logger3logEPKcz@PLT
	.loc 1 21 159
	call	_ZN6Logger11getInstanceEv@PLT
	movq	%rax, %rdx
	.loc 1 21 177
	leaq	.LC26(%rip), %rax
	movq	%rax, %rsi
	movq	%rdx, %rdi
	movl	$0, %eax
	call	_ZN6Logger15log_dup_consoleEPKcz@PLT
	.loc 1 21 209
	movq	-24(%rbp), %rax
	addq	$8, %rax
	movq	%rax, %rdx
	movq	%rdx, %rax
	shrq	$3, %rax
	addq	$2147450880, %rax
	movzbl	(%rax), %eax
	testb	%al, %al
	setne	%cl
	cmpb	$3, %al
	setle	%al
	andl	%ecx, %eax
	testb	%al, %al
	je	.L12
	movq	%rdx, %rdi
	call	__asan_report_load4@PLT
.L12:
	movq	-24(%rbp), %rax
	movl	8(%rax), %esi
	.loc 1 21 228
	movq	-24(%rbp), %rax
	movq	%rax, %rdx
	shrq	$3, %rdx
	addq	$2147450880, %rdx
	movzbl	(%rdx), %edx
	testb	%dl, %dl
	je	.L13
	movq	%rax, %rdi
	call	__asan_report_load8@PLT
.L13:
	movq	-24(%rbp), %rax
	movq	(%rax), %rax
	.loc 1 21 238
	leaq	8(%rax), %rdx
	movq	%rdx, %rcx
	movq	%rcx, %rdx
	shrq	$3, %rdx
	addq	$2147450880, %rdx
	movzbl	(%rdx), %edx
	testb	%dl, %dl
	setne	%dil
	cmpb	$3, %dl
	setle	%dl
	andl	%edi, %edx
	testb	%dl, %dl
	je	.L14
	movq	%rcx, %rdi
	call	__asan_report_load4@PLT
.L14:
	movl	8(%rax), %eax
	.loc 1 21 257
	cmpl	%eax, %esi
	jge	.L15
	.loc 1 21 266 discriminator 1
	movq	-24(%rbp), %rax
	movq	(%rax), %rax
	.loc 1 21 276 discriminator 1
	movq	%rax, %rdx
	movq	%rdx, %rcx
	shrq	$3, %rcx
	addq	$2147450880, %rcx
	movzbl	(%rcx), %ecx
	testb	%cl, %cl
	je	.L16
	.loc 1 21 276 is_stmt 0
	movq	%rdx, %rdi
	call	__asan_report_load8@PLT
.L16:
	.loc 1 21 276 discriminator 1
	movq	(%rax), %rcx
	.loc 1 21 294 is_stmt 1 discriminator 1
	movq	-24(%rbp), %rax
	movl	8(%rax), %eax
	movslq	%eax, %rdx
	.loc 1 21 286 discriminator 1
	movq	%rdx, %rax
	addq	%rax, %rax
	addq	%rdx, %rax
	salq	$4, %rax
	.loc 1 21 257 discriminator 1
	addq	%rcx, %rax
	jmp	.L17
.L15:
	.loc 1 21 257 is_stmt 0 discriminator 2
	movl	$0, %eax
.L17:
	.loc 1 21 196 is_stmt 1 discriminator 4
	testq	%rax, %rax
	jne	.L18
	.loc 1 21 324 discriminator 5
	leaq	.LC27(%rip), %rax
	movq	%rax, %rdi
	call	puts@PLT
	jmp	.L19
.L18:
	.loc 1 21 355 discriminator 6
	leaq	.LC28(%rip), %rax
	movq	%rax, %rdi
	movl	$0, %eax
	call	printf@PLT
	.loc 1 21 574 discriminator 6
	movq	-24(%rbp), %rax
	addq	$8, %rax
	movq	%rax, %rdx
	movq	%rdx, %rax
	shrq	$3, %rax
	addq	$2147450880, %rax
	movzbl	(%rax), %eax
	testb	%al, %al
	setne	%cl
	cmpb	$3, %al
	setle	%al
	andl	%ecx, %eax
	testb	%al, %al
	je	.L20
	.loc 1 21 574 is_stmt 0
	movq	%rdx, %rdi
	call	__asan_report_load4@PLT
.L20:
	.loc 1 21 574 discriminator 6
	movq	-24(%rbp), %rax
	movl	8(%rax), %esi
	.loc 1 21 593 is_stmt 1 discriminator 6
	movq	-24(%rbp), %rax
	movq	%rax, %rdx
	shrq	$3, %rdx
	addq	$2147450880, %rdx
	movzbl	(%rdx), %edx
	testb	%dl, %dl
	je	.L21
	.loc 1 21 593 is_stmt 0
	movq	%rax, %rdi
	call	__asan_report_load8@PLT
.L21:
	.loc 1 21 593 discriminator 6
	movq	-24(%rbp), %rax
	movq	(%rax), %rax
	.loc 1 21 603 is_stmt 1 discriminator 6
	leaq	8(%rax), %rdx
	movq	%rdx, %rcx
	movq	%rcx, %rdx
	shrq	$3, %rdx
	addq	$2147450880, %rdx
	movzbl	(%rdx), %edx
	testb	%dl, %dl
	setne	%dil
	cmpb	$3, %dl
	setle	%dl
	andl	%edi, %edx
	testb	%dl, %dl
	je	.L22
	.loc 1 21 603 is_stmt 0
	movq	%rcx, %rdi
	call	__asan_report_load4@PLT
.L22:
	.loc 1 21 603 discriminator 6
	movl	8(%rax), %eax
	.loc 1 21 622 is_stmt 1 discriminator 6
	cmpl	%eax, %esi
	jge	.L23
	.loc 1 21 631 discriminator 7
	movq	-24(%rbp), %rax
	movq	(%rax), %rax
	.loc 1 21 641 discriminator 7
	movq	%rax, %rdx
	movq	%rdx, %rcx
	shrq	$3, %rcx
	addq	$2147450880, %rcx
	movzbl	(%rcx), %ecx
	testb	%cl, %cl
	je	.L24
	.loc 1 21 641 is_stmt 0
	movq	%rdx, %rdi
	call	__asan_report_load8@PLT
.L24:
	.loc 1 21 641 discriminator 7
	movq	(%rax), %rcx
	.loc 1 21 659 is_stmt 1 discriminator 7
	movq	-24(%rbp), %rax
	movl	8(%rax), %eax
	movslq	%eax, %rdx
	.loc 1 21 651 discriminator 7
	movq	%rdx, %rax
	addq	%rax, %rax
	addq	%rdx, %rax
	salq	$4, %rax
	.loc 1 21 622 discriminator 7
	addq	%rcx, %rax
	jmp	.L25
.L23:
	.loc 1 21 622 is_stmt 0 discriminator 8
	movl	$0, %eax
.L25:
	.loc 1 21 382 is_stmt 1 discriminator 10
	leaq	44(%rax), %rdx
	movq	%rdx, %rcx
	shrq	$3, %rcx
	addq	$2147450880, %rcx
	movzbl	(%rcx), %ecx
	testb	%cl, %cl
	setne	%dil
	movq	%rdx, %rsi
	andl	$7, %esi
	addl	$3, %esi
	cmpb	%cl, %sil
	setge	%cl
	andl	%edi, %ecx
	testb	%cl, %cl
	je	.L26
	.loc 1 21 382 is_stmt 0
	movq	%rdx, %rdi
	call	__asan_report_load4@PLT
.L26:
	.loc 1 21 382 discriminator 10
	movl	44(%rax), %ecx
	.loc 1 21 451 is_stmt 1 discriminator 10
	movq	-24(%rbp), %rax
	addq	$8, %rax
	movq	%rax, %rdx
	movq	%rdx, %rax
	shrq	$3, %rax
	addq	$2147450880, %rax
	movzbl	(%rax), %eax
	testb	%al, %al
	setne	%sil
	cmpb	$3, %al
	setle	%al
	andl	%esi, %eax
	testb	%al, %al
	je	.L27
	.loc 1 21 451 is_stmt 0
	movq	%rdx, %rdi
	call	__asan_report_load4@PLT
.L27:
	.loc 1 21 451 discriminator 10
	movq	-24(%rbp), %rax
	movl	8(%rax), %edi
	.loc 1 21 470 is_stmt 1 discriminator 10
	movq	-24(%rbp), %rax
	movq	%rax, %rdx
	shrq	$3, %rdx
	addq	$2147450880, %rdx
	movzbl	(%rdx), %edx
	testb	%dl, %dl
	je	.L28
	.loc 1 21 470 is_stmt 0
	movq	%rax, %rdi
	call	__asan_report_load8@PLT
.L28:
	.loc 1 21 470 discriminator 10
	movq	-24(%rbp), %rax
	movq	(%rax), %rax
	.loc 1 21 480 is_stmt 1 discriminator 10
	leaq	8(%rax), %rdx
	movq	%rdx, %rsi
	movq	%rsi, %rdx
	shrq	$3, %rdx
	addq	$2147450880, %rdx
	movzbl	(%rdx), %edx
	testb	%dl, %dl
	setne	%r8b
	cmpb	$3, %dl
	setle	%dl
	andl	%r8d, %edx
	testb	%dl, %dl
	je	.L29
	.loc 1 21 480 is_stmt 0
	movq	%rsi, %rdi
	call	__asan_report_load4@PLT
.L29:
	.loc 1 21 480 discriminator 10
	movl	8(%rax), %eax
	.loc 1 21 499 is_stmt 1 discriminator 10
	cmpl	%eax, %edi
	jge	.L30
	.loc 1 21 508 discriminator 11
	movq	-24(%rbp), %rax
	movq	(%rax), %rax
	.loc 1 21 518 discriminator 11
	movq	%rax, %rdx
	movq	%rdx, %rsi
	shrq	$3, %rsi
	addq	$2147450880, %rsi
	movzbl	(%rsi), %esi
	testb	%sil, %sil
	je	.L31
	.loc 1 21 518 is_stmt 0
	movq	%rdx, %rdi
	call	__asan_report_load8@PLT
.L31:
	.loc 1 21 518 discriminator 11
	movq	(%rax), %rsi
	.loc 1 21 536 is_stmt 1 discriminator 11
	movq	-24(%rbp), %rax
	movl	8(%rax), %eax
	movslq	%eax, %rdx
	.loc 1 21 528 discriminator 11
	movq	%rdx, %rax
	addq	%rax, %rax
	addq	%rdx, %rax
	salq	$4, %rax
	.loc 1 21 499 discriminator 11
	addq	%rsi, %rax
	jmp	.L32
.L30:
	.loc 1 21 499 is_stmt 0 discriminator 12
	movl	$0, %eax
.L32:
	.loc 1 21 382 is_stmt 1 discriminator 14
	leaq	40(%rax), %rdx
	movq	%rdx, %rsi
	movq	%rsi, %rdx
	shrq	$3, %rdx
	addq	$2147450880, %rdx
	movzbl	(%rdx), %edx
	testb	%dl, %dl
	setne	%dil
	cmpb	$3, %dl
	setle	%dl
	andl	%edi, %edx
	testb	%dl, %dl
	je	.L33
	.loc 1 21 382 is_stmt 0
	movq	%rsi, %rdi
	call	__asan_report_load4@PLT
.L33:
	.loc 1 21 382 discriminator 14
	movl	40(%rax), %edx
	.loc 1 21 414 is_stmt 1 discriminator 14
	movq	-24(%rbp), %rax
	movq	%rax, %rsi
	shrq	$3, %rsi
	addq	$2147450880, %rsi
	movzbl	(%rsi), %esi
	testb	%sil, %sil
	je	.L34
	.loc 1 21 414 is_stmt 0
	movq	%rax, %rdi
	call	__asan_report_load8@PLT
.L34:
	.loc 1 21 414 discriminator 14
	movq	-24(%rbp), %rax
	movq	(%rax), %rax
	.loc 1 21 425 is_stmt 1 discriminator 14
	leaq	40(%rax), %rsi
	movq	%rsi, %rdi
	shrq	$3, %rdi
	addq	$2147450880, %rdi
	movzbl	(%rdi), %edi
	testb	%dil, %dil
	je	.L35
	.loc 1 21 425 is_stmt 0
	movq	%rsi, %rdi
	call	__asan_report_load8@PLT
.L35:
	.loc 1 21 425 discriminator 14
	movq	40(%rax), %rax
	.loc 1 21 382 is_stmt 1 discriminator 14
	movq	%rax, %rsi
	leaq	.LC29(%rip), %rax
	movq	%rax, %rdi
	movl	$0, %eax
	call	printf@PLT
	.loc 1 21 707 discriminator 14
	movq	-24(%rbp), %rax
	addq	$8, %rax
	movq	%rax, %rdx
	movq	%rdx, %rax
	shrq	$3, %rax
	addq	$2147450880, %rax
	movzbl	(%rax), %eax
	testb	%al, %al
	setne	%cl
	cmpb	$3, %al
	setle	%al
	andl	%ecx, %eax
	testb	%al, %al
	je	.L36
	.loc 1 21 707 is_stmt 0
	movq	%rdx, %rdi
	call	__asan_report_load4@PLT
.L36:
	.loc 1 21 707 discriminator 14
	movq	-24(%rbp), %rax
	movl	8(%rax), %esi
	.loc 1 21 726 is_stmt 1 discriminator 14
	movq	-24(%rbp), %rax
	movq	%rax, %rdx
	shrq	$3, %rdx
	addq	$2147450880, %rdx
	movzbl	(%rdx), %edx
	testb	%dl, %dl
	je	.L37
	.loc 1 21 726 is_stmt 0
	movq	%rax, %rdi
	call	__asan_report_load8@PLT
.L37:
	.loc 1 21 726 discriminator 14
	movq	-24(%rbp), %rax
	movq	(%rax), %rax
	.loc 1 21 736 is_stmt 1 discriminator 14
	leaq	8(%rax), %rdx
	movq	%rdx, %rcx
	movq	%rcx, %rdx
	shrq	$3, %rdx
	addq	$2147450880, %rdx
	movzbl	(%rdx), %edx
	testb	%dl, %dl
	setne	%dil
	cmpb	$3, %dl
	setle	%dl
	andl	%edi, %edx
	testb	%dl, %dl
	je	.L38
	.loc 1 21 736 is_stmt 0
	movq	%rcx, %rdi
	call	__asan_report_load4@PLT
.L38:
	.loc 1 21 736 discriminator 14
	movl	8(%rax), %eax
	.loc 1 21 755 is_stmt 1 discriminator 14
	cmpl	%eax, %esi
	jge	.L39
	.loc 1 21 764 discriminator 15
	movq	-24(%rbp), %rax
	movq	(%rax), %rax
	.loc 1 21 774 discriminator 15
	movq	%rax, %rdx
	movq	%rdx, %rcx
	shrq	$3, %rcx
	addq	$2147450880, %rcx
	movzbl	(%rcx), %ecx
	testb	%cl, %cl
	je	.L40
	.loc 1 21 774 is_stmt 0
	movq	%rdx, %rdi
	call	__asan_report_load8@PLT
.L40:
	.loc 1 21 774 discriminator 15
	movq	(%rax), %rcx
	.loc 1 21 792 is_stmt 1 discriminator 15
	movq	-24(%rbp), %rax
	movl	8(%rax), %eax
	movslq	%eax, %rdx
	.loc 1 21 784 discriminator 15
	movq	%rdx, %rax
	addq	%rax, %rax
	addq	%rdx, %rax
	salq	$4, %rax
	.loc 1 21 755 discriminator 15
	addq	%rcx, %rax
	jmp	.L41
.L39:
	.loc 1 21 755 is_stmt 0 discriminator 16
	movl	$0, %eax
.L41:
	.loc 1 21 698 is_stmt 1 discriminator 18
	leaq	32(%rax), %rdx
	movq	%rdx, %rcx
	shrq	$3, %rcx
	addq	$2147450880, %rcx
	movzbl	(%rcx), %ecx
	testb	%cl, %cl
	je	.L42
	.loc 1 21 698 is_stmt 0
	movq	%rdx, %rdi
	call	__asan_report_load8@PLT
.L42:
	.loc 1 21 698 discriminator 18
	movq	32(%rax), %rax
	movl	$10, %esi
	movq	%rax, %rdi
	call	_Z6printlPKcc@PLT
	.loc 1 21 846 is_stmt 1 discriminator 18
	leaq	.LC30(%rip), %rax
	movq	%rax, %rdi
	call	puts@PLT
	.loc 1 21 870 discriminator 18
	leaq	.LC20(%rip), %rax
	movq	%rax, %rcx
	movl	$21, %edx
	leaq	.LC17(%rip), %rax
	movq	%rax, %rsi
	leaq	.LC31(%rip), %rax
	movq	%rax, %rdi
	movl	$0, %eax
	call	printf@PLT
	.loc 1 21 1077 discriminator 18
	movq	-24(%rbp), %rax
	movq	%rax, %rdx
	shrq	$3, %rdx
	addq	$2147450880, %rdx
	movzbl	(%rdx), %edx
	testb	%dl, %dl
	je	.L43
	.loc 1 21 1077 is_stmt 0
	movq	%rax, %rdi
	call	__asan_report_load8@PLT
.L43:
	.loc 1 21 1077 discriminator 18
	movq	-24(%rbp), %rax
	movq	(%rax), %rax
	.loc 1 21 1087 is_stmt 1 discriminator 18
	leaq	24(%rax), %rdx
	movq	%rdx, %rcx
	shrq	$3, %rcx
	addq	$2147450880, %rcx
	movzbl	(%rcx), %ecx
	testb	%cl, %cl
	je	.L44
	.loc 1 21 1087 is_stmt 0
	movq	%rdx, %rdi
	call	__asan_report_load8@PLT
.L44:
	.loc 1 21 1087 discriminator 18
	movq	24(%rax), %rcx
	.loc 1 21 961 is_stmt 1 discriminator 18
	movq	-24(%rbp), %rax
	addq	$8, %rax
	movq	%rax, %rdx
	movq	%rdx, %rax
	shrq	$3, %rax
	addq	$2147450880, %rax
	movzbl	(%rax), %eax
	testb	%al, %al
	setne	%sil
	cmpb	$3, %al
	setle	%al
	andl	%esi, %eax
	testb	%al, %al
	je	.L45
	.loc 1 21 961 is_stmt 0
	movq	%rdx, %rdi
	call	__asan_report_load4@PLT
.L45:
	.loc 1 21 961 discriminator 18
	movq	-24(%rbp), %rax
	movl	8(%rax), %edi
	.loc 1 21 980 is_stmt 1 discriminator 18
	movq	-24(%rbp), %rax
	movq	(%rax), %rax
	.loc 1 21 990 discriminator 18
	leaq	8(%rax), %rdx
	movq	%rdx, %rsi
	movq	%rsi, %rdx
	shrq	$3, %rdx
	addq	$2147450880, %rdx
	movzbl	(%rdx), %edx
	testb	%dl, %dl
	setne	%r8b
	cmpb	$3, %dl
	setle	%dl
	andl	%r8d, %edx
	testb	%dl, %dl
	je	.L46
	.loc 1 21 990 is_stmt 0
	movq	%rsi, %rdi
	call	__asan_report_load4@PLT
.L46:
	.loc 1 21 990 discriminator 18
	movl	8(%rax), %eax
	.loc 1 21 952 is_stmt 1 discriminator 18
	cmpl	%eax, %edi
	jge	.L47
	.loc 1 21 1018 discriminator 19
	movq	-24(%rbp), %rax
	movq	(%rax), %rax
	.loc 1 21 1028 discriminator 19
	movq	%rax, %rdx
	movq	%rdx, %rsi
	shrq	$3, %rsi
	addq	$2147450880, %rsi
	movzbl	(%rsi), %esi
	testb	%sil, %sil
	je	.L48
	.loc 1 21 1028 is_stmt 0
	movq	%rdx, %rdi
	call	__asan_report_load8@PLT
.L48:
	.loc 1 21 1028 discriminator 19
	movq	(%rax), %rsi
	.loc 1 21 1046 is_stmt 1 discriminator 19
	movq	-24(%rbp), %rax
	movl	8(%rax), %eax
	movslq	%eax, %rdx
	.loc 1 21 1038 discriminator 19
	movq	%rdx, %rax
	addq	%rax, %rax
	addq	%rdx, %rax
	salq	$4, %rax
	.loc 1 21 952 discriminator 19
	addq	%rsi, %rax
	jmp	.L49
.L47:
	.loc 1 21 952 is_stmt 0 discriminator 20
	movl	$0, %eax
.L49:
	.loc 1 21 952 discriminator 22
	movq	%rcx, %rsi
	movq	%rax, %rdi
	call	_Z10PrintTokenPK5TokenPPKc@PLT
.L19:
	.loc 1 22 16 is_stmt 1
	movl	$-111, %eax
	jmp	.L3
.L11:
	.loc 1 26 21
	movq	-24(%rbp), %rax
	addq	$16, %rax
	movq	%rax, %rdx
	shrq	$3, %rdx
	addq	$2147450880, %rdx
	movzbl	(%rdx), %edx
	testb	%dl, %dl
	je	.L50
	movq	%rax, %rdi
	call	__asan_report_load8@PLT
.L50:
	movq	-24(%rbp), %rax
	movq	16(%rax), %rcx
	.loc 1 26 30
	movq	-24(%rbp), %rax
	addq	$8, %rax
	movq	%rax, %rdx
	movq	%rdx, %rax
	shrq	$3, %rax
	addq	$2147450880, %rax
	movzbl	(%rax), %eax
	testb	%al, %al
	setne	%sil
	cmpb	$3, %al
	setle	%al
	andl	%esi, %eax
	testb	%al, %al
	je	.L51
	movq	%rdx, %rdi
	call	__asan_report_load4@PLT
.L51:
	movq	-24(%rbp), %rax
	movl	8(%rax), %edi
	.loc 1 26 49
	movq	-24(%rbp), %rax
	movq	%rax, %rdx
	shrq	$3, %rdx
	addq	$2147450880, %rdx
	movzbl	(%rdx), %edx
	testb	%dl, %dl
	je	.L52
	movq	%rax, %rdi
	call	__asan_report_load8@PLT
.L52:
	movq	-24(%rbp), %rax
	movq	(%rax), %rax
	.loc 1 26 59
	leaq	8(%rax), %rdx
	movq	%rdx, %rsi
	movq	%rsi, %rdx
	shrq	$3, %rdx
	addq	$2147450880, %rdx
	movzbl	(%rdx), %edx
	testb	%dl, %dl
	setne	%r8b
	cmpb	$3, %dl
	setle	%dl
	andl	%r8d, %edx
	testb	%dl, %dl
	je	.L53
	movq	%rsi, %rdi
	call	__asan_report_load4@PLT
.L53:
	movl	8(%rax), %eax
	.loc 1 26 78
	cmpl	%eax, %edi
	jge	.L54
	.loc 1 26 87 discriminator 1
	movq	-24(%rbp), %rax
	movq	(%rax), %rax
	.loc 1 26 97 discriminator 1
	movq	%rax, %rdx
	movq	%rdx, %rsi
	shrq	$3, %rsi
	addq	$2147450880, %rsi
	movzbl	(%rsi), %esi
	testb	%sil, %sil
	je	.L55
	.loc 1 26 97 is_stmt 0
	movq	%rdx, %rdi
	call	__asan_report_load8@PLT
.L55:
	.loc 1 26 97 discriminator 1
	movq	(%rax), %rsi
	.loc 1 26 115 is_stmt 1 discriminator 1
	movq	-24(%rbp), %rax
	movl	8(%rax), %eax
	movslq	%eax, %rdx
	.loc 1 26 107 discriminator 1
	movq	%rdx, %rax
	addq	%rax, %rax
	addq	%rdx, %rax
	salq	$4, %rax
	.loc 1 26 78 discriminator 1
	addq	%rsi, %rax
	jmp	.L56
.L54:
	.loc 1 26 78 is_stmt 0 discriminator 2
	movl	$0, %eax
.L56:
	.loc 1 26 21 is_stmt 1 discriminator 4
	leaq	24(%rax), %rdx
	movq	%rdx, %rsi
	movq	%rsi, %rdx
	shrq	$3, %rdx
	addq	$2147450880, %rdx
	movzbl	(%rdx), %edx
	testb	%dl, %dl
	setne	%dil
	cmpb	$3, %dl
	setle	%dl
	andl	%edi, %edx
	testb	%dl, %dl
	je	.L57
	.loc 1 26 21 is_stmt 0
	movq	%rsi, %rdi
	call	__asan_report_load4@PLT
.L57:
	.loc 1 26 21 discriminator 4
	movl	24(%rax), %eax
	movq	%rcx, %rsi
	movl	%eax, %edi
	call	_Z11IsFuncLabeliP9FuncTabel@PLT
	.loc 1 26 178 is_stmt 1 discriminator 4
	cmpl	$-9, %eax
	setne	%al
	.loc 1 26 5 discriminator 4
	testb	%al, %al
	je	.L58
	.loc 1 28 17
	movq	-24(%rbp), %rax
	addq	$8, %rax
	movq	%rax, %rdx
	movq	%rdx, %rax
	shrq	$3, %rax
	addq	$2147450880, %rax
	movzbl	(%rax), %eax
	testb	%al, %al
	setne	%cl
	cmpb	$3, %al
	setle	%al
	andl	%ecx, %eax
	testb	%al, %al
	je	.L59
	movq	%rdx, %rdi
	call	__asan_report_load4@PLT
.L59:
	movq	-24(%rbp), %rax
	movl	8(%rax), %esi
	.loc 1 28 36
	movq	-24(%rbp), %rax
	movq	%rax, %rdx
	shrq	$3, %rdx
	addq	$2147450880, %rdx
	movzbl	(%rdx), %edx
	testb	%dl, %dl
	je	.L60
	movq	%rax, %rdi
	call	__asan_report_load8@PLT
.L60:
	movq	-24(%rbp), %rax
	movq	(%rax), %rax
	.loc 1 28 46
	leaq	8(%rax), %rdx
	movq	%rdx, %rcx
	movq	%rcx, %rdx
	shrq	$3, %rdx
	addq	$2147450880, %rdx
	movzbl	(%rdx), %edx
	testb	%dl, %dl
	setne	%dil
	cmpb	$3, %dl
	setle	%dl
	andl	%edi, %edx
	testb	%dl, %dl
	je	.L61
	movq	%rcx, %rdi
	call	__asan_report_load4@PLT
.L61:
	movl	8(%rax), %eax
	.loc 1 28 65
	cmpl	%eax, %esi
	jge	.L62
	.loc 1 28 74 discriminator 1
	movq	-24(%rbp), %rax
	movq	(%rax), %rax
	.loc 1 28 84 discriminator 1
	movq	%rax, %rdx
	movq	%rdx, %rcx
	shrq	$3, %rcx
	addq	$2147450880, %rcx
	movzbl	(%rcx), %ecx
	testb	%cl, %cl
	je	.L63
	.loc 1 28 84 is_stmt 0
	movq	%rdx, %rdi
	call	__asan_report_load8@PLT
.L63:
	.loc 1 28 84 discriminator 1
	movq	(%rax), %rcx
	.loc 1 28 102 is_stmt 1 discriminator 1
	movq	-24(%rbp), %rax
	movl	8(%rax), %eax
	movslq	%eax, %rdx
	.loc 1 28 94 discriminator 1
	movq	%rdx, %rax
	addq	%rax, %rax
	addq	%rdx, %rax
	salq	$4, %rax
	.loc 1 28 65 discriminator 1
	addq	%rcx, %rax
	jmp	.L64
.L62:
	.loc 1 28 65 is_stmt 0 discriminator 2
	movl	$0, %eax
.L64:
	.loc 1 28 131 is_stmt 1 discriminator 4
	leaq	16(%rax), %rdx
	movq	%rdx, %rcx
	movq	%rcx, %rdx
	shrq	$3, %rdx
	addq	$2147450880, %rdx
	movzbl	(%rdx), %edx
	testb	%dl, %dl
	setne	%sil
	cmpb	$3, %dl
	setle	%dl
	andl	%esi, %edx
	testb	%dl, %dl
	je	.L65
	.loc 1 28 131 is_stmt 0
	movq	%rcx, %rdi
	call	__asan_report_store4@PLT
.L65:
	.loc 1 28 131 discriminator 4
	movl	$9, 16(%rax)
	.loc 1 29 16 is_stmt 1 discriminator 4
	movl	$9, %eax
	jmp	.L3
.L58:
	.loc 1 32 21
	movq	-24(%rbp), %rax
	addq	$32, %rax
	movq	%rax, %rdx
	shrq	$3, %rdx
	addq	$2147450880, %rdx
	movzbl	(%rdx), %edx
	testb	%dl, %dl
	je	.L66
	movq	%rax, %rdi
	call	__asan_report_load8@PLT
.L66:
	movq	-24(%rbp), %rax
	movq	32(%rax), %rcx
	.loc 1 32 30
	movq	-24(%rbp), %rax
	addq	$8, %rax
	movq	%rax, %rdx
	movq	%rdx, %rax
	shrq	$3, %rax
	addq	$2147450880, %rax
	movzbl	(%rax), %eax
	testb	%al, %al
	setne	%sil
	cmpb	$3, %al
	setle	%al
	andl	%esi, %eax
	testb	%al, %al
	je	.L67
	movq	%rdx, %rdi
	call	__asan_report_load4@PLT
.L67:
	movq	-24(%rbp), %rax
	movl	8(%rax), %edi
	.loc 1 32 49
	movq	-24(%rbp), %rax
	movq	%rax, %rdx
	shrq	$3, %rdx
	addq	$2147450880, %rdx
	movzbl	(%rdx), %edx
	testb	%dl, %dl
	je	.L68
	movq	%rax, %rdi
	call	__asan_report_load8@PLT
.L68:
	movq	-24(%rbp), %rax
	movq	(%rax), %rax
	.loc 1 32 59
	leaq	8(%rax), %rdx
	movq	%rdx, %rsi
	movq	%rsi, %rdx
	shrq	$3, %rdx
	addq	$2147450880, %rdx
	movzbl	(%rdx), %edx
	testb	%dl, %dl
	setne	%r8b
	cmpb	$3, %dl
	setle	%dl
	andl	%r8d, %edx
	testb	%dl, %dl
	je	.L69
	movq	%rsi, %rdi
	call	__asan_report_load4@PLT
.L69:
	movl	8(%rax), %eax
	.loc 1 32 78
	cmpl	%eax, %edi
	jge	.L70
	.loc 1 32 87 discriminator 1
	movq	-24(%rbp), %rax
	movq	(%rax), %rax
	.loc 1 32 97 discriminator 1
	movq	%rax, %rdx
	movq	%rdx, %rsi
	shrq	$3, %rsi
	addq	$2147450880, %rsi
	movzbl	(%rsi), %esi
	testb	%sil, %sil
	je	.L71
	.loc 1 32 97 is_stmt 0
	movq	%rdx, %rdi
	call	__asan_report_load8@PLT
.L71:
	.loc 1 32 97 discriminator 1
	movq	(%rax), %rsi
	.loc 1 32 115 is_stmt 1 discriminator 1
	movq	-24(%rbp), %rax
	movl	8(%rax), %eax
	movslq	%eax, %rdx
	.loc 1 32 107 discriminator 1
	movq	%rdx, %rax
	addq	%rax, %rax
	addq	%rdx, %rax
	salq	$4, %rax
	.loc 1 32 78 discriminator 1
	addq	%rsi, %rax
	jmp	.L72
.L70:
	.loc 1 32 78 is_stmt 0 discriminator 2
	movl	$0, %eax
.L72:
	.loc 1 32 21 is_stmt 1 discriminator 4
	leaq	24(%rax), %rdx
	movq	%rdx, %rsi
	movq	%rsi, %rdx
	shrq	$3, %rdx
	addq	$2147450880, %rdx
	movzbl	(%rdx), %edx
	testb	%dl, %dl
	setne	%dil
	cmpb	$3, %dl
	setle	%dl
	andl	%edi, %edx
	testb	%dl, %dl
	je	.L73
	.loc 1 32 21 is_stmt 0
	movq	%rsi, %rdi
	call	__asan_report_load4@PLT
.L73:
	.loc 1 32 21 discriminator 4
	movl	24(%rax), %eax
	movq	%rcx, %rsi
	movl	%eax, %edi
	call	_Z11GetVarLabeliP10SuperStack@PLT
	testq	%rax, %rax
	setne	%al
	.loc 1 32 5 is_stmt 1 discriminator 4
	testb	%al, %al
	je	.L74
	.loc 1 34 17
	movq	-24(%rbp), %rax
	addq	$8, %rax
	movq	%rax, %rdx
	movq	%rdx, %rax
	shrq	$3, %rax
	addq	$2147450880, %rax
	movzbl	(%rax), %eax
	testb	%al, %al
	setne	%cl
	cmpb	$3, %al
	setle	%al
	andl	%ecx, %eax
	testb	%al, %al
	je	.L75
	movq	%rdx, %rdi
	call	__asan_report_load4@PLT
.L75:
	movq	-24(%rbp), %rax
	movl	8(%rax), %esi
	.loc 1 34 36
	movq	-24(%rbp), %rax
	movq	%rax, %rdx
	shrq	$3, %rdx
	addq	$2147450880, %rdx
	movzbl	(%rdx), %edx
	testb	%dl, %dl
	je	.L76
	movq	%rax, %rdi
	call	__asan_report_load8@PLT
.L76:
	movq	-24(%rbp), %rax
	movq	(%rax), %rax
	.loc 1 34 46
	leaq	8(%rax), %rdx
	movq	%rdx, %rcx
	movq	%rcx, %rdx
	shrq	$3, %rdx
	addq	$2147450880, %rdx
	movzbl	(%rdx), %edx
	testb	%dl, %dl
	setne	%dil
	cmpb	$3, %dl
	setle	%dl
	andl	%edi, %edx
	testb	%dl, %dl
	je	.L77
	movq	%rcx, %rdi
	call	__asan_report_load4@PLT
.L77:
	movl	8(%rax), %eax
	.loc 1 34 65
	cmpl	%eax, %esi
	jge	.L78
	.loc 1 34 74 discriminator 1
	movq	-24(%rbp), %rax
	movq	(%rax), %rax
	.loc 1 34 84 discriminator 1
	movq	%rax, %rdx
	movq	%rdx, %rcx
	shrq	$3, %rcx
	addq	$2147450880, %rcx
	movzbl	(%rcx), %ecx
	testb	%cl, %cl
	je	.L79
	.loc 1 34 84 is_stmt 0
	movq	%rdx, %rdi
	call	__asan_report_load8@PLT
.L79:
	.loc 1 34 84 discriminator 1
	movq	(%rax), %rcx
	.loc 1 34 102 is_stmt 1 discriminator 1
	movq	-24(%rbp), %rax
	movl	8(%rax), %eax
	movslq	%eax, %rdx
	.loc 1 34 94 discriminator 1
	movq	%rdx, %rax
	addq	%rax, %rax
	addq	%rdx, %rax
	salq	$4, %rax
	.loc 1 34 65 discriminator 1
	addq	%rcx, %rax
	jmp	.L80
.L78:
	.loc 1 34 65 is_stmt 0 discriminator 2
	movl	$0, %eax
.L80:
	.loc 1 34 131 is_stmt 1 discriminator 4
	leaq	16(%rax), %rdx
	movq	%rdx, %rcx
	movq	%rcx, %rdx
	shrq	$3, %rdx
	addq	$2147450880, %rdx
	movzbl	(%rdx), %edx
	testb	%dl, %dl
	setne	%sil
	cmpb	$3, %dl
	setle	%dl
	andl	%esi, %edx
	testb	%dl, %dl
	je	.L81
	.loc 1 34 131 is_stmt 0
	movq	%rcx, %rdi
	call	__asan_report_store4@PLT
.L81:
	.loc 1 34 131 discriminator 4
	movl	$7, 16(%rax)
	.loc 1 35 16 is_stmt 1 discriminator 4
	movl	$7, %eax
	jmp	.L3
.L74:
	.loc 1 38 16
	leaq	.LC23(%rip), %rax
	movq	%rax, %rdi
	movl	$0, %eax
	call	printf@PLT
	.loc 1 38 77
	call	_ZN6Logger11getInstanceEv@PLT
	movq	%rax, %rdx
	.loc 1 38 83
	leaq	.LC24(%rip), %rax
	movq	%rax, %rsi
	movq	%rdx, %rdi
	movl	$0, %eax
	call	_ZN6Logger3logEPKcz@PLT
	.loc 1 38 123
	call	_ZN6Logger11getInstanceEv@PLT
	movq	%rax, %rdx
	.loc 1 38 129
	leaq	.LC25(%rip), %rax
	movq	%rax, %rsi
	movq	%rdx, %rdi
	movl	$0, %eax
	call	_ZN6Logger3logEPKcz@PLT
	.loc 1 38 155
	call	_ZN6Logger11getInstanceEv@PLT
	movq	%rax, %rdi
	.loc 1 38 208
	movq	-24(%rbp), %rax
	movq	%rax, %rdx
	shrq	$3, %rdx
	addq	$2147450880, %rdx
	movzbl	(%rdx), %edx
	testb	%dl, %dl
	je	.L82
	movq	%rax, %rdi
	call	__asan_report_load8@PLT
.L82:
	movq	-24(%rbp), %rax
	movq	(%rax), %rax
	.loc 1 38 218
	leaq	24(%rax), %rdx
	movq	%rdx, %rcx
	shrq	$3, %rcx
	addq	$2147450880, %rcx
	movzbl	(%rcx), %ecx
	testb	%cl, %cl
	je	.L83
	movq	%rdx, %rdi
	call	__asan_report_load8@PLT
.L83:
	movq	24(%rax), %r8
	.loc 1 38 238
	movq	-24(%rbp), %rax
	addq	$8, %rax
	movq	%rax, %rdx
	movq	%rdx, %rax
	shrq	$3, %rax
	addq	$2147450880, %rax
	movzbl	(%rax), %eax
	testb	%al, %al
	setne	%cl
	cmpb	$3, %al
	setle	%al
	andl	%ecx, %eax
	testb	%al, %al
	je	.L84
	movq	%rdx, %rdi
	call	__asan_report_load4@PLT
.L84:
	movq	-24(%rbp), %rax
	movl	8(%rax), %esi
	.loc 1 38 257
	movq	-24(%rbp), %rax
	movq	(%rax), %rax
	.loc 1 38 267
	leaq	8(%rax), %rdx
	movq	%rdx, %rcx
	movq	%rcx, %rdx
	shrq	$3, %rdx
	addq	$2147450880, %rdx
	movzbl	(%rdx), %edx
	testb	%dl, %dl
	setne	%r9b
	cmpb	$3, %dl
	setle	%dl
	andl	%r9d, %edx
	testb	%dl, %dl
	je	.L85
	movq	%rcx, %rdi
	call	__asan_report_load4@PLT
.L85:
	movl	8(%rax), %eax
	.loc 1 38 286
	cmpl	%eax, %esi
	jge	.L86
	.loc 1 38 295 discriminator 1
	movq	-24(%rbp), %rax
	movq	(%rax), %rax
	.loc 1 38 305 discriminator 1
	movq	%rax, %rdx
	movq	%rdx, %rcx
	shrq	$3, %rcx
	addq	$2147450880, %rcx
	movzbl	(%rcx), %ecx
	testb	%cl, %cl
	je	.L87
	.loc 1 38 305 is_stmt 0
	movq	%rdx, %rdi
	call	__asan_report_load8@PLT
.L87:
	.loc 1 38 305 discriminator 1
	movq	(%rax), %rcx
	.loc 1 38 323 is_stmt 1 discriminator 1
	movq	-24(%rbp), %rax
	movl	8(%rax), %eax
	movslq	%eax, %rdx
	.loc 1 38 315 discriminator 1
	movq	%rdx, %rax
	addq	%rax, %rax
	addq	%rdx, %rax
	salq	$4, %rax
	.loc 1 38 286 discriminator 1
	addq	%rcx, %rax
	jmp	.L88
.L86:
	.loc 1 38 286 is_stmt 0 discriminator 2
	movl	$0, %eax
.L88:
	.loc 1 38 353 is_stmt 1 discriminator 4
	leaq	24(%rax), %rdx
	movq	%rdx, %rcx
	movq	%rcx, %rdx
	shrq	$3, %rdx
	addq	$2147450880, %rdx
	movzbl	(%rdx), %edx
	testb	%dl, %dl
	setne	%sil
	cmpb	$3, %dl
	setle	%dl
	andl	%esi, %edx
	testb	%dl, %dl
	je	.L89
	.loc 1 38 353 is_stmt 0
	movq	%rcx, %rdi
	call	__asan_report_load4@PLT
.L89:
	.loc 1 38 353 discriminator 4
	movl	24(%rax), %eax
	cltq
	.loc 1 38 362 is_stmt 1 discriminator 4
	salq	$3, %rax
	addq	%r8, %rax
	.loc 1 38 173 discriminator 4
	movq	%rax, %rdx
	movq	%rdx, %rcx
	shrq	$3, %rcx
	addq	$2147450880, %rcx
	movzbl	(%rcx), %ecx
	testb	%cl, %cl
	je	.L90
	.loc 1 38 173 is_stmt 0
	movq	%rdx, %rdi
	call	__asan_report_load8@PLT
.L90:
	.loc 1 38 173 discriminator 4
	movq	(%rax), %rax
	movq	%rax, %rdx
	leaq	.LC32(%rip), %rax
	movq	%rax, %rsi
	movl	$0, %eax
	call	_ZN6Logger15log_dup_consoleEPKcz@PLT
	.loc 1 38 379 is_stmt 1 discriminator 4
	movq	-24(%rbp), %rax
	addq	$8, %rax
	movq	%rax, %rdx
	movq	%rdx, %rax
	shrq	$3, %rax
	addq	$2147450880, %rax
	movzbl	(%rax), %eax
	testb	%al, %al
	setne	%cl
	cmpb	$3, %al
	setle	%al
	andl	%ecx, %eax
	testb	%al, %al
	je	.L91
	.loc 1 38 379 is_stmt 0
	movq	%rdx, %rdi
	call	__asan_report_load4@PLT
.L91:
	.loc 1 38 379 discriminator 4
	movq	-24(%rbp), %rax
	movl	8(%rax), %esi
	.loc 1 38 398 is_stmt 1 discriminator 4
	movq	-24(%rbp), %rax
	movq	%rax, %rdx
	shrq	$3, %rdx
	addq	$2147450880, %rdx
	movzbl	(%rdx), %edx
	testb	%dl, %dl
	je	.L92
	.loc 1 38 398 is_stmt 0
	movq	%rax, %rdi
	call	__asan_report_load8@PLT
.L92:
	.loc 1 38 398 discriminator 4
	movq	-24(%rbp), %rax
	movq	(%rax), %rax
	.loc 1 38 408 is_stmt 1 discriminator 4
	leaq	8(%rax), %rdx
	movq	%rdx, %rcx
	movq	%rcx, %rdx
	shrq	$3, %rdx
	addq	$2147450880, %rdx
	movzbl	(%rdx), %edx
	testb	%dl, %dl
	setne	%dil
	cmpb	$3, %dl
	setle	%dl
	andl	%edi, %edx
	testb	%dl, %dl
	je	.L93
	.loc 1 38 408 is_stmt 0
	movq	%rcx, %rdi
	call	__asan_report_load4@PLT
.L93:
	.loc 1 38 408 discriminator 4
	movl	8(%rax), %eax
	.loc 1 38 427 is_stmt 1 discriminator 4
	cmpl	%eax, %esi
	jge	.L94
	.loc 1 38 436 discriminator 5
	movq	-24(%rbp), %rax
	movq	(%rax), %rax
	.loc 1 38 446 discriminator 5
	movq	%rax, %rdx
	movq	%rdx, %rcx
	shrq	$3, %rcx
	addq	$2147450880, %rcx
	movzbl	(%rcx), %ecx
	testb	%cl, %cl
	je	.L95
	.loc 1 38 446 is_stmt 0
	movq	%rdx, %rdi
	call	__asan_report_load8@PLT
.L95:
	.loc 1 38 446 discriminator 5
	movq	(%rax), %rcx
	.loc 1 38 464 is_stmt 1 discriminator 5
	movq	-24(%rbp), %rax
	movl	8(%rax), %eax
	movslq	%eax, %rdx
	.loc 1 38 456 discriminator 5
	movq	%rdx, %rax
	addq	%rax, %rax
	addq	%rdx, %rax
	salq	$4, %rax
	.loc 1 38 427 discriminator 5
	addq	%rcx, %rax
	jmp	.L96
.L94:
	.loc 1 38 427 is_stmt 0 discriminator 6
	movl	$0, %eax
.L96:
	.loc 1 38 366 is_stmt 1 discriminator 8
	testq	%rax, %rax
	jne	.L97
	.loc 1 38 494 discriminator 9
	leaq	.LC27(%rip), %rax
	movq	%rax, %rdi
	call	puts@PLT
	jmp	.L98
.L97:
	.loc 1 38 525 discriminator 10
	leaq	.LC28(%rip), %rax
	movq	%rax, %rdi
	movl	$0, %eax
	call	printf@PLT
	.loc 1 38 744 discriminator 10
	movq	-24(%rbp), %rax
	addq	$8, %rax
	movq	%rax, %rdx
	movq	%rdx, %rax
	shrq	$3, %rax
	addq	$2147450880, %rax
	movzbl	(%rax), %eax
	testb	%al, %al
	setne	%cl
	cmpb	$3, %al
	setle	%al
	andl	%ecx, %eax
	testb	%al, %al
	je	.L99
	.loc 1 38 744 is_stmt 0
	movq	%rdx, %rdi
	call	__asan_report_load4@PLT
.L99:
	.loc 1 38 744 discriminator 10
	movq	-24(%rbp), %rax
	movl	8(%rax), %esi
	.loc 1 38 763 is_stmt 1 discriminator 10
	movq	-24(%rbp), %rax
	movq	%rax, %rdx
	shrq	$3, %rdx
	addq	$2147450880, %rdx
	movzbl	(%rdx), %edx
	testb	%dl, %dl
	je	.L100
	.loc 1 38 763 is_stmt 0
	movq	%rax, %rdi
	call	__asan_report_load8@PLT
.L100:
	.loc 1 38 763 discriminator 10
	movq	-24(%rbp), %rax
	movq	(%rax), %rax
	.loc 1 38 773 is_stmt 1 discriminator 10
	leaq	8(%rax), %rdx
	movq	%rdx, %rcx
	movq	%rcx, %rdx
	shrq	$3, %rdx
	addq	$2147450880, %rdx
	movzbl	(%rdx), %edx
	testb	%dl, %dl
	setne	%dil
	cmpb	$3, %dl
	setle	%dl
	andl	%edi, %edx
	testb	%dl, %dl
	je	.L101
	.loc 1 38 773 is_stmt 0
	movq	%rcx, %rdi
	call	__asan_report_load4@PLT
.L101:
	.loc 1 38 773 discriminator 10
	movl	8(%rax), %eax
	.loc 1 38 792 is_stmt 1 discriminator 10
	cmpl	%eax, %esi
	jge	.L102
	.loc 1 38 801 discriminator 11
	movq	-24(%rbp), %rax
	movq	(%rax), %rax
	.loc 1 38 811 discriminator 11
	movq	%rax, %rdx
	movq	%rdx, %rcx
	shrq	$3, %rcx
	addq	$2147450880, %rcx
	movzbl	(%rcx), %ecx
	testb	%cl, %cl
	je	.L103
	.loc 1 38 811 is_stmt 0
	movq	%rdx, %rdi
	call	__asan_report_load8@PLT
.L103:
	.loc 1 38 811 discriminator 11
	movq	(%rax), %rcx
	.loc 1 38 829 is_stmt 1 discriminator 11
	movq	-24(%rbp), %rax
	movl	8(%rax), %eax
	movslq	%eax, %rdx
	.loc 1 38 821 discriminator 11
	movq	%rdx, %rax
	addq	%rax, %rax
	addq	%rdx, %rax
	salq	$4, %rax
	.loc 1 38 792 discriminator 11
	addq	%rcx, %rax
	jmp	.L104
.L102:
	.loc 1 38 792 is_stmt 0 discriminator 12
	movl	$0, %eax
.L104:
	.loc 1 38 552 is_stmt 1 discriminator 14
	leaq	44(%rax), %rdx
	movq	%rdx, %rcx
	shrq	$3, %rcx
	addq	$2147450880, %rcx
	movzbl	(%rcx), %ecx
	testb	%cl, %cl
	setne	%dil
	movq	%rdx, %rsi
	andl	$7, %esi
	addl	$3, %esi
	cmpb	%cl, %sil
	setge	%cl
	andl	%edi, %ecx
	testb	%cl, %cl
	je	.L105
	.loc 1 38 552 is_stmt 0
	movq	%rdx, %rdi
	call	__asan_report_load4@PLT
.L105:
	.loc 1 38 552 discriminator 14
	movl	44(%rax), %ecx
	.loc 1 38 621 is_stmt 1 discriminator 14
	movq	-24(%rbp), %rax
	addq	$8, %rax
	movq	%rax, %rdx
	movq	%rdx, %rax
	shrq	$3, %rax
	addq	$2147450880, %rax
	movzbl	(%rax), %eax
	testb	%al, %al
	setne	%sil
	cmpb	$3, %al
	setle	%al
	andl	%esi, %eax
	testb	%al, %al
	je	.L106
	.loc 1 38 621 is_stmt 0
	movq	%rdx, %rdi
	call	__asan_report_load4@PLT
.L106:
	.loc 1 38 621 discriminator 14
	movq	-24(%rbp), %rax
	movl	8(%rax), %edi
	.loc 1 38 640 is_stmt 1 discriminator 14
	movq	-24(%rbp), %rax
	movq	%rax, %rdx
	shrq	$3, %rdx
	addq	$2147450880, %rdx
	movzbl	(%rdx), %edx
	testb	%dl, %dl
	je	.L107
	.loc 1 38 640 is_stmt 0
	movq	%rax, %rdi
	call	__asan_report_load8@PLT
.L107:
	.loc 1 38 640 discriminator 14
	movq	-24(%rbp), %rax
	movq	(%rax), %rax
	.loc 1 38 650 is_stmt 1 discriminator 14
	leaq	8(%rax), %rdx
	movq	%rdx, %rsi
	movq	%rsi, %rdx
	shrq	$3, %rdx
	addq	$2147450880, %rdx
	movzbl	(%rdx), %edx
	testb	%dl, %dl
	setne	%r8b
	cmpb	$3, %dl
	setle	%dl
	andl	%r8d, %edx
	testb	%dl, %dl
	je	.L108
	.loc 1 38 650 is_stmt 0
	movq	%rsi, %rdi
	call	__asan_report_load4@PLT
.L108:
	.loc 1 38 650 discriminator 14
	movl	8(%rax), %eax
	.loc 1 38 669 is_stmt 1 discriminator 14
	cmpl	%eax, %edi
	jge	.L109
	.loc 1 38 678 discriminator 15
	movq	-24(%rbp), %rax
	movq	(%rax), %rax
	.loc 1 38 688 discriminator 15
	movq	%rax, %rdx
	movq	%rdx, %rsi
	shrq	$3, %rsi
	addq	$2147450880, %rsi
	movzbl	(%rsi), %esi
	testb	%sil, %sil
	je	.L110
	.loc 1 38 688 is_stmt 0
	movq	%rdx, %rdi
	call	__asan_report_load8@PLT
.L110:
	.loc 1 38 688 discriminator 15
	movq	(%rax), %rsi
	.loc 1 38 706 is_stmt 1 discriminator 15
	movq	-24(%rbp), %rax
	movl	8(%rax), %eax
	movslq	%eax, %rdx
	.loc 1 38 698 discriminator 15
	movq	%rdx, %rax
	addq	%rax, %rax
	addq	%rdx, %rax
	salq	$4, %rax
	.loc 1 38 669 discriminator 15
	addq	%rsi, %rax
	jmp	.L111
.L109:
	.loc 1 38 669 is_stmt 0 discriminator 16
	movl	$0, %eax
.L111:
	.loc 1 38 552 is_stmt 1 discriminator 18
	leaq	40(%rax), %rdx
	movq	%rdx, %rsi
	movq	%rsi, %rdx
	shrq	$3, %rdx
	addq	$2147450880, %rdx
	movzbl	(%rdx), %edx
	testb	%dl, %dl
	setne	%dil
	cmpb	$3, %dl
	setle	%dl
	andl	%edi, %edx
	testb	%dl, %dl
	je	.L112
	.loc 1 38 552 is_stmt 0
	movq	%rsi, %rdi
	call	__asan_report_load4@PLT
.L112:
	.loc 1 38 552 discriminator 18
	movl	40(%rax), %edx
	.loc 1 38 584 is_stmt 1 discriminator 18
	movq	-24(%rbp), %rax
	movq	%rax, %rsi
	shrq	$3, %rsi
	addq	$2147450880, %rsi
	movzbl	(%rsi), %esi
	testb	%sil, %sil
	je	.L113
	.loc 1 38 584 is_stmt 0
	movq	%rax, %rdi
	call	__asan_report_load8@PLT
.L113:
	.loc 1 38 584 discriminator 18
	movq	-24(%rbp), %rax
	movq	(%rax), %rax
	.loc 1 38 595 is_stmt 1 discriminator 18
	leaq	40(%rax), %rsi
	movq	%rsi, %rdi
	shrq	$3, %rdi
	addq	$2147450880, %rdi
	movzbl	(%rdi), %edi
	testb	%dil, %dil
	je	.L114
	.loc 1 38 595 is_stmt 0
	movq	%rsi, %rdi
	call	__asan_report_load8@PLT
.L114:
	.loc 1 38 595 discriminator 18
	movq	40(%rax), %rax
	.loc 1 38 552 is_stmt 1 discriminator 18
	movq	%rax, %rsi
	leaq	.LC29(%rip), %rax
	movq	%rax, %rdi
	movl	$0, %eax
	call	printf@PLT
	.loc 1 38 877 discriminator 18
	movq	-24(%rbp), %rax
	addq	$8, %rax
	movq	%rax, %rdx
	movq	%rdx, %rax
	shrq	$3, %rax
	addq	$2147450880, %rax
	movzbl	(%rax), %eax
	testb	%al, %al
	setne	%cl
	cmpb	$3, %al
	setle	%al
	andl	%ecx, %eax
	testb	%al, %al
	je	.L115
	.loc 1 38 877 is_stmt 0
	movq	%rdx, %rdi
	call	__asan_report_load4@PLT
.L115:
	.loc 1 38 877 discriminator 18
	movq	-24(%rbp), %rax
	movl	8(%rax), %esi
	.loc 1 38 896 is_stmt 1 discriminator 18
	movq	-24(%rbp), %rax
	movq	%rax, %rdx
	shrq	$3, %rdx
	addq	$2147450880, %rdx
	movzbl	(%rdx), %edx
	testb	%dl, %dl
	je	.L116
	.loc 1 38 896 is_stmt 0
	movq	%rax, %rdi
	call	__asan_report_load8@PLT
.L116:
	.loc 1 38 896 discriminator 18
	movq	-24(%rbp), %rax
	movq	(%rax), %rax
	.loc 1 38 906 is_stmt 1 discriminator 18
	leaq	8(%rax), %rdx
	movq	%rdx, %rcx
	movq	%rcx, %rdx
	shrq	$3, %rdx
	addq	$2147450880, %rdx
	movzbl	(%rdx), %edx
	testb	%dl, %dl
	setne	%dil
	cmpb	$3, %dl
	setle	%dl
	andl	%edi, %edx
	testb	%dl, %dl
	je	.L117
	.loc 1 38 906 is_stmt 0
	movq	%rcx, %rdi
	call	__asan_report_load4@PLT
.L117:
	.loc 1 38 906 discriminator 18
	movl	8(%rax), %eax
	.loc 1 38 925 is_stmt 1 discriminator 18
	cmpl	%eax, %esi
	jge	.L118
	.loc 1 38 934 discriminator 19
	movq	-24(%rbp), %rax
	movq	(%rax), %rax
	.loc 1 38 944 discriminator 19
	movq	%rax, %rdx
	movq	%rdx, %rcx
	shrq	$3, %rcx
	addq	$2147450880, %rcx
	movzbl	(%rcx), %ecx
	testb	%cl, %cl
	je	.L119
	.loc 1 38 944 is_stmt 0
	movq	%rdx, %rdi
	call	__asan_report_load8@PLT
.L119:
	.loc 1 38 944 discriminator 19
	movq	(%rax), %rcx
	.loc 1 38 962 is_stmt 1 discriminator 19
	movq	-24(%rbp), %rax
	movl	8(%rax), %eax
	movslq	%eax, %rdx
	.loc 1 38 954 discriminator 19
	movq	%rdx, %rax
	addq	%rax, %rax
	addq	%rdx, %rax
	salq	$4, %rax
	.loc 1 38 925 discriminator 19
	addq	%rcx, %rax
	jmp	.L120
.L118:
	.loc 1 38 925 is_stmt 0 discriminator 20
	movl	$0, %eax
.L120:
	.loc 1 38 868 is_stmt 1 discriminator 22
	leaq	32(%rax), %rdx
	movq	%rdx, %rcx
	shrq	$3, %rcx
	addq	$2147450880, %rcx
	movzbl	(%rcx), %ecx
	testb	%cl, %cl
	je	.L121
	.loc 1 38 868 is_stmt 0
	movq	%rdx, %rdi
	call	__asan_report_load8@PLT
.L121:
	.loc 1 38 868 discriminator 22
	movq	32(%rax), %rax
	movl	$10, %esi
	movq	%rax, %rdi
	call	_Z6printlPKcc@PLT
	.loc 1 38 1016 is_stmt 1 discriminator 22
	leaq	.LC30(%rip), %rax
	movq	%rax, %rdi
	call	puts@PLT
	.loc 1 38 1040 discriminator 22
	leaq	.LC20(%rip), %rax
	movq	%rax, %rcx
	movl	$38, %edx
	leaq	.LC17(%rip), %rax
	movq	%rax, %rsi
	leaq	.LC31(%rip), %rax
	movq	%rax, %rdi
	movl	$0, %eax
	call	printf@PLT
	.loc 1 38 1247 discriminator 22
	movq	-24(%rbp), %rax
	movq	%rax, %rdx
	shrq	$3, %rdx
	addq	$2147450880, %rdx
	movzbl	(%rdx), %edx
	testb	%dl, %dl
	je	.L122
	.loc 1 38 1247 is_stmt 0
	movq	%rax, %rdi
	call	__asan_report_load8@PLT
.L122:
	.loc 1 38 1247 discriminator 22
	movq	-24(%rbp), %rax
	movq	(%rax), %rax
	.loc 1 38 1257 is_stmt 1 discriminator 22
	leaq	24(%rax), %rdx
	movq	%rdx, %rcx
	shrq	$3, %rcx
	addq	$2147450880, %rcx
	movzbl	(%rcx), %ecx
	testb	%cl, %cl
	je	.L123
	.loc 1 38 1257 is_stmt 0
	movq	%rdx, %rdi
	call	__asan_report_load8@PLT
.L123:
	.loc 1 38 1257 discriminator 22
	movq	24(%rax), %rcx
	.loc 1 38 1131 is_stmt 1 discriminator 22
	movq	-24(%rbp), %rax
	addq	$8, %rax
	movq	%rax, %rdx
	movq	%rdx, %rax
	shrq	$3, %rax
	addq	$2147450880, %rax
	movzbl	(%rax), %eax
	testb	%al, %al
	setne	%sil
	cmpb	$3, %al
	setle	%al
	andl	%esi, %eax
	testb	%al, %al
	je	.L124
	.loc 1 38 1131 is_stmt 0
	movq	%rdx, %rdi
	call	__asan_report_load4@PLT
.L124:
	.loc 1 38 1131 discriminator 22
	movq	-24(%rbp), %rax
	movl	8(%rax), %edi
	.loc 1 38 1150 is_stmt 1 discriminator 22
	movq	-24(%rbp), %rax
	movq	(%rax), %rax
	.loc 1 38 1160 discriminator 22
	leaq	8(%rax), %rdx
	movq	%rdx, %rsi
	movq	%rsi, %rdx
	shrq	$3, %rdx
	addq	$2147450880, %rdx
	movzbl	(%rdx), %edx
	testb	%dl, %dl
	setne	%r8b
	cmpb	$3, %dl
	setle	%dl
	andl	%r8d, %edx
	testb	%dl, %dl
	je	.L125
	.loc 1 38 1160 is_stmt 0
	movq	%rsi, %rdi
	call	__asan_report_load4@PLT
.L125:
	.loc 1 38 1160 discriminator 22
	movl	8(%rax), %eax
	.loc 1 38 1122 is_stmt 1 discriminator 22
	cmpl	%eax, %edi
	jge	.L126
	.loc 1 38 1188 discriminator 23
	movq	-24(%rbp), %rax
	movq	(%rax), %rax
	.loc 1 38 1198 discriminator 23
	movq	%rax, %rdx
	movq	%rdx, %rsi
	shrq	$3, %rsi
	addq	$2147450880, %rsi
	movzbl	(%rsi), %esi
	testb	%sil, %sil
	je	.L127
	.loc 1 38 1198 is_stmt 0
	movq	%rdx, %rdi
	call	__asan_report_load8@PLT
.L127:
	.loc 1 38 1198 discriminator 23
	movq	(%rax), %rsi
	.loc 1 38 1216 is_stmt 1 discriminator 23
	movq	-24(%rbp), %rax
	movl	8(%rax), %eax
	movslq	%eax, %rdx
	.loc 1 38 1208 discriminator 23
	movq	%rdx, %rax
	addq	%rax, %rax
	addq	%rdx, %rax
	salq	$4, %rax
	.loc 1 38 1122 discriminator 23
	addq	%rsi, %rax
	jmp	.L128
.L126:
	.loc 1 38 1122 is_stmt 0 discriminator 24
	movl	$0, %eax
.L128:
	.loc 1 38 1122 discriminator 26
	movq	%rcx, %rsi
	movq	%rax, %rdi
	call	_Z10PrintTokenPK5TokenPPKc@PLT
.L98:
	.loc 1 40 12 is_stmt 1
	movl	$-111, %eax
.L3:
	.loc 1 41 5
	movq	-8(%rbp), %rbx
	leave
	.cfi_def_cfa 7, 8
	ret
	.cfi_endproc
.LFE2270:
	.size	_ZL10DefineNameP12SyntacticCtx, .-_ZL10DefineNameP12SyntacticCtx
	.section	.rodata
	.align 32
.LC33:
	.string	"int MakeFuncLabel(SyntacticCtx*, Token**)"
	.zero	54
	.align 32
.LC34:
	.string	"MakeFuncLabel"
	.zero	50
	.align 32
.LC35:
	.string	"No return type in function\n"
	.zero	36
	.align 32
.LC36:
	.string	"No function name\n"
	.zero	46
	.align 32
.LC37:
	.string	"Missing '(' in function head\n"
	.zero	34
	.align 32
.LC38:
	.string	"Missing ')' in function head\n"
	.zero	34
	.align 32
.LC39:
	.string	"\033[95mWarning, no prototype for function '%s'\n"
	.zero	50
	.align 32
.LC40:
	.string	"To do, add warning system"
	.zero	38
	.align 32
.LC41:
	.string	"Ebat, '%s' shadows previous declaration\n"
	.zero	55
	.align 32
.LC42:
	.string	"Something went wrong, (null prev declaration ptr)\n"
	.zero	45
	.align 32
.LC43:
	.string	"Prototype is different from function\n"
	.zero	58
	.align 32
.LC44:
	.string	"position"
	.zero	55
	.align 32
.LC45:
	.string	"\t%s: %d\n"
	.zero	55
	.text
	.type	_ZL13MakeFuncLabelP12SyntacticCtxPP5Token, @function
_ZL13MakeFuncLabelP12SyntacticCtxPP5Token:
.LASANPC2271:
.LFB2271:
	.loc 1 44 5
	.cfi_startproc
	endbr64
	pushq	%rbp
	.cfi_def_cfa_offset 16
	.cfi_offset 6, -16
	movq	%rsp, %rbp
	.cfi_def_cfa_register 6
	pushq	%rbx
	subq	$72, %rsp
	.cfi_offset 3, -24
	movq	%rdi, -72(%rbp)
	movq	%rsi, -80(%rbp)
	.loc 1 45 10
	cmpq	$0, -72(%rbp)
	jne	.L130
	.loc 1 45 43 discriminator 1
	call	_ZN6Logger11getInstanceEv@PLT
	movq	%rax, %rcx
	.loc 1 45 49 discriminator 1
	leaq	.LC13(%rip), %rax
	movq	%rax, %rdx
	leaq	.LC14(%rip), %rax
	movq	%rax, %rsi
	movq	%rcx, %rdi
	movl	$0, %eax
	call	_ZN6Logger3logEPKcz@PLT
	.loc 1 45 105 discriminator 1
	leaq	.LC13(%rip), %rax
	movq	%rax, %rsi
	leaq	.LC15(%rip), %rax
	movq	%rax, %rdi
	movl	$0, %eax
	call	printf@PLT
	.loc 1 45 249 discriminator 1
	call	_ZN6Logger11getInstanceEv@PLT
	movq	%rax, %rdi
	.loc 1 45 255 discriminator 1
	leaq	.LC33(%rip), %r8
	movl	$45, %ecx
	leaq	.LC17(%rip), %rax
	movq	%rax, %rdx
	leaq	.LC18(%rip), %rax
	movq	%rax, %rsi
	movl	$0, %eax
	call	_ZN6Logger3logEPKcz@PLT
	.loc 1 45 356 discriminator 1
	leaq	.LC33(%rip), %rax
	movq	%rax, %rcx
	movl	$45, %edx
	leaq	.LC17(%rip), %rax
	movq	%rax, %rsi
	leaq	.LC18(%rip), %rax
	movq	%rax, %rdi
	movl	$0, %eax
	call	printf@PLT
	.loc 1 45 470 discriminator 1
	call	_ZN6Logger11getInstanceEv@PLT
	movq	%rax, %rbx
	.loc 1 45 476 discriminator 1
	movl	$14, %edi
	call	strerror@PLT
	movq	%rax, %rcx
	movl	$14, %edx
	leaq	.LC19(%rip), %rax
	movq	%rax, %rsi
	movq	%rbx, %rdi
	movl	$0, %eax
	call	_ZN6Logger3logEPKcz@PLT
	.loc 1 45 27 discriminator 1
	call	_ZN6Logger11getInstanceEv@PLT
	movq	%rax, %rdi
	.loc 1 45 33 discriminator 1
	movl	$45, %ecx
	leaq	.LC34(%rip), %rax
	movq	%rax, %rdx
	leaq	.LC21(%rip), %rax
	movq	%rax, %rsi
	movl	$0, %eax
	call	_ZN6Logger3logEPKcz@PLT
	.loc 1 45 91 discriminator 1
	leaq	.LC22(%rip), %rax
	movq	%rax, %rdi
	call	system@PLT
	.loc 1 45 114 discriminator 1
	movl	$-2, %eax
	jmp	.L131
.L130:
	.loc 1 47 17
	movq	-72(%rbp), %rax
	addq	$8, %rax
	movq	%rax, %rdx
	movq	%rdx, %rax
	shrq	$3, %rax
	addq	$2147450880, %rax
	movzbl	(%rax), %eax
	testb	%al, %al
	setne	%cl
	cmpb	$3, %al
	setle	%al
	andl	%ecx, %eax
	testb	%al, %al
	je	.L132
	movq	%rdx, %rdi
	call	__asan_report_load4@PLT
.L132:
	movq	-72(%rbp), %rax
	movl	8(%rax), %esi
	.loc 1 47 36
	movq	-72(%rbp), %rax
	movq	%rax, %rdx
	shrq	$3, %rdx
	addq	$2147450880, %rdx
	movzbl	(%rdx), %edx
	testb	%dl, %dl
	je	.L133
	movq	%rax, %rdi
	call	__asan_report_load8@PLT
.L133:
	movq	-72(%rbp), %rax
	movq	(%rax), %rax
	.loc 1 47 46
	leaq	8(%rax), %rdx
	movq	%rdx, %rcx
	movq	%rcx, %rdx
	shrq	$3, %rdx
	addq	$2147450880, %rdx
	movzbl	(%rdx), %edx
	testb	%dl, %dl
	setne	%dil
	cmpb	$3, %dl
	setle	%dl
	andl	%edi, %edx
	testb	%dl, %dl
	je	.L134
	movq	%rcx, %rdi
	call	__asan_report_load4@PLT
.L134:
	movl	8(%rax), %eax
	.loc 1 47 65
	cmpl	%eax, %esi
	jge	.L135
	.loc 1 47 74 discriminator 1
	movq	-72(%rbp), %rax
	movq	(%rax), %rax
	.loc 1 47 84 discriminator 1
	movq	%rax, %rdx
	movq	%rdx, %rcx
	shrq	$3, %rcx
	addq	$2147450880, %rcx
	movzbl	(%rcx), %ecx
	testb	%cl, %cl
	je	.L136
	.loc 1 47 84 is_stmt 0
	movq	%rdx, %rdi
	call	__asan_report_load8@PLT
.L136:
	.loc 1 47 84 discriminator 1
	movq	(%rax), %rcx
	.loc 1 47 102 is_stmt 1 discriminator 1
	movq	-72(%rbp), %rax
	movl	8(%rax), %eax
	movslq	%eax, %rdx
	.loc 1 47 94 discriminator 1
	movq	%rdx, %rax
	addq	%rax, %rax
	addq	%rdx, %rax
	salq	$4, %rax
	.loc 1 47 65 discriminator 1
	addq	%rcx, %rax
	jmp	.L137
.L135:
	.loc 1 47 65 is_stmt 0 discriminator 2
	movl	$0, %eax
.L137:
	.loc 1 47 126 is_stmt 1 discriminator 4
	leaq	16(%rax), %rdx
	movq	%rdx, %rcx
	movq	%rcx, %rdx
	shrq	$3, %rdx
	addq	$2147450880, %rdx
	movzbl	(%rdx), %edx
	testb	%dl, %dl
	setne	%sil
	cmpb	$3, %dl
	setle	%dl
	andl	%esi, %edx
	testb	%dl, %dl
	je	.L138
	.loc 1 47 126 is_stmt 0
	movq	%rcx, %rdi
	call	__asan_report_load4@PLT
.L138:
	.loc 1 47 126 discriminator 4
	movl	16(%rax), %eax
	.loc 1 47 5 is_stmt 1 discriminator 4
	cmpl	$4, %eax
	je	.L139
	.loc 1 49 20
	leaq	.LC23(%rip), %rax
	movq	%rax, %rdi
	movl	$0, %eax
	call	printf@PLT
	.loc 1 49 81
	call	_ZN6Logger11getInstanceEv@PLT
	movq	%rax, %rdx
	.loc 1 49 87
	leaq	.LC24(%rip), %rax
	movq	%rax, %rsi
	movq	%rdx, %rdi
	movl	$0, %eax
	call	_ZN6Logger3logEPKcz@PLT
	.loc 1 49 127
	call	_ZN6Logger11getInstanceEv@PLT
	movq	%rax, %rdx
	.loc 1 49 133
	leaq	.LC25(%rip), %rax
	movq	%rax, %rsi
	movq	%rdx, %rdi
	movl	$0, %eax
	call	_ZN6Logger3logEPKcz@PLT
	.loc 1 49 159
	call	_ZN6Logger11getInstanceEv@PLT
	movq	%rax, %rdx
	.loc 1 49 177
	leaq	.LC35(%rip), %rax
	movq	%rax, %rsi
	movq	%rdx, %rdi
	movl	$0, %eax
	call	_ZN6Logger15log_dup_consoleEPKcz@PLT
	.loc 1 49 225
	movq	-72(%rbp), %rax
	addq	$8, %rax
	movq	%rax, %rdx
	movq	%rdx, %rax
	shrq	$3, %rax
	addq	$2147450880, %rax
	movzbl	(%rax), %eax
	testb	%al, %al
	setne	%cl
	cmpb	$3, %al
	setle	%al
	andl	%ecx, %eax
	testb	%al, %al
	je	.L140
	movq	%rdx, %rdi
	call	__asan_report_load4@PLT
.L140:
	movq	-72(%rbp), %rax
	movl	8(%rax), %esi
	.loc 1 49 244
	movq	-72(%rbp), %rax
	movq	%rax, %rdx
	shrq	$3, %rdx
	addq	$2147450880, %rdx
	movzbl	(%rdx), %edx
	testb	%dl, %dl
	je	.L141
	movq	%rax, %rdi
	call	__asan_report_load8@PLT
.L141:
	movq	-72(%rbp), %rax
	movq	(%rax), %rax
	.loc 1 49 254
	leaq	8(%rax), %rdx
	movq	%rdx, %rcx
	movq	%rcx, %rdx
	shrq	$3, %rdx
	addq	$2147450880, %rdx
	movzbl	(%rdx), %edx
	testb	%dl, %dl
	setne	%dil
	cmpb	$3, %dl
	setle	%dl
	andl	%edi, %edx
	testb	%dl, %dl
	je	.L142
	movq	%rcx, %rdi
	call	__asan_report_load4@PLT
.L142:
	movl	8(%rax), %eax
	.loc 1 49 273
	cmpl	%eax, %esi
	jge	.L143
	.loc 1 49 282 discriminator 1
	movq	-72(%rbp), %rax
	movq	(%rax), %rax
	.loc 1 49 292 discriminator 1
	movq	%rax, %rdx
	movq	%rdx, %rcx
	shrq	$3, %rcx
	addq	$2147450880, %rcx
	movzbl	(%rcx), %ecx
	testb	%cl, %cl
	je	.L144
	.loc 1 49 292 is_stmt 0
	movq	%rdx, %rdi
	call	__asan_report_load8@PLT
.L144:
	.loc 1 49 292 discriminator 1
	movq	(%rax), %rcx
	.loc 1 49 310 is_stmt 1 discriminator 1
	movq	-72(%rbp), %rax
	movl	8(%rax), %eax
	movslq	%eax, %rdx
	.loc 1 49 302 discriminator 1
	movq	%rdx, %rax
	addq	%rax, %rax
	addq	%rdx, %rax
	salq	$4, %rax
	.loc 1 49 273 discriminator 1
	addq	%rcx, %rax
	jmp	.L145
.L143:
	.loc 1 49 273 is_stmt 0 discriminator 2
	movl	$0, %eax
.L145:
	.loc 1 49 212 is_stmt 1 discriminator 4
	testq	%rax, %rax
	jne	.L146
	.loc 1 49 340 discriminator 5
	leaq	.LC27(%rip), %rax
	movq	%rax, %rdi
	call	puts@PLT
	jmp	.L147
.L146:
	.loc 1 49 371 discriminator 6
	leaq	.LC28(%rip), %rax
	movq	%rax, %rdi
	movl	$0, %eax
	call	printf@PLT
	.loc 1 49 590 discriminator 6
	movq	-72(%rbp), %rax
	addq	$8, %rax
	movq	%rax, %rdx
	movq	%rdx, %rax
	shrq	$3, %rax
	addq	$2147450880, %rax
	movzbl	(%rax), %eax
	testb	%al, %al
	setne	%cl
	cmpb	$3, %al
	setle	%al
	andl	%ecx, %eax
	testb	%al, %al
	je	.L148
	.loc 1 49 590 is_stmt 0
	movq	%rdx, %rdi
	call	__asan_report_load4@PLT
.L148:
	.loc 1 49 590 discriminator 6
	movq	-72(%rbp), %rax
	movl	8(%rax), %esi
	.loc 1 49 609 is_stmt 1 discriminator 6
	movq	-72(%rbp), %rax
	movq	%rax, %rdx
	shrq	$3, %rdx
	addq	$2147450880, %rdx
	movzbl	(%rdx), %edx
	testb	%dl, %dl
	je	.L149
	.loc 1 49 609 is_stmt 0
	movq	%rax, %rdi
	call	__asan_report_load8@PLT
.L149:
	.loc 1 49 609 discriminator 6
	movq	-72(%rbp), %rax
	movq	(%rax), %rax
	.loc 1 49 619 is_stmt 1 discriminator 6
	leaq	8(%rax), %rdx
	movq	%rdx, %rcx
	movq	%rcx, %rdx
	shrq	$3, %rdx
	addq	$2147450880, %rdx
	movzbl	(%rdx), %edx
	testb	%dl, %dl
	setne	%dil
	cmpb	$3, %dl
	setle	%dl
	andl	%edi, %edx
	testb	%dl, %dl
	je	.L150
	.loc 1 49 619 is_stmt 0
	movq	%rcx, %rdi
	call	__asan_report_load4@PLT
.L150:
	.loc 1 49 619 discriminator 6
	movl	8(%rax), %eax
	.loc 1 49 638 is_stmt 1 discriminator 6
	cmpl	%eax, %esi
	jge	.L151
	.loc 1 49 647 discriminator 7
	movq	-72(%rbp), %rax
	movq	(%rax), %rax
	.loc 1 49 657 discriminator 7
	movq	%rax, %rdx
	movq	%rdx, %rcx
	shrq	$3, %rcx
	addq	$2147450880, %rcx
	movzbl	(%rcx), %ecx
	testb	%cl, %cl
	je	.L152
	.loc 1 49 657 is_stmt 0
	movq	%rdx, %rdi
	call	__asan_report_load8@PLT
.L152:
	.loc 1 49 657 discriminator 7
	movq	(%rax), %rcx
	.loc 1 49 675 is_stmt 1 discriminator 7
	movq	-72(%rbp), %rax
	movl	8(%rax), %eax
	movslq	%eax, %rdx
	.loc 1 49 667 discriminator 7
	movq	%rdx, %rax
	addq	%rax, %rax
	addq	%rdx, %rax
	salq	$4, %rax
	.loc 1 49 638 discriminator 7
	addq	%rcx, %rax
	jmp	.L153
.L151:
	.loc 1 49 638 is_stmt 0 discriminator 8
	movl	$0, %eax
.L153:
	.loc 1 49 398 is_stmt 1 discriminator 10
	leaq	44(%rax), %rdx
	movq	%rdx, %rcx
	shrq	$3, %rcx
	addq	$2147450880, %rcx
	movzbl	(%rcx), %ecx
	testb	%cl, %cl
	setne	%dil
	movq	%rdx, %rsi
	andl	$7, %esi
	addl	$3, %esi
	cmpb	%cl, %sil
	setge	%cl
	andl	%edi, %ecx
	testb	%cl, %cl
	je	.L154
	.loc 1 49 398 is_stmt 0
	movq	%rdx, %rdi
	call	__asan_report_load4@PLT
.L154:
	.loc 1 49 398 discriminator 10
	movl	44(%rax), %ecx
	.loc 1 49 467 is_stmt 1 discriminator 10
	movq	-72(%rbp), %rax
	addq	$8, %rax
	movq	%rax, %rdx
	movq	%rdx, %rax
	shrq	$3, %rax
	addq	$2147450880, %rax
	movzbl	(%rax), %eax
	testb	%al, %al
	setne	%sil
	cmpb	$3, %al
	setle	%al
	andl	%esi, %eax
	testb	%al, %al
	je	.L155
	.loc 1 49 467 is_stmt 0
	movq	%rdx, %rdi
	call	__asan_report_load4@PLT
.L155:
	.loc 1 49 467 discriminator 10
	movq	-72(%rbp), %rax
	movl	8(%rax), %edi
	.loc 1 49 486 is_stmt 1 discriminator 10
	movq	-72(%rbp), %rax
	movq	%rax, %rdx
	shrq	$3, %rdx
	addq	$2147450880, %rdx
	movzbl	(%rdx), %edx
	testb	%dl, %dl
	je	.L156
	.loc 1 49 486 is_stmt 0
	movq	%rax, %rdi
	call	__asan_report_load8@PLT
.L156:
	.loc 1 49 486 discriminator 10
	movq	-72(%rbp), %rax
	movq	(%rax), %rax
	.loc 1 49 496 is_stmt 1 discriminator 10
	leaq	8(%rax), %rdx
	movq	%rdx, %rsi
	movq	%rsi, %rdx
	shrq	$3, %rdx
	addq	$2147450880, %rdx
	movzbl	(%rdx), %edx
	testb	%dl, %dl
	setne	%r8b
	cmpb	$3, %dl
	setle	%dl
	andl	%r8d, %edx
	testb	%dl, %dl
	je	.L157
	.loc 1 49 496 is_stmt 0
	movq	%rsi, %rdi
	call	__asan_report_load4@PLT
.L157:
	.loc 1 49 496 discriminator 10
	movl	8(%rax), %eax
	.loc 1 49 515 is_stmt 1 discriminator 10
	cmpl	%eax, %edi
	jge	.L158
	.loc 1 49 524 discriminator 11
	movq	-72(%rbp), %rax
	movq	(%rax), %rax
	.loc 1 49 534 discriminator 11
	movq	%rax, %rdx
	movq	%rdx, %rsi
	shrq	$3, %rsi
	addq	$2147450880, %rsi
	movzbl	(%rsi), %esi
	testb	%sil, %sil
	je	.L159
	.loc 1 49 534 is_stmt 0
	movq	%rdx, %rdi
	call	__asan_report_load8@PLT
.L159:
	.loc 1 49 534 discriminator 11
	movq	(%rax), %rsi
	.loc 1 49 552 is_stmt 1 discriminator 11
	movq	-72(%rbp), %rax
	movl	8(%rax), %eax
	movslq	%eax, %rdx
	.loc 1 49 544 discriminator 11
	movq	%rdx, %rax
	addq	%rax, %rax
	addq	%rdx, %rax
	salq	$4, %rax
	.loc 1 49 515 discriminator 11
	addq	%rsi, %rax
	jmp	.L160
.L158:
	.loc 1 49 515 is_stmt 0 discriminator 12
	movl	$0, %eax
.L160:
	.loc 1 49 398 is_stmt 1 discriminator 14
	leaq	40(%rax), %rdx
	movq	%rdx, %rsi
	movq	%rsi, %rdx
	shrq	$3, %rdx
	addq	$2147450880, %rdx
	movzbl	(%rdx), %edx
	testb	%dl, %dl
	setne	%dil
	cmpb	$3, %dl
	setle	%dl
	andl	%edi, %edx
	testb	%dl, %dl
	je	.L161
	.loc 1 49 398 is_stmt 0
	movq	%rsi, %rdi
	call	__asan_report_load4@PLT
.L161:
	.loc 1 49 398 discriminator 14
	movl	40(%rax), %edx
	.loc 1 49 430 is_stmt 1 discriminator 14
	movq	-72(%rbp), %rax
	movq	%rax, %rsi
	shrq	$3, %rsi
	addq	$2147450880, %rsi
	movzbl	(%rsi), %esi
	testb	%sil, %sil
	je	.L162
	.loc 1 49 430 is_stmt 0
	movq	%rax, %rdi
	call	__asan_report_load8@PLT
.L162:
	.loc 1 49 430 discriminator 14
	movq	-72(%rbp), %rax
	movq	(%rax), %rax
	.loc 1 49 441 is_stmt 1 discriminator 14
	leaq	40(%rax), %rsi
	movq	%rsi, %rdi
	shrq	$3, %rdi
	addq	$2147450880, %rdi
	movzbl	(%rdi), %edi
	testb	%dil, %dil
	je	.L163
	.loc 1 49 441 is_stmt 0
	movq	%rsi, %rdi
	call	__asan_report_load8@PLT
.L163:
	.loc 1 49 441 discriminator 14
	movq	40(%rax), %rax
	.loc 1 49 398 is_stmt 1 discriminator 14
	movq	%rax, %rsi
	leaq	.LC29(%rip), %rax
	movq	%rax, %rdi
	movl	$0, %eax
	call	printf@PLT
	.loc 1 49 723 discriminator 14
	movq	-72(%rbp), %rax
	addq	$8, %rax
	movq	%rax, %rdx
	movq	%rdx, %rax
	shrq	$3, %rax
	addq	$2147450880, %rax
	movzbl	(%rax), %eax
	testb	%al, %al
	setne	%cl
	cmpb	$3, %al
	setle	%al
	andl	%ecx, %eax
	testb	%al, %al
	je	.L164
	.loc 1 49 723 is_stmt 0
	movq	%rdx, %rdi
	call	__asan_report_load4@PLT
.L164:
	.loc 1 49 723 discriminator 14
	movq	-72(%rbp), %rax
	movl	8(%rax), %esi
	.loc 1 49 742 is_stmt 1 discriminator 14
	movq	-72(%rbp), %rax
	movq	%rax, %rdx
	shrq	$3, %rdx
	addq	$2147450880, %rdx
	movzbl	(%rdx), %edx
	testb	%dl, %dl
	je	.L165
	.loc 1 49 742 is_stmt 0
	movq	%rax, %rdi
	call	__asan_report_load8@PLT
.L165:
	.loc 1 49 742 discriminator 14
	movq	-72(%rbp), %rax
	movq	(%rax), %rax
	.loc 1 49 752 is_stmt 1 discriminator 14
	leaq	8(%rax), %rdx
	movq	%rdx, %rcx
	movq	%rcx, %rdx
	shrq	$3, %rdx
	addq	$2147450880, %rdx
	movzbl	(%rdx), %edx
	testb	%dl, %dl
	setne	%dil
	cmpb	$3, %dl
	setle	%dl
	andl	%edi, %edx
	testb	%dl, %dl
	je	.L166
	.loc 1 49 752 is_stmt 0
	movq	%rcx, %rdi
	call	__asan_report_load4@PLT
.L166:
	.loc 1 49 752 discriminator 14
	movl	8(%rax), %eax
	.loc 1 49 771 is_stmt 1 discriminator 14
	cmpl	%eax, %esi
	jge	.L167
	.loc 1 49 780 discriminator 15
	movq	-72(%rbp), %rax
	movq	(%rax), %rax
	.loc 1 49 790 discriminator 15
	movq	%rax, %rdx
	movq	%rdx, %rcx
	shrq	$3, %rcx
	addq	$2147450880, %rcx
	movzbl	(%rcx), %ecx
	testb	%cl, %cl
	je	.L168
	.loc 1 49 790 is_stmt 0
	movq	%rdx, %rdi
	call	__asan_report_load8@PLT
.L168:
	.loc 1 49 790 discriminator 15
	movq	(%rax), %rcx
	.loc 1 49 808 is_stmt 1 discriminator 15
	movq	-72(%rbp), %rax
	movl	8(%rax), %eax
	movslq	%eax, %rdx
	.loc 1 49 800 discriminator 15
	movq	%rdx, %rax
	addq	%rax, %rax
	addq	%rdx, %rax
	salq	$4, %rax
	.loc 1 49 771 discriminator 15
	addq	%rcx, %rax
	jmp	.L169
.L167:
	.loc 1 49 771 is_stmt 0 discriminator 16
	movl	$0, %eax
.L169:
	.loc 1 49 714 is_stmt 1 discriminator 18
	leaq	32(%rax), %rdx
	movq	%rdx, %rcx
	shrq	$3, %rcx
	addq	$2147450880, %rcx
	movzbl	(%rcx), %ecx
	testb	%cl, %cl
	je	.L170
	.loc 1 49 714 is_stmt 0
	movq	%rdx, %rdi
	call	__asan_report_load8@PLT
.L170:
	.loc 1 49 714 discriminator 18
	movq	32(%rax), %rax
	movl	$10, %esi
	movq	%rax, %rdi
	call	_Z6printlPKcc@PLT
	.loc 1 49 862 is_stmt 1 discriminator 18
	leaq	.LC30(%rip), %rax
	movq	%rax, %rdi
	call	puts@PLT
	.loc 1 49 886 discriminator 18
	leaq	.LC34(%rip), %rax
	movq	%rax, %rcx
	movl	$49, %edx
	leaq	.LC17(%rip), %rax
	movq	%rax, %rsi
	leaq	.LC31(%rip), %rax
	movq	%rax, %rdi
	movl	$0, %eax
	call	printf@PLT
	.loc 1 49 1093 discriminator 18
	movq	-72(%rbp), %rax
	movq	%rax, %rdx
	shrq	$3, %rdx
	addq	$2147450880, %rdx
	movzbl	(%rdx), %edx
	testb	%dl, %dl
	je	.L171
	.loc 1 49 1093 is_stmt 0
	movq	%rax, %rdi
	call	__asan_report_load8@PLT
.L171:
	.loc 1 49 1093 discriminator 18
	movq	-72(%rbp), %rax
	movq	(%rax), %rax
	.loc 1 49 1103 is_stmt 1 discriminator 18
	leaq	24(%rax), %rdx
	movq	%rdx, %rcx
	shrq	$3, %rcx
	addq	$2147450880, %rcx
	movzbl	(%rcx), %ecx
	testb	%cl, %cl
	je	.L172
	.loc 1 49 1103 is_stmt 0
	movq	%rdx, %rdi
	call	__asan_report_load8@PLT
.L172:
	.loc 1 49 1103 discriminator 18
	movq	24(%rax), %rcx
	.loc 1 49 977 is_stmt 1 discriminator 18
	movq	-72(%rbp), %rax
	addq	$8, %rax
	movq	%rax, %rdx
	movq	%rdx, %rax
	shrq	$3, %rax
	addq	$2147450880, %rax
	movzbl	(%rax), %eax
	testb	%al, %al
	setne	%sil
	cmpb	$3, %al
	setle	%al
	andl	%esi, %eax
	testb	%al, %al
	je	.L173
	.loc 1 49 977 is_stmt 0
	movq	%rdx, %rdi
	call	__asan_report_load4@PLT
.L173:
	.loc 1 49 977 discriminator 18
	movq	-72(%rbp), %rax
	movl	8(%rax), %edi
	.loc 1 49 996 is_stmt 1 discriminator 18
	movq	-72(%rbp), %rax
	movq	(%rax), %rax
	.loc 1 49 1006 discriminator 18
	leaq	8(%rax), %rdx
	movq	%rdx, %rsi
	movq	%rsi, %rdx
	shrq	$3, %rdx
	addq	$2147450880, %rdx
	movzbl	(%rdx), %edx
	testb	%dl, %dl
	setne	%r8b
	cmpb	$3, %dl
	setle	%dl
	andl	%r8d, %edx
	testb	%dl, %dl
	je	.L174
	.loc 1 49 1006 is_stmt 0
	movq	%rsi, %rdi
	call	__asan_report_load4@PLT
.L174:
	.loc 1 49 1006 discriminator 18
	movl	8(%rax), %eax
	.loc 1 49 968 is_stmt 1 discriminator 18
	cmpl	%eax, %edi
	jge	.L175
	.loc 1 49 1034 discriminator 19
	movq	-72(%rbp), %rax
	movq	(%rax), %rax
	.loc 1 49 1044 discriminator 19
	movq	%rax, %rdx
	movq	%rdx, %rsi
	shrq	$3, %rsi
	addq	$2147450880, %rsi
	movzbl	(%rsi), %esi
	testb	%sil, %sil
	je	.L176
	.loc 1 49 1044 is_stmt 0
	movq	%rdx, %rdi
	call	__asan_report_load8@PLT
.L176:
	.loc 1 49 1044 discriminator 19
	movq	(%rax), %rsi
	.loc 1 49 1062 is_stmt 1 discriminator 19
	movq	-72(%rbp), %rax
	movl	8(%rax), %eax
	movslq	%eax, %rdx
	.loc 1 49 1054 discriminator 19
	movq	%rdx, %rax
	addq	%rax, %rax
	addq	%rdx, %rax
	salq	$4, %rax
	.loc 1 49 968 discriminator 19
	addq	%rsi, %rax
	jmp	.L177
.L175:
	.loc 1 49 968 is_stmt 0 discriminator 20
	movl	$0, %eax
.L177:
	.loc 1 49 968 discriminator 22
	movq	%rcx, %rsi
	movq	%rax, %rdi
	call	_Z10PrintTokenPK5TokenPPKc@PLT
.L147:
	.loc 1 50 16 is_stmt 1
	movl	$-1, %eax
	jmp	.L131
.L139:
	.loc 1 53 31
	movq	-72(%rbp), %rax
	addq	$8, %rax
	movq	%rax, %rdx
	movq	%rdx, %rax
	shrq	$3, %rax
	addq	$2147450880, %rax
	movzbl	(%rax), %eax
	testb	%al, %al
	setne	%cl
	cmpb	$3, %al
	setle	%al
	andl	%ecx, %eax
	testb	%al, %al
	je	.L178
	movq	%rdx, %rdi
	call	__asan_report_load4@PLT
.L178:
	movq	-72(%rbp), %rax
	movl	8(%rax), %esi
	.loc 1 53 50
	movq	-72(%rbp), %rax
	movq	%rax, %rdx
	shrq	$3, %rdx
	addq	$2147450880, %rdx
	movzbl	(%rdx), %edx
	testb	%dl, %dl
	je	.L179
	movq	%rax, %rdi
	call	__asan_report_load8@PLT
.L179:
	movq	-72(%rbp), %rax
	movq	(%rax), %rax
	.loc 1 53 60
	leaq	8(%rax), %rdx
	movq	%rdx, %rcx
	movq	%rcx, %rdx
	shrq	$3, %rdx
	addq	$2147450880, %rdx
	movzbl	(%rdx), %edx
	testb	%dl, %dl
	setne	%dil
	cmpb	$3, %dl
	setle	%dl
	andl	%edi, %edx
	testb	%dl, %dl
	je	.L180
	movq	%rcx, %rdi
	call	__asan_report_load4@PLT
.L180:
	movl	8(%rax), %eax
	.loc 1 53 79
	cmpl	%eax, %esi
	jge	.L181
	.loc 1 53 88 discriminator 1
	movq	-72(%rbp), %rax
	movq	(%rax), %rax
	.loc 1 53 98 discriminator 1
	movq	%rax, %rdx
	movq	%rdx, %rcx
	shrq	$3, %rcx
	addq	$2147450880, %rcx
	movzbl	(%rcx), %ecx
	testb	%cl, %cl
	je	.L182
	.loc 1 53 98 is_stmt 0
	movq	%rdx, %rdi
	call	__asan_report_load8@PLT
.L182:
	.loc 1 53 98 discriminator 1
	movq	(%rax), %rcx
	.loc 1 53 116 is_stmt 1 discriminator 1
	movq	-72(%rbp), %rax
	movl	8(%rax), %eax
	movslq	%eax, %rdx
	.loc 1 53 108 discriminator 1
	movq	%rdx, %rax
	addq	%rax, %rax
	addq	%rdx, %rax
	salq	$4, %rax
	.loc 1 53 79 discriminator 1
	addq	%rcx, %rax
	jmp	.L183
.L181:
	.loc 1 53 79 is_stmt 0 discriminator 2
	movl	$0, %eax
.L183:
	.loc 1 53 12 is_stmt 1 discriminator 4
	movq	%rax, -56(%rbp)
	.loc 1 54 11 discriminator 4
	movq	-72(%rbp), %rax
	addq	$8, %rax
	movq	%rax, %rdx
	movq	%rdx, %rax
	shrq	$3, %rax
	addq	$2147450880, %rax
	movzbl	(%rax), %eax
	testb	%al, %al
	setne	%cl
	cmpb	$3, %al
	setle	%al
	andl	%ecx, %eax
	testb	%al, %al
	je	.L184
	.loc 1 54 11 is_stmt 0
	movq	%rdx, %rdi
	call	__asan_report_load4@PLT
.L184:
	.loc 1 54 11 discriminator 4
	movq	-72(%rbp), %rax
	movl	8(%rax), %eax
	.loc 1 54 20 is_stmt 1 discriminator 4
	leal	1(%rax), %edx
	movq	-72(%rbp), %rax
	movl	%edx, 8(%rax)
	.loc 1 56 17 discriminator 4
	movq	-72(%rbp), %rax
	movl	8(%rax), %esi
	.loc 1 56 36 discriminator 4
	movq	-72(%rbp), %rax
	movq	%rax, %rdx
	shrq	$3, %rdx
	addq	$2147450880, %rdx
	movzbl	(%rdx), %edx
	testb	%dl, %dl
	je	.L185
	.loc 1 56 36 is_stmt 0
	movq	%rax, %rdi
	call	__asan_report_load8@PLT
.L185:
	.loc 1 56 36 discriminator 4
	movq	-72(%rbp), %rax
	movq	(%rax), %rax
	.loc 1 56 46 is_stmt 1 discriminator 4
	leaq	8(%rax), %rdx
	movq	%rdx, %rcx
	movq	%rcx, %rdx
	shrq	$3, %rdx
	addq	$2147450880, %rdx
	movzbl	(%rdx), %edx
	testb	%dl, %dl
	setne	%dil
	cmpb	$3, %dl
	setle	%dl
	andl	%edi, %edx
	testb	%dl, %dl
	je	.L186
	.loc 1 56 46 is_stmt 0
	movq	%rcx, %rdi
	call	__asan_report_load4@PLT
.L186:
	.loc 1 56 46 discriminator 4
	movl	8(%rax), %eax
	.loc 1 56 65 is_stmt 1 discriminator 4
	cmpl	%eax, %esi
	jge	.L187
	.loc 1 56 74 discriminator 1
	movq	-72(%rbp), %rax
	movq	(%rax), %rax
	.loc 1 56 84 discriminator 1
	movq	%rax, %rdx
	movq	%rdx, %rcx
	shrq	$3, %rcx
	addq	$2147450880, %rcx
	movzbl	(%rcx), %ecx
	testb	%cl, %cl
	je	.L188
	.loc 1 56 84 is_stmt 0
	movq	%rdx, %rdi
	call	__asan_report_load8@PLT
.L188:
	.loc 1 56 84 discriminator 1
	movq	(%rax), %rcx
	.loc 1 56 102 is_stmt 1 discriminator 1
	movq	-72(%rbp), %rax
	movl	8(%rax), %eax
	movslq	%eax, %rdx
	.loc 1 56 94 discriminator 1
	movq	%rdx, %rax
	addq	%rax, %rax
	addq	%rdx, %rax
	salq	$4, %rax
	.loc 1 56 65 discriminator 1
	addq	%rcx, %rax
	jmp	.L189
.L187:
	.loc 1 56 65 is_stmt 0 discriminator 2
	movl	$0, %eax
.L189:
	.loc 1 56 126 is_stmt 1 discriminator 4
	leaq	16(%rax), %rdx
	movq	%rdx, %rcx
	movq	%rcx, %rdx
	shrq	$3, %rdx
	addq	$2147450880, %rdx
	movzbl	(%rdx), %edx
	testb	%dl, %dl
	setne	%sil
	cmpb	$3, %dl
	setle	%dl
	andl	%esi, %edx
	testb	%dl, %dl
	je	.L190
	.loc 1 56 126 is_stmt 0
	movq	%rcx, %rdi
	call	__asan_report_load4@PLT
.L190:
	.loc 1 56 126 discriminator 4
	movl	16(%rax), %eax
	.loc 1 56 5 is_stmt 1 discriminator 4
	cmpl	$6, %eax
	je	.L191
	.loc 1 58 20
	leaq	.LC23(%rip), %rax
	movq	%rax, %rdi
	movl	$0, %eax
	call	printf@PLT
	.loc 1 58 81
	call	_ZN6Logger11getInstanceEv@PLT
	movq	%rax, %rdx
	.loc 1 58 87
	leaq	.LC24(%rip), %rax
	movq	%rax, %rsi
	movq	%rdx, %rdi
	movl	$0, %eax
	call	_ZN6Logger3logEPKcz@PLT
	.loc 1 58 127
	call	_ZN6Logger11getInstanceEv@PLT
	movq	%rax, %rdx
	.loc 1 58 133
	leaq	.LC25(%rip), %rax
	movq	%rax, %rsi
	movq	%rdx, %rdi
	movl	$0, %eax
	call	_ZN6Logger3logEPKcz@PLT
	.loc 1 58 159
	call	_ZN6Logger11getInstanceEv@PLT
	movq	%rax, %rdx
	.loc 1 58 177
	leaq	.LC36(%rip), %rax
	movq	%rax, %rsi
	movq	%rdx, %rdi
	movl	$0, %eax
	call	_ZN6Logger15log_dup_consoleEPKcz@PLT
	.loc 1 58 215
	movq	-72(%rbp), %rax
	addq	$8, %rax
	movq	%rax, %rdx
	movq	%rdx, %rax
	shrq	$3, %rax
	addq	$2147450880, %rax
	movzbl	(%rax), %eax
	testb	%al, %al
	setne	%cl
	cmpb	$3, %al
	setle	%al
	andl	%ecx, %eax
	testb	%al, %al
	je	.L192
	movq	%rdx, %rdi
	call	__asan_report_load4@PLT
.L192:
	movq	-72(%rbp), %rax
	movl	8(%rax), %esi
	.loc 1 58 234
	movq	-72(%rbp), %rax
	movq	%rax, %rdx
	shrq	$3, %rdx
	addq	$2147450880, %rdx
	movzbl	(%rdx), %edx
	testb	%dl, %dl
	je	.L193
	movq	%rax, %rdi
	call	__asan_report_load8@PLT
.L193:
	movq	-72(%rbp), %rax
	movq	(%rax), %rax
	.loc 1 58 244
	leaq	8(%rax), %rdx
	movq	%rdx, %rcx
	movq	%rcx, %rdx
	shrq	$3, %rdx
	addq	$2147450880, %rdx
	movzbl	(%rdx), %edx
	testb	%dl, %dl
	setne	%dil
	cmpb	$3, %dl
	setle	%dl
	andl	%edi, %edx
	testb	%dl, %dl
	je	.L194
	movq	%rcx, %rdi
	call	__asan_report_load4@PLT
.L194:
	movl	8(%rax), %eax
	.loc 1 58 263
	cmpl	%eax, %esi
	jge	.L195
	.loc 1 58 272 discriminator 1
	movq	-72(%rbp), %rax
	movq	(%rax), %rax
	.loc 1 58 282 discriminator 1
	movq	%rax, %rdx
	movq	%rdx, %rcx
	shrq	$3, %rcx
	addq	$2147450880, %rcx
	movzbl	(%rcx), %ecx
	testb	%cl, %cl
	je	.L196
	.loc 1 58 282 is_stmt 0
	movq	%rdx, %rdi
	call	__asan_report_load8@PLT
.L196:
	.loc 1 58 282 discriminator 1
	movq	(%rax), %rcx
	.loc 1 58 300 is_stmt 1 discriminator 1
	movq	-72(%rbp), %rax
	movl	8(%rax), %eax
	movslq	%eax, %rdx
	.loc 1 58 292 discriminator 1
	movq	%rdx, %rax
	addq	%rax, %rax
	addq	%rdx, %rax
	salq	$4, %rax
	.loc 1 58 263 discriminator 1
	addq	%rcx, %rax
	jmp	.L197
.L195:
	.loc 1 58 263 is_stmt 0 discriminator 2
	movl	$0, %eax
.L197:
	.loc 1 58 202 is_stmt 1 discriminator 4
	testq	%rax, %rax
	jne	.L198
	.loc 1 58 330 discriminator 5
	leaq	.LC27(%rip), %rax
	movq	%rax, %rdi
	call	puts@PLT
	jmp	.L199
.L198:
	.loc 1 58 361 discriminator 6
	leaq	.LC28(%rip), %rax
	movq	%rax, %rdi
	movl	$0, %eax
	call	printf@PLT
	.loc 1 58 580 discriminator 6
	movq	-72(%rbp), %rax
	addq	$8, %rax
	movq	%rax, %rdx
	movq	%rdx, %rax
	shrq	$3, %rax
	addq	$2147450880, %rax
	movzbl	(%rax), %eax
	testb	%al, %al
	setne	%cl
	cmpb	$3, %al
	setle	%al
	andl	%ecx, %eax
	testb	%al, %al
	je	.L200
	.loc 1 58 580 is_stmt 0
	movq	%rdx, %rdi
	call	__asan_report_load4@PLT
.L200:
	.loc 1 58 580 discriminator 6
	movq	-72(%rbp), %rax
	movl	8(%rax), %esi
	.loc 1 58 599 is_stmt 1 discriminator 6
	movq	-72(%rbp), %rax
	movq	%rax, %rdx
	shrq	$3, %rdx
	addq	$2147450880, %rdx
	movzbl	(%rdx), %edx
	testb	%dl, %dl
	je	.L201
	.loc 1 58 599 is_stmt 0
	movq	%rax, %rdi
	call	__asan_report_load8@PLT
.L201:
	.loc 1 58 599 discriminator 6
	movq	-72(%rbp), %rax
	movq	(%rax), %rax
	.loc 1 58 609 is_stmt 1 discriminator 6
	leaq	8(%rax), %rdx
	movq	%rdx, %rcx
	movq	%rcx, %rdx
	shrq	$3, %rdx
	addq	$2147450880, %rdx
	movzbl	(%rdx), %edx
	testb	%dl, %dl
	setne	%dil
	cmpb	$3, %dl
	setle	%dl
	andl	%edi, %edx
	testb	%dl, %dl
	je	.L202
	.loc 1 58 609 is_stmt 0
	movq	%rcx, %rdi
	call	__asan_report_load4@PLT
.L202:
	.loc 1 58 609 discriminator 6
	movl	8(%rax), %eax
	.loc 1 58 628 is_stmt 1 discriminator 6
	cmpl	%eax, %esi
	jge	.L203
	.loc 1 58 637 discriminator 7
	movq	-72(%rbp), %rax
	movq	(%rax), %rax
	.loc 1 58 647 discriminator 7
	movq	%rax, %rdx
	movq	%rdx, %rcx
	shrq	$3, %rcx
	addq	$2147450880, %rcx
	movzbl	(%rcx), %ecx
	testb	%cl, %cl
	je	.L204
	.loc 1 58 647 is_stmt 0
	movq	%rdx, %rdi
	call	__asan_report_load8@PLT
.L204:
	.loc 1 58 647 discriminator 7
	movq	(%rax), %rcx
	.loc 1 58 665 is_stmt 1 discriminator 7
	movq	-72(%rbp), %rax
	movl	8(%rax), %eax
	movslq	%eax, %rdx
	.loc 1 58 657 discriminator 7
	movq	%rdx, %rax
	addq	%rax, %rax
	addq	%rdx, %rax
	salq	$4, %rax
	.loc 1 58 628 discriminator 7
	addq	%rcx, %rax
	jmp	.L205
.L203:
	.loc 1 58 628 is_stmt 0 discriminator 8
	movl	$0, %eax
.L205:
	.loc 1 58 388 is_stmt 1 discriminator 10
	leaq	44(%rax), %rdx
	movq	%rdx, %rcx
	shrq	$3, %rcx
	addq	$2147450880, %rcx
	movzbl	(%rcx), %ecx
	testb	%cl, %cl
	setne	%dil
	movq	%rdx, %rsi
	andl	$7, %esi
	addl	$3, %esi
	cmpb	%cl, %sil
	setge	%cl
	andl	%edi, %ecx
	testb	%cl, %cl
	je	.L206
	.loc 1 58 388 is_stmt 0
	movq	%rdx, %rdi
	call	__asan_report_load4@PLT
.L206:
	.loc 1 58 388 discriminator 10
	movl	44(%rax), %ecx
	.loc 1 58 457 is_stmt 1 discriminator 10
	movq	-72(%rbp), %rax
	addq	$8, %rax
	movq	%rax, %rdx
	movq	%rdx, %rax
	shrq	$3, %rax
	addq	$2147450880, %rax
	movzbl	(%rax), %eax
	testb	%al, %al
	setne	%sil
	cmpb	$3, %al
	setle	%al
	andl	%esi, %eax
	testb	%al, %al
	je	.L207
	.loc 1 58 457 is_stmt 0
	movq	%rdx, %rdi
	call	__asan_report_load4@PLT
.L207:
	.loc 1 58 457 discriminator 10
	movq	-72(%rbp), %rax
	movl	8(%rax), %edi
	.loc 1 58 476 is_stmt 1 discriminator 10
	movq	-72(%rbp), %rax
	movq	%rax, %rdx
	shrq	$3, %rdx
	addq	$2147450880, %rdx
	movzbl	(%rdx), %edx
	testb	%dl, %dl
	je	.L208
	.loc 1 58 476 is_stmt 0
	movq	%rax, %rdi
	call	__asan_report_load8@PLT
.L208:
	.loc 1 58 476 discriminator 10
	movq	-72(%rbp), %rax
	movq	(%rax), %rax
	.loc 1 58 486 is_stmt 1 discriminator 10
	leaq	8(%rax), %rdx
	movq	%rdx, %rsi
	movq	%rsi, %rdx
	shrq	$3, %rdx
	addq	$2147450880, %rdx
	movzbl	(%rdx), %edx
	testb	%dl, %dl
	setne	%r8b
	cmpb	$3, %dl
	setle	%dl
	andl	%r8d, %edx
	testb	%dl, %dl
	je	.L209
	.loc 1 58 486 is_stmt 0
	movq	%rsi, %rdi
	call	__asan_report_load4@PLT
.L209:
	.loc 1 58 486 discriminator 10
	movl	8(%rax), %eax
	.loc 1 58 505 is_stmt 1 discriminator 10
	cmpl	%eax, %edi
	jge	.L210
	.loc 1 58 514 discriminator 11
	movq	-72(%rbp), %rax
	movq	(%rax), %rax
	.loc 1 58 524 discriminator 11
	movq	%rax, %rdx
	movq	%rdx, %rsi
	shrq	$3, %rsi
	addq	$2147450880, %rsi
	movzbl	(%rsi), %esi
	testb	%sil, %sil
	je	.L211
	.loc 1 58 524 is_stmt 0
	movq	%rdx, %rdi
	call	__asan_report_load8@PLT
.L211:
	.loc 1 58 524 discriminator 11
	movq	(%rax), %rsi
	.loc 1 58 542 is_stmt 1 discriminator 11
	movq	-72(%rbp), %rax
	movl	8(%rax), %eax
	movslq	%eax, %rdx
	.loc 1 58 534 discriminator 11
	movq	%rdx, %rax
	addq	%rax, %rax
	addq	%rdx, %rax
	salq	$4, %rax
	.loc 1 58 505 discriminator 11
	addq	%rsi, %rax
	jmp	.L212
.L210:
	.loc 1 58 505 is_stmt 0 discriminator 12
	movl	$0, %eax
.L212:
	.loc 1 58 388 is_stmt 1 discriminator 14
	leaq	40(%rax), %rdx
	movq	%rdx, %rsi
	movq	%rsi, %rdx
	shrq	$3, %rdx
	addq	$2147450880, %rdx
	movzbl	(%rdx), %edx
	testb	%dl, %dl
	setne	%dil
	cmpb	$3, %dl
	setle	%dl
	andl	%edi, %edx
	testb	%dl, %dl
	je	.L213
	.loc 1 58 388 is_stmt 0
	movq	%rsi, %rdi
	call	__asan_report_load4@PLT
.L213:
	.loc 1 58 388 discriminator 14
	movl	40(%rax), %edx
	.loc 1 58 420 is_stmt 1 discriminator 14
	movq	-72(%rbp), %rax
	movq	%rax, %rsi
	shrq	$3, %rsi
	addq	$2147450880, %rsi
	movzbl	(%rsi), %esi
	testb	%sil, %sil
	je	.L214
	.loc 1 58 420 is_stmt 0
	movq	%rax, %rdi
	call	__asan_report_load8@PLT
.L214:
	.loc 1 58 420 discriminator 14
	movq	-72(%rbp), %rax
	movq	(%rax), %rax
	.loc 1 58 431 is_stmt 1 discriminator 14
	leaq	40(%rax), %rsi
	movq	%rsi, %rdi
	shrq	$3, %rdi
	addq	$2147450880, %rdi
	movzbl	(%rdi), %edi
	testb	%dil, %dil
	je	.L215
	.loc 1 58 431 is_stmt 0
	movq	%rsi, %rdi
	call	__asan_report_load8@PLT
.L215:
	.loc 1 58 431 discriminator 14
	movq	40(%rax), %rax
	.loc 1 58 388 is_stmt 1 discriminator 14
	movq	%rax, %rsi
	leaq	.LC29(%rip), %rax
	movq	%rax, %rdi
	movl	$0, %eax
	call	printf@PLT
	.loc 1 58 713 discriminator 14
	movq	-72(%rbp), %rax
	addq	$8, %rax
	movq	%rax, %rdx
	movq	%rdx, %rax
	shrq	$3, %rax
	addq	$2147450880, %rax
	movzbl	(%rax), %eax
	testb	%al, %al
	setne	%cl
	cmpb	$3, %al
	setle	%al
	andl	%ecx, %eax
	testb	%al, %al
	je	.L216
	.loc 1 58 713 is_stmt 0
	movq	%rdx, %rdi
	call	__asan_report_load4@PLT
.L216:
	.loc 1 58 713 discriminator 14
	movq	-72(%rbp), %rax
	movl	8(%rax), %esi
	.loc 1 58 732 is_stmt 1 discriminator 14
	movq	-72(%rbp), %rax
	movq	%rax, %rdx
	shrq	$3, %rdx
	addq	$2147450880, %rdx
	movzbl	(%rdx), %edx
	testb	%dl, %dl
	je	.L217
	.loc 1 58 732 is_stmt 0
	movq	%rax, %rdi
	call	__asan_report_load8@PLT
.L217:
	.loc 1 58 732 discriminator 14
	movq	-72(%rbp), %rax
	movq	(%rax), %rax
	.loc 1 58 742 is_stmt 1 discriminator 14
	leaq	8(%rax), %rdx
	movq	%rdx, %rcx
	movq	%rcx, %rdx
	shrq	$3, %rdx
	addq	$2147450880, %rdx
	movzbl	(%rdx), %edx
	testb	%dl, %dl
	setne	%dil
	cmpb	$3, %dl
	setle	%dl
	andl	%edi, %edx
	testb	%dl, %dl
	je	.L218
	.loc 1 58 742 is_stmt 0
	movq	%rcx, %rdi
	call	__asan_report_load4@PLT
.L218:
	.loc 1 58 742 discriminator 14
	movl	8(%rax), %eax
	.loc 1 58 761 is_stmt 1 discriminator 14
	cmpl	%eax, %esi
	jge	.L219
	.loc 1 58 770 discriminator 15
	movq	-72(%rbp), %rax
	movq	(%rax), %rax
	.loc 1 58 780 discriminator 15
	movq	%rax, %rdx
	movq	%rdx, %rcx
	shrq	$3, %rcx
	addq	$2147450880, %rcx
	movzbl	(%rcx), %ecx
	testb	%cl, %cl
	je	.L220
	.loc 1 58 780 is_stmt 0
	movq	%rdx, %rdi
	call	__asan_report_load8@PLT
.L220:
	.loc 1 58 780 discriminator 15
	movq	(%rax), %rcx
	.loc 1 58 798 is_stmt 1 discriminator 15
	movq	-72(%rbp), %rax
	movl	8(%rax), %eax
	movslq	%eax, %rdx
	.loc 1 58 790 discriminator 15
	movq	%rdx, %rax
	addq	%rax, %rax
	addq	%rdx, %rax
	salq	$4, %rax
	.loc 1 58 761 discriminator 15
	addq	%rcx, %rax
	jmp	.L221
.L219:
	.loc 1 58 761 is_stmt 0 discriminator 16
	movl	$0, %eax
.L221:
	.loc 1 58 704 is_stmt 1 discriminator 18
	leaq	32(%rax), %rdx
	movq	%rdx, %rcx
	shrq	$3, %rcx
	addq	$2147450880, %rcx
	movzbl	(%rcx), %ecx
	testb	%cl, %cl
	je	.L222
	.loc 1 58 704 is_stmt 0
	movq	%rdx, %rdi
	call	__asan_report_load8@PLT
.L222:
	.loc 1 58 704 discriminator 18
	movq	32(%rax), %rax
	movl	$10, %esi
	movq	%rax, %rdi
	call	_Z6printlPKcc@PLT
	.loc 1 58 852 is_stmt 1 discriminator 18
	leaq	.LC30(%rip), %rax
	movq	%rax, %rdi
	call	puts@PLT
	.loc 1 58 876 discriminator 18
	leaq	.LC34(%rip), %rax
	movq	%rax, %rcx
	movl	$58, %edx
	leaq	.LC17(%rip), %rax
	movq	%rax, %rsi
	leaq	.LC31(%rip), %rax
	movq	%rax, %rdi
	movl	$0, %eax
	call	printf@PLT
	.loc 1 58 1083 discriminator 18
	movq	-72(%rbp), %rax
	movq	%rax, %rdx
	shrq	$3, %rdx
	addq	$2147450880, %rdx
	movzbl	(%rdx), %edx
	testb	%dl, %dl
	je	.L223
	.loc 1 58 1083 is_stmt 0
	movq	%rax, %rdi
	call	__asan_report_load8@PLT
.L223:
	.loc 1 58 1083 discriminator 18
	movq	-72(%rbp), %rax
	movq	(%rax), %rax
	.loc 1 58 1093 is_stmt 1 discriminator 18
	leaq	24(%rax), %rdx
	movq	%rdx, %rcx
	shrq	$3, %rcx
	addq	$2147450880, %rcx
	movzbl	(%rcx), %ecx
	testb	%cl, %cl
	je	.L224
	.loc 1 58 1093 is_stmt 0
	movq	%rdx, %rdi
	call	__asan_report_load8@PLT
.L224:
	.loc 1 58 1093 discriminator 18
	movq	24(%rax), %rcx
	.loc 1 58 967 is_stmt 1 discriminator 18
	movq	-72(%rbp), %rax
	addq	$8, %rax
	movq	%rax, %rdx
	movq	%rdx, %rax
	shrq	$3, %rax
	addq	$2147450880, %rax
	movzbl	(%rax), %eax
	testb	%al, %al
	setne	%sil
	cmpb	$3, %al
	setle	%al
	andl	%esi, %eax
	testb	%al, %al
	je	.L225
	.loc 1 58 967 is_stmt 0
	movq	%rdx, %rdi
	call	__asan_report_load4@PLT
.L225:
	.loc 1 58 967 discriminator 18
	movq	-72(%rbp), %rax
	movl	8(%rax), %edi
	.loc 1 58 986 is_stmt 1 discriminator 18
	movq	-72(%rbp), %rax
	movq	(%rax), %rax
	.loc 1 58 996 discriminator 18
	leaq	8(%rax), %rdx
	movq	%rdx, %rsi
	movq	%rsi, %rdx
	shrq	$3, %rdx
	addq	$2147450880, %rdx
	movzbl	(%rdx), %edx
	testb	%dl, %dl
	setne	%r8b
	cmpb	$3, %dl
	setle	%dl
	andl	%r8d, %edx
	testb	%dl, %dl
	je	.L226
	.loc 1 58 996 is_stmt 0
	movq	%rsi, %rdi
	call	__asan_report_load4@PLT
.L226:
	.loc 1 58 996 discriminator 18
	movl	8(%rax), %eax
	.loc 1 58 958 is_stmt 1 discriminator 18
	cmpl	%eax, %edi
	jge	.L227
	.loc 1 58 1024 discriminator 19
	movq	-72(%rbp), %rax
	movq	(%rax), %rax
	.loc 1 58 1034 discriminator 19
	movq	%rax, %rdx
	movq	%rdx, %rsi
	shrq	$3, %rsi
	addq	$2147450880, %rsi
	movzbl	(%rsi), %esi
	testb	%sil, %sil
	je	.L228
	.loc 1 58 1034 is_stmt 0
	movq	%rdx, %rdi
	call	__asan_report_load8@PLT
.L228:
	.loc 1 58 1034 discriminator 19
	movq	(%rax), %rsi
	.loc 1 58 1052 is_stmt 1 discriminator 19
	movq	-72(%rbp), %rax
	movl	8(%rax), %eax
	movslq	%eax, %rdx
	.loc 1 58 1044 discriminator 19
	movq	%rdx, %rax
	addq	%rax, %rax
	addq	%rdx, %rax
	salq	$4, %rax
	.loc 1 58 958 discriminator 19
	addq	%rsi, %rax
	jmp	.L229
.L227:
	.loc 1 58 958 is_stmt 0 discriminator 20
	movl	$0, %eax
.L229:
	.loc 1 58 958 discriminator 22
	movq	%rcx, %rsi
	movq	%rax, %rdi
	call	_Z10PrintTokenPK5TokenPPKc@PLT
.L199:
	.loc 1 59 16 is_stmt 1
	movl	$-1, %eax
	jmp	.L131
.L191:
	.loc 1 62 27
	movq	-72(%rbp), %rax
	addq	$8, %rax
	movq	%rax, %rdx
	movq	%rdx, %rax
	shrq	$3, %rax
	addq	$2147450880, %rax
	movzbl	(%rax), %eax
	testb	%al, %al
	setne	%cl
	cmpb	$3, %al
	setle	%al
	andl	%ecx, %eax
	testb	%al, %al
	je	.L230
	movq	%rdx, %rdi
	call	__asan_report_load4@PLT
.L230:
	movq	-72(%rbp), %rax
	movl	8(%rax), %esi
	.loc 1 62 46
	movq	-72(%rbp), %rax
	movq	%rax, %rdx
	shrq	$3, %rdx
	addq	$2147450880, %rdx
	movzbl	(%rdx), %edx
	testb	%dl, %dl
	je	.L231
	movq	%rax, %rdi
	call	__asan_report_load8@PLT
.L231:
	movq	-72(%rbp), %rax
	movq	(%rax), %rax
	.loc 1 62 56
	leaq	8(%rax), %rdx
	movq	%rdx, %rcx
	movq	%rcx, %rdx
	shrq	$3, %rdx
	addq	$2147450880, %rdx
	movzbl	(%rdx), %edx
	testb	%dl, %dl
	setne	%dil
	cmpb	$3, %dl
	setle	%dl
	andl	%edi, %edx
	testb	%dl, %dl
	je	.L232
	movq	%rcx, %rdi
	call	__asan_report_load4@PLT
.L232:
	movl	8(%rax), %eax
	.loc 1 62 75
	cmpl	%eax, %esi
	jge	.L233
	.loc 1 62 84 discriminator 1
	movq	-72(%rbp), %rax
	movq	(%rax), %rax
	.loc 1 62 94 discriminator 1
	movq	%rax, %rdx
	movq	%rdx, %rcx
	shrq	$3, %rcx
	addq	$2147450880, %rcx
	movzbl	(%rcx), %ecx
	testb	%cl, %cl
	je	.L234
	.loc 1 62 94 is_stmt 0
	movq	%rdx, %rdi
	call	__asan_report_load8@PLT
.L234:
	.loc 1 62 94 discriminator 1
	movq	(%rax), %rcx
	.loc 1 62 112 is_stmt 1 discriminator 1
	movq	-72(%rbp), %rax
	movl	8(%rax), %eax
	movslq	%eax, %rdx
	.loc 1 62 104 discriminator 1
	movq	%rdx, %rax
	addq	%rax, %rax
	addq	%rdx, %rax
	salq	$4, %rax
	.loc 1 62 75 discriminator 1
	addq	%rcx, %rax
	jmp	.L235
.L233:
	.loc 1 62 75 is_stmt 0 discriminator 2
	movl	$0, %eax
.L235:
	.loc 1 62 12 is_stmt 1 discriminator 4
	movq	%rax, -48(%rbp)
	.loc 1 63 11 discriminator 4
	movq	-72(%rbp), %rax
	addq	$8, %rax
	movq	%rax, %rdx
	movq	%rdx, %rax
	shrq	$3, %rax
	addq	$2147450880, %rax
	movzbl	(%rax), %eax
	testb	%al, %al
	setne	%cl
	cmpb	$3, %al
	setle	%al
	andl	%ecx, %eax
	testb	%al, %al
	je	.L236
	.loc 1 63 11 is_stmt 0
	movq	%rdx, %rdi
	call	__asan_report_load4@PLT
.L236:
	.loc 1 63 11 discriminator 4
	movq	-72(%rbp), %rax
	movl	8(%rax), %eax
	.loc 1 63 20 is_stmt 1 discriminator 4
	leal	1(%rax), %edx
	movq	-72(%rbp), %rax
	movl	%edx, 8(%rax)
	.loc 1 66 16 discriminator 4
	movq	-72(%rbp), %rax
	movl	8(%rax), %esi
	.loc 1 66 35 discriminator 4
	movq	-72(%rbp), %rax
	movq	%rax, %rdx
	shrq	$3, %rdx
	addq	$2147450880, %rdx
	movzbl	(%rdx), %edx
	testb	%dl, %dl
	je	.L237
	.loc 1 66 35 is_stmt 0
	movq	%rax, %rdi
	call	__asan_report_load8@PLT
.L237:
	.loc 1 66 35 discriminator 4
	movq	-72(%rbp), %rax
	movq	(%rax), %rax
	.loc 1 66 45 is_stmt 1 discriminator 4
	leaq	8(%rax), %rdx
	movq	%rdx, %rcx
	movq	%rcx, %rdx
	shrq	$3, %rdx
	addq	$2147450880, %rdx
	movzbl	(%rdx), %edx
	testb	%dl, %dl
	setne	%dil
	cmpb	$3, %dl
	setle	%dl
	andl	%edi, %edx
	testb	%dl, %dl
	je	.L238
	.loc 1 66 45 is_stmt 0
	movq	%rcx, %rdi
	call	__asan_report_load4@PLT
.L238:
	.loc 1 66 45 discriminator 4
	movl	8(%rax), %eax
	.loc 1 66 64 is_stmt 1 discriminator 4
	cmpl	%eax, %esi
	jge	.L239
	.loc 1 66 73 discriminator 1
	movq	-72(%rbp), %rax
	movq	(%rax), %rax
	.loc 1 66 83 discriminator 1
	movq	%rax, %rdx
	movq	%rdx, %rcx
	shrq	$3, %rcx
	addq	$2147450880, %rcx
	movzbl	(%rcx), %ecx
	testb	%cl, %cl
	je	.L240
	.loc 1 66 83 is_stmt 0
	movq	%rdx, %rdi
	call	__asan_report_load8@PLT
.L240:
	.loc 1 66 83 discriminator 1
	movq	(%rax), %rcx
	.loc 1 66 101 is_stmt 1 discriminator 1
	movq	-72(%rbp), %rax
	movl	8(%rax), %eax
	movslq	%eax, %rdx
	.loc 1 66 93 discriminator 1
	movq	%rdx, %rax
	addq	%rax, %rax
	addq	%rdx, %rax
	salq	$4, %rax
	.loc 1 66 64 discriminator 1
	addq	%rcx, %rax
	jmp	.L241
.L239:
	.loc 1 66 64 is_stmt 0 discriminator 2
	movl	$0, %eax
.L241:
	.loc 1 66 125 is_stmt 1 discriminator 4
	leaq	16(%rax), %rdx
	movq	%rdx, %rcx
	movq	%rcx, %rdx
	shrq	$3, %rdx
	addq	$2147450880, %rdx
	movzbl	(%rdx), %edx
	testb	%dl, %dl
	setne	%sil
	cmpb	$3, %dl
	setle	%dl
	andl	%esi, %edx
	testb	%dl, %dl
	je	.L242
	.loc 1 66 125 is_stmt 0
	movq	%rcx, %rdi
	call	__asan_report_load4@PLT
.L242:
	.loc 1 66 125 discriminator 4
	movl	16(%rax), %eax
	.loc 1 66 5 is_stmt 1 discriminator 4
	cmpl	$40, %eax
	je	.L243
	.loc 1 68 20
	leaq	.LC23(%rip), %rax
	movq	%rax, %rdi
	movl	$0, %eax
	call	printf@PLT
	.loc 1 68 81
	call	_ZN6Logger11getInstanceEv@PLT
	movq	%rax, %rdx
	.loc 1 68 87
	leaq	.LC24(%rip), %rax
	movq	%rax, %rsi
	movq	%rdx, %rdi
	movl	$0, %eax
	call	_ZN6Logger3logEPKcz@PLT
	.loc 1 68 127
	call	_ZN6Logger11getInstanceEv@PLT
	movq	%rax, %rdx
	.loc 1 68 133
	leaq	.LC25(%rip), %rax
	movq	%rax, %rsi
	movq	%rdx, %rdi
	movl	$0, %eax
	call	_ZN6Logger3logEPKcz@PLT
	.loc 1 68 159
	call	_ZN6Logger11getInstanceEv@PLT
	movq	%rax, %rdx
	.loc 1 68 177
	leaq	.LC37(%rip), %rax
	movq	%rax, %rsi
	movq	%rdx, %rdi
	movl	$0, %eax
	call	_ZN6Logger15log_dup_consoleEPKcz@PLT
	.loc 1 68 227
	movq	-72(%rbp), %rax
	addq	$8, %rax
	movq	%rax, %rdx
	movq	%rdx, %rax
	shrq	$3, %rax
	addq	$2147450880, %rax
	movzbl	(%rax), %eax
	testb	%al, %al
	setne	%cl
	cmpb	$3, %al
	setle	%al
	andl	%ecx, %eax
	testb	%al, %al
	je	.L244
	movq	%rdx, %rdi
	call	__asan_report_load4@PLT
.L244:
	movq	-72(%rbp), %rax
	movl	8(%rax), %esi
	.loc 1 68 246
	movq	-72(%rbp), %rax
	movq	%rax, %rdx
	shrq	$3, %rdx
	addq	$2147450880, %rdx
	movzbl	(%rdx), %edx
	testb	%dl, %dl
	je	.L245
	movq	%rax, %rdi
	call	__asan_report_load8@PLT
.L245:
	movq	-72(%rbp), %rax
	movq	(%rax), %rax
	.loc 1 68 256
	leaq	8(%rax), %rdx
	movq	%rdx, %rcx
	movq	%rcx, %rdx
	shrq	$3, %rdx
	addq	$2147450880, %rdx
	movzbl	(%rdx), %edx
	testb	%dl, %dl
	setne	%dil
	cmpb	$3, %dl
	setle	%dl
	andl	%edi, %edx
	testb	%dl, %dl
	je	.L246
	movq	%rcx, %rdi
	call	__asan_report_load4@PLT
.L246:
	movl	8(%rax), %eax
	.loc 1 68 275
	cmpl	%eax, %esi
	jge	.L247
	.loc 1 68 284 discriminator 1
	movq	-72(%rbp), %rax
	movq	(%rax), %rax
	.loc 1 68 294 discriminator 1
	movq	%rax, %rdx
	movq	%rdx, %rcx
	shrq	$3, %rcx
	addq	$2147450880, %rcx
	movzbl	(%rcx), %ecx
	testb	%cl, %cl
	je	.L248
	.loc 1 68 294 is_stmt 0
	movq	%rdx, %rdi
	call	__asan_report_load8@PLT
.L248:
	.loc 1 68 294 discriminator 1
	movq	(%rax), %rcx
	.loc 1 68 312 is_stmt 1 discriminator 1
	movq	-72(%rbp), %rax
	movl	8(%rax), %eax
	movslq	%eax, %rdx
	.loc 1 68 304 discriminator 1
	movq	%rdx, %rax
	addq	%rax, %rax
	addq	%rdx, %rax
	salq	$4, %rax
	.loc 1 68 275 discriminator 1
	addq	%rcx, %rax
	jmp	.L249
.L247:
	.loc 1 68 275 is_stmt 0 discriminator 2
	movl	$0, %eax
.L249:
	.loc 1 68 214 is_stmt 1 discriminator 4
	testq	%rax, %rax
	jne	.L250
	.loc 1 68 342 discriminator 5
	leaq	.LC27(%rip), %rax
	movq	%rax, %rdi
	call	puts@PLT
	jmp	.L251
.L250:
	.loc 1 68 373 discriminator 6
	leaq	.LC28(%rip), %rax
	movq	%rax, %rdi
	movl	$0, %eax
	call	printf@PLT
	.loc 1 68 592 discriminator 6
	movq	-72(%rbp), %rax
	addq	$8, %rax
	movq	%rax, %rdx
	movq	%rdx, %rax
	shrq	$3, %rax
	addq	$2147450880, %rax
	movzbl	(%rax), %eax
	testb	%al, %al
	setne	%cl
	cmpb	$3, %al
	setle	%al
	andl	%ecx, %eax
	testb	%al, %al
	je	.L252
	.loc 1 68 592 is_stmt 0
	movq	%rdx, %rdi
	call	__asan_report_load4@PLT
.L252:
	.loc 1 68 592 discriminator 6
	movq	-72(%rbp), %rax
	movl	8(%rax), %esi
	.loc 1 68 611 is_stmt 1 discriminator 6
	movq	-72(%rbp), %rax
	movq	%rax, %rdx
	shrq	$3, %rdx
	addq	$2147450880, %rdx
	movzbl	(%rdx), %edx
	testb	%dl, %dl
	je	.L253
	.loc 1 68 611 is_stmt 0
	movq	%rax, %rdi
	call	__asan_report_load8@PLT
.L253:
	.loc 1 68 611 discriminator 6
	movq	-72(%rbp), %rax
	movq	(%rax), %rax
	.loc 1 68 621 is_stmt 1 discriminator 6
	leaq	8(%rax), %rdx
	movq	%rdx, %rcx
	movq	%rcx, %rdx
	shrq	$3, %rdx
	addq	$2147450880, %rdx
	movzbl	(%rdx), %edx
	testb	%dl, %dl
	setne	%dil
	cmpb	$3, %dl
	setle	%dl
	andl	%edi, %edx
	testb	%dl, %dl
	je	.L254
	.loc 1 68 621 is_stmt 0
	movq	%rcx, %rdi
	call	__asan_report_load4@PLT
.L254:
	.loc 1 68 621 discriminator 6
	movl	8(%rax), %eax
	.loc 1 68 640 is_stmt 1 discriminator 6
	cmpl	%eax, %esi
	jge	.L255
	.loc 1 68 649 discriminator 7
	movq	-72(%rbp), %rax
	movq	(%rax), %rax
	.loc 1 68 659 discriminator 7
	movq	%rax, %rdx
	movq	%rdx, %rcx
	shrq	$3, %rcx
	addq	$2147450880, %rcx
	movzbl	(%rcx), %ecx
	testb	%cl, %cl
	je	.L256
	.loc 1 68 659 is_stmt 0
	movq	%rdx, %rdi
	call	__asan_report_load8@PLT
.L256:
	.loc 1 68 659 discriminator 7
	movq	(%rax), %rcx
	.loc 1 68 677 is_stmt 1 discriminator 7
	movq	-72(%rbp), %rax
	movl	8(%rax), %eax
	movslq	%eax, %rdx
	.loc 1 68 669 discriminator 7
	movq	%rdx, %rax
	addq	%rax, %rax
	addq	%rdx, %rax
	salq	$4, %rax
	.loc 1 68 640 discriminator 7
	addq	%rcx, %rax
	jmp	.L257
.L255:
	.loc 1 68 640 is_stmt 0 discriminator 8
	movl	$0, %eax
.L257:
	.loc 1 68 400 is_stmt 1 discriminator 10
	leaq	44(%rax), %rdx
	movq	%rdx, %rcx
	shrq	$3, %rcx
	addq	$2147450880, %rcx
	movzbl	(%rcx), %ecx
	testb	%cl, %cl
	setne	%dil
	movq	%rdx, %rsi
	andl	$7, %esi
	addl	$3, %esi
	cmpb	%cl, %sil
	setge	%cl
	andl	%edi, %ecx
	testb	%cl, %cl
	je	.L258
	.loc 1 68 400 is_stmt 0
	movq	%rdx, %rdi
	call	__asan_report_load4@PLT
.L258:
	.loc 1 68 400 discriminator 10
	movl	44(%rax), %ecx
	.loc 1 68 469 is_stmt 1 discriminator 10
	movq	-72(%rbp), %rax
	addq	$8, %rax
	movq	%rax, %rdx
	movq	%rdx, %rax
	shrq	$3, %rax
	addq	$2147450880, %rax
	movzbl	(%rax), %eax
	testb	%al, %al
	setne	%sil
	cmpb	$3, %al
	setle	%al
	andl	%esi, %eax
	testb	%al, %al
	je	.L259
	.loc 1 68 469 is_stmt 0
	movq	%rdx, %rdi
	call	__asan_report_load4@PLT
.L259:
	.loc 1 68 469 discriminator 10
	movq	-72(%rbp), %rax
	movl	8(%rax), %edi
	.loc 1 68 488 is_stmt 1 discriminator 10
	movq	-72(%rbp), %rax
	movq	%rax, %rdx
	shrq	$3, %rdx
	addq	$2147450880, %rdx
	movzbl	(%rdx), %edx
	testb	%dl, %dl
	je	.L260
	.loc 1 68 488 is_stmt 0
	movq	%rax, %rdi
	call	__asan_report_load8@PLT
.L260:
	.loc 1 68 488 discriminator 10
	movq	-72(%rbp), %rax
	movq	(%rax), %rax
	.loc 1 68 498 is_stmt 1 discriminator 10
	leaq	8(%rax), %rdx
	movq	%rdx, %rsi
	movq	%rsi, %rdx
	shrq	$3, %rdx
	addq	$2147450880, %rdx
	movzbl	(%rdx), %edx
	testb	%dl, %dl
	setne	%r8b
	cmpb	$3, %dl
	setle	%dl
	andl	%r8d, %edx
	testb	%dl, %dl
	je	.L261
	.loc 1 68 498 is_stmt 0
	movq	%rsi, %rdi
	call	__asan_report_load4@PLT
.L261:
	.loc 1 68 498 discriminator 10
	movl	8(%rax), %eax
	.loc 1 68 517 is_stmt 1 discriminator 10
	cmpl	%eax, %edi
	jge	.L262
	.loc 1 68 526 discriminator 11
	movq	-72(%rbp), %rax
	movq	(%rax), %rax
	.loc 1 68 536 discriminator 11
	movq	%rax, %rdx
	movq	%rdx, %rsi
	shrq	$3, %rsi
	addq	$2147450880, %rsi
	movzbl	(%rsi), %esi
	testb	%sil, %sil
	je	.L263
	.loc 1 68 536 is_stmt 0
	movq	%rdx, %rdi
	call	__asan_report_load8@PLT
.L263:
	.loc 1 68 536 discriminator 11
	movq	(%rax), %rsi
	.loc 1 68 554 is_stmt 1 discriminator 11
	movq	-72(%rbp), %rax
	movl	8(%rax), %eax
	movslq	%eax, %rdx
	.loc 1 68 546 discriminator 11
	movq	%rdx, %rax
	addq	%rax, %rax
	addq	%rdx, %rax
	salq	$4, %rax
	.loc 1 68 517 discriminator 11
	addq	%rsi, %rax
	jmp	.L264
.L262:
	.loc 1 68 517 is_stmt 0 discriminator 12
	movl	$0, %eax
.L264:
	.loc 1 68 400 is_stmt 1 discriminator 14
	leaq	40(%rax), %rdx
	movq	%rdx, %rsi
	movq	%rsi, %rdx
	shrq	$3, %rdx
	addq	$2147450880, %rdx
	movzbl	(%rdx), %edx
	testb	%dl, %dl
	setne	%dil
	cmpb	$3, %dl
	setle	%dl
	andl	%edi, %edx
	testb	%dl, %dl
	je	.L265
	.loc 1 68 400 is_stmt 0
	movq	%rsi, %rdi
	call	__asan_report_load4@PLT
.L265:
	.loc 1 68 400 discriminator 14
	movl	40(%rax), %edx
	.loc 1 68 432 is_stmt 1 discriminator 14
	movq	-72(%rbp), %rax
	movq	%rax, %rsi
	shrq	$3, %rsi
	addq	$2147450880, %rsi
	movzbl	(%rsi), %esi
	testb	%sil, %sil
	je	.L266
	.loc 1 68 432 is_stmt 0
	movq	%rax, %rdi
	call	__asan_report_load8@PLT
.L266:
	.loc 1 68 432 discriminator 14
	movq	-72(%rbp), %rax
	movq	(%rax), %rax
	.loc 1 68 443 is_stmt 1 discriminator 14
	leaq	40(%rax), %rsi
	movq	%rsi, %rdi
	shrq	$3, %rdi
	addq	$2147450880, %rdi
	movzbl	(%rdi), %edi
	testb	%dil, %dil
	je	.L267
	.loc 1 68 443 is_stmt 0
	movq	%rsi, %rdi
	call	__asan_report_load8@PLT
.L267:
	.loc 1 68 443 discriminator 14
	movq	40(%rax), %rax
	.loc 1 68 400 is_stmt 1 discriminator 14
	movq	%rax, %rsi
	leaq	.LC29(%rip), %rax
	movq	%rax, %rdi
	movl	$0, %eax
	call	printf@PLT
	.loc 1 68 725 discriminator 14
	movq	-72(%rbp), %rax
	addq	$8, %rax
	movq	%rax, %rdx
	movq	%rdx, %rax
	shrq	$3, %rax
	addq	$2147450880, %rax
	movzbl	(%rax), %eax
	testb	%al, %al
	setne	%cl
	cmpb	$3, %al
	setle	%al
	andl	%ecx, %eax
	testb	%al, %al
	je	.L268
	.loc 1 68 725 is_stmt 0
	movq	%rdx, %rdi
	call	__asan_report_load4@PLT
.L268:
	.loc 1 68 725 discriminator 14
	movq	-72(%rbp), %rax
	movl	8(%rax), %esi
	.loc 1 68 744 is_stmt 1 discriminator 14
	movq	-72(%rbp), %rax
	movq	%rax, %rdx
	shrq	$3, %rdx
	addq	$2147450880, %rdx
	movzbl	(%rdx), %edx
	testb	%dl, %dl
	je	.L269
	.loc 1 68 744 is_stmt 0
	movq	%rax, %rdi
	call	__asan_report_load8@PLT
.L269:
	.loc 1 68 744 discriminator 14
	movq	-72(%rbp), %rax
	movq	(%rax), %rax
	.loc 1 68 754 is_stmt 1 discriminator 14
	leaq	8(%rax), %rdx
	movq	%rdx, %rcx
	movq	%rcx, %rdx
	shrq	$3, %rdx
	addq	$2147450880, %rdx
	movzbl	(%rdx), %edx
	testb	%dl, %dl
	setne	%dil
	cmpb	$3, %dl
	setle	%dl
	andl	%edi, %edx
	testb	%dl, %dl
	je	.L270
	.loc 1 68 754 is_stmt 0
	movq	%rcx, %rdi
	call	__asan_report_load4@PLT
.L270:
	.loc 1 68 754 discriminator 14
	movl	8(%rax), %eax
	.loc 1 68 773 is_stmt 1 discriminator 14
	cmpl	%eax, %esi
	jge	.L271
	.loc 1 68 782 discriminator 15
	movq	-72(%rbp), %rax
	movq	(%rax), %rax
	.loc 1 68 792 discriminator 15
	movq	%rax, %rdx
	movq	%rdx, %rcx
	shrq	$3, %rcx
	addq	$2147450880, %rcx
	movzbl	(%rcx), %ecx
	testb	%cl, %cl
	je	.L272
	.loc 1 68 792 is_stmt 0
	movq	%rdx, %rdi
	call	__asan_report_load8@PLT
.L272:
	.loc 1 68 792 discriminator 15
	movq	(%rax), %rcx
	.loc 1 68 810 is_stmt 1 discriminator 15
	movq	-72(%rbp), %rax
	movl	8(%rax), %eax
	movslq	%eax, %rdx
	.loc 1 68 802 discriminator 15
	movq	%rdx, %rax
	addq	%rax, %rax
	addq	%rdx, %rax
	salq	$4, %rax
	.loc 1 68 773 discriminator 15
	addq	%rcx, %rax
	jmp	.L273
.L271:
	.loc 1 68 773 is_stmt 0 discriminator 16
	movl	$0, %eax
.L273:
	.loc 1 68 716 is_stmt 1 discriminator 18
	leaq	32(%rax), %rdx
	movq	%rdx, %rcx
	shrq	$3, %rcx
	addq	$2147450880, %rcx
	movzbl	(%rcx), %ecx
	testb	%cl, %cl
	je	.L274
	.loc 1 68 716 is_stmt 0
	movq	%rdx, %rdi
	call	__asan_report_load8@PLT
.L274:
	.loc 1 68 716 discriminator 18
	movq	32(%rax), %rax
	movl	$10, %esi
	movq	%rax, %rdi
	call	_Z6printlPKcc@PLT
	.loc 1 68 864 is_stmt 1 discriminator 18
	leaq	.LC30(%rip), %rax
	movq	%rax, %rdi
	call	puts@PLT
	.loc 1 68 888 discriminator 18
	leaq	.LC34(%rip), %rax
	movq	%rax, %rcx
	movl	$68, %edx
	leaq	.LC17(%rip), %rax
	movq	%rax, %rsi
	leaq	.LC31(%rip), %rax
	movq	%rax, %rdi
	movl	$0, %eax
	call	printf@PLT
	.loc 1 68 1095 discriminator 18
	movq	-72(%rbp), %rax
	movq	%rax, %rdx
	shrq	$3, %rdx
	addq	$2147450880, %rdx
	movzbl	(%rdx), %edx
	testb	%dl, %dl
	je	.L275
	.loc 1 68 1095 is_stmt 0
	movq	%rax, %rdi
	call	__asan_report_load8@PLT
.L275:
	.loc 1 68 1095 discriminator 18
	movq	-72(%rbp), %rax
	movq	(%rax), %rax
	.loc 1 68 1105 is_stmt 1 discriminator 18
	leaq	24(%rax), %rdx
	movq	%rdx, %rcx
	shrq	$3, %rcx
	addq	$2147450880, %rcx
	movzbl	(%rcx), %ecx
	testb	%cl, %cl
	je	.L276
	.loc 1 68 1105 is_stmt 0
	movq	%rdx, %rdi
	call	__asan_report_load8@PLT
.L276:
	.loc 1 68 1105 discriminator 18
	movq	24(%rax), %rcx
	.loc 1 68 979 is_stmt 1 discriminator 18
	movq	-72(%rbp), %rax
	addq	$8, %rax
	movq	%rax, %rdx
	movq	%rdx, %rax
	shrq	$3, %rax
	addq	$2147450880, %rax
	movzbl	(%rax), %eax
	testb	%al, %al
	setne	%sil
	cmpb	$3, %al
	setle	%al
	andl	%esi, %eax
	testb	%al, %al
	je	.L277
	.loc 1 68 979 is_stmt 0
	movq	%rdx, %rdi
	call	__asan_report_load4@PLT
.L277:
	.loc 1 68 979 discriminator 18
	movq	-72(%rbp), %rax
	movl	8(%rax), %edi
	.loc 1 68 998 is_stmt 1 discriminator 18
	movq	-72(%rbp), %rax
	movq	(%rax), %rax
	.loc 1 68 1008 discriminator 18
	leaq	8(%rax), %rdx
	movq	%rdx, %rsi
	movq	%rsi, %rdx
	shrq	$3, %rdx
	addq	$2147450880, %rdx
	movzbl	(%rdx), %edx
	testb	%dl, %dl
	setne	%r8b
	cmpb	$3, %dl
	setle	%dl
	andl	%r8d, %edx
	testb	%dl, %dl
	je	.L278
	.loc 1 68 1008 is_stmt 0
	movq	%rsi, %rdi
	call	__asan_report_load4@PLT
.L278:
	.loc 1 68 1008 discriminator 18
	movl	8(%rax), %eax
	.loc 1 68 970 is_stmt 1 discriminator 18
	cmpl	%eax, %edi
	jge	.L279
	.loc 1 68 1036 discriminator 19
	movq	-72(%rbp), %rax
	movq	(%rax), %rax
	.loc 1 68 1046 discriminator 19
	movq	%rax, %rdx
	movq	%rdx, %rsi
	shrq	$3, %rsi
	addq	$2147450880, %rsi
	movzbl	(%rsi), %esi
	testb	%sil, %sil
	je	.L280
	.loc 1 68 1046 is_stmt 0
	movq	%rdx, %rdi
	call	__asan_report_load8@PLT
.L280:
	.loc 1 68 1046 discriminator 19
	movq	(%rax), %rsi
	.loc 1 68 1064 is_stmt 1 discriminator 19
	movq	-72(%rbp), %rax
	movl	8(%rax), %eax
	movslq	%eax, %rdx
	.loc 1 68 1056 discriminator 19
	movq	%rdx, %rax
	addq	%rax, %rax
	addq	%rdx, %rax
	salq	$4, %rax
	.loc 1 68 970 discriminator 19
	addq	%rsi, %rax
	jmp	.L281
.L279:
	.loc 1 68 970 is_stmt 0 discriminator 20
	movl	$0, %eax
.L281:
	.loc 1 68 970 discriminator 22
	movq	%rcx, %rsi
	movq	%rax, %rdi
	call	_Z10PrintTokenPK5TokenPPKc@PLT
.L251:
	.loc 1 69 16 is_stmt 1
	movl	$-1, %eax
	jmp	.L131
.L243:
	.loc 1 71 11
	movq	-72(%rbp), %rax
	addq	$8, %rax
	movq	%rax, %rdx
	movq	%rdx, %rax
	shrq	$3, %rax
	addq	$2147450880, %rax
	movzbl	(%rax), %eax
	testb	%al, %al
	setne	%cl
	cmpb	$3, %al
	setle	%al
	andl	%ecx, %eax
	testb	%al, %al
	je	.L282
	movq	%rdx, %rdi
	call	__asan_report_load4@PLT
.L282:
	movq	-72(%rbp), %rax
	movl	8(%rax), %eax
	.loc 1 71 20
	leal	1(%rax), %edx
	movq	-72(%rbp), %rax
	movl	%edx, 8(%rax)
	.loc 1 74 16
	movq	-72(%rbp), %rax
	movl	8(%rax), %esi
	.loc 1 74 35
	movq	-72(%rbp), %rax
	movq	%rax, %rdx
	shrq	$3, %rdx
	addq	$2147450880, %rdx
	movzbl	(%rdx), %edx
	testb	%dl, %dl
	je	.L283
	movq	%rax, %rdi
	call	__asan_report_load8@PLT
.L283:
	movq	-72(%rbp), %rax
	movq	(%rax), %rax
	.loc 1 74 45
	leaq	8(%rax), %rdx
	movq	%rdx, %rcx
	movq	%rcx, %rdx
	shrq	$3, %rdx
	addq	$2147450880, %rdx
	movzbl	(%rdx), %edx
	testb	%dl, %dl
	setne	%dil
	cmpb	$3, %dl
	setle	%dl
	andl	%edi, %edx
	testb	%dl, %dl
	je	.L284
	movq	%rcx, %rdi
	call	__asan_report_load4@PLT
.L284:
	movl	8(%rax), %eax
	.loc 1 74 64
	cmpl	%eax, %esi
	jge	.L285
	.loc 1 74 73 discriminator 1
	movq	-72(%rbp), %rax
	movq	(%rax), %rax
	.loc 1 74 83 discriminator 1
	movq	%rax, %rdx
	movq	%rdx, %rcx
	shrq	$3, %rcx
	addq	$2147450880, %rcx
	movzbl	(%rcx), %ecx
	testb	%cl, %cl
	je	.L286
	.loc 1 74 83 is_stmt 0
	movq	%rdx, %rdi
	call	__asan_report_load8@PLT
.L286:
	.loc 1 74 83 discriminator 1
	movq	(%rax), %rcx
	.loc 1 74 101 is_stmt 1 discriminator 1
	movq	-72(%rbp), %rax
	movl	8(%rax), %eax
	movslq	%eax, %rdx
	.loc 1 74 93 discriminator 1
	movq	%rdx, %rax
	addq	%rax, %rax
	addq	%rdx, %rax
	salq	$4, %rax
	.loc 1 74 64 discriminator 1
	addq	%rcx, %rax
	jmp	.L287
.L285:
	.loc 1 74 64 is_stmt 0 discriminator 2
	movl	$0, %eax
.L287:
	.loc 1 74 125 is_stmt 1 discriminator 4
	leaq	16(%rax), %rdx
	movq	%rdx, %rcx
	movq	%rcx, %rdx
	shrq	$3, %rdx
	addq	$2147450880, %rdx
	movzbl	(%rdx), %edx
	testb	%dl, %dl
	setne	%sil
	cmpb	$3, %dl
	setle	%dl
	andl	%esi, %edx
	testb	%dl, %dl
	je	.L288
	.loc 1 74 125 is_stmt 0
	movq	%rcx, %rdi
	call	__asan_report_load4@PLT
.L288:
	.loc 1 74 125 discriminator 4
	movl	16(%rax), %eax
	.loc 1 74 5 is_stmt 1 discriminator 4
	cmpl	$41, %eax
	je	.L289
	.loc 1 76 19
	leaq	.LC23(%rip), %rax
	movq	%rax, %rdi
	movl	$0, %eax
	call	printf@PLT
	.loc 1 76 80
	call	_ZN6Logger11getInstanceEv@PLT
	movq	%rax, %rdx
	.loc 1 76 86
	leaq	.LC24(%rip), %rax
	movq	%rax, %rsi
	movq	%rdx, %rdi
	movl	$0, %eax
	call	_ZN6Logger3logEPKcz@PLT
	.loc 1 76 126
	call	_ZN6Logger11getInstanceEv@PLT
	movq	%rax, %rdx
	.loc 1 76 132
	leaq	.LC25(%rip), %rax
	movq	%rax, %rsi
	movq	%rdx, %rdi
	movl	$0, %eax
	call	_ZN6Logger3logEPKcz@PLT
	.loc 1 76 158
	call	_ZN6Logger11getInstanceEv@PLT
	movq	%rax, %rdx
	.loc 1 76 176
	leaq	.LC38(%rip), %rax
	movq	%rax, %rsi
	movq	%rdx, %rdi
	movl	$0, %eax
	call	_ZN6Logger15log_dup_consoleEPKcz@PLT
	.loc 1 76 226
	movq	-72(%rbp), %rax
	addq	$8, %rax
	movq	%rax, %rdx
	movq	%rdx, %rax
	shrq	$3, %rax
	addq	$2147450880, %rax
	movzbl	(%rax), %eax
	testb	%al, %al
	setne	%cl
	cmpb	$3, %al
	setle	%al
	andl	%ecx, %eax
	testb	%al, %al
	je	.L290
	movq	%rdx, %rdi
	call	__asan_report_load4@PLT
.L290:
	movq	-72(%rbp), %rax
	movl	8(%rax), %esi
	.loc 1 76 245
	movq	-72(%rbp), %rax
	movq	%rax, %rdx
	shrq	$3, %rdx
	addq	$2147450880, %rdx
	movzbl	(%rdx), %edx
	testb	%dl, %dl
	je	.L291
	movq	%rax, %rdi
	call	__asan_report_load8@PLT
.L291:
	movq	-72(%rbp), %rax
	movq	(%rax), %rax
	.loc 1 76 255
	leaq	8(%rax), %rdx
	movq	%rdx, %rcx
	movq	%rcx, %rdx
	shrq	$3, %rdx
	addq	$2147450880, %rdx
	movzbl	(%rdx), %edx
	testb	%dl, %dl
	setne	%dil
	cmpb	$3, %dl
	setle	%dl
	andl	%edi, %edx
	testb	%dl, %dl
	je	.L292
	movq	%rcx, %rdi
	call	__asan_report_load4@PLT
.L292:
	movl	8(%rax), %eax
	.loc 1 76 274
	cmpl	%eax, %esi
	jge	.L293
	.loc 1 76 283 discriminator 1
	movq	-72(%rbp), %rax
	movq	(%rax), %rax
	.loc 1 76 293 discriminator 1
	movq	%rax, %rdx
	movq	%rdx, %rcx
	shrq	$3, %rcx
	addq	$2147450880, %rcx
	movzbl	(%rcx), %ecx
	testb	%cl, %cl
	je	.L294
	.loc 1 76 293 is_stmt 0
	movq	%rdx, %rdi
	call	__asan_report_load8@PLT
.L294:
	.loc 1 76 293 discriminator 1
	movq	(%rax), %rcx
	.loc 1 76 311 is_stmt 1 discriminator 1
	movq	-72(%rbp), %rax
	movl	8(%rax), %eax
	movslq	%eax, %rdx
	.loc 1 76 303 discriminator 1
	movq	%rdx, %rax
	addq	%rax, %rax
	addq	%rdx, %rax
	salq	$4, %rax
	.loc 1 76 274 discriminator 1
	addq	%rcx, %rax
	jmp	.L295
.L293:
	.loc 1 76 274 is_stmt 0 discriminator 2
	movl	$0, %eax
.L295:
	.loc 1 76 213 is_stmt 1 discriminator 4
	testq	%rax, %rax
	jne	.L296
	.loc 1 76 341 discriminator 5
	leaq	.LC27(%rip), %rax
	movq	%rax, %rdi
	call	puts@PLT
	jmp	.L297
.L296:
	.loc 1 76 372 discriminator 6
	leaq	.LC28(%rip), %rax
	movq	%rax, %rdi
	movl	$0, %eax
	call	printf@PLT
	.loc 1 76 591 discriminator 6
	movq	-72(%rbp), %rax
	addq	$8, %rax
	movq	%rax, %rdx
	movq	%rdx, %rax
	shrq	$3, %rax
	addq	$2147450880, %rax
	movzbl	(%rax), %eax
	testb	%al, %al
	setne	%cl
	cmpb	$3, %al
	setle	%al
	andl	%ecx, %eax
	testb	%al, %al
	je	.L298
	.loc 1 76 591 is_stmt 0
	movq	%rdx, %rdi
	call	__asan_report_load4@PLT
.L298:
	.loc 1 76 591 discriminator 6
	movq	-72(%rbp), %rax
	movl	8(%rax), %esi
	.loc 1 76 610 is_stmt 1 discriminator 6
	movq	-72(%rbp), %rax
	movq	%rax, %rdx
	shrq	$3, %rdx
	addq	$2147450880, %rdx
	movzbl	(%rdx), %edx
	testb	%dl, %dl
	je	.L299
	.loc 1 76 610 is_stmt 0
	movq	%rax, %rdi
	call	__asan_report_load8@PLT
.L299:
	.loc 1 76 610 discriminator 6
	movq	-72(%rbp), %rax
	movq	(%rax), %rax
	.loc 1 76 620 is_stmt 1 discriminator 6
	leaq	8(%rax), %rdx
	movq	%rdx, %rcx
	movq	%rcx, %rdx
	shrq	$3, %rdx
	addq	$2147450880, %rdx
	movzbl	(%rdx), %edx
	testb	%dl, %dl
	setne	%dil
	cmpb	$3, %dl
	setle	%dl
	andl	%edi, %edx
	testb	%dl, %dl
	je	.L300
	.loc 1 76 620 is_stmt 0
	movq	%rcx, %rdi
	call	__asan_report_load4@PLT
.L300:
	.loc 1 76 620 discriminator 6
	movl	8(%rax), %eax
	.loc 1 76 639 is_stmt 1 discriminator 6
	cmpl	%eax, %esi
	jge	.L301
	.loc 1 76 648 discriminator 7
	movq	-72(%rbp), %rax
	movq	(%rax), %rax
	.loc 1 76 658 discriminator 7
	movq	%rax, %rdx
	movq	%rdx, %rcx
	shrq	$3, %rcx
	addq	$2147450880, %rcx
	movzbl	(%rcx), %ecx
	testb	%cl, %cl
	je	.L302
	.loc 1 76 658 is_stmt 0
	movq	%rdx, %rdi
	call	__asan_report_load8@PLT
.L302:
	.loc 1 76 658 discriminator 7
	movq	(%rax), %rcx
	.loc 1 76 676 is_stmt 1 discriminator 7
	movq	-72(%rbp), %rax
	movl	8(%rax), %eax
	movslq	%eax, %rdx
	.loc 1 76 668 discriminator 7
	movq	%rdx, %rax
	addq	%rax, %rax
	addq	%rdx, %rax
	salq	$4, %rax
	.loc 1 76 639 discriminator 7
	addq	%rcx, %rax
	jmp	.L303
.L301:
	.loc 1 76 639 is_stmt 0 discriminator 8
	movl	$0, %eax
.L303:
	.loc 1 76 399 is_stmt 1 discriminator 10
	leaq	44(%rax), %rdx
	movq	%rdx, %rcx
	shrq	$3, %rcx
	addq	$2147450880, %rcx
	movzbl	(%rcx), %ecx
	testb	%cl, %cl
	setne	%dil
	movq	%rdx, %rsi
	andl	$7, %esi
	addl	$3, %esi
	cmpb	%cl, %sil
	setge	%cl
	andl	%edi, %ecx
	testb	%cl, %cl
	je	.L304
	.loc 1 76 399 is_stmt 0
	movq	%rdx, %rdi
	call	__asan_report_load4@PLT
.L304:
	.loc 1 76 399 discriminator 10
	movl	44(%rax), %ecx
	.loc 1 76 468 is_stmt 1 discriminator 10
	movq	-72(%rbp), %rax
	addq	$8, %rax
	movq	%rax, %rdx
	movq	%rdx, %rax
	shrq	$3, %rax
	addq	$2147450880, %rax
	movzbl	(%rax), %eax
	testb	%al, %al
	setne	%sil
	cmpb	$3, %al
	setle	%al
	andl	%esi, %eax
	testb	%al, %al
	je	.L305
	.loc 1 76 468 is_stmt 0
	movq	%rdx, %rdi
	call	__asan_report_load4@PLT
.L305:
	.loc 1 76 468 discriminator 10
	movq	-72(%rbp), %rax
	movl	8(%rax), %edi
	.loc 1 76 487 is_stmt 1 discriminator 10
	movq	-72(%rbp), %rax
	movq	%rax, %rdx
	shrq	$3, %rdx
	addq	$2147450880, %rdx
	movzbl	(%rdx), %edx
	testb	%dl, %dl
	je	.L306
	.loc 1 76 487 is_stmt 0
	movq	%rax, %rdi
	call	__asan_report_load8@PLT
.L306:
	.loc 1 76 487 discriminator 10
	movq	-72(%rbp), %rax
	movq	(%rax), %rax
	.loc 1 76 497 is_stmt 1 discriminator 10
	leaq	8(%rax), %rdx
	movq	%rdx, %rsi
	movq	%rsi, %rdx
	shrq	$3, %rdx
	addq	$2147450880, %rdx
	movzbl	(%rdx), %edx
	testb	%dl, %dl
	setne	%r8b
	cmpb	$3, %dl
	setle	%dl
	andl	%r8d, %edx
	testb	%dl, %dl
	je	.L307
	.loc 1 76 497 is_stmt 0
	movq	%rsi, %rdi
	call	__asan_report_load4@PLT
.L307:
	.loc 1 76 497 discriminator 10
	movl	8(%rax), %eax
	.loc 1 76 516 is_stmt 1 discriminator 10
	cmpl	%eax, %edi
	jge	.L308
	.loc 1 76 525 discriminator 11
	movq	-72(%rbp), %rax
	movq	(%rax), %rax
	.loc 1 76 535 discriminator 11
	movq	%rax, %rdx
	movq	%rdx, %rsi
	shrq	$3, %rsi
	addq	$2147450880, %rsi
	movzbl	(%rsi), %esi
	testb	%sil, %sil
	je	.L309
	.loc 1 76 535 is_stmt 0
	movq	%rdx, %rdi
	call	__asan_report_load8@PLT
.L309:
	.loc 1 76 535 discriminator 11
	movq	(%rax), %rsi
	.loc 1 76 553 is_stmt 1 discriminator 11
	movq	-72(%rbp), %rax
	movl	8(%rax), %eax
	movslq	%eax, %rdx
	.loc 1 76 545 discriminator 11
	movq	%rdx, %rax
	addq	%rax, %rax
	addq	%rdx, %rax
	salq	$4, %rax
	.loc 1 76 516 discriminator 11
	addq	%rsi, %rax
	jmp	.L310
.L308:
	.loc 1 76 516 is_stmt 0 discriminator 12
	movl	$0, %eax
.L310:
	.loc 1 76 399 is_stmt 1 discriminator 14
	leaq	40(%rax), %rdx
	movq	%rdx, %rsi
	movq	%rsi, %rdx
	shrq	$3, %rdx
	addq	$2147450880, %rdx
	movzbl	(%rdx), %edx
	testb	%dl, %dl
	setne	%dil
	cmpb	$3, %dl
	setle	%dl
	andl	%edi, %edx
	testb	%dl, %dl
	je	.L311
	.loc 1 76 399 is_stmt 0
	movq	%rsi, %rdi
	call	__asan_report_load4@PLT
.L311:
	.loc 1 76 399 discriminator 14
	movl	40(%rax), %edx
	.loc 1 76 431 is_stmt 1 discriminator 14
	movq	-72(%rbp), %rax
	movq	%rax, %rsi
	shrq	$3, %rsi
	addq	$2147450880, %rsi
	movzbl	(%rsi), %esi
	testb	%sil, %sil
	je	.L312
	.loc 1 76 431 is_stmt 0
	movq	%rax, %rdi
	call	__asan_report_load8@PLT
.L312:
	.loc 1 76 431 discriminator 14
	movq	-72(%rbp), %rax
	movq	(%rax), %rax
	.loc 1 76 442 is_stmt 1 discriminator 14
	leaq	40(%rax), %rsi
	movq	%rsi, %rdi
	shrq	$3, %rdi
	addq	$2147450880, %rdi
	movzbl	(%rdi), %edi
	testb	%dil, %dil
	je	.L313
	.loc 1 76 442 is_stmt 0
	movq	%rsi, %rdi
	call	__asan_report_load8@PLT
.L313:
	.loc 1 76 442 discriminator 14
	movq	40(%rax), %rax
	.loc 1 76 399 is_stmt 1 discriminator 14
	movq	%rax, %rsi
	leaq	.LC29(%rip), %rax
	movq	%rax, %rdi
	movl	$0, %eax
	call	printf@PLT
	.loc 1 76 724 discriminator 14
	movq	-72(%rbp), %rax
	addq	$8, %rax
	movq	%rax, %rdx
	movq	%rdx, %rax
	shrq	$3, %rax
	addq	$2147450880, %rax
	movzbl	(%rax), %eax
	testb	%al, %al
	setne	%cl
	cmpb	$3, %al
	setle	%al
	andl	%ecx, %eax
	testb	%al, %al
	je	.L314
	.loc 1 76 724 is_stmt 0
	movq	%rdx, %rdi
	call	__asan_report_load4@PLT
.L314:
	.loc 1 76 724 discriminator 14
	movq	-72(%rbp), %rax
	movl	8(%rax), %esi
	.loc 1 76 743 is_stmt 1 discriminator 14
	movq	-72(%rbp), %rax
	movq	%rax, %rdx
	shrq	$3, %rdx
	addq	$2147450880, %rdx
	movzbl	(%rdx), %edx
	testb	%dl, %dl
	je	.L315
	.loc 1 76 743 is_stmt 0
	movq	%rax, %rdi
	call	__asan_report_load8@PLT
.L315:
	.loc 1 76 743 discriminator 14
	movq	-72(%rbp), %rax
	movq	(%rax), %rax
	.loc 1 76 753 is_stmt 1 discriminator 14
	leaq	8(%rax), %rdx
	movq	%rdx, %rcx
	movq	%rcx, %rdx
	shrq	$3, %rdx
	addq	$2147450880, %rdx
	movzbl	(%rdx), %edx
	testb	%dl, %dl
	setne	%dil
	cmpb	$3, %dl
	setle	%dl
	andl	%edi, %edx
	testb	%dl, %dl
	je	.L316
	.loc 1 76 753 is_stmt 0
	movq	%rcx, %rdi
	call	__asan_report_load4@PLT
.L316:
	.loc 1 76 753 discriminator 14
	movl	8(%rax), %eax
	.loc 1 76 772 is_stmt 1 discriminator 14
	cmpl	%eax, %esi
	jge	.L317
	.loc 1 76 781 discriminator 15
	movq	-72(%rbp), %rax
	movq	(%rax), %rax
	.loc 1 76 791 discriminator 15
	movq	%rax, %rdx
	movq	%rdx, %rcx
	shrq	$3, %rcx
	addq	$2147450880, %rcx
	movzbl	(%rcx), %ecx
	testb	%cl, %cl
	je	.L318
	.loc 1 76 791 is_stmt 0
	movq	%rdx, %rdi
	call	__asan_report_load8@PLT
.L318:
	.loc 1 76 791 discriminator 15
	movq	(%rax), %rcx
	.loc 1 76 809 is_stmt 1 discriminator 15
	movq	-72(%rbp), %rax
	movl	8(%rax), %eax
	movslq	%eax, %rdx
	.loc 1 76 801 discriminator 15
	movq	%rdx, %rax
	addq	%rax, %rax
	addq	%rdx, %rax
	salq	$4, %rax
	.loc 1 76 772 discriminator 15
	addq	%rcx, %rax
	jmp	.L319
.L317:
	.loc 1 76 772 is_stmt 0 discriminator 16
	movl	$0, %eax
.L319:
	.loc 1 76 715 is_stmt 1 discriminator 18
	leaq	32(%rax), %rdx
	movq	%rdx, %rcx
	shrq	$3, %rcx
	addq	$2147450880, %rcx
	movzbl	(%rcx), %ecx
	testb	%cl, %cl
	je	.L320
	.loc 1 76 715 is_stmt 0
	movq	%rdx, %rdi
	call	__asan_report_load8@PLT
.L320:
	.loc 1 76 715 discriminator 18
	movq	32(%rax), %rax
	movl	$10, %esi
	movq	%rax, %rdi
	call	_Z6printlPKcc@PLT
	.loc 1 76 863 is_stmt 1 discriminator 18
	leaq	.LC30(%rip), %rax
	movq	%rax, %rdi
	call	puts@PLT
	.loc 1 76 887 discriminator 18
	leaq	.LC34(%rip), %rax
	movq	%rax, %rcx
	movl	$76, %edx
	leaq	.LC17(%rip), %rax
	movq	%rax, %rsi
	leaq	.LC31(%rip), %rax
	movq	%rax, %rdi
	movl	$0, %eax
	call	printf@PLT
	.loc 1 76 1094 discriminator 18
	movq	-72(%rbp), %rax
	movq	%rax, %rdx
	shrq	$3, %rdx
	addq	$2147450880, %rdx
	movzbl	(%rdx), %edx
	testb	%dl, %dl
	je	.L321
	.loc 1 76 1094 is_stmt 0
	movq	%rax, %rdi
	call	__asan_report_load8@PLT
.L321:
	.loc 1 76 1094 discriminator 18
	movq	-72(%rbp), %rax
	movq	(%rax), %rax
	.loc 1 76 1104 is_stmt 1 discriminator 18
	leaq	24(%rax), %rdx
	movq	%rdx, %rcx
	shrq	$3, %rcx
	addq	$2147450880, %rcx
	movzbl	(%rcx), %ecx
	testb	%cl, %cl
	je	.L322
	.loc 1 76 1104 is_stmt 0
	movq	%rdx, %rdi
	call	__asan_report_load8@PLT
.L322:
	.loc 1 76 1104 discriminator 18
	movq	24(%rax), %rcx
	.loc 1 76 978 is_stmt 1 discriminator 18
	movq	-72(%rbp), %rax
	addq	$8, %rax
	movq	%rax, %rdx
	movq	%rdx, %rax
	shrq	$3, %rax
	addq	$2147450880, %rax
	movzbl	(%rax), %eax
	testb	%al, %al
	setne	%sil
	cmpb	$3, %al
	setle	%al
	andl	%esi, %eax
	testb	%al, %al
	je	.L323
	.loc 1 76 978 is_stmt 0
	movq	%rdx, %rdi
	call	__asan_report_load4@PLT
.L323:
	.loc 1 76 978 discriminator 18
	movq	-72(%rbp), %rax
	movl	8(%rax), %edi
	.loc 1 76 997 is_stmt 1 discriminator 18
	movq	-72(%rbp), %rax
	movq	(%rax), %rax
	.loc 1 76 1007 discriminator 18
	leaq	8(%rax), %rdx
	movq	%rdx, %rsi
	movq	%rsi, %rdx
	shrq	$3, %rdx
	addq	$2147450880, %rdx
	movzbl	(%rdx), %edx
	testb	%dl, %dl
	setne	%r8b
	cmpb	$3, %dl
	setle	%dl
	andl	%r8d, %edx
	testb	%dl, %dl
	je	.L324
	.loc 1 76 1007 is_stmt 0
	movq	%rsi, %rdi
	call	__asan_report_load4@PLT
.L324:
	.loc 1 76 1007 discriminator 18
	movl	8(%rax), %eax
	.loc 1 76 969 is_stmt 1 discriminator 18
	cmpl	%eax, %edi
	jge	.L325
	.loc 1 76 1035 discriminator 19
	movq	-72(%rbp), %rax
	movq	(%rax), %rax
	.loc 1 76 1045 discriminator 19
	movq	%rax, %rdx
	movq	%rdx, %rsi
	shrq	$3, %rsi
	addq	$2147450880, %rsi
	movzbl	(%rsi), %esi
	testb	%sil, %sil
	je	.L326
	.loc 1 76 1045 is_stmt 0
	movq	%rdx, %rdi
	call	__asan_report_load8@PLT
.L326:
	.loc 1 76 1045 discriminator 19
	movq	(%rax), %rsi
	.loc 1 76 1063 is_stmt 1 discriminator 19
	movq	-72(%rbp), %rax
	movl	8(%rax), %eax
	movslq	%eax, %rdx
	.loc 1 76 1055 discriminator 19
	movq	%rdx, %rax
	addq	%rax, %rax
	addq	%rdx, %rax
	salq	$4, %rax
	.loc 1 76 969 discriminator 19
	addq	%rsi, %rax
	jmp	.L327
.L325:
	.loc 1 76 969 is_stmt 0 discriminator 20
	movl	$0, %eax
.L327:
	.loc 1 76 969 discriminator 22
	movq	%rcx, %rsi
	movq	%rax, %rdi
	call	_Z10PrintTokenPK5TokenPPKc@PLT
.L297:
	.loc 1 77 15 is_stmt 1
	movl	$-1, %eax
	jmp	.L131
.L289:
	.loc 1 80 31
	movq	-72(%rbp), %rax
	addq	$8, %rax
	movq	%rax, %rdx
	movq	%rdx, %rax
	shrq	$3, %rax
	addq	$2147450880, %rax
	movzbl	(%rax), %eax
	testb	%al, %al
	setne	%cl
	cmpb	$3, %al
	setle	%al
	andl	%ecx, %eax
	testb	%al, %al
	je	.L328
	movq	%rdx, %rdi
	call	__asan_report_load4@PLT
.L328:
	movq	-72(%rbp), %rax
	movl	8(%rax), %esi
	.loc 1 80 50
	movq	-72(%rbp), %rax
	movq	%rax, %rdx
	shrq	$3, %rdx
	addq	$2147450880, %rdx
	movzbl	(%rdx), %edx
	testb	%dl, %dl
	je	.L329
	movq	%rax, %rdi
	call	__asan_report_load8@PLT
.L329:
	movq	-72(%rbp), %rax
	movq	(%rax), %rax
	.loc 1 80 60
	leaq	8(%rax), %rdx
	movq	%rdx, %rcx
	movq	%rcx, %rdx
	shrq	$3, %rdx
	addq	$2147450880, %rdx
	movzbl	(%rdx), %edx
	testb	%dl, %dl
	setne	%dil
	cmpb	$3, %dl
	setle	%dl
	andl	%edi, %edx
	testb	%dl, %dl
	je	.L330
	movq	%rcx, %rdi
	call	__asan_report_load4@PLT
.L330:
	movl	8(%rax), %eax
	.loc 1 80 79
	cmpl	%eax, %esi
	jge	.L331
	.loc 1 80 88 discriminator 1
	movq	-72(%rbp), %rax
	movq	(%rax), %rax
	.loc 1 80 98 discriminator 1
	movq	%rax, %rdx
	movq	%rdx, %rcx
	shrq	$3, %rcx
	addq	$2147450880, %rcx
	movzbl	(%rcx), %ecx
	testb	%cl, %cl
	je	.L332
	.loc 1 80 98 is_stmt 0
	movq	%rdx, %rdi
	call	__asan_report_load8@PLT
.L332:
	.loc 1 80 98 discriminator 1
	movq	(%rax), %rcx
	.loc 1 80 116 is_stmt 1 discriminator 1
	movq	-72(%rbp), %rax
	movl	8(%rax), %eax
	movslq	%eax, %rdx
	.loc 1 80 108 discriminator 1
	movq	%rdx, %rax
	addq	%rax, %rax
	addq	%rdx, %rax
	salq	$4, %rax
	.loc 1 80 79 discriminator 1
	addq	%rcx, %rax
	jmp	.L333
.L331:
	.loc 1 80 79 is_stmt 0 discriminator 2
	movl	$0, %eax
.L333:
	.loc 1 80 12 is_stmt 1 discriminator 4
	movq	%rax, -40(%rbp)
	.loc 1 81 11 discriminator 4
	movq	-72(%rbp), %rax
	addq	$8, %rax
	movq	%rax, %rdx
	movq	%rdx, %rax
	shrq	$3, %rax
	addq	$2147450880, %rax
	movzbl	(%rax), %eax
	testb	%al, %al
	setne	%cl
	cmpb	$3, %al
	setle	%al
	andl	%ecx, %eax
	testb	%al, %al
	je	.L334
	.loc 1 81 11 is_stmt 0
	movq	%rdx, %rdi
	call	__asan_report_load4@PLT
.L334:
	.loc 1 81 11 discriminator 4
	movq	-72(%rbp), %rax
	movl	8(%rax), %eax
	.loc 1 81 20 is_stmt 1 discriminator 4
	leal	1(%rax), %edx
	movq	-72(%rbp), %rax
	movl	%edx, 8(%rax)
	.loc 1 86 37 discriminator 4
	movq	-56(%rbp), %rax
	addq	$24, %rax
	movq	%rax, %rdx
	movq	%rdx, %rax
	shrq	$3, %rax
	addq	$2147450880, %rax
	movzbl	(%rax), %eax
	testb	%al, %al
	setne	%cl
	cmpb	$3, %al
	setle	%al
	andl	%ecx, %eax
	testb	%al, %al
	je	.L335
	.loc 1 86 37 is_stmt 0
	movq	%rdx, %rdi
	call	__asan_report_load4@PLT
.L335:
	.loc 1 86 37 discriminator 4
	movq	-56(%rbp), %rax
	movl	24(%rax), %edx
	movq	-48(%rbp), %rax
	addq	$24, %rax
	movq	%rax, %rcx
	movq	%rcx, %rax
	shrq	$3, %rax
	addq	$2147450880, %rax
	movzbl	(%rax), %eax
	testb	%al, %al
	setne	%sil
	cmpb	$3, %al
	setle	%al
	andl	%esi, %eax
	testb	%al, %al
	je	.L336
	.loc 1 86 37
	movq	%rcx, %rdi
	call	__asan_report_load4@PLT
.L336:
	.loc 1 86 37 discriminator 4
	movq	-48(%rbp), %rax
	movl	24(%rax), %eax
	movl	%edx, %esi
	movl	%eax, %edi
	call	_Z12NewFuncLabelii@PLT
	movq	%rax, -32(%rbp)
	.loc 1 87 5 is_stmt 1 discriminator 4
	cmpq	$0, -32(%rbp)
	jne	.L337
	.loc 1 88 16
	movl	$-1, %eax
	jmp	.L131
.L337:
	.loc 1 91 5
	cmpq	$0, -80(%rbp)
	je	.L338
	.loc 1 93 24
	movq	-40(%rbp), %rax
	addq	$16, %rax
	movq	%rax, %rdx
	movq	%rdx, %rax
	shrq	$3, %rax
	addq	$2147450880, %rax
	movzbl	(%rax), %eax
	testb	%al, %al
	setne	%cl
	cmpb	$3, %al
	setle	%al
	andl	%ecx, %eax
	testb	%al, %al
	je	.L339
	movq	%rdx, %rdi
	call	__asan_report_store4@PLT
.L339:
	movq	-40(%rbp), %rax
	movl	$9, 16(%rax)
	.loc 1 94 30
	movq	-40(%rbp), %rax
	movq	%rax, %rdx
	shrq	$3, %rdx
	addq	$2147450880, %rdx
	movzbl	(%rdx), %edx
	testb	%dl, %dl
	je	.L340
	movq	%rax, %rdi
	call	__asan_report_store8@PLT
.L340:
	movq	-40(%rbp), %rax
	movq	-48(%rbp), %rdx
	movq	%rdx, (%rax)
	.loc 1 96 27
	movq	-48(%rbp), %rax
	addq	$8, %rax
	movq	%rax, %rdx
	shrq	$3, %rdx
	addq	$2147450880, %rdx
	movzbl	(%rdx), %edx
	testb	%dl, %dl
	je	.L341
	movq	%rax, %rdi
	call	__asan_report_store8@PLT
.L341:
	movq	-48(%rbp), %rax
	movq	-56(%rbp), %rdx
	movq	%rdx, 8(%rax)
	.loc 1 98 20
	movq	-80(%rbp), %rax
	movq	%rax, %rdx
	shrq	$3, %rdx
	addq	$2147450880, %rdx
	movzbl	(%rdx), %edx
	testb	%dl, %dl
	je	.L342
	movq	%rax, %rdi
	call	__asan_report_store8@PLT
.L342:
	movq	-80(%rbp), %rax
	movq	-40(%rbp), %rdx
	movq	%rdx, (%rax)
.L338:
	.loc 1 102 36
	movq	-72(%rbp), %rax
	addq	$16, %rax
	movq	%rax, %rdx
	shrq	$3, %rdx
	addq	$2147450880, %rdx
	movzbl	(%rdx), %edx
	testb	%dl, %dl
	je	.L343
	movq	%rax, %rdi
	call	__asan_report_load8@PLT
.L343:
	movq	-72(%rbp), %rax
	movq	16(%rax), %rdx
	movq	-48(%rbp), %rax
	addq	$24, %rax
	movq	%rax, %rcx
	movq	%rcx, %rax
	shrq	$3, %rax
	addq	$2147450880, %rax
	movzbl	(%rax), %eax
	testb	%al, %al
	setne	%sil
	cmpb	$3, %al
	setle	%al
	andl	%esi, %eax
	testb	%al, %al
	je	.L344
	movq	%rcx, %rdi
	call	__asan_report_load4@PLT
.L344:
	movq	-48(%rbp), %rax
	movl	24(%rax), %eax
	movq	%rdx, %rsi
	movl	%eax, %edi
	call	_Z11IsFuncLabeliP9FuncTabel@PLT
	movl	%eax, -64(%rbp)
	.loc 1 104 5
	cmpl	$-9, -64(%rbp)
	jne	.L345
	.loc 1 104 38 discriminator 1
	cmpq	$0, -80(%rbp)
	je	.L345
	.loc 1 106 79
	movq	-72(%rbp), %rax
	movq	%rax, %rdx
	shrq	$3, %rdx
	addq	$2147450880, %rdx
	movzbl	(%rdx), %edx
	testb	%dl, %dl
	je	.L346
	movq	%rax, %rdi
	call	__asan_report_load8@PLT
.L346:
	movq	-72(%rbp), %rax
	movq	(%rax), %rax
	.loc 1 106 89
	leaq	24(%rax), %rdx
	movq	%rdx, %rcx
	shrq	$3, %rcx
	addq	$2147450880, %rcx
	movzbl	(%rcx), %ecx
	testb	%cl, %cl
	je	.L347
	movq	%rdx, %rdi
	call	__asan_report_load8@PLT
.L347:
	movq	24(%rax), %rcx
	.loc 1 106 108
	movq	-32(%rbp), %rax
	movq	%rax, %rdx
	movq	%rdx, %rax
	shrq	$3, %rax
	addq	$2147450880, %rax
	movzbl	(%rax), %eax
	testb	%al, %al
	setne	%sil
	cmpb	$3, %al
	setle	%al
	andl	%esi, %eax
	testb	%al, %al
	je	.L348
	movq	%rdx, %rdi
	call	__asan_report_load4@PLT
.L348:
	movq	-32(%rbp), %rax
	movl	(%rax), %eax
	cltq
	.loc 1 106 112
	salq	$3, %rax
	addq	%rcx, %rax
	.loc 1 106 15
	movq	%rax, %rdx
	movq	%rdx, %rcx
	shrq	$3, %rcx
	addq	$2147450880, %rcx
	movzbl	(%rcx), %ecx
	testb	%cl, %cl
	je	.L349
	movq	%rdx, %rdi
	call	__asan_report_load8@PLT
.L349:
	movq	(%rax), %rax
	movq	%rax, %rsi
	leaq	.LC39(%rip), %rax
	movq	%rax, %rdi
	movl	$0, %eax
	call	printf@PLT
	.loc 1 107 15
	leaq	.LC40(%rip), %rax
	movq	%rax, %rdi
	call	puts@PLT
.L345:
.LBB2:
	.loc 1 111 5
	cmpl	$-9, -64(%rbp)
	je	.L350
.LBB3:
	.loc 1 113 9
	cmpq	$0, -80(%rbp)
	jne	.L351
	.loc 1 115 24
	leaq	.LC23(%rip), %rax
	movq	%rax, %rdi
	movl	$0, %eax
	call	printf@PLT
	.loc 1 115 85
	call	_ZN6Logger11getInstanceEv@PLT
	movq	%rax, %rdx
	.loc 1 115 91
	leaq	.LC24(%rip), %rax
	movq	%rax, %rsi
	movq	%rdx, %rdi
	movl	$0, %eax
	call	_ZN6Logger3logEPKcz@PLT
	.loc 1 115 131
	call	_ZN6Logger11getInstanceEv@PLT
	movq	%rax, %rdx
	.loc 1 115 137
	leaq	.LC25(%rip), %rax
	movq	%rax, %rsi
	movq	%rdx, %rdi
	movl	$0, %eax
	call	_ZN6Logger3logEPKcz@PLT
	.loc 1 115 163
	call	_ZN6Logger11getInstanceEv@PLT
	movq	%rax, %rdi
	.loc 1 115 235
	movq	-72(%rbp), %rax
	movq	%rax, %rdx
	shrq	$3, %rdx
	addq	$2147450880, %rdx
	movzbl	(%rdx), %edx
	testb	%dl, %dl
	je	.L352
	movq	%rax, %rdi
	call	__asan_report_load8@PLT
.L352:
	movq	-72(%rbp), %rax
	movq	(%rax), %rax
	.loc 1 115 245
	leaq	24(%rax), %rdx
	movq	%rdx, %rcx
	shrq	$3, %rcx
	addq	$2147450880, %rcx
	movzbl	(%rcx), %ecx
	testb	%cl, %cl
	je	.L353
	movq	%rdx, %rdi
	call	__asan_report_load8@PLT
.L353:
	movq	24(%rax), %rcx
	.loc 1 115 264
	movq	-32(%rbp), %rax
	movq	%rax, %rdx
	movq	%rdx, %rax
	shrq	$3, %rax
	addq	$2147450880, %rax
	movzbl	(%rax), %eax
	testb	%al, %al
	setne	%sil
	cmpb	$3, %al
	setle	%al
	andl	%esi, %eax
	testb	%al, %al
	je	.L354
	movq	%rdx, %rdi
	call	__asan_report_load4@PLT
.L354:
	movq	-32(%rbp), %rax
	movl	(%rax), %eax
	cltq
	.loc 1 115 268
	salq	$3, %rax
	addq	%rcx, %rax
	.loc 1 115 181
	movq	%rax, %rdx
	movq	%rdx, %rcx
	shrq	$3, %rcx
	addq	$2147450880, %rcx
	movzbl	(%rcx), %ecx
	testb	%cl, %cl
	je	.L355
	movq	%rdx, %rdi
	call	__asan_report_load8@PLT
.L355:
	movq	(%rax), %rax
	movq	%rax, %rdx
	leaq	.LC41(%rip), %rax
	movq	%rax, %rsi
	movl	$0, %eax
	call	_ZN6Logger15log_dup_consoleEPKcz@PLT
	.loc 1 115 285
	movq	-72(%rbp), %rax
	addq	$8, %rax
	movq	%rax, %rdx
	movq	%rdx, %rax
	shrq	$3, %rax
	addq	$2147450880, %rax
	movzbl	(%rax), %eax
	testb	%al, %al
	setne	%cl
	cmpb	$3, %al
	setle	%al
	andl	%ecx, %eax
	testb	%al, %al
	je	.L356
	movq	%rdx, %rdi
	call	__asan_report_load4@PLT
.L356:
	movq	-72(%rbp), %rax
	movl	8(%rax), %esi
	.loc 1 115 304
	movq	-72(%rbp), %rax
	movq	%rax, %rdx
	shrq	$3, %rdx
	addq	$2147450880, %rdx
	movzbl	(%rdx), %edx
	testb	%dl, %dl
	je	.L357
	movq	%rax, %rdi
	call	__asan_report_load8@PLT
.L357:
	movq	-72(%rbp), %rax
	movq	(%rax), %rax
	.loc 1 115 314
	leaq	8(%rax), %rdx
	movq	%rdx, %rcx
	movq	%rcx, %rdx
	shrq	$3, %rdx
	addq	$2147450880, %rdx
	movzbl	(%rdx), %edx
	testb	%dl, %dl
	setne	%dil
	cmpb	$3, %dl
	setle	%dl
	andl	%edi, %edx
	testb	%dl, %dl
	je	.L358
	movq	%rcx, %rdi
	call	__asan_report_load4@PLT
.L358:
	movl	8(%rax), %eax
	.loc 1 115 333
	cmpl	%eax, %esi
	jge	.L359
	.loc 1 115 342 discriminator 1
	movq	-72(%rbp), %rax
	movq	(%rax), %rax
	.loc 1 115 352 discriminator 1
	movq	%rax, %rdx
	movq	%rdx, %rcx
	shrq	$3, %rcx
	addq	$2147450880, %rcx
	movzbl	(%rcx), %ecx
	testb	%cl, %cl
	je	.L360
	.loc 1 115 352 is_stmt 0
	movq	%rdx, %rdi
	call	__asan_report_load8@PLT
.L360:
	.loc 1 115 352 discriminator 1
	movq	(%rax), %rcx
	.loc 1 115 370 is_stmt 1 discriminator 1
	movq	-72(%rbp), %rax
	movl	8(%rax), %eax
	movslq	%eax, %rdx
	.loc 1 115 362 discriminator 1
	movq	%rdx, %rax
	addq	%rax, %rax
	addq	%rdx, %rax
	salq	$4, %rax
	.loc 1 115 333 discriminator 1
	addq	%rcx, %rax
	jmp	.L361
.L359:
	.loc 1 115 333 is_stmt 0 discriminator 2
	movl	$0, %eax
.L361:
	.loc 1 115 272 is_stmt 1 discriminator 4
	testq	%rax, %rax
	jne	.L362
	.loc 1 115 400 discriminator 5
	leaq	.LC27(%rip), %rax
	movq	%rax, %rdi
	call	puts@PLT
	.loc 1 116 18 discriminator 5
	jmp	.L394
.L362:
	.loc 1 115 431 discriminator 6
	leaq	.LC28(%rip), %rax
	movq	%rax, %rdi
	movl	$0, %eax
	call	printf@PLT
	.loc 1 115 650 discriminator 6
	movq	-72(%rbp), %rax
	addq	$8, %rax
	movq	%rax, %rdx
	movq	%rdx, %rax
	shrq	$3, %rax
	addq	$2147450880, %rax
	movzbl	(%rax), %eax
	testb	%al, %al
	setne	%cl
	cmpb	$3, %al
	setle	%al
	andl	%ecx, %eax
	testb	%al, %al
	je	.L364
	.loc 1 115 650 is_stmt 0
	movq	%rdx, %rdi
	call	__asan_report_load4@PLT
.L364:
	.loc 1 115 650 discriminator 6
	movq	-72(%rbp), %rax
	movl	8(%rax), %esi
	.loc 1 115 669 is_stmt 1 discriminator 6
	movq	-72(%rbp), %rax
	movq	%rax, %rdx
	shrq	$3, %rdx
	addq	$2147450880, %rdx
	movzbl	(%rdx), %edx
	testb	%dl, %dl
	je	.L365
	.loc 1 115 669 is_stmt 0
	movq	%rax, %rdi
	call	__asan_report_load8@PLT
.L365:
	.loc 1 115 669 discriminator 6
	movq	-72(%rbp), %rax
	movq	(%rax), %rax
	.loc 1 115 679 is_stmt 1 discriminator 6
	leaq	8(%rax), %rdx
	movq	%rdx, %rcx
	movq	%rcx, %rdx
	shrq	$3, %rdx
	addq	$2147450880, %rdx
	movzbl	(%rdx), %edx
	testb	%dl, %dl
	setne	%dil
	cmpb	$3, %dl
	setle	%dl
	andl	%edi, %edx
	testb	%dl, %dl
	je	.L366
	.loc 1 115 679 is_stmt 0
	movq	%rcx, %rdi
	call	__asan_report_load4@PLT
.L366:
	.loc 1 115 679 discriminator 6
	movl	8(%rax), %eax
	.loc 1 115 698 is_stmt 1 discriminator 6
	cmpl	%eax, %esi
	jge	.L367
	.loc 1 115 707 discriminator 7
	movq	-72(%rbp), %rax
	movq	(%rax), %rax
	.loc 1 115 717 discriminator 7
	movq	%rax, %rdx
	movq	%rdx, %rcx
	shrq	$3, %rcx
	addq	$2147450880, %rcx
	movzbl	(%rcx), %ecx
	testb	%cl, %cl
	je	.L368
	.loc 1 115 717 is_stmt 0
	movq	%rdx, %rdi
	call	__asan_report_load8@PLT
.L368:
	.loc 1 115 717 discriminator 7
	movq	(%rax), %rcx
	.loc 1 115 735 is_stmt 1 discriminator 7
	movq	-72(%rbp), %rax
	movl	8(%rax), %eax
	movslq	%eax, %rdx
	.loc 1 115 727 discriminator 7
	movq	%rdx, %rax
	addq	%rax, %rax
	addq	%rdx, %rax
	salq	$4, %rax
	.loc 1 115 698 discriminator 7
	addq	%rcx, %rax
	jmp	.L369
.L367:
	.loc 1 115 698 is_stmt 0 discriminator 8
	movl	$0, %eax
.L369:
	.loc 1 115 458 is_stmt 1 discriminator 10
	leaq	44(%rax), %rdx
	movq	%rdx, %rcx
	shrq	$3, %rcx
	addq	$2147450880, %rcx
	movzbl	(%rcx), %ecx
	testb	%cl, %cl
	setne	%dil
	movq	%rdx, %rsi
	andl	$7, %esi
	addl	$3, %esi
	cmpb	%cl, %sil
	setge	%cl
	andl	%edi, %ecx
	testb	%cl, %cl
	je	.L370
	.loc 1 115 458 is_stmt 0
	movq	%rdx, %rdi
	call	__asan_report_load4@PLT
.L370:
	.loc 1 115 458 discriminator 10
	movl	44(%rax), %ecx
	.loc 1 115 527 is_stmt 1 discriminator 10
	movq	-72(%rbp), %rax
	addq	$8, %rax
	movq	%rax, %rdx
	movq	%rdx, %rax
	shrq	$3, %rax
	addq	$2147450880, %rax
	movzbl	(%rax), %eax
	testb	%al, %al
	setne	%sil
	cmpb	$3, %al
	setle	%al
	andl	%esi, %eax
	testb	%al, %al
	je	.L371
	.loc 1 115 527 is_stmt 0
	movq	%rdx, %rdi
	call	__asan_report_load4@PLT
.L371:
	.loc 1 115 527 discriminator 10
	movq	-72(%rbp), %rax
	movl	8(%rax), %edi
	.loc 1 115 546 is_stmt 1 discriminator 10
	movq	-72(%rbp), %rax
	movq	%rax, %rdx
	shrq	$3, %rdx
	addq	$2147450880, %rdx
	movzbl	(%rdx), %edx
	testb	%dl, %dl
	je	.L372
	.loc 1 115 546 is_stmt 0
	movq	%rax, %rdi
	call	__asan_report_load8@PLT
.L372:
	.loc 1 115 546 discriminator 10
	movq	-72(%rbp), %rax
	movq	(%rax), %rax
	.loc 1 115 556 is_stmt 1 discriminator 10
	leaq	8(%rax), %rdx
	movq	%rdx, %rsi
	movq	%rsi, %rdx
	shrq	$3, %rdx
	addq	$2147450880, %rdx
	movzbl	(%rdx), %edx
	testb	%dl, %dl
	setne	%r8b
	cmpb	$3, %dl
	setle	%dl
	andl	%r8d, %edx
	testb	%dl, %dl
	je	.L373
	.loc 1 115 556 is_stmt 0
	movq	%rsi, %rdi
	call	__asan_report_load4@PLT
.L373:
	.loc 1 115 556 discriminator 10
	movl	8(%rax), %eax
	.loc 1 115 575 is_stmt 1 discriminator 10
	cmpl	%eax, %edi
	jge	.L374
	.loc 1 115 584 discriminator 11
	movq	-72(%rbp), %rax
	movq	(%rax), %rax
	.loc 1 115 594 discriminator 11
	movq	%rax, %rdx
	movq	%rdx, %rsi
	shrq	$3, %rsi
	addq	$2147450880, %rsi
	movzbl	(%rsi), %esi
	testb	%sil, %sil
	je	.L375
	.loc 1 115 594 is_stmt 0
	movq	%rdx, %rdi
	call	__asan_report_load8@PLT
.L375:
	.loc 1 115 594 discriminator 11
	movq	(%rax), %rsi
	.loc 1 115 612 is_stmt 1 discriminator 11
	movq	-72(%rbp), %rax
	movl	8(%rax), %eax
	movslq	%eax, %rdx
	.loc 1 115 604 discriminator 11
	movq	%rdx, %rax
	addq	%rax, %rax
	addq	%rdx, %rax
	salq	$4, %rax
	.loc 1 115 575 discriminator 11
	addq	%rsi, %rax
	jmp	.L376
.L374:
	.loc 1 115 575 is_stmt 0 discriminator 12
	movl	$0, %eax
.L376:
	.loc 1 115 458 is_stmt 1 discriminator 14
	leaq	40(%rax), %rdx
	movq	%rdx, %rsi
	movq	%rsi, %rdx
	shrq	$3, %rdx
	addq	$2147450880, %rdx
	movzbl	(%rdx), %edx
	testb	%dl, %dl
	setne	%dil
	cmpb	$3, %dl
	setle	%dl
	andl	%edi, %edx
	testb	%dl, %dl
	je	.L377
	.loc 1 115 458 is_stmt 0
	movq	%rsi, %rdi
	call	__asan_report_load4@PLT
.L377:
	.loc 1 115 458 discriminator 14
	movl	40(%rax), %edx
	.loc 1 115 490 is_stmt 1 discriminator 14
	movq	-72(%rbp), %rax
	movq	%rax, %rsi
	shrq	$3, %rsi
	addq	$2147450880, %rsi
	movzbl	(%rsi), %esi
	testb	%sil, %sil
	je	.L378
	.loc 1 115 490 is_stmt 0
	movq	%rax, %rdi
	call	__asan_report_load8@PLT
.L378:
	.loc 1 115 490 discriminator 14
	movq	-72(%rbp), %rax
	movq	(%rax), %rax
	.loc 1 115 501 is_stmt 1 discriminator 14
	leaq	40(%rax), %rsi
	movq	%rsi, %rdi
	shrq	$3, %rdi
	addq	$2147450880, %rdi
	movzbl	(%rdi), %edi
	testb	%dil, %dil
	je	.L379
	.loc 1 115 501 is_stmt 0
	movq	%rsi, %rdi
	call	__asan_report_load8@PLT
.L379:
	.loc 1 115 501 discriminator 14
	movq	40(%rax), %rax
	.loc 1 115 458 is_stmt 1 discriminator 14
	movq	%rax, %rsi
	leaq	.LC29(%rip), %rax
	movq	%rax, %rdi
	movl	$0, %eax
	call	printf@PLT
	.loc 1 115 783 discriminator 14
	movq	-72(%rbp), %rax
	addq	$8, %rax
	movq	%rax, %rdx
	movq	%rdx, %rax
	shrq	$3, %rax
	addq	$2147450880, %rax
	movzbl	(%rax), %eax
	testb	%al, %al
	setne	%cl
	cmpb	$3, %al
	setle	%al
	andl	%ecx, %eax
	testb	%al, %al
	je	.L380
	.loc 1 115 783 is_stmt 0
	movq	%rdx, %rdi
	call	__asan_report_load4@PLT
.L380:
	.loc 1 115 783 discriminator 14
	movq	-72(%rbp), %rax
	movl	8(%rax), %esi
	.loc 1 115 802 is_stmt 1 discriminator 14
	movq	-72(%rbp), %rax
	movq	%rax, %rdx
	shrq	$3, %rdx
	addq	$2147450880, %rdx
	movzbl	(%rdx), %edx
	testb	%dl, %dl
	je	.L381
	.loc 1 115 802 is_stmt 0
	movq	%rax, %rdi
	call	__asan_report_load8@PLT
.L381:
	.loc 1 115 802 discriminator 14
	movq	-72(%rbp), %rax
	movq	(%rax), %rax
	.loc 1 115 812 is_stmt 1 discriminator 14
	leaq	8(%rax), %rdx
	movq	%rdx, %rcx
	movq	%rcx, %rdx
	shrq	$3, %rdx
	addq	$2147450880, %rdx
	movzbl	(%rdx), %edx
	testb	%dl, %dl
	setne	%dil
	cmpb	$3, %dl
	setle	%dl
	andl	%edi, %edx
	testb	%dl, %dl
	je	.L382
	.loc 1 115 812 is_stmt 0
	movq	%rcx, %rdi
	call	__asan_report_load4@PLT
.L382:
	.loc 1 115 812 discriminator 14
	movl	8(%rax), %eax
	.loc 1 115 831 is_stmt 1 discriminator 14
	cmpl	%eax, %esi
	jge	.L383
	.loc 1 115 840 discriminator 15
	movq	-72(%rbp), %rax
	movq	(%rax), %rax
	.loc 1 115 850 discriminator 15
	movq	%rax, %rdx
	movq	%rdx, %rcx
	shrq	$3, %rcx
	addq	$2147450880, %rcx
	movzbl	(%rcx), %ecx
	testb	%cl, %cl
	je	.L384
	.loc 1 115 850 is_stmt 0
	movq	%rdx, %rdi
	call	__asan_report_load8@PLT
.L384:
	.loc 1 115 850 discriminator 15
	movq	(%rax), %rcx
	.loc 1 115 868 is_stmt 1 discriminator 15
	movq	-72(%rbp), %rax
	movl	8(%rax), %eax
	movslq	%eax, %rdx
	.loc 1 115 860 discriminator 15
	movq	%rdx, %rax
	addq	%rax, %rax
	addq	%rdx, %rax
	salq	$4, %rax
	.loc 1 115 831 discriminator 15
	addq	%rcx, %rax
	jmp	.L385
.L383:
	.loc 1 115 831 is_stmt 0 discriminator 16
	movl	$0, %eax
.L385:
	.loc 1 115 774 is_stmt 1 discriminator 18
	leaq	32(%rax), %rdx
	movq	%rdx, %rcx
	shrq	$3, %rcx
	addq	$2147450880, %rcx
	movzbl	(%rcx), %ecx
	testb	%cl, %cl
	je	.L386
	.loc 1 115 774 is_stmt 0
	movq	%rdx, %rdi
	call	__asan_report_load8@PLT
.L386:
	.loc 1 115 774 discriminator 18
	movq	32(%rax), %rax
	movl	$10, %esi
	movq	%rax, %rdi
	call	_Z6printlPKcc@PLT
	.loc 1 115 922 is_stmt 1 discriminator 18
	leaq	.LC30(%rip), %rax
	movq	%rax, %rdi
	call	puts@PLT
	.loc 1 115 946 discriminator 18
	leaq	.LC34(%rip), %rax
	movq	%rax, %rcx
	movl	$115, %edx
	leaq	.LC17(%rip), %rax
	movq	%rax, %rsi
	leaq	.LC31(%rip), %rax
	movq	%rax, %rdi
	movl	$0, %eax
	call	printf@PLT
	.loc 1 115 1154 discriminator 18
	movq	-72(%rbp), %rax
	movq	%rax, %rdx
	shrq	$3, %rdx
	addq	$2147450880, %rdx
	movzbl	(%rdx), %edx
	testb	%dl, %dl
	je	.L387
	.loc 1 115 1154 is_stmt 0
	movq	%rax, %rdi
	call	__asan_report_load8@PLT
.L387:
	.loc 1 115 1154 discriminator 18
	movq	-72(%rbp), %rax
	movq	(%rax), %rax
	.loc 1 115 1164 is_stmt 1 discriminator 18
	leaq	24(%rax), %rdx
	movq	%rdx, %rcx
	shrq	$3, %rcx
	addq	$2147450880, %rcx
	movzbl	(%rcx), %ecx
	testb	%cl, %cl
	je	.L388
	.loc 1 115 1164 is_stmt 0
	movq	%rdx, %rdi
	call	__asan_report_load8@PLT
.L388:
	.loc 1 115 1164 discriminator 18
	movq	24(%rax), %rcx
	.loc 1 115 1038 is_stmt 1 discriminator 18
	movq	-72(%rbp), %rax
	addq	$8, %rax
	movq	%rax, %rdx
	movq	%rdx, %rax
	shrq	$3, %rax
	addq	$2147450880, %rax
	movzbl	(%rax), %eax
	testb	%al, %al
	setne	%sil
	cmpb	$3, %al
	setle	%al
	andl	%esi, %eax
	testb	%al, %al
	je	.L389
	.loc 1 115 1038 is_stmt 0
	movq	%rdx, %rdi
	call	__asan_report_load4@PLT
.L389:
	.loc 1 115 1038 discriminator 18
	movq	-72(%rbp), %rax
	movl	8(%rax), %edi
	.loc 1 115 1057 is_stmt 1 discriminator 18
	movq	-72(%rbp), %rax
	movq	(%rax), %rax
	.loc 1 115 1067 discriminator 18
	leaq	8(%rax), %rdx
	movq	%rdx, %rsi
	movq	%rsi, %rdx
	shrq	$3, %rdx
	addq	$2147450880, %rdx
	movzbl	(%rdx), %edx
	testb	%dl, %dl
	setne	%r8b
	cmpb	$3, %dl
	setle	%dl
	andl	%r8d, %edx
	testb	%dl, %dl
	je	.L390
	.loc 1 115 1067 is_stmt 0
	movq	%rsi, %rdi
	call	__asan_report_load4@PLT
.L390:
	.loc 1 115 1067 discriminator 18
	movl	8(%rax), %eax
	.loc 1 115 1029 is_stmt 1 discriminator 18
	cmpl	%eax, %edi
	jge	.L391
	.loc 1 115 1095 discriminator 19
	movq	-72(%rbp), %rax
	movq	(%rax), %rax
	.loc 1 115 1105 discriminator 19
	movq	%rax, %rdx
	movq	%rdx, %rsi
	shrq	$3, %rsi
	addq	$2147450880, %rsi
	movzbl	(%rsi), %esi
	testb	%sil, %sil
	je	.L392
	.loc 1 115 1105 is_stmt 0
	movq	%rdx, %rdi
	call	__asan_report_load8@PLT
.L392:
	.loc 1 115 1105 discriminator 19
	movq	(%rax), %rsi
	.loc 1 115 1123 is_stmt 1 discriminator 19
	movq	-72(%rbp), %rax
	movl	8(%rax), %eax
	movslq	%eax, %rdx
	.loc 1 115 1115 discriminator 19
	movq	%rdx, %rax
	addq	%rax, %rax
	addq	%rdx, %rax
	salq	$4, %rax
	.loc 1 115 1029 discriminator 19
	addq	%rsi, %rax
	jmp	.L393
.L391:
	.loc 1 115 1029 is_stmt 0 discriminator 20
	movl	$0, %eax
.L393:
	.loc 1 115 1029 discriminator 22
	movq	%rcx, %rsi
	movq	%rax, %rdi
	call	_Z10PrintTokenPK5TokenPPKc@PLT
	.loc 1 116 18 is_stmt 1 discriminator 22
	jmp	.L394
.L351:
.LBB4:
	.loc 1 120 49
	movq	-72(%rbp), %rax
	addq	$16, %rax
	movq	%rax, %rdx
	shrq	$3, %rdx
	addq	$2147450880, %rdx
	movzbl	(%rdx), %edx
	testb	%dl, %dl
	je	.L395
	movq	%rax, %rdi
	call	__asan_report_load8@PLT
.L395:
	movq	-72(%rbp), %rax
	movq	16(%rax), %rax
	.loc 1 120 63
	movq	%rax, %rdx
	movq	%rdx, %rcx
	shrq	$3, %rcx
	addq	$2147450880, %rcx
	movzbl	(%rcx), %ecx
	testb	%cl, %cl
	je	.L396
	movq	%rdx, %rdi
	call	__asan_report_load8@PLT
.L396:
	movq	(%rax), %rdx
	.loc 1 120 75
	movl	-64(%rbp), %eax
	cltq
	.loc 1 120 73
	salq	$3, %rax
	addq	%rdx, %rax
	.loc 1 120 20
	movq	%rax, %rdx
	movq	%rdx, %rcx
	shrq	$3, %rcx
	addq	$2147450880, %rcx
	movzbl	(%rcx), %ecx
	testb	%cl, %cl
	je	.L397
	movq	%rdx, %rdi
	call	__asan_report_load8@PLT
.L397:
	movq	(%rax), %rax
	movq	%rax, -24(%rbp)
	.loc 1 122 9
	cmpq	$0, -24(%rbp)
	jne	.L398
	.loc 1 124 24
	leaq	.LC23(%rip), %rax
	movq	%rax, %rdi
	movl	$0, %eax
	call	printf@PLT
	.loc 1 124 85
	call	_ZN6Logger11getInstanceEv@PLT
	movq	%rax, %rdx
	.loc 1 124 91
	leaq	.LC24(%rip), %rax
	movq	%rax, %rsi
	movq	%rdx, %rdi
	movl	$0, %eax
	call	_ZN6Logger3logEPKcz@PLT
	.loc 1 124 131
	call	_ZN6Logger11getInstanceEv@PLT
	movq	%rax, %rdx
	.loc 1 124 137
	leaq	.LC25(%rip), %rax
	movq	%rax, %rsi
	movq	%rdx, %rdi
	movl	$0, %eax
	call	_ZN6Logger3logEPKcz@PLT
	.loc 1 124 163
	call	_ZN6Logger11getInstanceEv@PLT
	movq	%rax, %rdx
	.loc 1 124 181
	leaq	.LC42(%rip), %rax
	movq	%rax, %rsi
	movq	%rdx, %rdi
	movl	$0, %eax
	call	_ZN6Logger15log_dup_consoleEPKcz@PLT
	.loc 1 124 252
	movq	-72(%rbp), %rax
	addq	$8, %rax
	movq	%rax, %rdx
	movq	%rdx, %rax
	shrq	$3, %rax
	addq	$2147450880, %rax
	movzbl	(%rax), %eax
	testb	%al, %al
	setne	%cl
	cmpb	$3, %al
	setle	%al
	andl	%ecx, %eax
	testb	%al, %al
	je	.L399
	movq	%rdx, %rdi
	call	__asan_report_load4@PLT
.L399:
	movq	-72(%rbp), %rax
	movl	8(%rax), %esi
	.loc 1 124 271
	movq	-72(%rbp), %rax
	movq	%rax, %rdx
	shrq	$3, %rdx
	addq	$2147450880, %rdx
	movzbl	(%rdx), %edx
	testb	%dl, %dl
	je	.L400
	movq	%rax, %rdi
	call	__asan_report_load8@PLT
.L400:
	movq	-72(%rbp), %rax
	movq	(%rax), %rax
	.loc 1 124 281
	leaq	8(%rax), %rdx
	movq	%rdx, %rcx
	movq	%rcx, %rdx
	shrq	$3, %rdx
	addq	$2147450880, %rdx
	movzbl	(%rdx), %edx
	testb	%dl, %dl
	setne	%dil
	cmpb	$3, %dl
	setle	%dl
	andl	%edi, %edx
	testb	%dl, %dl
	je	.L401
	movq	%rcx, %rdi
	call	__asan_report_load4@PLT
.L401:
	movl	8(%rax), %eax
	.loc 1 124 300
	cmpl	%eax, %esi
	jge	.L402
	.loc 1 124 309 discriminator 1
	movq	-72(%rbp), %rax
	movq	(%rax), %rax
	.loc 1 124 319 discriminator 1
	movq	%rax, %rdx
	movq	%rdx, %rcx
	shrq	$3, %rcx
	addq	$2147450880, %rcx
	movzbl	(%rcx), %ecx
	testb	%cl, %cl
	je	.L403
	.loc 1 124 319 is_stmt 0
	movq	%rdx, %rdi
	call	__asan_report_load8@PLT
.L403:
	.loc 1 124 319 discriminator 1
	movq	(%rax), %rcx
	.loc 1 124 337 is_stmt 1 discriminator 1
	movq	-72(%rbp), %rax
	movl	8(%rax), %eax
	movslq	%eax, %rdx
	.loc 1 124 329 discriminator 1
	movq	%rdx, %rax
	addq	%rax, %rax
	addq	%rdx, %rax
	salq	$4, %rax
	.loc 1 124 300 discriminator 1
	addq	%rcx, %rax
	jmp	.L404
.L402:
	.loc 1 124 300 is_stmt 0 discriminator 2
	movl	$0, %eax
.L404:
	.loc 1 124 239 is_stmt 1 discriminator 4
	testq	%rax, %rax
	jne	.L405
	.loc 1 124 367 discriminator 5
	leaq	.LC27(%rip), %rax
	movq	%rax, %rdi
	call	puts@PLT
	.loc 1 125 18 discriminator 5
	jmp	.L394
.L405:
	.loc 1 124 398 discriminator 6
	leaq	.LC28(%rip), %rax
	movq	%rax, %rdi
	movl	$0, %eax
	call	printf@PLT
	.loc 1 124 617 discriminator 6
	movq	-72(%rbp), %rax
	addq	$8, %rax
	movq	%rax, %rdx
	movq	%rdx, %rax
	shrq	$3, %rax
	addq	$2147450880, %rax
	movzbl	(%rax), %eax
	testb	%al, %al
	setne	%cl
	cmpb	$3, %al
	setle	%al
	andl	%ecx, %eax
	testb	%al, %al
	je	.L407
	.loc 1 124 617 is_stmt 0
	movq	%rdx, %rdi
	call	__asan_report_load4@PLT
.L407:
	.loc 1 124 617 discriminator 6
	movq	-72(%rbp), %rax
	movl	8(%rax), %esi
	.loc 1 124 636 is_stmt 1 discriminator 6
	movq	-72(%rbp), %rax
	movq	%rax, %rdx
	shrq	$3, %rdx
	addq	$2147450880, %rdx
	movzbl	(%rdx), %edx
	testb	%dl, %dl
	je	.L408
	.loc 1 124 636 is_stmt 0
	movq	%rax, %rdi
	call	__asan_report_load8@PLT
.L408:
	.loc 1 124 636 discriminator 6
	movq	-72(%rbp), %rax
	movq	(%rax), %rax
	.loc 1 124 646 is_stmt 1 discriminator 6
	leaq	8(%rax), %rdx
	movq	%rdx, %rcx
	movq	%rcx, %rdx
	shrq	$3, %rdx
	addq	$2147450880, %rdx
	movzbl	(%rdx), %edx
	testb	%dl, %dl
	setne	%dil
	cmpb	$3, %dl
	setle	%dl
	andl	%edi, %edx
	testb	%dl, %dl
	je	.L409
	.loc 1 124 646 is_stmt 0
	movq	%rcx, %rdi
	call	__asan_report_load4@PLT
.L409:
	.loc 1 124 646 discriminator 6
	movl	8(%rax), %eax
	.loc 1 124 665 is_stmt 1 discriminator 6
	cmpl	%eax, %esi
	jge	.L410
	.loc 1 124 674 discriminator 7
	movq	-72(%rbp), %rax
	movq	(%rax), %rax
	.loc 1 124 684 discriminator 7
	movq	%rax, %rdx
	movq	%rdx, %rcx
	shrq	$3, %rcx
	addq	$2147450880, %rcx
	movzbl	(%rcx), %ecx
	testb	%cl, %cl
	je	.L411
	.loc 1 124 684 is_stmt 0
	movq	%rdx, %rdi
	call	__asan_report_load8@PLT
.L411:
	.loc 1 124 684 discriminator 7
	movq	(%rax), %rcx
	.loc 1 124 702 is_stmt 1 discriminator 7
	movq	-72(%rbp), %rax
	movl	8(%rax), %eax
	movslq	%eax, %rdx
	.loc 1 124 694 discriminator 7
	movq	%rdx, %rax
	addq	%rax, %rax
	addq	%rdx, %rax
	salq	$4, %rax
	.loc 1 124 665 discriminator 7
	addq	%rcx, %rax
	jmp	.L412
.L410:
	.loc 1 124 665 is_stmt 0 discriminator 8
	movl	$0, %eax
.L412:
	.loc 1 124 425 is_stmt 1 discriminator 10
	leaq	44(%rax), %rdx
	movq	%rdx, %rcx
	shrq	$3, %rcx
	addq	$2147450880, %rcx
	movzbl	(%rcx), %ecx
	testb	%cl, %cl
	setne	%dil
	movq	%rdx, %rsi
	andl	$7, %esi
	addl	$3, %esi
	cmpb	%cl, %sil
	setge	%cl
	andl	%edi, %ecx
	testb	%cl, %cl
	je	.L413
	.loc 1 124 425 is_stmt 0
	movq	%rdx, %rdi
	call	__asan_report_load4@PLT
.L413:
	.loc 1 124 425 discriminator 10
	movl	44(%rax), %ecx
	.loc 1 124 494 is_stmt 1 discriminator 10
	movq	-72(%rbp), %rax
	addq	$8, %rax
	movq	%rax, %rdx
	movq	%rdx, %rax
	shrq	$3, %rax
	addq	$2147450880, %rax
	movzbl	(%rax), %eax
	testb	%al, %al
	setne	%sil
	cmpb	$3, %al
	setle	%al
	andl	%esi, %eax
	testb	%al, %al
	je	.L414
	.loc 1 124 494 is_stmt 0
	movq	%rdx, %rdi
	call	__asan_report_load4@PLT
.L414:
	.loc 1 124 494 discriminator 10
	movq	-72(%rbp), %rax
	movl	8(%rax), %edi
	.loc 1 124 513 is_stmt 1 discriminator 10
	movq	-72(%rbp), %rax
	movq	%rax, %rdx
	shrq	$3, %rdx
	addq	$2147450880, %rdx
	movzbl	(%rdx), %edx
	testb	%dl, %dl
	je	.L415
	.loc 1 124 513 is_stmt 0
	movq	%rax, %rdi
	call	__asan_report_load8@PLT
.L415:
	.loc 1 124 513 discriminator 10
	movq	-72(%rbp), %rax
	movq	(%rax), %rax
	.loc 1 124 523 is_stmt 1 discriminator 10
	leaq	8(%rax), %rdx
	movq	%rdx, %rsi
	movq	%rsi, %rdx
	shrq	$3, %rdx
	addq	$2147450880, %rdx
	movzbl	(%rdx), %edx
	testb	%dl, %dl
	setne	%r8b
	cmpb	$3, %dl
	setle	%dl
	andl	%r8d, %edx
	testb	%dl, %dl
	je	.L416
	.loc 1 124 523 is_stmt 0
	movq	%rsi, %rdi
	call	__asan_report_load4@PLT
.L416:
	.loc 1 124 523 discriminator 10
	movl	8(%rax), %eax
	.loc 1 124 542 is_stmt 1 discriminator 10
	cmpl	%eax, %edi
	jge	.L417
	.loc 1 124 551 discriminator 11
	movq	-72(%rbp), %rax
	movq	(%rax), %rax
	.loc 1 124 561 discriminator 11
	movq	%rax, %rdx
	movq	%rdx, %rsi
	shrq	$3, %rsi
	addq	$2147450880, %rsi
	movzbl	(%rsi), %esi
	testb	%sil, %sil
	je	.L418
	.loc 1 124 561 is_stmt 0
	movq	%rdx, %rdi
	call	__asan_report_load8@PLT
.L418:
	.loc 1 124 561 discriminator 11
	movq	(%rax), %rsi
	.loc 1 124 579 is_stmt 1 discriminator 11
	movq	-72(%rbp), %rax
	movl	8(%rax), %eax
	movslq	%eax, %rdx
	.loc 1 124 571 discriminator 11
	movq	%rdx, %rax
	addq	%rax, %rax
	addq	%rdx, %rax
	salq	$4, %rax
	.loc 1 124 542 discriminator 11
	addq	%rsi, %rax
	jmp	.L419
.L417:
	.loc 1 124 542 is_stmt 0 discriminator 12
	movl	$0, %eax
.L419:
	.loc 1 124 425 is_stmt 1 discriminator 14
	leaq	40(%rax), %rdx
	movq	%rdx, %rsi
	movq	%rsi, %rdx
	shrq	$3, %rdx
	addq	$2147450880, %rdx
	movzbl	(%rdx), %edx
	testb	%dl, %dl
	setne	%dil
	cmpb	$3, %dl
	setle	%dl
	andl	%edi, %edx
	testb	%dl, %dl
	je	.L420
	.loc 1 124 425 is_stmt 0
	movq	%rsi, %rdi
	call	__asan_report_load4@PLT
.L420:
	.loc 1 124 425 discriminator 14
	movl	40(%rax), %edx
	.loc 1 124 457 is_stmt 1 discriminator 14
	movq	-72(%rbp), %rax
	movq	%rax, %rsi
	shrq	$3, %rsi
	addq	$2147450880, %rsi
	movzbl	(%rsi), %esi
	testb	%sil, %sil
	je	.L421
	.loc 1 124 457 is_stmt 0
	movq	%rax, %rdi
	call	__asan_report_load8@PLT
.L421:
	.loc 1 124 457 discriminator 14
	movq	-72(%rbp), %rax
	movq	(%rax), %rax
	.loc 1 124 468 is_stmt 1 discriminator 14
	leaq	40(%rax), %rsi
	movq	%rsi, %rdi
	shrq	$3, %rdi
	addq	$2147450880, %rdi
	movzbl	(%rdi), %edi
	testb	%dil, %dil
	je	.L422
	.loc 1 124 468 is_stmt 0
	movq	%rsi, %rdi
	call	__asan_report_load8@PLT
.L422:
	.loc 1 124 468 discriminator 14
	movq	40(%rax), %rax
	.loc 1 124 425 is_stmt 1 discriminator 14
	movq	%rax, %rsi
	leaq	.LC29(%rip), %rax
	movq	%rax, %rdi
	movl	$0, %eax
	call	printf@PLT
	.loc 1 124 750 discriminator 14
	movq	-72(%rbp), %rax
	addq	$8, %rax
	movq	%rax, %rdx
	movq	%rdx, %rax
	shrq	$3, %rax
	addq	$2147450880, %rax
	movzbl	(%rax), %eax
	testb	%al, %al
	setne	%cl
	cmpb	$3, %al
	setle	%al
	andl	%ecx, %eax
	testb	%al, %al
	je	.L423
	.loc 1 124 750 is_stmt 0
	movq	%rdx, %rdi
	call	__asan_report_load4@PLT
.L423:
	.loc 1 124 750 discriminator 14
	movq	-72(%rbp), %rax
	movl	8(%rax), %esi
	.loc 1 124 769 is_stmt 1 discriminator 14
	movq	-72(%rbp), %rax
	movq	%rax, %rdx
	shrq	$3, %rdx
	addq	$2147450880, %rdx
	movzbl	(%rdx), %edx
	testb	%dl, %dl
	je	.L424
	.loc 1 124 769 is_stmt 0
	movq	%rax, %rdi
	call	__asan_report_load8@PLT
.L424:
	.loc 1 124 769 discriminator 14
	movq	-72(%rbp), %rax
	movq	(%rax), %rax
	.loc 1 124 779 is_stmt 1 discriminator 14
	leaq	8(%rax), %rdx
	movq	%rdx, %rcx
	movq	%rcx, %rdx
	shrq	$3, %rdx
	addq	$2147450880, %rdx
	movzbl	(%rdx), %edx
	testb	%dl, %dl
	setne	%dil
	cmpb	$3, %dl
	setle	%dl
	andl	%edi, %edx
	testb	%dl, %dl
	je	.L425
	.loc 1 124 779 is_stmt 0
	movq	%rcx, %rdi
	call	__asan_report_load4@PLT
.L425:
	.loc 1 124 779 discriminator 14
	movl	8(%rax), %eax
	.loc 1 124 798 is_stmt 1 discriminator 14
	cmpl	%eax, %esi
	jge	.L426
	.loc 1 124 807 discriminator 15
	movq	-72(%rbp), %rax
	movq	(%rax), %rax
	.loc 1 124 817 discriminator 15
	movq	%rax, %rdx
	movq	%rdx, %rcx
	shrq	$3, %rcx
	addq	$2147450880, %rcx
	movzbl	(%rcx), %ecx
	testb	%cl, %cl
	je	.L427
	.loc 1 124 817 is_stmt 0
	movq	%rdx, %rdi
	call	__asan_report_load8@PLT
.L427:
	.loc 1 124 817 discriminator 15
	movq	(%rax), %rcx
	.loc 1 124 835 is_stmt 1 discriminator 15
	movq	-72(%rbp), %rax
	movl	8(%rax), %eax
	movslq	%eax, %rdx
	.loc 1 124 827 discriminator 15
	movq	%rdx, %rax
	addq	%rax, %rax
	addq	%rdx, %rax
	salq	$4, %rax
	.loc 1 124 798 discriminator 15
	addq	%rcx, %rax
	jmp	.L428
.L426:
	.loc 1 124 798 is_stmt 0 discriminator 16
	movl	$0, %eax
.L428:
	.loc 1 124 741 is_stmt 1 discriminator 18
	leaq	32(%rax), %rdx
	movq	%rdx, %rcx
	shrq	$3, %rcx
	addq	$2147450880, %rcx
	movzbl	(%rcx), %ecx
	testb	%cl, %cl
	je	.L429
	.loc 1 124 741 is_stmt 0
	movq	%rdx, %rdi
	call	__asan_report_load8@PLT
.L429:
	.loc 1 124 741 discriminator 18
	movq	32(%rax), %rax
	movl	$10, %esi
	movq	%rax, %rdi
	call	_Z6printlPKcc@PLT
	.loc 1 124 889 is_stmt 1 discriminator 18
	leaq	.LC30(%rip), %rax
	movq	%rax, %rdi
	call	puts@PLT
	.loc 1 124 913 discriminator 18
	leaq	.LC34(%rip), %rax
	movq	%rax, %rcx
	movl	$124, %edx
	leaq	.LC17(%rip), %rax
	movq	%rax, %rsi
	leaq	.LC31(%rip), %rax
	movq	%rax, %rdi
	movl	$0, %eax
	call	printf@PLT
	.loc 1 124 1121 discriminator 18
	movq	-72(%rbp), %rax
	movq	%rax, %rdx
	shrq	$3, %rdx
	addq	$2147450880, %rdx
	movzbl	(%rdx), %edx
	testb	%dl, %dl
	je	.L430
	.loc 1 124 1121 is_stmt 0
	movq	%rax, %rdi
	call	__asan_report_load8@PLT
.L430:
	.loc 1 124 1121 discriminator 18
	movq	-72(%rbp), %rax
	movq	(%rax), %rax
	.loc 1 124 1131 is_stmt 1 discriminator 18
	leaq	24(%rax), %rdx
	movq	%rdx, %rcx
	shrq	$3, %rcx
	addq	$2147450880, %rcx
	movzbl	(%rcx), %ecx
	testb	%cl, %cl
	je	.L431
	.loc 1 124 1131 is_stmt 0
	movq	%rdx, %rdi
	call	__asan_report_load8@PLT
.L431:
	.loc 1 124 1131 discriminator 18
	movq	24(%rax), %rcx
	.loc 1 124 1005 is_stmt 1 discriminator 18
	movq	-72(%rbp), %rax
	addq	$8, %rax
	movq	%rax, %rdx
	movq	%rdx, %rax
	shrq	$3, %rax
	addq	$2147450880, %rax
	movzbl	(%rax), %eax
	testb	%al, %al
	setne	%sil
	cmpb	$3, %al
	setle	%al
	andl	%esi, %eax
	testb	%al, %al
	je	.L432
	.loc 1 124 1005 is_stmt 0
	movq	%rdx, %rdi
	call	__asan_report_load4@PLT
.L432:
	.loc 1 124 1005 discriminator 18
	movq	-72(%rbp), %rax
	movl	8(%rax), %edi
	.loc 1 124 1024 is_stmt 1 discriminator 18
	movq	-72(%rbp), %rax
	movq	(%rax), %rax
	.loc 1 124 1034 discriminator 18
	leaq	8(%rax), %rdx
	movq	%rdx, %rsi
	movq	%rsi, %rdx
	shrq	$3, %rdx
	addq	$2147450880, %rdx
	movzbl	(%rdx), %edx
	testb	%dl, %dl
	setne	%r8b
	cmpb	$3, %dl
	setle	%dl
	andl	%r8d, %edx
	testb	%dl, %dl
	je	.L433
	.loc 1 124 1034 is_stmt 0
	movq	%rsi, %rdi
	call	__asan_report_load4@PLT
.L433:
	.loc 1 124 1034 discriminator 18
	movl	8(%rax), %eax
	.loc 1 124 996 is_stmt 1 discriminator 18
	cmpl	%eax, %edi
	jge	.L434
	.loc 1 124 1062 discriminator 19
	movq	-72(%rbp), %rax
	movq	(%rax), %rax
	.loc 1 124 1072 discriminator 19
	movq	%rax, %rdx
	movq	%rdx, %rsi
	shrq	$3, %rsi
	addq	$2147450880, %rsi
	movzbl	(%rsi), %esi
	testb	%sil, %sil
	je	.L435
	.loc 1 124 1072 is_stmt 0
	movq	%rdx, %rdi
	call	__asan_report_load8@PLT
.L435:
	.loc 1 124 1072 discriminator 19
	movq	(%rax), %rsi
	.loc 1 124 1090 is_stmt 1 discriminator 19
	movq	-72(%rbp), %rax
	movl	8(%rax), %eax
	movslq	%eax, %rdx
	.loc 1 124 1082 discriminator 19
	movq	%rdx, %rax
	addq	%rax, %rax
	addq	%rdx, %rax
	salq	$4, %rax
	.loc 1 124 996 discriminator 19
	addq	%rsi, %rax
	jmp	.L436
.L434:
	.loc 1 124 996 is_stmt 0 discriminator 20
	movl	$0, %eax
.L436:
	.loc 1 124 996 discriminator 22
	movq	%rcx, %rsi
	movq	%rax, %rdi
	call	_Z10PrintTokenPK5TokenPPKc@PLT
	.loc 1 125 18 is_stmt 1 discriminator 22
	jmp	.L394
.L398:
	.loc 1 129 31
	movq	-24(%rbp), %rdx
	movq	-32(%rbp), %rax
	movq	%rdx, %rsi
	movq	%rax, %rdi
	call	_Z17CompareFuncLabelsP9FuncLabelS0_@PLT
	.loc 1 129 13
	testl	%eax, %eax
	sete	%al
	.loc 1 129 9
	testb	%al, %al
	je	.L437
	.loc 1 131 24
	leaq	.LC23(%rip), %rax
	movq	%rax, %rdi
	movl	$0, %eax
	call	printf@PLT
	.loc 1 131 85
	call	_ZN6Logger11getInstanceEv@PLT
	movq	%rax, %rdx
	.loc 1 131 91
	leaq	.LC24(%rip), %rax
	movq	%rax, %rsi
	movq	%rdx, %rdi
	movl	$0, %eax
	call	_ZN6Logger3logEPKcz@PLT
	.loc 1 131 131
	call	_ZN6Logger11getInstanceEv@PLT
	movq	%rax, %rdx
	.loc 1 131 137
	leaq	.LC25(%rip), %rax
	movq	%rax, %rsi
	movq	%rdx, %rdi
	movl	$0, %eax
	call	_ZN6Logger3logEPKcz@PLT
	.loc 1 131 163
	call	_ZN6Logger11getInstanceEv@PLT
	movq	%rax, %rdx
	.loc 1 131 181
	leaq	.LC43(%rip), %rax
	movq	%rax, %rsi
	movq	%rdx, %rdi
	movl	$0, %eax
	call	_ZN6Logger15log_dup_consoleEPKcz@PLT
	.loc 1 131 239
	movq	-72(%rbp), %rax
	addq	$8, %rax
	movq	%rax, %rdx
	movq	%rdx, %rax
	shrq	$3, %rax
	addq	$2147450880, %rax
	movzbl	(%rax), %eax
	testb	%al, %al
	setne	%cl
	cmpb	$3, %al
	setle	%al
	andl	%ecx, %eax
	testb	%al, %al
	je	.L438
	movq	%rdx, %rdi
	call	__asan_report_load4@PLT
.L438:
	movq	-72(%rbp), %rax
	movl	8(%rax), %esi
	.loc 1 131 258
	movq	-72(%rbp), %rax
	movq	%rax, %rdx
	shrq	$3, %rdx
	addq	$2147450880, %rdx
	movzbl	(%rdx), %edx
	testb	%dl, %dl
	je	.L439
	movq	%rax, %rdi
	call	__asan_report_load8@PLT
.L439:
	movq	-72(%rbp), %rax
	movq	(%rax), %rax
	.loc 1 131 268
	leaq	8(%rax), %rdx
	movq	%rdx, %rcx
	movq	%rcx, %rdx
	shrq	$3, %rdx
	addq	$2147450880, %rdx
	movzbl	(%rdx), %edx
	testb	%dl, %dl
	setne	%dil
	cmpb	$3, %dl
	setle	%dl
	andl	%edi, %edx
	testb	%dl, %dl
	je	.L440
	movq	%rcx, %rdi
	call	__asan_report_load4@PLT
.L440:
	movl	8(%rax), %eax
	.loc 1 131 287
	cmpl	%eax, %esi
	jge	.L441
	.loc 1 131 296 discriminator 1
	movq	-72(%rbp), %rax
	movq	(%rax), %rax
	.loc 1 131 306 discriminator 1
	movq	%rax, %rdx
	movq	%rdx, %rcx
	shrq	$3, %rcx
	addq	$2147450880, %rcx
	movzbl	(%rcx), %ecx
	testb	%cl, %cl
	je	.L442
	.loc 1 131 306 is_stmt 0
	movq	%rdx, %rdi
	call	__asan_report_load8@PLT
.L442:
	.loc 1 131 306 discriminator 1
	movq	(%rax), %rcx
	.loc 1 131 324 is_stmt 1 discriminator 1
	movq	-72(%rbp), %rax
	movl	8(%rax), %eax
	movslq	%eax, %rdx
	.loc 1 131 316 discriminator 1
	movq	%rdx, %rax
	addq	%rax, %rax
	addq	%rdx, %rax
	salq	$4, %rax
	.loc 1 131 287 discriminator 1
	addq	%rcx, %rax
	jmp	.L443
.L441:
	.loc 1 131 287 is_stmt 0 discriminator 2
	movl	$0, %eax
.L443:
	.loc 1 131 226 is_stmt 1 discriminator 4
	testq	%rax, %rax
	jne	.L444
	.loc 1 131 354 discriminator 5
	leaq	.LC27(%rip), %rax
	movq	%rax, %rdi
	call	puts@PLT
	.loc 1 132 18 discriminator 5
	jmp	.L394
.L444:
	.loc 1 131 385 discriminator 6
	leaq	.LC28(%rip), %rax
	movq	%rax, %rdi
	movl	$0, %eax
	call	printf@PLT
	.loc 1 131 604 discriminator 6
	movq	-72(%rbp), %rax
	addq	$8, %rax
	movq	%rax, %rdx
	movq	%rdx, %rax
	shrq	$3, %rax
	addq	$2147450880, %rax
	movzbl	(%rax), %eax
	testb	%al, %al
	setne	%cl
	cmpb	$3, %al
	setle	%al
	andl	%ecx, %eax
	testb	%al, %al
	je	.L446
	.loc 1 131 604 is_stmt 0
	movq	%rdx, %rdi
	call	__asan_report_load4@PLT
.L446:
	.loc 1 131 604 discriminator 6
	movq	-72(%rbp), %rax
	movl	8(%rax), %esi
	.loc 1 131 623 is_stmt 1 discriminator 6
	movq	-72(%rbp), %rax
	movq	%rax, %rdx
	shrq	$3, %rdx
	addq	$2147450880, %rdx
	movzbl	(%rdx), %edx
	testb	%dl, %dl
	je	.L447
	.loc 1 131 623 is_stmt 0
	movq	%rax, %rdi
	call	__asan_report_load8@PLT
.L447:
	.loc 1 131 623 discriminator 6
	movq	-72(%rbp), %rax
	movq	(%rax), %rax
	.loc 1 131 633 is_stmt 1 discriminator 6
	leaq	8(%rax), %rdx
	movq	%rdx, %rcx
	movq	%rcx, %rdx
	shrq	$3, %rdx
	addq	$2147450880, %rdx
	movzbl	(%rdx), %edx
	testb	%dl, %dl
	setne	%dil
	cmpb	$3, %dl
	setle	%dl
	andl	%edi, %edx
	testb	%dl, %dl
	je	.L448
	.loc 1 131 633 is_stmt 0
	movq	%rcx, %rdi
	call	__asan_report_load4@PLT
.L448:
	.loc 1 131 633 discriminator 6
	movl	8(%rax), %eax
	.loc 1 131 652 is_stmt 1 discriminator 6
	cmpl	%eax, %esi
	jge	.L449
	.loc 1 131 661 discriminator 7
	movq	-72(%rbp), %rax
	movq	(%rax), %rax
	.loc 1 131 671 discriminator 7
	movq	%rax, %rdx
	movq	%rdx, %rcx
	shrq	$3, %rcx
	addq	$2147450880, %rcx
	movzbl	(%rcx), %ecx
	testb	%cl, %cl
	je	.L450
	.loc 1 131 671 is_stmt 0
	movq	%rdx, %rdi
	call	__asan_report_load8@PLT
.L450:
	.loc 1 131 671 discriminator 7
	movq	(%rax), %rcx
	.loc 1 131 689 is_stmt 1 discriminator 7
	movq	-72(%rbp), %rax
	movl	8(%rax), %eax
	movslq	%eax, %rdx
	.loc 1 131 681 discriminator 7
	movq	%rdx, %rax
	addq	%rax, %rax
	addq	%rdx, %rax
	salq	$4, %rax
	.loc 1 131 652 discriminator 7
	addq	%rcx, %rax
	jmp	.L451
.L449:
	.loc 1 131 652 is_stmt 0 discriminator 8
	movl	$0, %eax
.L451:
	.loc 1 131 412 is_stmt 1 discriminator 10
	leaq	44(%rax), %rdx
	movq	%rdx, %rcx
	shrq	$3, %rcx
	addq	$2147450880, %rcx
	movzbl	(%rcx), %ecx
	testb	%cl, %cl
	setne	%dil
	movq	%rdx, %rsi
	andl	$7, %esi
	addl	$3, %esi
	cmpb	%cl, %sil
	setge	%cl
	andl	%edi, %ecx
	testb	%cl, %cl
	je	.L452
	.loc 1 131 412 is_stmt 0
	movq	%rdx, %rdi
	call	__asan_report_load4@PLT
.L452:
	.loc 1 131 412 discriminator 10
	movl	44(%rax), %ecx
	.loc 1 131 481 is_stmt 1 discriminator 10
	movq	-72(%rbp), %rax
	addq	$8, %rax
	movq	%rax, %rdx
	movq	%rdx, %rax
	shrq	$3, %rax
	addq	$2147450880, %rax
	movzbl	(%rax), %eax
	testb	%al, %al
	setne	%sil
	cmpb	$3, %al
	setle	%al
	andl	%esi, %eax
	testb	%al, %al
	je	.L453
	.loc 1 131 481 is_stmt 0
	movq	%rdx, %rdi
	call	__asan_report_load4@PLT
.L453:
	.loc 1 131 481 discriminator 10
	movq	-72(%rbp), %rax
	movl	8(%rax), %edi
	.loc 1 131 500 is_stmt 1 discriminator 10
	movq	-72(%rbp), %rax
	movq	%rax, %rdx
	shrq	$3, %rdx
	addq	$2147450880, %rdx
	movzbl	(%rdx), %edx
	testb	%dl, %dl
	je	.L454
	.loc 1 131 500 is_stmt 0
	movq	%rax, %rdi
	call	__asan_report_load8@PLT
.L454:
	.loc 1 131 500 discriminator 10
	movq	-72(%rbp), %rax
	movq	(%rax), %rax
	.loc 1 131 510 is_stmt 1 discriminator 10
	leaq	8(%rax), %rdx
	movq	%rdx, %rsi
	movq	%rsi, %rdx
	shrq	$3, %rdx
	addq	$2147450880, %rdx
	movzbl	(%rdx), %edx
	testb	%dl, %dl
	setne	%r8b
	cmpb	$3, %dl
	setle	%dl
	andl	%r8d, %edx
	testb	%dl, %dl
	je	.L455
	.loc 1 131 510 is_stmt 0
	movq	%rsi, %rdi
	call	__asan_report_load4@PLT
.L455:
	.loc 1 131 510 discriminator 10
	movl	8(%rax), %eax
	.loc 1 131 529 is_stmt 1 discriminator 10
	cmpl	%eax, %edi
	jge	.L456
	.loc 1 131 538 discriminator 11
	movq	-72(%rbp), %rax
	movq	(%rax), %rax
	.loc 1 131 548 discriminator 11
	movq	%rax, %rdx
	movq	%rdx, %rsi
	shrq	$3, %rsi
	addq	$2147450880, %rsi
	movzbl	(%rsi), %esi
	testb	%sil, %sil
	je	.L457
	.loc 1 131 548 is_stmt 0
	movq	%rdx, %rdi
	call	__asan_report_load8@PLT
.L457:
	.loc 1 131 548 discriminator 11
	movq	(%rax), %rsi
	.loc 1 131 566 is_stmt 1 discriminator 11
	movq	-72(%rbp), %rax
	movl	8(%rax), %eax
	movslq	%eax, %rdx
	.loc 1 131 558 discriminator 11
	movq	%rdx, %rax
	addq	%rax, %rax
	addq	%rdx, %rax
	salq	$4, %rax
	.loc 1 131 529 discriminator 11
	addq	%rsi, %rax
	jmp	.L458
.L456:
	.loc 1 131 529 is_stmt 0 discriminator 12
	movl	$0, %eax
.L458:
	.loc 1 131 412 is_stmt 1 discriminator 14
	leaq	40(%rax), %rdx
	movq	%rdx, %rsi
	movq	%rsi, %rdx
	shrq	$3, %rdx
	addq	$2147450880, %rdx
	movzbl	(%rdx), %edx
	testb	%dl, %dl
	setne	%dil
	cmpb	$3, %dl
	setle	%dl
	andl	%edi, %edx
	testb	%dl, %dl
	je	.L459
	.loc 1 131 412 is_stmt 0
	movq	%rsi, %rdi
	call	__asan_report_load4@PLT
.L459:
	.loc 1 131 412 discriminator 14
	movl	40(%rax), %edx
	.loc 1 131 444 is_stmt 1 discriminator 14
	movq	-72(%rbp), %rax
	movq	%rax, %rsi
	shrq	$3, %rsi
	addq	$2147450880, %rsi
	movzbl	(%rsi), %esi
	testb	%sil, %sil
	je	.L460
	.loc 1 131 444 is_stmt 0
	movq	%rax, %rdi
	call	__asan_report_load8@PLT
.L460:
	.loc 1 131 444 discriminator 14
	movq	-72(%rbp), %rax
	movq	(%rax), %rax
	.loc 1 131 455 is_stmt 1 discriminator 14
	leaq	40(%rax), %rsi
	movq	%rsi, %rdi
	shrq	$3, %rdi
	addq	$2147450880, %rdi
	movzbl	(%rdi), %edi
	testb	%dil, %dil
	je	.L461
	.loc 1 131 455 is_stmt 0
	movq	%rsi, %rdi
	call	__asan_report_load8@PLT
.L461:
	.loc 1 131 455 discriminator 14
	movq	40(%rax), %rax
	.loc 1 131 412 is_stmt 1 discriminator 14
	movq	%rax, %rsi
	leaq	.LC29(%rip), %rax
	movq	%rax, %rdi
	movl	$0, %eax
	call	printf@PLT
	.loc 1 131 737 discriminator 14
	movq	-72(%rbp), %rax
	addq	$8, %rax
	movq	%rax, %rdx
	movq	%rdx, %rax
	shrq	$3, %rax
	addq	$2147450880, %rax
	movzbl	(%rax), %eax
	testb	%al, %al
	setne	%cl
	cmpb	$3, %al
	setle	%al
	andl	%ecx, %eax
	testb	%al, %al
	je	.L462
	.loc 1 131 737 is_stmt 0
	movq	%rdx, %rdi
	call	__asan_report_load4@PLT
.L462:
	.loc 1 131 737 discriminator 14
	movq	-72(%rbp), %rax
	movl	8(%rax), %esi
	.loc 1 131 756 is_stmt 1 discriminator 14
	movq	-72(%rbp), %rax
	movq	%rax, %rdx
	shrq	$3, %rdx
	addq	$2147450880, %rdx
	movzbl	(%rdx), %edx
	testb	%dl, %dl
	je	.L463
	.loc 1 131 756 is_stmt 0
	movq	%rax, %rdi
	call	__asan_report_load8@PLT
.L463:
	.loc 1 131 756 discriminator 14
	movq	-72(%rbp), %rax
	movq	(%rax), %rax
	.loc 1 131 766 is_stmt 1 discriminator 14
	leaq	8(%rax), %rdx
	movq	%rdx, %rcx
	movq	%rcx, %rdx
	shrq	$3, %rdx
	addq	$2147450880, %rdx
	movzbl	(%rdx), %edx
	testb	%dl, %dl
	setne	%dil
	cmpb	$3, %dl
	setle	%dl
	andl	%edi, %edx
	testb	%dl, %dl
	je	.L464
	.loc 1 131 766 is_stmt 0
	movq	%rcx, %rdi
	call	__asan_report_load4@PLT
.L464:
	.loc 1 131 766 discriminator 14
	movl	8(%rax), %eax
	.loc 1 131 785 is_stmt 1 discriminator 14
	cmpl	%eax, %esi
	jge	.L465
	.loc 1 131 794 discriminator 15
	movq	-72(%rbp), %rax
	movq	(%rax), %rax
	.loc 1 131 804 discriminator 15
	movq	%rax, %rdx
	movq	%rdx, %rcx
	shrq	$3, %rcx
	addq	$2147450880, %rcx
	movzbl	(%rcx), %ecx
	testb	%cl, %cl
	je	.L466
	.loc 1 131 804 is_stmt 0
	movq	%rdx, %rdi
	call	__asan_report_load8@PLT
.L466:
	.loc 1 131 804 discriminator 15
	movq	(%rax), %rcx
	.loc 1 131 822 is_stmt 1 discriminator 15
	movq	-72(%rbp), %rax
	movl	8(%rax), %eax
	movslq	%eax, %rdx
	.loc 1 131 814 discriminator 15
	movq	%rdx, %rax
	addq	%rax, %rax
	addq	%rdx, %rax
	salq	$4, %rax
	.loc 1 131 785 discriminator 15
	addq	%rcx, %rax
	jmp	.L467
.L465:
	.loc 1 131 785 is_stmt 0 discriminator 16
	movl	$0, %eax
.L467:
	.loc 1 131 728 is_stmt 1 discriminator 18
	leaq	32(%rax), %rdx
	movq	%rdx, %rcx
	shrq	$3, %rcx
	addq	$2147450880, %rcx
	movzbl	(%rcx), %ecx
	testb	%cl, %cl
	je	.L468
	.loc 1 131 728 is_stmt 0
	movq	%rdx, %rdi
	call	__asan_report_load8@PLT
.L468:
	.loc 1 131 728 discriminator 18
	movq	32(%rax), %rax
	movl	$10, %esi
	movq	%rax, %rdi
	call	_Z6printlPKcc@PLT
	.loc 1 131 876 is_stmt 1 discriminator 18
	leaq	.LC30(%rip), %rax
	movq	%rax, %rdi
	call	puts@PLT
	.loc 1 131 900 discriminator 18
	leaq	.LC34(%rip), %rax
	movq	%rax, %rcx
	movl	$131, %edx
	leaq	.LC17(%rip), %rax
	movq	%rax, %rsi
	leaq	.LC31(%rip), %rax
	movq	%rax, %rdi
	movl	$0, %eax
	call	printf@PLT
	.loc 1 131 1108 discriminator 18
	movq	-72(%rbp), %rax
	movq	%rax, %rdx
	shrq	$3, %rdx
	addq	$2147450880, %rdx
	movzbl	(%rdx), %edx
	testb	%dl, %dl
	je	.L469
	.loc 1 131 1108 is_stmt 0
	movq	%rax, %rdi
	call	__asan_report_load8@PLT
.L469:
	.loc 1 131 1108 discriminator 18
	movq	-72(%rbp), %rax
	movq	(%rax), %rax
	.loc 1 131 1118 is_stmt 1 discriminator 18
	leaq	24(%rax), %rdx
	movq	%rdx, %rcx
	shrq	$3, %rcx
	addq	$2147450880, %rcx
	movzbl	(%rcx), %ecx
	testb	%cl, %cl
	je	.L470
	.loc 1 131 1118 is_stmt 0
	movq	%rdx, %rdi
	call	__asan_report_load8@PLT
.L470:
	.loc 1 131 1118 discriminator 18
	movq	24(%rax), %rcx
	.loc 1 131 992 is_stmt 1 discriminator 18
	movq	-72(%rbp), %rax
	addq	$8, %rax
	movq	%rax, %rdx
	movq	%rdx, %rax
	shrq	$3, %rax
	addq	$2147450880, %rax
	movzbl	(%rax), %eax
	testb	%al, %al
	setne	%sil
	cmpb	$3, %al
	setle	%al
	andl	%esi, %eax
	testb	%al, %al
	je	.L471
	.loc 1 131 992 is_stmt 0
	movq	%rdx, %rdi
	call	__asan_report_load4@PLT
.L471:
	.loc 1 131 992 discriminator 18
	movq	-72(%rbp), %rax
	movl	8(%rax), %edi
	.loc 1 131 1011 is_stmt 1 discriminator 18
	movq	-72(%rbp), %rax
	movq	(%rax), %rax
	.loc 1 131 1021 discriminator 18
	leaq	8(%rax), %rdx
	movq	%rdx, %rsi
	movq	%rsi, %rdx
	shrq	$3, %rdx
	addq	$2147450880, %rdx
	movzbl	(%rdx), %edx
	testb	%dl, %dl
	setne	%r8b
	cmpb	$3, %dl
	setle	%dl
	andl	%r8d, %edx
	testb	%dl, %dl
	je	.L472
	.loc 1 131 1021 is_stmt 0
	movq	%rsi, %rdi
	call	__asan_report_load4@PLT
.L472:
	.loc 1 131 1021 discriminator 18
	movl	8(%rax), %eax
	.loc 1 131 983 is_stmt 1 discriminator 18
	cmpl	%eax, %edi
	jge	.L473
	.loc 1 131 1049 discriminator 19
	movq	-72(%rbp), %rax
	movq	(%rax), %rax
	.loc 1 131 1059 discriminator 19
	movq	%rax, %rdx
	movq	%rdx, %rsi
	shrq	$3, %rsi
	addq	$2147450880, %rsi
	movzbl	(%rsi), %esi
	testb	%sil, %sil
	je	.L474
	.loc 1 131 1059 is_stmt 0
	movq	%rdx, %rdi
	call	__asan_report_load8@PLT
.L474:
	.loc 1 131 1059 discriminator 19
	movq	(%rax), %rsi
	.loc 1 131 1077 is_stmt 1 discriminator 19
	movq	-72(%rbp), %rax
	movl	8(%rax), %eax
	movslq	%eax, %rdx
	.loc 1 131 1069 discriminator 19
	movq	%rdx, %rax
	addq	%rax, %rax
	addq	%rdx, %rax
	salq	$4, %rax
	.loc 1 131 983 discriminator 19
	addq	%rsi, %rax
	jmp	.L475
.L473:
	.loc 1 131 983 is_stmt 0 discriminator 20
	movl	$0, %eax
.L475:
	.loc 1 131 983 discriminator 22
	movq	%rcx, %rsi
	movq	%rax, %rdi
	call	_Z10PrintTokenPK5TokenPPKc@PLT
	.loc 1 132 18 is_stmt 1 discriminator 22
	jmp	.L394
.L437:
	.loc 1 135 28
	call	_ZN6Logger11getInstanceEv@PLT
	movq	%rax, %rdi
	.loc 1 135 40
	movq	-32(%rbp), %rax
	movl	$135, %r8d
	leaq	.LC34(%rip), %rdx
	movq	%rdx, %rcx
	leaq	.LC17(%rip), %rdx
	movq	%rax, %rsi
	call	_ZN6Logger8FREE_LOGEPvPKcS2_i@PLT
	.loc 1 137 16
	movl	-64(%rbp), %eax
	jmp	.L131
.L394:
.LBE4:
	.loc 1 142 28
	call	_ZN6Logger11getInstanceEv@PLT
	movq	%rax, %rdi
	.loc 1 142 40
	movq	-32(%rbp), %rax
	movl	$142, %r8d
	leaq	.LC34(%rip), %rdx
	movq	%rdx, %rcx
	leaq	.LC17(%rip), %rdx
	movq	%rax, %rsi
	call	_ZN6Logger8FREE_LOGEPvPKcS2_i@PLT
	.loc 1 144 16
	movl	$-1, %eax
	jmp	.L131
.L350:
.LBE3:
.LBE2:
	.loc 1 148 32
	movq	-72(%rbp), %rax
	addq	$16, %rax
	movq	%rax, %rdx
	shrq	$3, %rdx
	addq	$2147450880, %rdx
	movzbl	(%rdx), %edx
	testb	%dl, %dl
	je	.L476
	movq	%rax, %rdi
	call	__asan_report_load8@PLT
.L476:
	movq	-72(%rbp), %rax
	movq	16(%rax), %rdx
	movq	-32(%rbp), %rax
	movq	%rdx, %rsi
	movq	%rax, %rdi
	call	_Z12AddFuncLabelP9FuncLabelP9FuncTabel@PLT
	movl	%eax, -60(%rbp)
	.loc 1 149 29
	call	_ZN6Logger11getInstanceEv@PLT
	movq	%rax, %rdi
	.loc 1 149 35
	movl	-60(%rbp), %eax
	movl	%eax, %ecx
	leaq	.LC44(%rip), %rax
	movq	%rax, %rdx
	leaq	.LC45(%rip), %rax
	movq	%rax, %rsi
	movl	$0, %eax
	call	_ZN6Logger3logEPKcz@PLT
	.loc 1 150 12
	movl	-60(%rbp), %eax
.L131:
	.loc 1 151 5
	movq	-8(%rbp), %rbx
	leave
	.cfi_def_cfa 7, 8
	ret
	.cfi_endproc
.LFE2271:
	.size	_ZL13MakeFuncLabelP12SyntacticCtxPP5Token, .-_ZL13MakeFuncLabelP12SyntacticCtxPP5Token
	.globl	__asan_stack_malloc_1
	.section	.rodata
.LC46:
	.string	"1 32 24 10 func_10:10"
	.align 32
.LC47:
	.string	"GetE"
	.zero	59
	.align 32
.LC48:
	.string	"Token* GetE(SyntacticCtx*)"
	.zero	37
	.align 32
.LC49:
	.string	"./src/../src/SyntaxAnalysisExpressions_.ars"
	.zero	52
	.align 32
.LC50:
	.string	"Returnig null ptr (%s:%d)"
	.zero	38
	.align 32
.LC51:
	.string	"\033[94mReturnig null ptr %s:%d (%s:%d)\n\033[0m"
	.zero	54
	.align 32
.LC52:
	.string	"token"
	.zero	58
	.text
	.type	_ZL4GetEP12SyntacticCtx, @function
_ZL4GetEP12SyntacticCtx:
.LASANPC2272:
.LFB2272:
	.file 2 "./src/../src/SyntaxAnalysisExpressions_.ars"
	.loc 2 9 5
	.cfi_startproc
	.cfi_personality 0x9b,DW.ref.__gxx_personality_v0
	.cfi_lsda 0x1b,.LLSDA2272
	endbr64
	pushq	%rbp
	.cfi_def_cfa_offset 16
	.cfi_offset 6, -16
	movq	%rsp, %rbp
	.cfi_def_cfa_register 6
	pushq	%r15
	pushq	%r14
	pushq	%r13
	pushq	%r12
	pushq	%rbx
	subq	$152, %rsp
	.cfi_offset 15, -24
	.cfi_offset 14, -32
	.cfi_offset 13, -40
	.cfi_offset 12, -48
	.cfi_offset 3, -56
	movq	%rdi, -184(%rbp)
	leaq	-144(%rbp), %rbx
	movq	%rbx, %r15
	cmpl	$0, __asan_option_detect_stack_use_after_return(%rip)
	je	.L477
	movl	$96, %edi
	call	__asan_stack_malloc_1@PLT
	testq	%rax, %rax
	je	.L477
	movq	%rax, %rbx
.L477:
	leaq	96(%rbx), %rax
	movq	%rax, %r13
	movq	$1102416563, (%rbx)
	leaq	.LC46(%rip), %rax
	movq	%rax, 8(%rbx)
	leaq	.LASANPC2272(%rip), %rax
	movq	%rax, 16(%rbx)
	movq	%rbx, %r12
	shrq	$3, %r12
	movl	$-235802127, 2147450880(%r12)
	movl	$-218103808, 2147450884(%r12)
	movl	$-202116109, 2147450888(%r12)
	.loc 2 10 48
	leaq	-64(%r13), %rax
	leaq	.LC47(%rip), %rdx
	movl	$1, %esi
	movq	%rax, %rdi
.LEHB0:
	call	_ZN14FunctionLoggerC1EiPKc@PLT
.LEHE0:
	.loc 2 11 10
	cmpq	$0, -184(%rbp)
	jne	.L481
.LEHB1:
	.loc 2 11 43 discriminator 1
	call	_ZN6Logger11getInstanceEv@PLT
	movq	%rax, %rcx
	.loc 2 11 49 discriminator 1
	leaq	.LC13(%rip), %rax
	movq	%rax, %rdx
	leaq	.LC14(%rip), %rax
	movq	%rax, %rsi
	movq	%rcx, %rdi
	movl	$0, %eax
	call	_ZN6Logger3logEPKcz@PLT
	.loc 2 11 105 discriminator 3
	leaq	.LC13(%rip), %rax
	movq	%rax, %rsi
	leaq	.LC15(%rip), %rax
	movq	%rax, %rdi
	movl	$0, %eax
	call	printf@PLT
	.loc 2 11 249 discriminator 4
	call	_ZN6Logger11getInstanceEv@PLT
	movq	%rax, %rdi
	.loc 2 11 255 discriminator 4
	leaq	.LC48(%rip), %r8
	movl	$11, %ecx
	leaq	.LC49(%rip), %rax
	movq	%rax, %rdx
	leaq	.LC18(%rip), %rax
	movq	%rax, %rsi
	movl	$0, %eax
	call	_ZN6Logger3logEPKcz@PLT
	.loc 2 11 362 discriminator 6
	leaq	.LC48(%rip), %rax
	movq	%rax, %rcx
	movl	$11, %edx
	leaq	.LC49(%rip), %rax
	movq	%rax, %rsi
	leaq	.LC18(%rip), %rax
	movq	%rax, %rdi
	movl	$0, %eax
	call	printf@PLT
	.loc 2 11 482 discriminator 7
	call	_ZN6Logger11getInstanceEv@PLT
	movq	%rax, %r14
	.loc 2 11 488 discriminator 7
	movl	$14, %edi
	call	strerror@PLT
	movq	%rax, %rcx
	movl	$14, %edx
	leaq	.LC19(%rip), %rax
	movq	%rax, %rsi
	movq	%r14, %rdi
	movl	$0, %eax
	call	_ZN6Logger3logEPKcz@PLT
	.loc 2 11 27 discriminator 9
	call	_ZN6Logger11getInstanceEv@PLT
	movq	%rax, %rdi
	.loc 2 11 33 discriminator 9
	movl	$11, %ecx
	leaq	.LC47(%rip), %rax
	movq	%rax, %rdx
	leaq	.LC21(%rip), %rax
	movq	%rax, %rsi
	movl	$0, %eax
	call	_ZN6Logger3logEPKcz@PLT
	.loc 2 11 91 discriminator 11
	leaq	.LC22(%rip), %rax
	movq	%rax, %rdi
	call	system@PLT
	.loc 2 11 133 discriminator 12
	call	_ZN6Logger11getInstanceEv@PLT
	movq	%rax, %rdi
	.loc 2 11 149 discriminator 12
	movl	$11, %ecx
	leaq	.LC47(%rip), %rax
	movq	%rax, %rdx
	leaq	.LC50(%rip), %rax
	movq	%rax, %rsi
	movl	$0, %eax
	call	_ZN6Logger13LogMsgNullRetEPKcz@PLT
	.loc 2 11 207 discriminator 14
	movl	$11, %r8d
	leaq	.LC47(%rip), %rax
	movq	%rax, %rcx
	movl	$11, %edx
	leaq	.LC49(%rip), %rax
	movq	%rax, %rsi
	leaq	.LC51(%rip), %rax
	movq	%rax, %rdi
	movl	$0, %eax
	call	_Z13LogMsgNullRetPKcz@PLT
	.loc 2 11 329 discriminator 15
	movl	$0, %r14d
	jmp	.L482
.L481:
	.loc 2 13 23
	movq	-184(%rbp), %rax
	movq	%rax, %rdi
	call	_ZL4GetTP12SyntacticCtx
	movq	%rax, -160(%rbp)
	.loc 2 15 12
	movq	-160(%rbp), %rax
	movq	%rax, -168(%rbp)
	.loc 2 16 5
	jmp	.L483
.L521:
.LBB5:
	.loc 2 18 151
	movq	-184(%rbp), %rax
	movq	%rax, %rdx
	shrq	$3, %rdx
	addq	$2147450880, %rdx
	movzbl	(%rdx), %edx
	testb	%dl, %dl
	je	.L484
	movq	%rax, %rdi
	call	__asan_report_load8@PLT
.L484:
	movq	-184(%rbp), %rax
	movq	(%rax), %rax
	.loc 2 18 161
	leaq	24(%rax), %rdx
	movq	%rdx, %rcx
	shrq	$3, %rcx
	addq	$2147450880, %rcx
	movzbl	(%rcx), %ecx
	testb	%cl, %cl
	je	.L485
	movq	%rdx, %rdi
	call	__asan_report_load8@PLT
.L485:
	movq	24(%rax), %rcx
	.loc 2 18 26
	movq	-184(%rbp), %rax
	addq	$8, %rax
	movq	%rax, %rdx
	movq	%rdx, %rax
	shrq	$3, %rax
	addq	$2147450880, %rax
	movzbl	(%rax), %eax
	testb	%al, %al
	setne	%sil
	cmpb	$3, %al
	setle	%al
	andl	%esi, %eax
	testb	%al, %al
	je	.L486
	movq	%rdx, %rdi
	call	__asan_report_load4@PLT
.L486:
	movq	-184(%rbp), %rax
	movl	8(%rax), %edi
	.loc 2 18 45
	movq	-184(%rbp), %rax
	movq	(%rax), %rax
	.loc 2 18 55
	leaq	8(%rax), %rdx
	movq	%rdx, %rsi
	movq	%rsi, %rdx
	shrq	$3, %rdx
	addq	$2147450880, %rdx
	movzbl	(%rdx), %edx
	testb	%dl, %dl
	setne	%r8b
	cmpb	$3, %dl
	setle	%dl
	andl	%r8d, %edx
	testb	%dl, %dl
	je	.L487
	movq	%rsi, %rdi
	call	__asan_report_load4@PLT
.L487:
	movl	8(%rax), %eax
	.loc 2 18 17
	cmpl	%eax, %edi
	jge	.L488
	.loc 2 18 83 discriminator 1
	movq	-184(%rbp), %rax
	movq	(%rax), %rax
	.loc 2 18 93 discriminator 1
	movq	%rax, %rdx
	movq	%rdx, %rsi
	shrq	$3, %rsi
	addq	$2147450880, %rsi
	movzbl	(%rsi), %esi
	testb	%sil, %sil
	je	.L489
	.loc 2 18 93 is_stmt 0
	movq	%rdx, %rdi
	call	__asan_report_load8@PLT
.L489:
	.loc 2 18 93 discriminator 1
	movq	(%rax), %rsi
	.loc 2 18 111 is_stmt 1 discriminator 1
	movq	-184(%rbp), %rax
	movl	8(%rax), %eax
	movslq	%eax, %rdx
	.loc 2 18 103 discriminator 1
	movq	%rdx, %rax
	addq	%rax, %rax
	addq	%rdx, %rax
	salq	$4, %rax
	.loc 2 18 17 discriminator 1
	addq	%rsi, %rax
	jmp	.L490
.L488:
	.loc 2 18 17 is_stmt 0 discriminator 2
	movl	$0, %eax
.L490:
	.loc 2 18 17 discriminator 4
	movq	%rcx, %rdx
	leaq	.LC52(%rip), %rcx
	movq	%rcx, %rsi
	movq	%rax, %rdi
	call	_Z8LogTokenPK5TokenPKcPS3_@PLT
	.loc 2 19 37 is_stmt 1
	movq	-184(%rbp), %rax
	addq	$8, %rax
	movq	%rax, %rdx
	movq	%rdx, %rax
	shrq	$3, %rax
	addq	$2147450880, %rax
	movzbl	(%rax), %eax
	testb	%al, %al
	setne	%cl
	cmpb	$3, %al
	setle	%al
	andl	%ecx, %eax
	testb	%al, %al
	je	.L491
	movq	%rdx, %rdi
	call	__asan_report_load4@PLT
.L491:
	movq	-184(%rbp), %rax
	movl	8(%rax), %esi
	.loc 2 19 56
	movq	-184(%rbp), %rax
	movq	%rax, %rdx
	shrq	$3, %rdx
	addq	$2147450880, %rdx
	movzbl	(%rdx), %edx
	testb	%dl, %dl
	je	.L492
	movq	%rax, %rdi
	call	__asan_report_load8@PLT
.L492:
	movq	-184(%rbp), %rax
	movq	(%rax), %rax
	.loc 2 19 66
	leaq	8(%rax), %rdx
	movq	%rdx, %rcx
	movq	%rcx, %rdx
	shrq	$3, %rdx
	addq	$2147450880, %rdx
	movzbl	(%rdx), %edx
	testb	%dl, %dl
	setne	%dil
	cmpb	$3, %dl
	setle	%dl
	andl	%edi, %edx
	testb	%dl, %dl
	je	.L493
	movq	%rcx, %rdi
	call	__asan_report_load4@PLT
.L493:
	movl	8(%rax), %eax
	.loc 2 19 85
	cmpl	%eax, %esi
	jge	.L494
	.loc 2 19 94 discriminator 1
	movq	-184(%rbp), %rax
	movq	(%rax), %rax
	.loc 2 19 104 discriminator 1
	movq	%rax, %rdx
	movq	%rdx, %rcx
	shrq	$3, %rcx
	addq	$2147450880, %rcx
	movzbl	(%rcx), %ecx
	testb	%cl, %cl
	je	.L495
	.loc 2 19 104 is_stmt 0
	movq	%rdx, %rdi
	call	__asan_report_load8@PLT
.L495:
	.loc 2 19 104 discriminator 1
	movq	(%rax), %rcx
	.loc 2 19 122 is_stmt 1 discriminator 1
	movq	-184(%rbp), %rax
	movl	8(%rax), %eax
	movslq	%eax, %rdx
	.loc 2 19 114 discriminator 1
	movq	%rdx, %rax
	addq	%rax, %rax
	addq	%rdx, %rax
	salq	$4, %rax
	.loc 2 19 85 discriminator 1
	addq	%rcx, %rax
	jmp	.L496
.L494:
	.loc 2 19 85 is_stmt 0 discriminator 2
	movl	$0, %eax
.L496:
	.loc 2 19 16 is_stmt 1 discriminator 4
	movq	%rax, -152(%rbp)
	.loc 2 20 15 discriminator 4
	movq	-184(%rbp), %rax
	addq	$8, %rax
	movq	%rax, %rdx
	movq	%rdx, %rax
	shrq	$3, %rax
	addq	$2147450880, %rax
	movzbl	(%rax), %eax
	testb	%al, %al
	setne	%cl
	cmpb	$3, %al
	setle	%al
	andl	%ecx, %eax
	testb	%al, %al
	je	.L497
	.loc 2 20 15 is_stmt 0
	movq	%rdx, %rdi
	call	__asan_report_load4@PLT
.L497:
	.loc 2 20 15 discriminator 4
	movq	-184(%rbp), %rax
	movl	8(%rax), %eax
	.loc 2 20 24 is_stmt 1 discriminator 4
	leal	1(%rax), %edx
	movq	-184(%rbp), %rax
	movl	%edx, 8(%rax)
	.loc 2 22 33 discriminator 4
	movq	-152(%rbp), %rax
	movq	%rax, %rdx
	shrq	$3, %rdx
	addq	$2147450880, %rdx
	movzbl	(%rdx), %edx
	testb	%dl, %dl
	je	.L498
	.loc 2 22 33 is_stmt 0
	movq	%rax, %rdi
	call	__asan_report_store8@PLT
.L498:
	.loc 2 22 33 discriminator 4
	movq	-152(%rbp), %rax
	movq	-168(%rbp), %rdx
	movq	%rdx, (%rax)
	.loc 2 23 39 is_stmt 1 discriminator 4
	movq	-184(%rbp), %rax
	movq	%rax, %rdi
	call	_ZL4GetTP12SyntacticCtx
.LEHE1:
	.loc 2 23 33 discriminator 4
	movq	-152(%rbp), %rdx
	addq	$8, %rdx
	movq	%rdx, %rcx
	shrq	$3, %rcx
	addq	$2147450880, %rcx
	movzbl	(%rcx), %ecx
	testb	%cl, %cl
	je	.L499
	.loc 2 23 33 is_stmt 0
	movq	%rdx, %rdi
	call	__asan_report_store8@PLT
.L499:
	.loc 2 23 33 discriminator 1
	movq	-152(%rbp), %rdx
	movq	%rax, 8(%rdx)
	.loc 2 25 17 is_stmt 1 discriminator 1
	movq	-152(%rbp), %rax
	movq	%rax, -168(%rbp)
.L483:
.LBE5:
	.loc 2 16 23
	movq	-184(%rbp), %rax
	addq	$8, %rax
	movq	%rax, %rdx
	movq	%rdx, %rax
	shrq	$3, %rax
	addq	$2147450880, %rax
	movzbl	(%rax), %eax
	testb	%al, %al
	setne	%cl
	cmpb	$3, %al
	setle	%al
	andl	%ecx, %eax
	testb	%al, %al
	je	.L500
	movq	%rdx, %rdi
	call	__asan_report_load4@PLT
.L500:
	movq	-184(%rbp), %rax
	movl	8(%rax), %esi
	.loc 2 16 42
	movq	-184(%rbp), %rax
	movq	%rax, %rdx
	shrq	$3, %rdx
	addq	$2147450880, %rdx
	movzbl	(%rdx), %edx
	testb	%dl, %dl
	je	.L501
	movq	%rax, %rdi
	call	__asan_report_load8@PLT
.L501:
	movq	-184(%rbp), %rax
	movq	(%rax), %rax
	.loc 2 16 52
	leaq	8(%rax), %rdx
	movq	%rdx, %rcx
	movq	%rcx, %rdx
	shrq	$3, %rdx
	addq	$2147450880, %rdx
	movzbl	(%rdx), %edx
	testb	%dl, %dl
	setne	%dil
	cmpb	$3, %dl
	setle	%dl
	andl	%edi, %edx
	testb	%dl, %dl
	je	.L502
	movq	%rcx, %rdi
	call	__asan_report_load4@PLT
.L502:
	movl	8(%rax), %eax
	.loc 2 16 71
	cmpl	%eax, %esi
	jge	.L503
	.loc 2 16 80 discriminator 1
	movq	-184(%rbp), %rax
	movq	(%rax), %rax
	.loc 2 16 90 discriminator 1
	movq	%rax, %rdx
	movq	%rdx, %rcx
	shrq	$3, %rcx
	addq	$2147450880, %rcx
	movzbl	(%rcx), %ecx
	testb	%cl, %cl
	je	.L504
	.loc 2 16 90 is_stmt 0
	movq	%rdx, %rdi
	call	__asan_report_load8@PLT
.L504:
	.loc 2 16 90 discriminator 1
	movq	(%rax), %rcx
	.loc 2 16 108 is_stmt 1 discriminator 1
	movq	-184(%rbp), %rax
	movl	8(%rax), %eax
	movslq	%eax, %rdx
	.loc 2 16 100 discriminator 1
	movq	%rdx, %rax
	addq	%rax, %rax
	addq	%rdx, %rax
	salq	$4, %rax
	.loc 2 16 71 discriminator 1
	addq	%rcx, %rax
	jmp	.L505
.L503:
	.loc 2 16 71 is_stmt 0 discriminator 2
	movl	$0, %eax
.L505:
	.loc 2 16 289 is_stmt 1 discriminator 4
	testq	%rax, %rax
	je	.L506
	.loc 2 16 144 discriminator 5
	movq	-184(%rbp), %rax
	addq	$8, %rax
	movq	%rax, %rdx
	movq	%rdx, %rax
	shrq	$3, %rax
	addq	$2147450880, %rax
	movzbl	(%rax), %eax
	testb	%al, %al
	setne	%cl
	cmpb	$3, %al
	setle	%al
	andl	%ecx, %eax
	testb	%al, %al
	je	.L507
	.loc 2 16 144 is_stmt 0
	movq	%rdx, %rdi
	call	__asan_report_load4@PLT
.L507:
	.loc 2 16 144 discriminator 5
	movq	-184(%rbp), %rax
	movl	8(%rax), %esi
	.loc 2 16 163 is_stmt 1 discriminator 5
	movq	-184(%rbp), %rax
	movq	%rax, %rdx
	shrq	$3, %rdx
	addq	$2147450880, %rdx
	movzbl	(%rdx), %edx
	testb	%dl, %dl
	je	.L508
	.loc 2 16 163 is_stmt 0
	movq	%rax, %rdi
	call	__asan_report_load8@PLT
.L508:
	.loc 2 16 163 discriminator 5
	movq	-184(%rbp), %rax
	movq	(%rax), %rax
	.loc 2 16 173 is_stmt 1 discriminator 5
	leaq	8(%rax), %rdx
	movq	%rdx, %rcx
	movq	%rcx, %rdx
	shrq	$3, %rdx
	addq	$2147450880, %rdx
	movzbl	(%rdx), %edx
	testb	%dl, %dl
	setne	%dil
	cmpb	$3, %dl
	setle	%dl
	andl	%edi, %edx
	testb	%dl, %dl
	je	.L509
	.loc 2 16 173 is_stmt 0
	movq	%rcx, %rdi
	call	__asan_report_load4@PLT
.L509:
	.loc 2 16 173 discriminator 5
	movl	8(%rax), %eax
	.loc 2 16 192 is_stmt 1 discriminator 5
	cmpl	%eax, %esi
	jge	.L510
	.loc 2 16 201 discriminator 6
	movq	-184(%rbp), %rax
	movq	(%rax), %rax
	.loc 2 16 211 discriminator 6
	movq	%rax, %rdx
	movq	%rdx, %rcx
	shrq	$3, %rcx
	addq	$2147450880, %rcx
	movzbl	(%rcx), %ecx
	testb	%cl, %cl
	je	.L511
	.loc 2 16 211 is_stmt 0
	movq	%rdx, %rdi
	call	__asan_report_load8@PLT
.L511:
	.loc 2 16 211 discriminator 6
	movq	(%rax), %rcx
	.loc 2 16 229 is_stmt 1 discriminator 6
	movq	-184(%rbp), %rax
	movl	8(%rax), %eax
	movslq	%eax, %rdx
	.loc 2 16 221 discriminator 6
	movq	%rdx, %rax
	addq	%rax, %rax
	addq	%rdx, %rax
	salq	$4, %rax
	.loc 2 16 192 discriminator 6
	addq	%rcx, %rax
	jmp	.L512
.L510:
	.loc 2 16 192 is_stmt 0 discriminator 7
	movl	$0, %eax
.L512:
	.loc 2 16 253 is_stmt 1 discriminator 9
	leaq	16(%rax), %rdx
	movq	%rdx, %rcx
	movq	%rcx, %rdx
	shrq	$3, %rdx
	addq	$2147450880, %rdx
	movzbl	(%rdx), %edx
	testb	%dl, %dl
	setne	%sil
	cmpb	$3, %dl
	setle	%dl
	andl	%esi, %edx
	testb	%dl, %dl
	je	.L513
	.loc 2 16 253 is_stmt 0
	movq	%rcx, %rdi
	call	__asan_report_load4@PLT
.L513:
	.loc 2 16 253 discriminator 9
	movl	16(%rax), %eax
	.loc 2 16 272 is_stmt 1 discriminator 9
	cmpl	$5, %eax
	jne	.L506
	.loc 2 16 301 discriminator 10
	movq	-184(%rbp), %rax
	addq	$8, %rax
	movq	%rax, %rdx
	movq	%rdx, %rax
	shrq	$3, %rax
	addq	$2147450880, %rax
	movzbl	(%rax), %eax
	testb	%al, %al
	setne	%cl
	cmpb	$3, %al
	setle	%al
	andl	%ecx, %eax
	testb	%al, %al
	je	.L514
	.loc 2 16 301 is_stmt 0
	movq	%rdx, %rdi
	call	__asan_report_load4@PLT
.L514:
	.loc 2 16 301 discriminator 10
	movq	-184(%rbp), %rax
	movl	8(%rax), %esi
	.loc 2 16 320 is_stmt 1 discriminator 10
	movq	-184(%rbp), %rax
	movq	%rax, %rdx
	shrq	$3, %rdx
	addq	$2147450880, %rdx
	movzbl	(%rdx), %edx
	testb	%dl, %dl
	je	.L515
	.loc 2 16 320 is_stmt 0
	movq	%rax, %rdi
	call	__asan_report_load8@PLT
.L515:
	.loc 2 16 320 discriminator 10
	movq	-184(%rbp), %rax
	movq	(%rax), %rax
	.loc 2 16 330 is_stmt 1 discriminator 10
	leaq	8(%rax), %rdx
	movq	%rdx, %rcx
	movq	%rcx, %rdx
	shrq	$3, %rdx
	addq	$2147450880, %rdx
	movzbl	(%rdx), %edx
	testb	%dl, %dl
	setne	%dil
	cmpb	$3, %dl
	setle	%dl
	andl	%edi, %edx
	testb	%dl, %dl
	je	.L516
	.loc 2 16 330 is_stmt 0
	movq	%rcx, %rdi
	call	__asan_report_load4@PLT
.L516:
	.loc 2 16 330 discriminator 10
	movl	8(%rax), %eax
	.loc 2 16 349 is_stmt 1 discriminator 10
	cmpl	%eax, %esi
	jge	.L517
	.loc 2 16 358 discriminator 11
	movq	-184(%rbp), %rax
	movq	(%rax), %rax
	.loc 2 16 368 discriminator 11
	movq	%rax, %rdx
	movq	%rdx, %rcx
	shrq	$3, %rcx
	addq	$2147450880, %rcx
	movzbl	(%rcx), %ecx
	testb	%cl, %cl
	je	.L518
	.loc 2 16 368 is_stmt 0
	movq	%rdx, %rdi
	call	__asan_report_load8@PLT
.L518:
	.loc 2 16 368 discriminator 11
	movq	(%rax), %rcx
	.loc 2 16 386 is_stmt 1 discriminator 11
	movq	-184(%rbp), %rax
	movl	8(%rax), %eax
	movslq	%eax, %rdx
	.loc 2 16 378 discriminator 11
	movq	%rdx, %rax
	addq	%rax, %rax
	addq	%rdx, %rax
	salq	$4, %rax
	.loc 2 16 349 discriminator 11
	addq	%rcx, %rax
	jmp	.L519
.L517:
	.loc 2 16 349 is_stmt 0 discriminator 12
	movl	$0, %eax
.L519:
	.loc 2 16 416 is_stmt 1 discriminator 14
	leaq	24(%rax), %rdx
	movq	%rdx, %rcx
	movq	%rcx, %rdx
	shrq	$3, %rdx
	addq	$2147450880, %rdx
	movzbl	(%rdx), %edx
	testb	%dl, %dl
	setne	%sil
	testb	%dl, %dl
	setle	%dl
	andl	%esi, %edx
	testb	%dl, %dl
	je	.L520
	.loc 2 16 416 is_stmt 0
	movq	%rcx, %rdi
	call	__asan_report_load1@PLT
.L520:
	.loc 2 16 416 discriminator 14
	movzbl	24(%rax), %eax
	.loc 2 16 289 is_stmt 1 discriminator 14
	cmpb	$43, %al
	je	.L521
	.loc 2 16 445 discriminator 15
	movq	-184(%rbp), %rax
	addq	$8, %rax
	movq	%rax, %rdx
	movq	%rdx, %rax
	shrq	$3, %rax
	addq	$2147450880, %rax
	movzbl	(%rax), %eax
	testb	%al, %al
	setne	%cl
	cmpb	$3, %al
	setle	%al
	andl	%ecx, %eax
	testb	%al, %al
	je	.L522
	.loc 2 16 445 is_stmt 0
	movq	%rdx, %rdi
	call	__asan_report_load4@PLT
.L522:
	.loc 2 16 445 discriminator 15
	movq	-184(%rbp), %rax
	movl	8(%rax), %esi
	.loc 2 16 464 is_stmt 1 discriminator 15
	movq	-184(%rbp), %rax
	movq	%rax, %rdx
	shrq	$3, %rdx
	addq	$2147450880, %rdx
	movzbl	(%rdx), %edx
	testb	%dl, %dl
	je	.L523
	.loc 2 16 464 is_stmt 0
	movq	%rax, %rdi
	call	__asan_report_load8@PLT
.L523:
	.loc 2 16 464 discriminator 15
	movq	-184(%rbp), %rax
	movq	(%rax), %rax
	.loc 2 16 474 is_stmt 1 discriminator 15
	leaq	8(%rax), %rdx
	movq	%rdx, %rcx
	movq	%rcx, %rdx
	shrq	$3, %rdx
	addq	$2147450880, %rdx
	movzbl	(%rdx), %edx
	testb	%dl, %dl
	setne	%dil
	cmpb	$3, %dl
	setle	%dl
	andl	%edi, %edx
	testb	%dl, %dl
	je	.L524
	.loc 2 16 474 is_stmt 0
	movq	%rcx, %rdi
	call	__asan_report_load4@PLT
.L524:
	.loc 2 16 474 discriminator 15
	movl	8(%rax), %eax
	.loc 2 16 493 is_stmt 1 discriminator 15
	cmpl	%eax, %esi
	jge	.L525
	.loc 2 16 502 discriminator 16
	movq	-184(%rbp), %rax
	movq	(%rax), %rax
	.loc 2 16 512 discriminator 16
	movq	%rax, %rdx
	movq	%rdx, %rcx
	shrq	$3, %rcx
	addq	$2147450880, %rcx
	movzbl	(%rcx), %ecx
	testb	%cl, %cl
	je	.L526
	.loc 2 16 512 is_stmt 0
	movq	%rdx, %rdi
	call	__asan_report_load8@PLT
.L526:
	.loc 2 16 512 discriminator 16
	movq	(%rax), %rcx
	.loc 2 16 530 is_stmt 1 discriminator 16
	movq	-184(%rbp), %rax
	movl	8(%rax), %eax
	movslq	%eax, %rdx
	.loc 2 16 522 discriminator 16
	movq	%rdx, %rax
	addq	%rax, %rax
	addq	%rdx, %rax
	salq	$4, %rax
	.loc 2 16 493 discriminator 16
	addq	%rcx, %rax
	jmp	.L527
.L525:
	.loc 2 16 493 is_stmt 0 discriminator 17
	movl	$0, %eax
.L527:
	.loc 2 16 560 is_stmt 1 discriminator 19
	leaq	24(%rax), %rdx
	movq	%rdx, %rcx
	movq	%rcx, %rdx
	shrq	$3, %rdx
	addq	$2147450880, %rdx
	movzbl	(%rdx), %edx
	testb	%dl, %dl
	setne	%sil
	testb	%dl, %dl
	setle	%dl
	andl	%esi, %edx
	testb	%dl, %dl
	je	.L528
	.loc 2 16 560 is_stmt 0
	movq	%rcx, %rdi
	call	__asan_report_load1@PLT
.L528:
	.loc 2 16 560 discriminator 19
	movzbl	24(%rax), %eax
	.loc 2 16 434 is_stmt 1 discriminator 19
	cmpb	$45, %al
	je	.L521
.L506:
	.loc 2 28 12
	movq	-168(%rbp), %r14
.L482:
	.loc 2 29 5
	leaq	-64(%r13), %rax
	movq	%rax, %rdi
	call	_ZN14FunctionLoggerD1Ev@PLT
	movq	%r14, %rdx
	.loc 2 9 5
	cmpq	%rbx, %r15
	je	.L478
	jmp	.L532
.L531:
	endbr64
	.loc 2 29 5
	movq	%rax, %rbx
	leaq	-64(%r13), %rax
	movq	%rax, %rdi
	call	_ZN14FunctionLoggerD1Ev@PLT
	call	__asan_handle_no_return@PLT
	movq	%rbx, %rdi
.LEHB2:
	call	_Unwind_Resume@PLT
.LEHE2:
.L532:
	.loc 2 9 5
	movq	$1172321806, (%rbx)
	movabsq	$-723401728380766731, %rax
	movq	%rax, 2147450880(%r12)
	movl	$-168430091, 2147450888(%r12)
	movq	120(%rbx), %rax
	movb	$0, (%rax)
	jmp	.L479
.L478:
	movq	$0, 2147450880(%r12)
	movl	$0, 2147450888(%r12)
.L479:
	.loc 2 29 5
	movq	%rdx, %rax
	addq	$152, %rsp
	popq	%rbx
	popq	%r12
	popq	%r13
	popq	%r14
	popq	%r15
	popq	%rbp
	.cfi_def_cfa 7, 8
	ret
	.cfi_endproc
.LFE2272:
	.globl	__gxx_personality_v0
	.section	.gcc_except_table,"a",@progbits
.LLSDA2272:
	.byte	0xff
	.byte	0xff
	.byte	0x1
	.uleb128 .LLSDACSE2272-.LLSDACSB2272
.LLSDACSB2272:
	.uleb128 .LEHB0-.LFB2272
	.uleb128 .LEHE0-.LEHB0
	.uleb128 0
	.uleb128 0
	.uleb128 .LEHB1-.LFB2272
	.uleb128 .LEHE1-.LEHB1
	.uleb128 .L531-.LFB2272
	.uleb128 0
	.uleb128 .LEHB2-.LFB2272
	.uleb128 .LEHE2-.LEHB2
	.uleb128 0
	.uleb128 0
.LLSDACSE2272:
	.text
	.size	_ZL4GetEP12SyntacticCtx, .-_ZL4GetEP12SyntacticCtx
	.section	.rodata
.LC53:
	.string	"1 32 24 10 func_33:33"
	.align 32
.LC54:
	.string	"GetT"
	.zero	59
	.align 32
.LC55:
	.string	"Token* GetT(SyntacticCtx*)"
	.zero	37
	.align 32
.LC56:
	.string	"node"
	.zero	59
	.text
	.type	_ZL4GetTP12SyntacticCtx, @function
_ZL4GetTP12SyntacticCtx:
.LASANPC2273:
.LFB2273:
	.loc 2 32 5
	.cfi_startproc
	.cfi_personality 0x9b,DW.ref.__gxx_personality_v0
	.cfi_lsda 0x1b,.LLSDA2273
	endbr64
	pushq	%rbp
	.cfi_def_cfa_offset 16
	.cfi_offset 6, -16
	movq	%rsp, %rbp
	.cfi_def_cfa_register 6
	pushq	%r15
	pushq	%r14
	pushq	%r13
	pushq	%r12
	pushq	%rbx
	subq	$152, %rsp
	.cfi_offset 15, -24
	.cfi_offset 14, -32
	.cfi_offset 13, -40
	.cfi_offset 12, -48
	.cfi_offset 3, -56
	movq	%rdi, -184(%rbp)
	leaq	-144(%rbp), %rbx
	movq	%rbx, %r15
	cmpl	$0, __asan_option_detect_stack_use_after_return(%rip)
	je	.L533
	movl	$96, %edi
	call	__asan_stack_malloc_1@PLT
	testq	%rax, %rax
	je	.L533
	movq	%rax, %rbx
.L533:
	leaq	96(%rbx), %rax
	movq	%rax, %r13
	movq	$1102416563, (%rbx)
	leaq	.LC53(%rip), %rax
	movq	%rax, 8(%rbx)
	leaq	.LASANPC2273(%rip), %rax
	movq	%rax, 16(%rbx)
	movq	%rbx, %r12
	shrq	$3, %r12
	movl	$-235802127, 2147450880(%r12)
	movl	$-218103808, 2147450884(%r12)
	movl	$-202116109, 2147450888(%r12)
	.loc 2 33 48
	leaq	-64(%r13), %rax
	leaq	.LC54(%rip), %rdx
	movl	$1, %esi
	movq	%rax, %rdi
.LEHB3:
	call	_ZN14FunctionLoggerC1EiPKc@PLT
.LEHE3:
	.loc 2 34 10
	cmpq	$0, -184(%rbp)
	jne	.L537
.LEHB4:
	.loc 2 34 43 discriminator 1
	call	_ZN6Logger11getInstanceEv@PLT
	movq	%rax, %rcx
	.loc 2 34 49 discriminator 1
	leaq	.LC13(%rip), %rax
	movq	%rax, %rdx
	leaq	.LC14(%rip), %rax
	movq	%rax, %rsi
	movq	%rcx, %rdi
	movl	$0, %eax
	call	_ZN6Logger3logEPKcz@PLT
	.loc 2 34 105 discriminator 3
	leaq	.LC13(%rip), %rax
	movq	%rax, %rsi
	leaq	.LC15(%rip), %rax
	movq	%rax, %rdi
	movl	$0, %eax
	call	printf@PLT
	.loc 2 34 249 discriminator 4
	call	_ZN6Logger11getInstanceEv@PLT
	movq	%rax, %rdi
	.loc 2 34 255 discriminator 4
	leaq	.LC55(%rip), %r8
	movl	$34, %ecx
	leaq	.LC49(%rip), %rax
	movq	%rax, %rdx
	leaq	.LC18(%rip), %rax
	movq	%rax, %rsi
	movl	$0, %eax
	call	_ZN6Logger3logEPKcz@PLT
	.loc 2 34 362 discriminator 6
	leaq	.LC55(%rip), %rax
	movq	%rax, %rcx
	movl	$34, %edx
	leaq	.LC49(%rip), %rax
	movq	%rax, %rsi
	leaq	.LC18(%rip), %rax
	movq	%rax, %rdi
	movl	$0, %eax
	call	printf@PLT
	.loc 2 34 482 discriminator 7
	call	_ZN6Logger11getInstanceEv@PLT
	movq	%rax, %r14
	.loc 2 34 488 discriminator 7
	movl	$14, %edi
	call	strerror@PLT
	movq	%rax, %rcx
	movl	$14, %edx
	leaq	.LC19(%rip), %rax
	movq	%rax, %rsi
	movq	%r14, %rdi
	movl	$0, %eax
	call	_ZN6Logger3logEPKcz@PLT
	.loc 2 34 27 discriminator 9
	call	_ZN6Logger11getInstanceEv@PLT
	movq	%rax, %rdi
	.loc 2 34 33 discriminator 9
	movl	$34, %ecx
	leaq	.LC54(%rip), %rax
	movq	%rax, %rdx
	leaq	.LC21(%rip), %rax
	movq	%rax, %rsi
	movl	$0, %eax
	call	_ZN6Logger3logEPKcz@PLT
	.loc 2 34 91 discriminator 11
	leaq	.LC22(%rip), %rax
	movq	%rax, %rdi
	call	system@PLT
	.loc 2 34 133 discriminator 12
	call	_ZN6Logger11getInstanceEv@PLT
	movq	%rax, %rdi
	.loc 2 34 149 discriminator 12
	movl	$34, %ecx
	leaq	.LC54(%rip), %rax
	movq	%rax, %rdx
	leaq	.LC50(%rip), %rax
	movq	%rax, %rsi
	movl	$0, %eax
	call	_ZN6Logger13LogMsgNullRetEPKcz@PLT
	.loc 2 34 207 discriminator 14
	movl	$34, %r8d
	leaq	.LC54(%rip), %rax
	movq	%rax, %rcx
	movl	$34, %edx
	leaq	.LC49(%rip), %rax
	movq	%rax, %rsi
	leaq	.LC51(%rip), %rax
	movq	%rax, %rdi
	movl	$0, %eax
	call	_Z13LogMsgNullRetPKcz@PLT
	.loc 2 34 329 discriminator 15
	movl	$0, %r14d
	jmp	.L538
.L537:
	.loc 2 36 27
	movq	-184(%rbp), %rax
	movq	%rax, %rdi
	call	_ZL8GetPowerP12SyntacticCtx
	movq	%rax, -160(%rbp)
	.loc 2 37 35
	movq	-184(%rbp), %rax
	movq	%rax, %rdx
	shrq	$3, %rdx
	addq	$2147450880, %rdx
	movzbl	(%rdx), %edx
	testb	%dl, %dl
	je	.L539
	movq	%rax, %rdi
	call	__asan_report_load8@PLT
.L539:
	.loc 2 37 35 is_stmt 0 discriminator 1
	movq	-184(%rbp), %rax
	movq	(%rax), %rax
	.loc 2 37 45 is_stmt 1 discriminator 1
	leaq	24(%rax), %rdx
	movq	%rdx, %rcx
	shrq	$3, %rcx
	addq	$2147450880, %rcx
	movzbl	(%rcx), %ecx
	testb	%cl, %cl
	je	.L540
	.loc 2 37 45 is_stmt 0
	movq	%rdx, %rdi
	call	__asan_report_load8@PLT
.L540:
	.loc 2 37 45 discriminator 1
	movq	24(%rax), %rdx
	.loc 2 37 13 is_stmt 1 discriminator 1
	movq	-160(%rbp), %rax
	leaq	.LC56(%rip), %rcx
	movq	%rcx, %rsi
	movq	%rax, %rdi
	call	_Z8LogTokenPK5TokenPKcPS3_@PLT
	.loc 2 39 12
	movq	-160(%rbp), %rax
	movq	%rax, -168(%rbp)
	.loc 2 40 5
	jmp	.L541
.L579:
.LBB6:
	.loc 2 42 151
	movq	-184(%rbp), %rax
	movq	%rax, %rdx
	shrq	$3, %rdx
	addq	$2147450880, %rdx
	movzbl	(%rdx), %edx
	testb	%dl, %dl
	je	.L542
	movq	%rax, %rdi
	call	__asan_report_load8@PLT
.L542:
	movq	-184(%rbp), %rax
	movq	(%rax), %rax
	.loc 2 42 161
	leaq	24(%rax), %rdx
	movq	%rdx, %rcx
	shrq	$3, %rcx
	addq	$2147450880, %rcx
	movzbl	(%rcx), %ecx
	testb	%cl, %cl
	je	.L543
	movq	%rdx, %rdi
	call	__asan_report_load8@PLT
.L543:
	movq	24(%rax), %rcx
	.loc 2 42 26
	movq	-184(%rbp), %rax
	addq	$8, %rax
	movq	%rax, %rdx
	movq	%rdx, %rax
	shrq	$3, %rax
	addq	$2147450880, %rax
	movzbl	(%rax), %eax
	testb	%al, %al
	setne	%sil
	cmpb	$3, %al
	setle	%al
	andl	%esi, %eax
	testb	%al, %al
	je	.L544
	movq	%rdx, %rdi
	call	__asan_report_load4@PLT
.L544:
	movq	-184(%rbp), %rax
	movl	8(%rax), %edi
	.loc 2 42 45
	movq	-184(%rbp), %rax
	movq	(%rax), %rax
	.loc 2 42 55
	leaq	8(%rax), %rdx
	movq	%rdx, %rsi
	movq	%rsi, %rdx
	shrq	$3, %rdx
	addq	$2147450880, %rdx
	movzbl	(%rdx), %edx
	testb	%dl, %dl
	setne	%r8b
	cmpb	$3, %dl
	setle	%dl
	andl	%r8d, %edx
	testb	%dl, %dl
	je	.L545
	movq	%rsi, %rdi
	call	__asan_report_load4@PLT
.L545:
	movl	8(%rax), %eax
	.loc 2 42 17
	cmpl	%eax, %edi
	jge	.L546
	.loc 2 42 83 discriminator 1
	movq	-184(%rbp), %rax
	movq	(%rax), %rax
	.loc 2 42 93 discriminator 1
	movq	%rax, %rdx
	movq	%rdx, %rsi
	shrq	$3, %rsi
	addq	$2147450880, %rsi
	movzbl	(%rsi), %esi
	testb	%sil, %sil
	je	.L547
	.loc 2 42 93 is_stmt 0
	movq	%rdx, %rdi
	call	__asan_report_load8@PLT
.L547:
	.loc 2 42 93 discriminator 1
	movq	(%rax), %rsi
	.loc 2 42 111 is_stmt 1 discriminator 1
	movq	-184(%rbp), %rax
	movl	8(%rax), %eax
	movslq	%eax, %rdx
	.loc 2 42 103 discriminator 1
	movq	%rdx, %rax
	addq	%rax, %rax
	addq	%rdx, %rax
	salq	$4, %rax
	.loc 2 42 17 discriminator 1
	addq	%rsi, %rax
	jmp	.L548
.L546:
	.loc 2 42 17 is_stmt 0 discriminator 2
	movl	$0, %eax
.L548:
	.loc 2 42 17 discriminator 4
	movq	%rcx, %rdx
	leaq	.LC52(%rip), %rcx
	movq	%rcx, %rsi
	movq	%rax, %rdi
	call	_Z8LogTokenPK5TokenPKcPS3_@PLT
	.loc 2 43 37 is_stmt 1
	movq	-184(%rbp), %rax
	addq	$8, %rax
	movq	%rax, %rdx
	movq	%rdx, %rax
	shrq	$3, %rax
	addq	$2147450880, %rax
	movzbl	(%rax), %eax
	testb	%al, %al
	setne	%cl
	cmpb	$3, %al
	setle	%al
	andl	%ecx, %eax
	testb	%al, %al
	je	.L549
	movq	%rdx, %rdi
	call	__asan_report_load4@PLT
.L549:
	movq	-184(%rbp), %rax
	movl	8(%rax), %esi
	.loc 2 43 56
	movq	-184(%rbp), %rax
	movq	%rax, %rdx
	shrq	$3, %rdx
	addq	$2147450880, %rdx
	movzbl	(%rdx), %edx
	testb	%dl, %dl
	je	.L550
	movq	%rax, %rdi
	call	__asan_report_load8@PLT
.L550:
	movq	-184(%rbp), %rax
	movq	(%rax), %rax
	.loc 2 43 66
	leaq	8(%rax), %rdx
	movq	%rdx, %rcx
	movq	%rcx, %rdx
	shrq	$3, %rdx
	addq	$2147450880, %rdx
	movzbl	(%rdx), %edx
	testb	%dl, %dl
	setne	%dil
	cmpb	$3, %dl
	setle	%dl
	andl	%edi, %edx
	testb	%dl, %dl
	je	.L551
	movq	%rcx, %rdi
	call	__asan_report_load4@PLT
.L551:
	movl	8(%rax), %eax
	.loc 2 43 85
	cmpl	%eax, %esi
	jge	.L552
	.loc 2 43 94 discriminator 1
	movq	-184(%rbp), %rax
	movq	(%rax), %rax
	.loc 2 43 104 discriminator 1
	movq	%rax, %rdx
	movq	%rdx, %rcx
	shrq	$3, %rcx
	addq	$2147450880, %rcx
	movzbl	(%rcx), %ecx
	testb	%cl, %cl
	je	.L553
	.loc 2 43 104 is_stmt 0
	movq	%rdx, %rdi
	call	__asan_report_load8@PLT
.L553:
	.loc 2 43 104 discriminator 1
	movq	(%rax), %rcx
	.loc 2 43 122 is_stmt 1 discriminator 1
	movq	-184(%rbp), %rax
	movl	8(%rax), %eax
	movslq	%eax, %rdx
	.loc 2 43 114 discriminator 1
	movq	%rdx, %rax
	addq	%rax, %rax
	addq	%rdx, %rax
	salq	$4, %rax
	.loc 2 43 85 discriminator 1
	addq	%rcx, %rax
	jmp	.L554
.L552:
	.loc 2 43 85 is_stmt 0 discriminator 2
	movl	$0, %eax
.L554:
	.loc 2 43 16 is_stmt 1 discriminator 4
	movq	%rax, -152(%rbp)
	.loc 2 44 15 discriminator 4
	movq	-184(%rbp), %rax
	addq	$8, %rax
	movq	%rax, %rdx
	movq	%rdx, %rax
	shrq	$3, %rax
	addq	$2147450880, %rax
	movzbl	(%rax), %eax
	testb	%al, %al
	setne	%cl
	cmpb	$3, %al
	setle	%al
	andl	%ecx, %eax
	testb	%al, %al
	je	.L555
	.loc 2 44 15 is_stmt 0
	movq	%rdx, %rdi
	call	__asan_report_load4@PLT
.L555:
	.loc 2 44 15 discriminator 4
	movq	-184(%rbp), %rax
	movl	8(%rax), %eax
	.loc 2 44 24 is_stmt 1 discriminator 4
	leal	1(%rax), %edx
	movq	-184(%rbp), %rax
	movl	%edx, 8(%rax)
	.loc 2 46 33 discriminator 4
	movq	-152(%rbp), %rax
	movq	%rax, %rdx
	shrq	$3, %rdx
	addq	$2147450880, %rdx
	movzbl	(%rdx), %edx
	testb	%dl, %dl
	je	.L556
	.loc 2 46 33 is_stmt 0
	movq	%rax, %rdi
	call	__asan_report_store8@PLT
.L556:
	.loc 2 46 33 discriminator 4
	movq	-152(%rbp), %rax
	movq	-168(%rbp), %rdx
	movq	%rdx, (%rax)
	.loc 2 47 43 is_stmt 1 discriminator 4
	movq	-184(%rbp), %rax
	movq	%rax, %rdi
	call	_ZL8GetPowerP12SyntacticCtx
.LEHE4:
	.loc 2 47 33 discriminator 4
	movq	-152(%rbp), %rdx
	addq	$8, %rdx
	movq	%rdx, %rcx
	shrq	$3, %rcx
	addq	$2147450880, %rcx
	movzbl	(%rcx), %ecx
	testb	%cl, %cl
	je	.L557
	.loc 2 47 33 is_stmt 0
	movq	%rdx, %rdi
	call	__asan_report_store8@PLT
.L557:
	.loc 2 47 33 discriminator 1
	movq	-152(%rbp), %rdx
	movq	%rax, 8(%rdx)
	.loc 2 49 17 is_stmt 1 discriminator 1
	movq	-152(%rbp), %rax
	movq	%rax, -168(%rbp)
.L541:
.LBE6:
	.loc 2 40 23
	movq	-184(%rbp), %rax
	addq	$8, %rax
	movq	%rax, %rdx
	movq	%rdx, %rax
	shrq	$3, %rax
	addq	$2147450880, %rax
	movzbl	(%rax), %eax
	testb	%al, %al
	setne	%cl
	cmpb	$3, %al
	setle	%al
	andl	%ecx, %eax
	testb	%al, %al
	je	.L558
	movq	%rdx, %rdi
	call	__asan_report_load4@PLT
.L558:
	movq	-184(%rbp), %rax
	movl	8(%rax), %esi
	.loc 2 40 42
	movq	-184(%rbp), %rax
	movq	%rax, %rdx
	shrq	$3, %rdx
	addq	$2147450880, %rdx
	movzbl	(%rdx), %edx
	testb	%dl, %dl
	je	.L559
	movq	%rax, %rdi
	call	__asan_report_load8@PLT
.L559:
	movq	-184(%rbp), %rax
	movq	(%rax), %rax
	.loc 2 40 52
	leaq	8(%rax), %rdx
	movq	%rdx, %rcx
	movq	%rcx, %rdx
	shrq	$3, %rdx
	addq	$2147450880, %rdx
	movzbl	(%rdx), %edx
	testb	%dl, %dl
	setne	%dil
	cmpb	$3, %dl
	setle	%dl
	andl	%edi, %edx
	testb	%dl, %dl
	je	.L560
	movq	%rcx, %rdi
	call	__asan_report_load4@PLT
.L560:
	movl	8(%rax), %eax
	.loc 2 40 71
	cmpl	%eax, %esi
	jge	.L561
	.loc 2 40 80 discriminator 1
	movq	-184(%rbp), %rax
	movq	(%rax), %rax
	.loc 2 40 90 discriminator 1
	movq	%rax, %rdx
	movq	%rdx, %rcx
	shrq	$3, %rcx
	addq	$2147450880, %rcx
	movzbl	(%rcx), %ecx
	testb	%cl, %cl
	je	.L562
	.loc 2 40 90 is_stmt 0
	movq	%rdx, %rdi
	call	__asan_report_load8@PLT
.L562:
	.loc 2 40 90 discriminator 1
	movq	(%rax), %rcx
	.loc 2 40 108 is_stmt 1 discriminator 1
	movq	-184(%rbp), %rax
	movl	8(%rax), %eax
	movslq	%eax, %rdx
	.loc 2 40 100 discriminator 1
	movq	%rdx, %rax
	addq	%rax, %rax
	addq	%rdx, %rax
	salq	$4, %rax
	.loc 2 40 71 discriminator 1
	addq	%rcx, %rax
	jmp	.L563
.L561:
	.loc 2 40 71 is_stmt 0 discriminator 2
	movl	$0, %eax
.L563:
	.loc 2 40 289 is_stmt 1 discriminator 4
	testq	%rax, %rax
	je	.L564
	.loc 2 40 144 discriminator 5
	movq	-184(%rbp), %rax
	addq	$8, %rax
	movq	%rax, %rdx
	movq	%rdx, %rax
	shrq	$3, %rax
	addq	$2147450880, %rax
	movzbl	(%rax), %eax
	testb	%al, %al
	setne	%cl
	cmpb	$3, %al
	setle	%al
	andl	%ecx, %eax
	testb	%al, %al
	je	.L565
	.loc 2 40 144 is_stmt 0
	movq	%rdx, %rdi
	call	__asan_report_load4@PLT
.L565:
	.loc 2 40 144 discriminator 5
	movq	-184(%rbp), %rax
	movl	8(%rax), %esi
	.loc 2 40 163 is_stmt 1 discriminator 5
	movq	-184(%rbp), %rax
	movq	%rax, %rdx
	shrq	$3, %rdx
	addq	$2147450880, %rdx
	movzbl	(%rdx), %edx
	testb	%dl, %dl
	je	.L566
	.loc 2 40 163 is_stmt 0
	movq	%rax, %rdi
	call	__asan_report_load8@PLT
.L566:
	.loc 2 40 163 discriminator 5
	movq	-184(%rbp), %rax
	movq	(%rax), %rax
	.loc 2 40 173 is_stmt 1 discriminator 5
	leaq	8(%rax), %rdx
	movq	%rdx, %rcx
	movq	%rcx, %rdx
	shrq	$3, %rdx
	addq	$2147450880, %rdx
	movzbl	(%rdx), %edx
	testb	%dl, %dl
	setne	%dil
	cmpb	$3, %dl
	setle	%dl
	andl	%edi, %edx
	testb	%dl, %dl
	je	.L567
	.loc 2 40 173 is_stmt 0
	movq	%rcx, %rdi
	call	__asan_report_load4@PLT
.L567:
	.loc 2 40 173 discriminator 5
	movl	8(%rax), %eax
	.loc 2 40 192 is_stmt 1 discriminator 5
	cmpl	%eax, %esi
	jge	.L568
	.loc 2 40 201 discriminator 6
	movq	-184(%rbp), %rax
	movq	(%rax), %rax
	.loc 2 40 211 discriminator 6
	movq	%rax, %rdx
	movq	%rdx, %rcx
	shrq	$3, %rcx
	addq	$2147450880, %rcx
	movzbl	(%rcx), %ecx
	testb	%cl, %cl
	je	.L569
	.loc 2 40 211 is_stmt 0
	movq	%rdx, %rdi
	call	__asan_report_load8@PLT
.L569:
	.loc 2 40 211 discriminator 6
	movq	(%rax), %rcx
	.loc 2 40 229 is_stmt 1 discriminator 6
	movq	-184(%rbp), %rax
	movl	8(%rax), %eax
	movslq	%eax, %rdx
	.loc 2 40 221 discriminator 6
	movq	%rdx, %rax
	addq	%rax, %rax
	addq	%rdx, %rax
	salq	$4, %rax
	.loc 2 40 192 discriminator 6
	addq	%rcx, %rax
	jmp	.L570
.L568:
	.loc 2 40 192 is_stmt 0 discriminator 7
	movl	$0, %eax
.L570:
	.loc 2 40 253 is_stmt 1 discriminator 9
	leaq	16(%rax), %rdx
	movq	%rdx, %rcx
	movq	%rcx, %rdx
	shrq	$3, %rdx
	addq	$2147450880, %rdx
	movzbl	(%rdx), %edx
	testb	%dl, %dl
	setne	%sil
	cmpb	$3, %dl
	setle	%dl
	andl	%esi, %edx
	testb	%dl, %dl
	je	.L571
	.loc 2 40 253 is_stmt 0
	movq	%rcx, %rdi
	call	__asan_report_load4@PLT
.L571:
	.loc 2 40 253 discriminator 9
	movl	16(%rax), %eax
	.loc 2 40 272 is_stmt 1 discriminator 9
	cmpl	$5, %eax
	jne	.L564
	.loc 2 40 301 discriminator 10
	movq	-184(%rbp), %rax
	addq	$8, %rax
	movq	%rax, %rdx
	movq	%rdx, %rax
	shrq	$3, %rax
	addq	$2147450880, %rax
	movzbl	(%rax), %eax
	testb	%al, %al
	setne	%cl
	cmpb	$3, %al
	setle	%al
	andl	%ecx, %eax
	testb	%al, %al
	je	.L572
	.loc 2 40 301 is_stmt 0
	movq	%rdx, %rdi
	call	__asan_report_load4@PLT
.L572:
	.loc 2 40 301 discriminator 10
	movq	-184(%rbp), %rax
	movl	8(%rax), %esi
	.loc 2 40 320 is_stmt 1 discriminator 10
	movq	-184(%rbp), %rax
	movq	%rax, %rdx
	shrq	$3, %rdx
	addq	$2147450880, %rdx
	movzbl	(%rdx), %edx
	testb	%dl, %dl
	je	.L573
	.loc 2 40 320 is_stmt 0
	movq	%rax, %rdi
	call	__asan_report_load8@PLT
.L573:
	.loc 2 40 320 discriminator 10
	movq	-184(%rbp), %rax
	movq	(%rax), %rax
	.loc 2 40 330 is_stmt 1 discriminator 10
	leaq	8(%rax), %rdx
	movq	%rdx, %rcx
	movq	%rcx, %rdx
	shrq	$3, %rdx
	addq	$2147450880, %rdx
	movzbl	(%rdx), %edx
	testb	%dl, %dl
	setne	%dil
	cmpb	$3, %dl
	setle	%dl
	andl	%edi, %edx
	testb	%dl, %dl
	je	.L574
	.loc 2 40 330 is_stmt 0
	movq	%rcx, %rdi
	call	__asan_report_load4@PLT
.L574:
	.loc 2 40 330 discriminator 10
	movl	8(%rax), %eax
	.loc 2 40 349 is_stmt 1 discriminator 10
	cmpl	%eax, %esi
	jge	.L575
	.loc 2 40 358 discriminator 11
	movq	-184(%rbp), %rax
	movq	(%rax), %rax
	.loc 2 40 368 discriminator 11
	movq	%rax, %rdx
	movq	%rdx, %rcx
	shrq	$3, %rcx
	addq	$2147450880, %rcx
	movzbl	(%rcx), %ecx
	testb	%cl, %cl
	je	.L576
	.loc 2 40 368 is_stmt 0
	movq	%rdx, %rdi
	call	__asan_report_load8@PLT
.L576:
	.loc 2 40 368 discriminator 11
	movq	(%rax), %rcx
	.loc 2 40 386 is_stmt 1 discriminator 11
	movq	-184(%rbp), %rax
	movl	8(%rax), %eax
	movslq	%eax, %rdx
	.loc 2 40 378 discriminator 11
	movq	%rdx, %rax
	addq	%rax, %rax
	addq	%rdx, %rax
	salq	$4, %rax
	.loc 2 40 349 discriminator 11
	addq	%rcx, %rax
	jmp	.L577
.L575:
	.loc 2 40 349 is_stmt 0 discriminator 12
	movl	$0, %eax
.L577:
	.loc 2 40 416 is_stmt 1 discriminator 14
	leaq	24(%rax), %rdx
	movq	%rdx, %rcx
	movq	%rcx, %rdx
	shrq	$3, %rdx
	addq	$2147450880, %rdx
	movzbl	(%rdx), %edx
	testb	%dl, %dl
	setne	%sil
	testb	%dl, %dl
	setle	%dl
	andl	%esi, %edx
	testb	%dl, %dl
	je	.L578
	.loc 2 40 416 is_stmt 0
	movq	%rcx, %rdi
	call	__asan_report_load1@PLT
.L578:
	.loc 2 40 416 discriminator 14
	movzbl	24(%rax), %eax
	.loc 2 40 289 is_stmt 1 discriminator 14
	cmpb	$42, %al
	je	.L579
	.loc 2 40 445 discriminator 15
	movq	-184(%rbp), %rax
	addq	$8, %rax
	movq	%rax, %rdx
	movq	%rdx, %rax
	shrq	$3, %rax
	addq	$2147450880, %rax
	movzbl	(%rax), %eax
	testb	%al, %al
	setne	%cl
	cmpb	$3, %al
	setle	%al
	andl	%ecx, %eax
	testb	%al, %al
	je	.L580
	.loc 2 40 445 is_stmt 0
	movq	%rdx, %rdi
	call	__asan_report_load4@PLT
.L580:
	.loc 2 40 445 discriminator 15
	movq	-184(%rbp), %rax
	movl	8(%rax), %esi
	.loc 2 40 464 is_stmt 1 discriminator 15
	movq	-184(%rbp), %rax
	movq	%rax, %rdx
	shrq	$3, %rdx
	addq	$2147450880, %rdx
	movzbl	(%rdx), %edx
	testb	%dl, %dl
	je	.L581
	.loc 2 40 464 is_stmt 0
	movq	%rax, %rdi
	call	__asan_report_load8@PLT
.L581:
	.loc 2 40 464 discriminator 15
	movq	-184(%rbp), %rax
	movq	(%rax), %rax
	.loc 2 40 474 is_stmt 1 discriminator 15
	leaq	8(%rax), %rdx
	movq	%rdx, %rcx
	movq	%rcx, %rdx
	shrq	$3, %rdx
	addq	$2147450880, %rdx
	movzbl	(%rdx), %edx
	testb	%dl, %dl
	setne	%dil
	cmpb	$3, %dl
	setle	%dl
	andl	%edi, %edx
	testb	%dl, %dl
	je	.L582
	.loc 2 40 474 is_stmt 0
	movq	%rcx, %rdi
	call	__asan_report_load4@PLT
.L582:
	.loc 2 40 474 discriminator 15
	movl	8(%rax), %eax
	.loc 2 40 493 is_stmt 1 discriminator 15
	cmpl	%eax, %esi
	jge	.L583
	.loc 2 40 502 discriminator 16
	movq	-184(%rbp), %rax
	movq	(%rax), %rax
	.loc 2 40 512 discriminator 16
	movq	%rax, %rdx
	movq	%rdx, %rcx
	shrq	$3, %rcx
	addq	$2147450880, %rcx
	movzbl	(%rcx), %ecx
	testb	%cl, %cl
	je	.L584
	.loc 2 40 512 is_stmt 0
	movq	%rdx, %rdi
	call	__asan_report_load8@PLT
.L584:
	.loc 2 40 512 discriminator 16
	movq	(%rax), %rcx
	.loc 2 40 530 is_stmt 1 discriminator 16
	movq	-184(%rbp), %rax
	movl	8(%rax), %eax
	movslq	%eax, %rdx
	.loc 2 40 522 discriminator 16
	movq	%rdx, %rax
	addq	%rax, %rax
	addq	%rdx, %rax
	salq	$4, %rax
	.loc 2 40 493 discriminator 16
	addq	%rcx, %rax
	jmp	.L585
.L583:
	.loc 2 40 493 is_stmt 0 discriminator 17
	movl	$0, %eax
.L585:
	.loc 2 40 560 is_stmt 1 discriminator 19
	leaq	24(%rax), %rdx
	movq	%rdx, %rcx
	movq	%rcx, %rdx
	shrq	$3, %rdx
	addq	$2147450880, %rdx
	movzbl	(%rdx), %edx
	testb	%dl, %dl
	setne	%sil
	testb	%dl, %dl
	setle	%dl
	andl	%esi, %edx
	testb	%dl, %dl
	je	.L586
	.loc 2 40 560 is_stmt 0
	movq	%rcx, %rdi
	call	__asan_report_load1@PLT
.L586:
	.loc 2 40 560 discriminator 19
	movzbl	24(%rax), %eax
	.loc 2 40 434 is_stmt 1 discriminator 19
	cmpb	$47, %al
	je	.L579
.L564:
	.loc 2 52 12
	movq	-168(%rbp), %r14
.L538:
	.loc 2 53 5
	leaq	-64(%r13), %rax
	movq	%rax, %rdi
	call	_ZN14FunctionLoggerD1Ev@PLT
	movq	%r14, %rdx
	.loc 2 32 5
	cmpq	%rbx, %r15
	je	.L534
	jmp	.L590
.L589:
	endbr64
	.loc 2 53 5
	movq	%rax, %rbx
	leaq	-64(%r13), %rax
	movq	%rax, %rdi
	call	_ZN14FunctionLoggerD1Ev@PLT
	call	__asan_handle_no_return@PLT
	movq	%rbx, %rdi
.LEHB5:
	call	_Unwind_Resume@PLT
.LEHE5:
.L590:
	.loc 2 32 5
	movq	$1172321806, (%rbx)
	movabsq	$-723401728380766731, %rax
	movq	%rax, 2147450880(%r12)
	movl	$-168430091, 2147450888(%r12)
	movq	120(%rbx), %rax
	movb	$0, (%rax)
	jmp	.L535
.L534:
	movq	$0, 2147450880(%r12)
	movl	$0, 2147450888(%r12)
.L535:
	.loc 2 53 5
	movq	%rdx, %rax
	addq	$152, %rsp
	popq	%rbx
	popq	%r12
	popq	%r13
	popq	%r14
	popq	%r15
	popq	%rbp
	.cfi_def_cfa 7, 8
	ret
	.cfi_endproc
.LFE2273:
	.section	.gcc_except_table
.LLSDA2273:
	.byte	0xff
	.byte	0xff
	.byte	0x1
	.uleb128 .LLSDACSE2273-.LLSDACSB2273
.LLSDACSB2273:
	.uleb128 .LEHB3-.LFB2273
	.uleb128 .LEHE3-.LEHB3
	.uleb128 0
	.uleb128 0
	.uleb128 .LEHB4-.LFB2273
	.uleb128 .LEHE4-.LEHB4
	.uleb128 .L589-.LFB2273
	.uleb128 0
	.uleb128 .LEHB5-.LFB2273
	.uleb128 .LEHE5-.LEHB5
	.uleb128 0
	.uleb128 0
.LLSDACSE2273:
	.text
	.size	_ZL4GetTP12SyntacticCtx, .-_ZL4GetTP12SyntacticCtx
	.section	.rodata
.LC57:
	.string	"1 32 24 10 func_57:57"
	.align 32
.LC58:
	.string	"GetPower"
	.zero	55
	.align 32
.LC59:
	.string	"Token* GetPower(SyntacticCtx*)"
	.zero	33
	.text
	.type	_ZL8GetPowerP12SyntacticCtx, @function
_ZL8GetPowerP12SyntacticCtx:
.LASANPC2274:
.LFB2274:
	.loc 2 56 5
	.cfi_startproc
	.cfi_personality 0x9b,DW.ref.__gxx_personality_v0
	.cfi_lsda 0x1b,.LLSDA2274
	endbr64
	pushq	%rbp
	.cfi_def_cfa_offset 16
	.cfi_offset 6, -16
	movq	%rsp, %rbp
	.cfi_def_cfa_register 6
	pushq	%r15
	pushq	%r14
	pushq	%r13
	pushq	%r12
	pushq	%rbx
	subq	$152, %rsp
	.cfi_offset 15, -24
	.cfi_offset 14, -32
	.cfi_offset 13, -40
	.cfi_offset 12, -48
	.cfi_offset 3, -56
	movq	%rdi, -184(%rbp)
	leaq	-144(%rbp), %rbx
	movq	%rbx, %r15
	cmpl	$0, __asan_option_detect_stack_use_after_return(%rip)
	je	.L591
	movl	$96, %edi
	call	__asan_stack_malloc_1@PLT
	testq	%rax, %rax
	je	.L591
	movq	%rax, %rbx
.L591:
	leaq	96(%rbx), %rax
	movq	%rax, %r13
	movq	$1102416563, (%rbx)
	leaq	.LC57(%rip), %rax
	movq	%rax, 8(%rbx)
	leaq	.LASANPC2274(%rip), %rax
	movq	%rax, 16(%rbx)
	movq	%rbx, %r12
	shrq	$3, %r12
	movl	$-235802127, 2147450880(%r12)
	movl	$-218103808, 2147450884(%r12)
	movl	$-202116109, 2147450888(%r12)
	.loc 2 57 48
	leaq	-64(%r13), %rax
	leaq	.LC58(%rip), %rdx
	movl	$1, %esi
	movq	%rax, %rdi
.LEHB6:
	call	_ZN14FunctionLoggerC1EiPKc@PLT
.LEHE6:
	.loc 2 58 10
	cmpq	$0, -184(%rbp)
	jne	.L595
.LEHB7:
	.loc 2 58 43 discriminator 1
	call	_ZN6Logger11getInstanceEv@PLT
	movq	%rax, %rcx
	.loc 2 58 49 discriminator 1
	leaq	.LC13(%rip), %rax
	movq	%rax, %rdx
	leaq	.LC14(%rip), %rax
	movq	%rax, %rsi
	movq	%rcx, %rdi
	movl	$0, %eax
	call	_ZN6Logger3logEPKcz@PLT
	.loc 2 58 105 discriminator 3
	leaq	.LC13(%rip), %rax
	movq	%rax, %rsi
	leaq	.LC15(%rip), %rax
	movq	%rax, %rdi
	movl	$0, %eax
	call	printf@PLT
	.loc 2 58 249 discriminator 4
	call	_ZN6Logger11getInstanceEv@PLT
	movq	%rax, %rdi
	.loc 2 58 255 discriminator 4
	leaq	.LC59(%rip), %r8
	movl	$58, %ecx
	leaq	.LC49(%rip), %rax
	movq	%rax, %rdx
	leaq	.LC18(%rip), %rax
	movq	%rax, %rsi
	movl	$0, %eax
	call	_ZN6Logger3logEPKcz@PLT
	.loc 2 58 362 discriminator 6
	leaq	.LC59(%rip), %rax
	movq	%rax, %rcx
	movl	$58, %edx
	leaq	.LC49(%rip), %rax
	movq	%rax, %rsi
	leaq	.LC18(%rip), %rax
	movq	%rax, %rdi
	movl	$0, %eax
	call	printf@PLT
	.loc 2 58 482 discriminator 7
	call	_ZN6Logger11getInstanceEv@PLT
	movq	%rax, %r14
	.loc 2 58 488 discriminator 7
	movl	$14, %edi
	call	strerror@PLT
	movq	%rax, %rcx
	movl	$14, %edx
	leaq	.LC19(%rip), %rax
	movq	%rax, %rsi
	movq	%r14, %rdi
	movl	$0, %eax
	call	_ZN6Logger3logEPKcz@PLT
	.loc 2 58 27 discriminator 9
	call	_ZN6Logger11getInstanceEv@PLT
	movq	%rax, %rdi
	.loc 2 58 33 discriminator 9
	movl	$58, %ecx
	leaq	.LC58(%rip), %rax
	movq	%rax, %rdx
	leaq	.LC21(%rip), %rax
	movq	%rax, %rsi
	movl	$0, %eax
	call	_ZN6Logger3logEPKcz@PLT
	.loc 2 58 91 discriminator 11
	leaq	.LC22(%rip), %rax
	movq	%rax, %rdi
	call	system@PLT
	.loc 2 58 133 discriminator 12
	call	_ZN6Logger11getInstanceEv@PLT
	movq	%rax, %rdi
	.loc 2 58 149 discriminator 12
	movl	$58, %ecx
	leaq	.LC58(%rip), %rax
	movq	%rax, %rdx
	leaq	.LC50(%rip), %rax
	movq	%rax, %rsi
	movl	$0, %eax
	call	_ZN6Logger13LogMsgNullRetEPKcz@PLT
	.loc 2 58 207 discriminator 14
	movl	$58, %r8d
	leaq	.LC58(%rip), %rax
	movq	%rax, %rcx
	movl	$58, %edx
	leaq	.LC49(%rip), %rax
	movq	%rax, %rsi
	leaq	.LC51(%rip), %rax
	movq	%rax, %rdi
	movl	$0, %eax
	call	_Z13LogMsgNullRetPKcz@PLT
	.loc 2 58 329 discriminator 15
	movl	$0, %r14d
	jmp	.L596
.L595:
	.loc 2 60 23
	movq	-184(%rbp), %rax
	movq	%rax, %rdi
	call	_ZL4GetPP12SyntacticCtx
	movq	%rax, -160(%rbp)
	.loc 2 62 12
	movq	-160(%rbp), %rax
	movq	%rax, -168(%rbp)
	.loc 2 63 5
	jmp	.L597
.L635:
.LBB7:
	.loc 2 65 151
	movq	-184(%rbp), %rax
	movq	%rax, %rdx
	shrq	$3, %rdx
	addq	$2147450880, %rdx
	movzbl	(%rdx), %edx
	testb	%dl, %dl
	je	.L598
	movq	%rax, %rdi
	call	__asan_report_load8@PLT
.L598:
	movq	-184(%rbp), %rax
	movq	(%rax), %rax
	.loc 2 65 161
	leaq	24(%rax), %rdx
	movq	%rdx, %rcx
	shrq	$3, %rcx
	addq	$2147450880, %rcx
	movzbl	(%rcx), %ecx
	testb	%cl, %cl
	je	.L599
	movq	%rdx, %rdi
	call	__asan_report_load8@PLT
.L599:
	movq	24(%rax), %rcx
	.loc 2 65 26
	movq	-184(%rbp), %rax
	addq	$8, %rax
	movq	%rax, %rdx
	movq	%rdx, %rax
	shrq	$3, %rax
	addq	$2147450880, %rax
	movzbl	(%rax), %eax
	testb	%al, %al
	setne	%sil
	cmpb	$3, %al
	setle	%al
	andl	%esi, %eax
	testb	%al, %al
	je	.L600
	movq	%rdx, %rdi
	call	__asan_report_load4@PLT
.L600:
	movq	-184(%rbp), %rax
	movl	8(%rax), %edi
	.loc 2 65 45
	movq	-184(%rbp), %rax
	movq	(%rax), %rax
	.loc 2 65 55
	leaq	8(%rax), %rdx
	movq	%rdx, %rsi
	movq	%rsi, %rdx
	shrq	$3, %rdx
	addq	$2147450880, %rdx
	movzbl	(%rdx), %edx
	testb	%dl, %dl
	setne	%r8b
	cmpb	$3, %dl
	setle	%dl
	andl	%r8d, %edx
	testb	%dl, %dl
	je	.L601
	movq	%rsi, %rdi
	call	__asan_report_load4@PLT
.L601:
	movl	8(%rax), %eax
	.loc 2 65 17
	cmpl	%eax, %edi
	jge	.L602
	.loc 2 65 83 discriminator 1
	movq	-184(%rbp), %rax
	movq	(%rax), %rax
	.loc 2 65 93 discriminator 1
	movq	%rax, %rdx
	movq	%rdx, %rsi
	shrq	$3, %rsi
	addq	$2147450880, %rsi
	movzbl	(%rsi), %esi
	testb	%sil, %sil
	je	.L603
	.loc 2 65 93 is_stmt 0
	movq	%rdx, %rdi
	call	__asan_report_load8@PLT
.L603:
	.loc 2 65 93 discriminator 1
	movq	(%rax), %rsi
	.loc 2 65 111 is_stmt 1 discriminator 1
	movq	-184(%rbp), %rax
	movl	8(%rax), %eax
	movslq	%eax, %rdx
	.loc 2 65 103 discriminator 1
	movq	%rdx, %rax
	addq	%rax, %rax
	addq	%rdx, %rax
	salq	$4, %rax
	.loc 2 65 17 discriminator 1
	addq	%rsi, %rax
	jmp	.L604
.L602:
	.loc 2 65 17 is_stmt 0 discriminator 2
	movl	$0, %eax
.L604:
	.loc 2 65 17 discriminator 4
	movq	%rcx, %rdx
	leaq	.LC52(%rip), %rcx
	movq	%rcx, %rsi
	movq	%rax, %rdi
	call	_Z8LogTokenPK5TokenPKcPS3_@PLT
	.loc 2 66 37 is_stmt 1
	movq	-184(%rbp), %rax
	addq	$8, %rax
	movq	%rax, %rdx
	movq	%rdx, %rax
	shrq	$3, %rax
	addq	$2147450880, %rax
	movzbl	(%rax), %eax
	testb	%al, %al
	setne	%cl
	cmpb	$3, %al
	setle	%al
	andl	%ecx, %eax
	testb	%al, %al
	je	.L605
	movq	%rdx, %rdi
	call	__asan_report_load4@PLT
.L605:
	movq	-184(%rbp), %rax
	movl	8(%rax), %esi
	.loc 2 66 56
	movq	-184(%rbp), %rax
	movq	%rax, %rdx
	shrq	$3, %rdx
	addq	$2147450880, %rdx
	movzbl	(%rdx), %edx
	testb	%dl, %dl
	je	.L606
	movq	%rax, %rdi
	call	__asan_report_load8@PLT
.L606:
	movq	-184(%rbp), %rax
	movq	(%rax), %rax
	.loc 2 66 66
	leaq	8(%rax), %rdx
	movq	%rdx, %rcx
	movq	%rcx, %rdx
	shrq	$3, %rdx
	addq	$2147450880, %rdx
	movzbl	(%rdx), %edx
	testb	%dl, %dl
	setne	%dil
	cmpb	$3, %dl
	setle	%dl
	andl	%edi, %edx
	testb	%dl, %dl
	je	.L607
	movq	%rcx, %rdi
	call	__asan_report_load4@PLT
.L607:
	movl	8(%rax), %eax
	.loc 2 66 85
	cmpl	%eax, %esi
	jge	.L608
	.loc 2 66 94 discriminator 1
	movq	-184(%rbp), %rax
	movq	(%rax), %rax
	.loc 2 66 104 discriminator 1
	movq	%rax, %rdx
	movq	%rdx, %rcx
	shrq	$3, %rcx
	addq	$2147450880, %rcx
	movzbl	(%rcx), %ecx
	testb	%cl, %cl
	je	.L609
	.loc 2 66 104 is_stmt 0
	movq	%rdx, %rdi
	call	__asan_report_load8@PLT
.L609:
	.loc 2 66 104 discriminator 1
	movq	(%rax), %rcx
	.loc 2 66 122 is_stmt 1 discriminator 1
	movq	-184(%rbp), %rax
	movl	8(%rax), %eax
	movslq	%eax, %rdx
	.loc 2 66 114 discriminator 1
	movq	%rdx, %rax
	addq	%rax, %rax
	addq	%rdx, %rax
	salq	$4, %rax
	.loc 2 66 85 discriminator 1
	addq	%rcx, %rax
	jmp	.L610
.L608:
	.loc 2 66 85 is_stmt 0 discriminator 2
	movl	$0, %eax
.L610:
	.loc 2 66 16 is_stmt 1 discriminator 4
	movq	%rax, -152(%rbp)
	.loc 2 67 15 discriminator 4
	movq	-184(%rbp), %rax
	addq	$8, %rax
	movq	%rax, %rdx
	movq	%rdx, %rax
	shrq	$3, %rax
	addq	$2147450880, %rax
	movzbl	(%rax), %eax
	testb	%al, %al
	setne	%cl
	cmpb	$3, %al
	setle	%al
	andl	%ecx, %eax
	testb	%al, %al
	je	.L611
	.loc 2 67 15 is_stmt 0
	movq	%rdx, %rdi
	call	__asan_report_load4@PLT
.L611:
	.loc 2 67 15 discriminator 4
	movq	-184(%rbp), %rax
	movl	8(%rax), %eax
	.loc 2 67 24 is_stmt 1 discriminator 4
	leal	1(%rax), %edx
	movq	-184(%rbp), %rax
	movl	%edx, 8(%rax)
	.loc 2 69 33 discriminator 4
	movq	-152(%rbp), %rax
	movq	%rax, %rdx
	shrq	$3, %rdx
	addq	$2147450880, %rdx
	movzbl	(%rdx), %edx
	testb	%dl, %dl
	je	.L612
	.loc 2 69 33 is_stmt 0
	movq	%rax, %rdi
	call	__asan_report_store8@PLT
.L612:
	.loc 2 69 33 discriminator 4
	movq	-152(%rbp), %rax
	movq	-168(%rbp), %rdx
	movq	%rdx, (%rax)
	.loc 2 70 39 is_stmt 1 discriminator 4
	movq	-184(%rbp), %rax
	movq	%rax, %rdi
	call	_ZL4GetPP12SyntacticCtx
.LEHE7:
	.loc 2 70 33 discriminator 4
	movq	-152(%rbp), %rdx
	addq	$8, %rdx
	movq	%rdx, %rcx
	shrq	$3, %rcx
	addq	$2147450880, %rcx
	movzbl	(%rcx), %ecx
	testb	%cl, %cl
	je	.L613
	.loc 2 70 33 is_stmt 0
	movq	%rdx, %rdi
	call	__asan_report_store8@PLT
.L613:
	.loc 2 70 33 discriminator 1
	movq	-152(%rbp), %rdx
	movq	%rax, 8(%rdx)
	.loc 2 72 17 is_stmt 1 discriminator 1
	movq	-152(%rbp), %rax
	movq	%rax, -168(%rbp)
.L597:
.LBE7:
	.loc 2 63 23
	movq	-184(%rbp), %rax
	addq	$8, %rax
	movq	%rax, %rdx
	movq	%rdx, %rax
	shrq	$3, %rax
	addq	$2147450880, %rax
	movzbl	(%rax), %eax
	testb	%al, %al
	setne	%cl
	cmpb	$3, %al
	setle	%al
	andl	%ecx, %eax
	testb	%al, %al
	je	.L614
	movq	%rdx, %rdi
	call	__asan_report_load4@PLT
.L614:
	movq	-184(%rbp), %rax
	movl	8(%rax), %esi
	.loc 2 63 42
	movq	-184(%rbp), %rax
	movq	%rax, %rdx
	shrq	$3, %rdx
	addq	$2147450880, %rdx
	movzbl	(%rdx), %edx
	testb	%dl, %dl
	je	.L615
	movq	%rax, %rdi
	call	__asan_report_load8@PLT
.L615:
	movq	-184(%rbp), %rax
	movq	(%rax), %rax
	.loc 2 63 52
	leaq	8(%rax), %rdx
	movq	%rdx, %rcx
	movq	%rcx, %rdx
	shrq	$3, %rdx
	addq	$2147450880, %rdx
	movzbl	(%rdx), %edx
	testb	%dl, %dl
	setne	%dil
	cmpb	$3, %dl
	setle	%dl
	andl	%edi, %edx
	testb	%dl, %dl
	je	.L616
	movq	%rcx, %rdi
	call	__asan_report_load4@PLT
.L616:
	movl	8(%rax), %eax
	.loc 2 63 71
	cmpl	%eax, %esi
	jge	.L617
	.loc 2 63 80 discriminator 1
	movq	-184(%rbp), %rax
	movq	(%rax), %rax
	.loc 2 63 90 discriminator 1
	movq	%rax, %rdx
	movq	%rdx, %rcx
	shrq	$3, %rcx
	addq	$2147450880, %rcx
	movzbl	(%rcx), %ecx
	testb	%cl, %cl
	je	.L618
	.loc 2 63 90 is_stmt 0
	movq	%rdx, %rdi
	call	__asan_report_load8@PLT
.L618:
	.loc 2 63 90 discriminator 1
	movq	(%rax), %rcx
	.loc 2 63 108 is_stmt 1 discriminator 1
	movq	-184(%rbp), %rax
	movl	8(%rax), %eax
	movslq	%eax, %rdx
	.loc 2 63 100 discriminator 1
	movq	%rdx, %rax
	addq	%rax, %rax
	addq	%rdx, %rax
	salq	$4, %rax
	.loc 2 63 71 discriminator 1
	addq	%rcx, %rax
	jmp	.L619
.L617:
	.loc 2 63 71 is_stmt 0 discriminator 2
	movl	$0, %eax
.L619:
	.loc 2 63 289 is_stmt 1 discriminator 4
	testq	%rax, %rax
	je	.L620
	.loc 2 63 144 discriminator 5
	movq	-184(%rbp), %rax
	addq	$8, %rax
	movq	%rax, %rdx
	movq	%rdx, %rax
	shrq	$3, %rax
	addq	$2147450880, %rax
	movzbl	(%rax), %eax
	testb	%al, %al
	setne	%cl
	cmpb	$3, %al
	setle	%al
	andl	%ecx, %eax
	testb	%al, %al
	je	.L621
	.loc 2 63 144 is_stmt 0
	movq	%rdx, %rdi
	call	__asan_report_load4@PLT
.L621:
	.loc 2 63 144 discriminator 5
	movq	-184(%rbp), %rax
	movl	8(%rax), %esi
	.loc 2 63 163 is_stmt 1 discriminator 5
	movq	-184(%rbp), %rax
	movq	%rax, %rdx
	shrq	$3, %rdx
	addq	$2147450880, %rdx
	movzbl	(%rdx), %edx
	testb	%dl, %dl
	je	.L622
	.loc 2 63 163 is_stmt 0
	movq	%rax, %rdi
	call	__asan_report_load8@PLT
.L622:
	.loc 2 63 163 discriminator 5
	movq	-184(%rbp), %rax
	movq	(%rax), %rax
	.loc 2 63 173 is_stmt 1 discriminator 5
	leaq	8(%rax), %rdx
	movq	%rdx, %rcx
	movq	%rcx, %rdx
	shrq	$3, %rdx
	addq	$2147450880, %rdx
	movzbl	(%rdx), %edx
	testb	%dl, %dl
	setne	%dil
	cmpb	$3, %dl
	setle	%dl
	andl	%edi, %edx
	testb	%dl, %dl
	je	.L623
	.loc 2 63 173 is_stmt 0
	movq	%rcx, %rdi
	call	__asan_report_load4@PLT
.L623:
	.loc 2 63 173 discriminator 5
	movl	8(%rax), %eax
	.loc 2 63 192 is_stmt 1 discriminator 5
	cmpl	%eax, %esi
	jge	.L624
	.loc 2 63 201 discriminator 6
	movq	-184(%rbp), %rax
	movq	(%rax), %rax
	.loc 2 63 211 discriminator 6
	movq	%rax, %rdx
	movq	%rdx, %rcx
	shrq	$3, %rcx
	addq	$2147450880, %rcx
	movzbl	(%rcx), %ecx
	testb	%cl, %cl
	je	.L625
	.loc 2 63 211 is_stmt 0
	movq	%rdx, %rdi
	call	__asan_report_load8@PLT
.L625:
	.loc 2 63 211 discriminator 6
	movq	(%rax), %rcx
	.loc 2 63 229 is_stmt 1 discriminator 6
	movq	-184(%rbp), %rax
	movl	8(%rax), %eax
	movslq	%eax, %rdx
	.loc 2 63 221 discriminator 6
	movq	%rdx, %rax
	addq	%rax, %rax
	addq	%rdx, %rax
	salq	$4, %rax
	.loc 2 63 192 discriminator 6
	addq	%rcx, %rax
	jmp	.L626
.L624:
	.loc 2 63 192 is_stmt 0 discriminator 7
	movl	$0, %eax
.L626:
	.loc 2 63 253 is_stmt 1 discriminator 9
	leaq	16(%rax), %rdx
	movq	%rdx, %rcx
	movq	%rcx, %rdx
	shrq	$3, %rdx
	addq	$2147450880, %rdx
	movzbl	(%rdx), %edx
	testb	%dl, %dl
	setne	%sil
	cmpb	$3, %dl
	setle	%dl
	andl	%esi, %edx
	testb	%dl, %dl
	je	.L627
	.loc 2 63 253 is_stmt 0
	movq	%rcx, %rdi
	call	__asan_report_load4@PLT
.L627:
	.loc 2 63 253 discriminator 9
	movl	16(%rax), %eax
	.loc 2 63 272 is_stmt 1 discriminator 9
	cmpl	$5, %eax
	jne	.L620
	.loc 2 63 300 discriminator 10
	movq	-184(%rbp), %rax
	addq	$8, %rax
	movq	%rax, %rdx
	movq	%rdx, %rax
	shrq	$3, %rax
	addq	$2147450880, %rax
	movzbl	(%rax), %eax
	testb	%al, %al
	setne	%cl
	cmpb	$3, %al
	setle	%al
	andl	%ecx, %eax
	testb	%al, %al
	je	.L628
	.loc 2 63 300 is_stmt 0
	movq	%rdx, %rdi
	call	__asan_report_load4@PLT
.L628:
	.loc 2 63 300 discriminator 10
	movq	-184(%rbp), %rax
	movl	8(%rax), %esi
	.loc 2 63 319 is_stmt 1 discriminator 10
	movq	-184(%rbp), %rax
	movq	%rax, %rdx
	shrq	$3, %rdx
	addq	$2147450880, %rdx
	movzbl	(%rdx), %edx
	testb	%dl, %dl
	je	.L629
	.loc 2 63 319 is_stmt 0
	movq	%rax, %rdi
	call	__asan_report_load8@PLT
.L629:
	.loc 2 63 319 discriminator 10
	movq	-184(%rbp), %rax
	movq	(%rax), %rax
	.loc 2 63 329 is_stmt 1 discriminator 10
	leaq	8(%rax), %rdx
	movq	%rdx, %rcx
	movq	%rcx, %rdx
	shrq	$3, %rdx
	addq	$2147450880, %rdx
	movzbl	(%rdx), %edx
	testb	%dl, %dl
	setne	%dil
	cmpb	$3, %dl
	setle	%dl
	andl	%edi, %edx
	testb	%dl, %dl
	je	.L630
	.loc 2 63 329 is_stmt 0
	movq	%rcx, %rdi
	call	__asan_report_load4@PLT
.L630:
	.loc 2 63 329 discriminator 10
	movl	8(%rax), %eax
	.loc 2 63 348 is_stmt 1 discriminator 10
	cmpl	%eax, %esi
	jge	.L631
	.loc 2 63 357 discriminator 11
	movq	-184(%rbp), %rax
	movq	(%rax), %rax
	.loc 2 63 367 discriminator 11
	movq	%rax, %rdx
	movq	%rdx, %rcx
	shrq	$3, %rcx
	addq	$2147450880, %rcx
	movzbl	(%rcx), %ecx
	testb	%cl, %cl
	je	.L632
	.loc 2 63 367 is_stmt 0
	movq	%rdx, %rdi
	call	__asan_report_load8@PLT
.L632:
	.loc 2 63 367 discriminator 11
	movq	(%rax), %rcx
	.loc 2 63 385 is_stmt 1 discriminator 11
	movq	-184(%rbp), %rax
	movl	8(%rax), %eax
	movslq	%eax, %rdx
	.loc 2 63 377 discriminator 11
	movq	%rdx, %rax
	addq	%rax, %rax
	addq	%rdx, %rax
	salq	$4, %rax
	.loc 2 63 348 discriminator 11
	addq	%rcx, %rax
	jmp	.L633
.L631:
	.loc 2 63 348 is_stmt 0 discriminator 12
	movl	$0, %eax
.L633:
	.loc 2 63 415 is_stmt 1 discriminator 14
	leaq	24(%rax), %rdx
	movq	%rdx, %rcx
	movq	%rcx, %rdx
	shrq	$3, %rdx
	addq	$2147450880, %rdx
	movzbl	(%rdx), %edx
	testb	%dl, %dl
	setne	%sil
	testb	%dl, %dl
	setle	%dl
	andl	%esi, %edx
	testb	%dl, %dl
	je	.L634
	.loc 2 63 415 is_stmt 0
	movq	%rcx, %rdi
	call	__asan_report_load1@PLT
.L634:
	.loc 2 63 415 discriminator 14
	movzbl	24(%rax), %eax
	.loc 2 63 289 is_stmt 1 discriminator 14
	cmpb	$94, %al
	je	.L635
.L620:
	.loc 2 75 12
	movq	-168(%rbp), %r14
.L596:
	.loc 2 76 5
	leaq	-64(%r13), %rax
	movq	%rax, %rdi
	call	_ZN14FunctionLoggerD1Ev@PLT
	movq	%r14, %rdx
	.loc 2 56 5
	cmpq	%rbx, %r15
	je	.L592
	jmp	.L639
.L638:
	endbr64
	.loc 2 76 5
	movq	%rax, %rbx
	leaq	-64(%r13), %rax
	movq	%rax, %rdi
	call	_ZN14FunctionLoggerD1Ev@PLT
	call	__asan_handle_no_return@PLT
	movq	%rbx, %rdi
.LEHB8:
	call	_Unwind_Resume@PLT
.LEHE8:
.L639:
	.loc 2 56 5
	movq	$1172321806, (%rbx)
	movabsq	$-723401728380766731, %rax
	movq	%rax, 2147450880(%r12)
	movl	$-168430091, 2147450888(%r12)
	movq	120(%rbx), %rax
	movb	$0, (%rax)
	jmp	.L593
.L592:
	movq	$0, 2147450880(%r12)
	movl	$0, 2147450888(%r12)
.L593:
	.loc 2 76 5
	movq	%rdx, %rax
	addq	$152, %rsp
	popq	%rbx
	popq	%r12
	popq	%r13
	popq	%r14
	popq	%r15
	popq	%rbp
	.cfi_def_cfa 7, 8
	ret
	.cfi_endproc
.LFE2274:
	.section	.gcc_except_table
.LLSDA2274:
	.byte	0xff
	.byte	0xff
	.byte	0x1
	.uleb128 .LLSDACSE2274-.LLSDACSB2274
.LLSDACSB2274:
	.uleb128 .LEHB6-.LFB2274
	.uleb128 .LEHE6-.LEHB6
	.uleb128 0
	.uleb128 0
	.uleb128 .LEHB7-.LFB2274
	.uleb128 .LEHE7-.LEHB7
	.uleb128 .L638-.LFB2274
	.uleb128 0
	.uleb128 .LEHB8-.LFB2274
	.uleb128 .LEHE8-.LEHB8
	.uleb128 0
	.uleb128 0
.LLSDACSE2274:
	.text
	.size	_ZL8GetPowerP12SyntacticCtx, .-_ZL8GetPowerP12SyntacticCtx
	.section	.rodata
.LC60:
	.string	"1 32 24 10 func_80:80"
	.align 32
.LC61:
	.string	"GetP"
	.zero	59
	.align 32
.LC62:
	.string	"Token* GetP(SyntacticCtx*)"
	.zero	37
	.align 32
.LC63:
	.string	"Missing closing bracket (token position %d)\n"
	.zero	51
	.text
	.type	_ZL4GetPP12SyntacticCtx, @function
_ZL4GetPP12SyntacticCtx:
.LASANPC2275:
.LFB2275:
	.loc 2 79 5
	.cfi_startproc
	.cfi_personality 0x9b,DW.ref.__gxx_personality_v0
	.cfi_lsda 0x1b,.LLSDA2275
	endbr64
	pushq	%rbp
	.cfi_def_cfa_offset 16
	.cfi_offset 6, -16
	movq	%rsp, %rbp
	.cfi_def_cfa_register 6
	pushq	%r15
	pushq	%r14
	pushq	%r13
	pushq	%r12
	pushq	%rbx
	subq	$136, %rsp
	.cfi_offset 15, -24
	.cfi_offset 14, -32
	.cfi_offset 13, -40
	.cfi_offset 12, -48
	.cfi_offset 3, -56
	movq	%rdi, -168(%rbp)
	leaq	-144(%rbp), %rbx
	movq	%rbx, %r15
	cmpl	$0, __asan_option_detect_stack_use_after_return(%rip)
	je	.L640
	movl	$96, %edi
	call	__asan_stack_malloc_1@PLT
	testq	%rax, %rax
	je	.L640
	movq	%rax, %rbx
.L640:
	leaq	96(%rbx), %rax
	movq	%rax, %r14
	movq	$1102416563, (%rbx)
	leaq	.LC60(%rip), %rax
	movq	%rax, 8(%rbx)
	leaq	.LASANPC2275(%rip), %rax
	movq	%rax, 16(%rbx)
	movq	%rbx, %r12
	shrq	$3, %r12
	movl	$-235802127, 2147450880(%r12)
	movl	$-218103808, 2147450884(%r12)
	movl	$-202116109, 2147450888(%r12)
	.loc 2 80 48
	leaq	-64(%r14), %rax
	leaq	.LC61(%rip), %rdx
	movl	$1, %esi
	movq	%rax, %rdi
.LEHB9:
	call	_ZN14FunctionLoggerC1EiPKc@PLT
.LEHE9:
	.loc 2 81 10
	cmpq	$0, -168(%rbp)
	jne	.L644
.LEHB10:
	.loc 2 81 43 discriminator 1
	call	_ZN6Logger11getInstanceEv@PLT
	movq	%rax, %rcx
	.loc 2 81 49 discriminator 1
	leaq	.LC13(%rip), %rax
	movq	%rax, %rdx
	leaq	.LC14(%rip), %rax
	movq	%rax, %rsi
	movq	%rcx, %rdi
	movl	$0, %eax
	call	_ZN6Logger3logEPKcz@PLT
	.loc 2 81 105 discriminator 3
	leaq	.LC13(%rip), %rax
	movq	%rax, %rsi
	leaq	.LC15(%rip), %rax
	movq	%rax, %rdi
	movl	$0, %eax
	call	printf@PLT
	.loc 2 81 249 discriminator 4
	call	_ZN6Logger11getInstanceEv@PLT
	movq	%rax, %rdi
	.loc 2 81 255 discriminator 4
	leaq	.LC62(%rip), %r8
	movl	$81, %ecx
	leaq	.LC49(%rip), %rax
	movq	%rax, %rdx
	leaq	.LC18(%rip), %rax
	movq	%rax, %rsi
	movl	$0, %eax
	call	_ZN6Logger3logEPKcz@PLT
	.loc 2 81 362 discriminator 6
	leaq	.LC62(%rip), %rax
	movq	%rax, %rcx
	movl	$81, %edx
	leaq	.LC49(%rip), %rax
	movq	%rax, %rsi
	leaq	.LC18(%rip), %rax
	movq	%rax, %rdi
	movl	$0, %eax
	call	printf@PLT
	.loc 2 81 482 discriminator 7
	call	_ZN6Logger11getInstanceEv@PLT
	movq	%rax, %r13
	.loc 2 81 488 discriminator 7
	movl	$14, %edi
	call	strerror@PLT
	movq	%rax, %rcx
	movl	$14, %edx
	leaq	.LC19(%rip), %rax
	movq	%rax, %rsi
	movq	%r13, %rdi
	movl	$0, %eax
	call	_ZN6Logger3logEPKcz@PLT
	.loc 2 81 27 discriminator 9
	call	_ZN6Logger11getInstanceEv@PLT
	movq	%rax, %rdi
	.loc 2 81 33 discriminator 9
	movl	$81, %ecx
	leaq	.LC61(%rip), %rax
	movq	%rax, %rdx
	leaq	.LC21(%rip), %rax
	movq	%rax, %rsi
	movl	$0, %eax
	call	_ZN6Logger3logEPKcz@PLT
	.loc 2 81 91 discriminator 11
	leaq	.LC22(%rip), %rax
	movq	%rax, %rdi
	call	system@PLT
	.loc 2 81 133 discriminator 12
	call	_ZN6Logger11getInstanceEv@PLT
	movq	%rax, %rdi
	.loc 2 81 149 discriminator 12
	movl	$81, %ecx
	leaq	.LC61(%rip), %rax
	movq	%rax, %rdx
	leaq	.LC50(%rip), %rax
	movq	%rax, %rsi
	movl	$0, %eax
	call	_ZN6Logger13LogMsgNullRetEPKcz@PLT
	.loc 2 81 207 discriminator 14
	movl	$81, %r8d
	leaq	.LC61(%rip), %rax
	movq	%rax, %rcx
	movl	$81, %edx
	leaq	.LC49(%rip), %rax
	movq	%rax, %rsi
	leaq	.LC51(%rip), %rax
	movq	%rax, %rdi
	movl	$0, %eax
	call	_Z13LogMsgNullRetPKcz@PLT
	.loc 2 81 329 discriminator 15
	movl	$0, %r13d
	jmp	.L645
.L644:
.LBB8:
	.loc 2 83 17
	movq	-168(%rbp), %rax
	addq	$8, %rax
	movq	%rax, %rdx
	movq	%rdx, %rax
	shrq	$3, %rax
	addq	$2147450880, %rax
	movzbl	(%rax), %eax
	testb	%al, %al
	setne	%cl
	cmpb	$3, %al
	setle	%al
	andl	%ecx, %eax
	testb	%al, %al
	je	.L646
	movq	%rdx, %rdi
	call	__asan_report_load4@PLT
.L646:
	movq	-168(%rbp), %rax
	movl	8(%rax), %esi
	.loc 2 83 36
	movq	-168(%rbp), %rax
	movq	%rax, %rdx
	shrq	$3, %rdx
	addq	$2147450880, %rdx
	movzbl	(%rdx), %edx
	testb	%dl, %dl
	je	.L647
	movq	%rax, %rdi
	call	__asan_report_load8@PLT
.L647:
	movq	-168(%rbp), %rax
	movq	(%rax), %rax
	.loc 2 83 46
	leaq	8(%rax), %rdx
	movq	%rdx, %rcx
	movq	%rcx, %rdx
	shrq	$3, %rdx
	addq	$2147450880, %rdx
	movzbl	(%rdx), %edx
	testb	%dl, %dl
	setne	%dil
	cmpb	$3, %dl
	setle	%dl
	andl	%edi, %edx
	testb	%dl, %dl
	je	.L648
	movq	%rcx, %rdi
	call	__asan_report_load4@PLT
.L648:
	movl	8(%rax), %eax
	.loc 2 83 65
	cmpl	%eax, %esi
	jge	.L649
	.loc 2 83 74 discriminator 1
	movq	-168(%rbp), %rax
	movq	(%rax), %rax
	.loc 2 83 84 discriminator 1
	movq	%rax, %rdx
	movq	%rdx, %rcx
	shrq	$3, %rcx
	addq	$2147450880, %rcx
	movzbl	(%rcx), %ecx
	testb	%cl, %cl
	je	.L650
	.loc 2 83 84 is_stmt 0
	movq	%rdx, %rdi
	call	__asan_report_load8@PLT
.L650:
	.loc 2 83 84 discriminator 1
	movq	(%rax), %rcx
	.loc 2 83 102 is_stmt 1 discriminator 1
	movq	-168(%rbp), %rax
	movl	8(%rax), %eax
	movslq	%eax, %rdx
	.loc 2 83 94 discriminator 1
	movq	%rdx, %rax
	addq	%rax, %rax
	addq	%rdx, %rax
	salq	$4, %rax
	.loc 2 83 65 discriminator 1
	addq	%rcx, %rax
	jmp	.L651
.L649:
	.loc 2 83 65 is_stmt 0 discriminator 2
	movl	$0, %eax
.L651:
	.loc 2 83 126 is_stmt 1 discriminator 4
	leaq	16(%rax), %rdx
	movq	%rdx, %rcx
	movq	%rcx, %rdx
	shrq	$3, %rdx
	addq	$2147450880, %rdx
	movzbl	(%rdx), %edx
	testb	%dl, %dl
	setne	%sil
	cmpb	$3, %dl
	setle	%dl
	andl	%esi, %edx
	testb	%dl, %dl
	je	.L652
	.loc 2 83 126 is_stmt 0
	movq	%rcx, %rdi
	call	__asan_report_load4@PLT
.L652:
	.loc 2 83 126 discriminator 4
	movl	16(%rax), %eax
	.loc 2 83 5 is_stmt 1 discriminator 4
	cmpl	$40, %eax
	jne	.L653
.LBB9:
	.loc 2 85 15
	movq	-168(%rbp), %rax
	addq	$8, %rax
	movq	%rax, %rdx
	movq	%rdx, %rax
	shrq	$3, %rax
	addq	$2147450880, %rax
	movzbl	(%rax), %eax
	testb	%al, %al
	setne	%cl
	cmpb	$3, %al
	setle	%al
	andl	%ecx, %eax
	testb	%al, %al
	je	.L654
	movq	%rdx, %rdi
	call	__asan_report_load4@PLT
.L654:
	movq	-168(%rbp), %rax
	movl	8(%rax), %eax
	.loc 2 85 24
	leal	1(%rax), %edx
	movq	-168(%rbp), %rax
	movl	%edx, 8(%rax)
	.loc 2 87 33
	movq	-168(%rbp), %rax
	movq	%rax, %rdi
	call	_ZL4GetEP12SyntacticCtx
	movq	%rax, -152(%rbp)
	.loc 2 89 21
	movq	-168(%rbp), %rax
	addq	$8, %rax
	movq	%rax, %rdx
	movq	%rdx, %rax
	shrq	$3, %rax
	addq	$2147450880, %rax
	movzbl	(%rax), %eax
	testb	%al, %al
	setne	%cl
	cmpb	$3, %al
	setle	%al
	andl	%ecx, %eax
	testb	%al, %al
	je	.L655
	movq	%rdx, %rdi
	call	__asan_report_load4@PLT
.L655:
	.loc 2 89 21 is_stmt 0 discriminator 1
	movq	-168(%rbp), %rax
	movl	8(%rax), %esi
	.loc 2 89 40 is_stmt 1 discriminator 1
	movq	-168(%rbp), %rax
	movq	%rax, %rdx
	shrq	$3, %rdx
	addq	$2147450880, %rdx
	movzbl	(%rdx), %edx
	testb	%dl, %dl
	je	.L656
	.loc 2 89 40 is_stmt 0
	movq	%rax, %rdi
	call	__asan_report_load8@PLT
.L656:
	.loc 2 89 40 discriminator 1
	movq	-168(%rbp), %rax
	movq	(%rax), %rax
	.loc 2 89 50 is_stmt 1 discriminator 1
	leaq	8(%rax), %rdx
	movq	%rdx, %rcx
	movq	%rcx, %rdx
	shrq	$3, %rdx
	addq	$2147450880, %rdx
	movzbl	(%rdx), %edx
	testb	%dl, %dl
	setne	%dil
	cmpb	$3, %dl
	setle	%dl
	andl	%edi, %edx
	testb	%dl, %dl
	je	.L657
	.loc 2 89 50 is_stmt 0
	movq	%rcx, %rdi
	call	__asan_report_load4@PLT
.L657:
	.loc 2 89 50 discriminator 1
	movl	8(%rax), %eax
	.loc 2 89 69 is_stmt 1 discriminator 1
	cmpl	%eax, %esi
	jge	.L658
	.loc 2 89 78 discriminator 1
	movq	-168(%rbp), %rax
	movq	(%rax), %rax
	.loc 2 89 88 discriminator 1
	movq	%rax, %rdx
	movq	%rdx, %rcx
	shrq	$3, %rcx
	addq	$2147450880, %rcx
	movzbl	(%rcx), %ecx
	testb	%cl, %cl
	je	.L659
	.loc 2 89 88 is_stmt 0
	movq	%rdx, %rdi
	call	__asan_report_load8@PLT
.L659:
	.loc 2 89 88 discriminator 1
	movq	(%rax), %rcx
	.loc 2 89 106 is_stmt 1 discriminator 1
	movq	-168(%rbp), %rax
	movl	8(%rax), %eax
	movslq	%eax, %rdx
	.loc 2 89 98 discriminator 1
	movq	%rdx, %rax
	addq	%rax, %rax
	addq	%rdx, %rax
	salq	$4, %rax
	.loc 2 89 69 discriminator 1
	addq	%rcx, %rax
	jmp	.L660
.L658:
	.loc 2 89 69 is_stmt 0 discriminator 2
	movl	$0, %eax
.L660:
	.loc 2 89 136 is_stmt 1 discriminator 4
	leaq	24(%rax), %rdx
	movq	%rdx, %rcx
	movq	%rcx, %rdx
	shrq	$3, %rdx
	addq	$2147450880, %rdx
	movzbl	(%rdx), %edx
	testb	%dl, %dl
	setne	%sil
	testb	%dl, %dl
	setle	%dl
	andl	%esi, %edx
	testb	%dl, %dl
	je	.L661
	.loc 2 89 136 is_stmt 0
	movq	%rcx, %rdi
	call	__asan_report_load1@PLT
.L661:
	.loc 2 89 136 discriminator 4
	movzbl	24(%rax), %eax
	.loc 2 89 9 is_stmt 1 discriminator 4
	cmpb	$41, %al
	je	.L662
	.loc 2 91 24
	leaq	.LC23(%rip), %rax
	movq	%rax, %rdi
	movl	$0, %eax
	call	printf@PLT
	.loc 2 91 85 discriminator 1
	call	_ZN6Logger11getInstanceEv@PLT
	movq	%rax, %rdx
	.loc 2 91 91 discriminator 1
	leaq	.LC24(%rip), %rax
	movq	%rax, %rsi
	movq	%rdx, %rdi
	movl	$0, %eax
	call	_ZN6Logger3logEPKcz@PLT
	.loc 2 91 131 discriminator 3
	call	_ZN6Logger11getInstanceEv@PLT
	movq	%rax, %rdx
	.loc 2 91 137 discriminator 3
	leaq	.LC25(%rip), %rax
	movq	%rax, %rsi
	movq	%rdx, %rdi
	movl	$0, %eax
	call	_ZN6Logger3logEPKcz@PLT
	.loc 2 91 163 discriminator 5
	call	_ZN6Logger11getInstanceEv@PLT
	movq	%rax, %rcx
	.loc 2 91 181 discriminator 5
	movq	-168(%rbp), %rax
	addq	$8, %rax
	movq	%rax, %rdx
	movq	%rdx, %rax
	shrq	$3, %rax
	addq	$2147450880, %rax
	movzbl	(%rax), %eax
	testb	%al, %al
	setne	%sil
	cmpb	$3, %al
	setle	%al
	andl	%esi, %eax
	testb	%al, %al
	je	.L663
	.loc 2 91 181 is_stmt 0
	movq	%rdx, %rdi
	call	__asan_report_load4@PLT
.L663:
	.loc 2 91 181 discriminator 6
	movq	-168(%rbp), %rax
	movl	8(%rax), %eax
	movl	%eax, %edx
	leaq	.LC63(%rip), %rax
	movq	%rax, %rsi
	movq	%rcx, %rdi
	movl	$0, %eax
	call	_ZN6Logger15log_dup_consoleEPKcz@PLT
	.loc 2 91 263 is_stmt 1 discriminator 7
	movq	-168(%rbp), %rax
	addq	$8, %rax
	movq	%rax, %rdx
	movq	%rdx, %rax
	shrq	$3, %rax
	addq	$2147450880, %rax
	movzbl	(%rax), %eax
	testb	%al, %al
	setne	%cl
	cmpb	$3, %al
	setle	%al
	andl	%ecx, %eax
	testb	%al, %al
	je	.L664
	.loc 2 91 263 is_stmt 0
	movq	%rdx, %rdi
	call	__asan_report_load4@PLT
.L664:
	.loc 2 91 263 discriminator 7
	movq	-168(%rbp), %rax
	movl	8(%rax), %esi
	.loc 2 91 282 is_stmt 1 discriminator 7
	movq	-168(%rbp), %rax
	movq	%rax, %rdx
	shrq	$3, %rdx
	addq	$2147450880, %rdx
	movzbl	(%rdx), %edx
	testb	%dl, %dl
	je	.L665
	.loc 2 91 282 is_stmt 0
	movq	%rax, %rdi
	call	__asan_report_load8@PLT
.L665:
	.loc 2 91 282 discriminator 7
	movq	-168(%rbp), %rax
	movq	(%rax), %rax
	.loc 2 91 292 is_stmt 1 discriminator 7
	leaq	8(%rax), %rdx
	movq	%rdx, %rcx
	movq	%rcx, %rdx
	shrq	$3, %rdx
	addq	$2147450880, %rdx
	movzbl	(%rdx), %edx
	testb	%dl, %dl
	setne	%dil
	cmpb	$3, %dl
	setle	%dl
	andl	%edi, %edx
	testb	%dl, %dl
	je	.L666
	.loc 2 91 292 is_stmt 0
	movq	%rcx, %rdi
	call	__asan_report_load4@PLT
.L666:
	.loc 2 91 292 discriminator 7
	movl	8(%rax), %eax
	.loc 2 91 311 is_stmt 1 discriminator 7
	cmpl	%eax, %esi
	jge	.L667
	.loc 2 91 320 discriminator 8
	movq	-168(%rbp), %rax
	movq	(%rax), %rax
	.loc 2 91 330 discriminator 8
	movq	%rax, %rdx
	movq	%rdx, %rcx
	shrq	$3, %rcx
	addq	$2147450880, %rcx
	movzbl	(%rcx), %ecx
	testb	%cl, %cl
	je	.L668
	.loc 2 91 330 is_stmt 0
	movq	%rdx, %rdi
	call	__asan_report_load8@PLT
.L668:
	.loc 2 91 330 discriminator 8
	movq	(%rax), %rcx
	.loc 2 91 348 is_stmt 1 discriminator 8
	movq	-168(%rbp), %rax
	movl	8(%rax), %eax
	movslq	%eax, %rdx
	.loc 2 91 340 discriminator 8
	movq	%rdx, %rax
	addq	%rax, %rax
	addq	%rdx, %rax
	salq	$4, %rax
	.loc 2 91 311 discriminator 8
	addq	%rcx, %rax
	jmp	.L669
.L667:
	.loc 2 91 311 is_stmt 0 discriminator 9
	movl	$0, %eax
.L669:
	.loc 2 91 250 is_stmt 1 discriminator 11
	testq	%rax, %rax
	jne	.L670
	.loc 2 91 378 discriminator 12
	leaq	.LC27(%rip), %rax
	movq	%rax, %rdi
	call	puts@PLT
	.loc 2 91 378 is_stmt 0
	jmp	.L671
.L670:
	.loc 2 91 409 is_stmt 1 discriminator 13
	leaq	.LC28(%rip), %rax
	movq	%rax, %rdi
	movl	$0, %eax
	call	printf@PLT
	.loc 2 91 628 discriminator 14
	movq	-168(%rbp), %rax
	addq	$8, %rax
	movq	%rax, %rdx
	movq	%rdx, %rax
	shrq	$3, %rax
	addq	$2147450880, %rax
	movzbl	(%rax), %eax
	testb	%al, %al
	setne	%cl
	cmpb	$3, %al
	setle	%al
	andl	%ecx, %eax
	testb	%al, %al
	je	.L672
	.loc 2 91 628 is_stmt 0
	movq	%rdx, %rdi
	call	__asan_report_load4@PLT
.L672:
	.loc 2 91 628 discriminator 14
	movq	-168(%rbp), %rax
	movl	8(%rax), %esi
	.loc 2 91 647 is_stmt 1 discriminator 14
	movq	-168(%rbp), %rax
	movq	%rax, %rdx
	shrq	$3, %rdx
	addq	$2147450880, %rdx
	movzbl	(%rdx), %edx
	testb	%dl, %dl
	je	.L673
	.loc 2 91 647 is_stmt 0
	movq	%rax, %rdi
	call	__asan_report_load8@PLT
.L673:
	.loc 2 91 647 discriminator 14
	movq	-168(%rbp), %rax
	movq	(%rax), %rax
	.loc 2 91 657 is_stmt 1 discriminator 14
	leaq	8(%rax), %rdx
	movq	%rdx, %rcx
	movq	%rcx, %rdx
	shrq	$3, %rdx
	addq	$2147450880, %rdx
	movzbl	(%rdx), %edx
	testb	%dl, %dl
	setne	%dil
	cmpb	$3, %dl
	setle	%dl
	andl	%edi, %edx
	testb	%dl, %dl
	je	.L674
	.loc 2 91 657 is_stmt 0
	movq	%rcx, %rdi
	call	__asan_report_load4@PLT
.L674:
	.loc 2 91 657 discriminator 14
	movl	8(%rax), %eax
	.loc 2 91 676 is_stmt 1 discriminator 14
	cmpl	%eax, %esi
	jge	.L675
	.loc 2 91 685 discriminator 15
	movq	-168(%rbp), %rax
	movq	(%rax), %rax
	.loc 2 91 695 discriminator 15
	movq	%rax, %rdx
	movq	%rdx, %rcx
	shrq	$3, %rcx
	addq	$2147450880, %rcx
	movzbl	(%rcx), %ecx
	testb	%cl, %cl
	je	.L676
	.loc 2 91 695 is_stmt 0
	movq	%rdx, %rdi
	call	__asan_report_load8@PLT
.L676:
	.loc 2 91 695 discriminator 15
	movq	(%rax), %rcx
	.loc 2 91 713 is_stmt 1 discriminator 15
	movq	-168(%rbp), %rax
	movl	8(%rax), %eax
	movslq	%eax, %rdx
	.loc 2 91 705 discriminator 15
	movq	%rdx, %rax
	addq	%rax, %rax
	addq	%rdx, %rax
	salq	$4, %rax
	.loc 2 91 676 discriminator 15
	addq	%rcx, %rax
	jmp	.L677
.L675:
	.loc 2 91 676 is_stmt 0 discriminator 16
	movl	$0, %eax
.L677:
	.loc 2 91 436 is_stmt 1 discriminator 18
	leaq	44(%rax), %rdx
	movq	%rdx, %rcx
	shrq	$3, %rcx
	addq	$2147450880, %rcx
	movzbl	(%rcx), %ecx
	testb	%cl, %cl
	setne	%dil
	movq	%rdx, %rsi
	andl	$7, %esi
	addl	$3, %esi
	cmpb	%cl, %sil
	setge	%cl
	andl	%edi, %ecx
	testb	%cl, %cl
	je	.L678
	.loc 2 91 436 is_stmt 0
	movq	%rdx, %rdi
	call	__asan_report_load4@PLT
.L678:
	.loc 2 91 436 discriminator 18
	movl	44(%rax), %ecx
	.loc 2 91 505 is_stmt 1 discriminator 18
	movq	-168(%rbp), %rax
	addq	$8, %rax
	movq	%rax, %rdx
	movq	%rdx, %rax
	shrq	$3, %rax
	addq	$2147450880, %rax
	movzbl	(%rax), %eax
	testb	%al, %al
	setne	%sil
	cmpb	$3, %al
	setle	%al
	andl	%esi, %eax
	testb	%al, %al
	je	.L679
	.loc 2 91 505 is_stmt 0
	movq	%rdx, %rdi
	call	__asan_report_load4@PLT
.L679:
	.loc 2 91 505 discriminator 18
	movq	-168(%rbp), %rax
	movl	8(%rax), %edi
	.loc 2 91 524 is_stmt 1 discriminator 18
	movq	-168(%rbp), %rax
	movq	%rax, %rdx
	shrq	$3, %rdx
	addq	$2147450880, %rdx
	movzbl	(%rdx), %edx
	testb	%dl, %dl
	je	.L680
	.loc 2 91 524 is_stmt 0
	movq	%rax, %rdi
	call	__asan_report_load8@PLT
.L680:
	.loc 2 91 524 discriminator 18
	movq	-168(%rbp), %rax
	movq	(%rax), %rax
	.loc 2 91 534 is_stmt 1 discriminator 18
	leaq	8(%rax), %rdx
	movq	%rdx, %rsi
	movq	%rsi, %rdx
	shrq	$3, %rdx
	addq	$2147450880, %rdx
	movzbl	(%rdx), %edx
	testb	%dl, %dl
	setne	%r8b
	cmpb	$3, %dl
	setle	%dl
	andl	%r8d, %edx
	testb	%dl, %dl
	je	.L681
	.loc 2 91 534 is_stmt 0
	movq	%rsi, %rdi
	call	__asan_report_load4@PLT
.L681:
	.loc 2 91 534 discriminator 18
	movl	8(%rax), %eax
	.loc 2 91 553 is_stmt 1 discriminator 18
	cmpl	%eax, %edi
	jge	.L682
	.loc 2 91 562 discriminator 19
	movq	-168(%rbp), %rax
	movq	(%rax), %rax
	.loc 2 91 572 discriminator 19
	movq	%rax, %rdx
	movq	%rdx, %rsi
	shrq	$3, %rsi
	addq	$2147450880, %rsi
	movzbl	(%rsi), %esi
	testb	%sil, %sil
	je	.L683
	.loc 2 91 572 is_stmt 0
	movq	%rdx, %rdi
	call	__asan_report_load8@PLT
.L683:
	.loc 2 91 572 discriminator 19
	movq	(%rax), %rsi
	.loc 2 91 590 is_stmt 1 discriminator 19
	movq	-168(%rbp), %rax
	movl	8(%rax), %eax
	movslq	%eax, %rdx
	.loc 2 91 582 discriminator 19
	movq	%rdx, %rax
	addq	%rax, %rax
	addq	%rdx, %rax
	salq	$4, %rax
	.loc 2 91 553 discriminator 19
	addq	%rsi, %rax
	jmp	.L684
.L682:
	.loc 2 91 553 is_stmt 0 discriminator 20
	movl	$0, %eax
.L684:
	.loc 2 91 436 is_stmt 1 discriminator 22
	leaq	40(%rax), %rdx
	movq	%rdx, %rsi
	movq	%rsi, %rdx
	shrq	$3, %rdx
	addq	$2147450880, %rdx
	movzbl	(%rdx), %edx
	testb	%dl, %dl
	setne	%dil
	cmpb	$3, %dl
	setle	%dl
	andl	%edi, %edx
	testb	%dl, %dl
	je	.L685
	.loc 2 91 436 is_stmt 0
	movq	%rsi, %rdi
	call	__asan_report_load4@PLT
.L685:
	.loc 2 91 436 discriminator 22
	movl	40(%rax), %edx
	.loc 2 91 468 is_stmt 1 discriminator 22
	movq	-168(%rbp), %rax
	movq	%rax, %rsi
	shrq	$3, %rsi
	addq	$2147450880, %rsi
	movzbl	(%rsi), %esi
	testb	%sil, %sil
	je	.L686
	.loc 2 91 468 is_stmt 0
	movq	%rax, %rdi
	call	__asan_report_load8@PLT
.L686:
	.loc 2 91 468 discriminator 22
	movq	-168(%rbp), %rax
	movq	(%rax), %rax
	.loc 2 91 479 is_stmt 1 discriminator 22
	leaq	40(%rax), %rsi
	movq	%rsi, %rdi
	shrq	$3, %rdi
	addq	$2147450880, %rdi
	movzbl	(%rdi), %edi
	testb	%dil, %dil
	je	.L687
	.loc 2 91 479 is_stmt 0
	movq	%rsi, %rdi
	call	__asan_report_load8@PLT
.L687:
	.loc 2 91 479 discriminator 22
	movq	40(%rax), %rax
	.loc 2 91 436 is_stmt 1 discriminator 22
	movq	%rax, %rsi
	leaq	.LC29(%rip), %rax
	movq	%rax, %rdi
	movl	$0, %eax
	call	printf@PLT
	.loc 2 91 761 discriminator 23
	movq	-168(%rbp), %rax
	addq	$8, %rax
	movq	%rax, %rdx
	movq	%rdx, %rax
	shrq	$3, %rax
	addq	$2147450880, %rax
	movzbl	(%rax), %eax
	testb	%al, %al
	setne	%cl
	cmpb	$3, %al
	setle	%al
	andl	%ecx, %eax
	testb	%al, %al
	je	.L688
	.loc 2 91 761 is_stmt 0
	movq	%rdx, %rdi
	call	__asan_report_load4@PLT
.L688:
	.loc 2 91 761 discriminator 23
	movq	-168(%rbp), %rax
	movl	8(%rax), %esi
	.loc 2 91 780 is_stmt 1 discriminator 23
	movq	-168(%rbp), %rax
	movq	%rax, %rdx
	shrq	$3, %rdx
	addq	$2147450880, %rdx
	movzbl	(%rdx), %edx
	testb	%dl, %dl
	je	.L689
	.loc 2 91 780 is_stmt 0
	movq	%rax, %rdi
	call	__asan_report_load8@PLT
.L689:
	.loc 2 91 780 discriminator 23
	movq	-168(%rbp), %rax
	movq	(%rax), %rax
	.loc 2 91 790 is_stmt 1 discriminator 23
	leaq	8(%rax), %rdx
	movq	%rdx, %rcx
	movq	%rcx, %rdx
	shrq	$3, %rdx
	addq	$2147450880, %rdx
	movzbl	(%rdx), %edx
	testb	%dl, %dl
	setne	%dil
	cmpb	$3, %dl
	setle	%dl
	andl	%edi, %edx
	testb	%dl, %dl
	je	.L690
	.loc 2 91 790 is_stmt 0
	movq	%rcx, %rdi
	call	__asan_report_load4@PLT
.L690:
	.loc 2 91 790 discriminator 23
	movl	8(%rax), %eax
	.loc 2 91 809 is_stmt 1 discriminator 23
	cmpl	%eax, %esi
	jge	.L691
	.loc 2 91 818 discriminator 24
	movq	-168(%rbp), %rax
	movq	(%rax), %rax
	.loc 2 91 828 discriminator 24
	movq	%rax, %rdx
	movq	%rdx, %rcx
	shrq	$3, %rcx
	addq	$2147450880, %rcx
	movzbl	(%rcx), %ecx
	testb	%cl, %cl
	je	.L692
	.loc 2 91 828 is_stmt 0
	movq	%rdx, %rdi
	call	__asan_report_load8@PLT
.L692:
	.loc 2 91 828 discriminator 24
	movq	(%rax), %rcx
	.loc 2 91 846 is_stmt 1 discriminator 24
	movq	-168(%rbp), %rax
	movl	8(%rax), %eax
	movslq	%eax, %rdx
	.loc 2 91 838 discriminator 24
	movq	%rdx, %rax
	addq	%rax, %rax
	addq	%rdx, %rax
	salq	$4, %rax
	.loc 2 91 809 discriminator 24
	addq	%rcx, %rax
	jmp	.L693
.L691:
	.loc 2 91 809 is_stmt 0 discriminator 25
	movl	$0, %eax
.L693:
	.loc 2 91 752 is_stmt 1 discriminator 27
	leaq	32(%rax), %rdx
	movq	%rdx, %rcx
	shrq	$3, %rcx
	addq	$2147450880, %rcx
	movzbl	(%rcx), %ecx
	testb	%cl, %cl
	je	.L694
	.loc 2 91 752 is_stmt 0
	movq	%rdx, %rdi
	call	__asan_report_load8@PLT
.L694:
	.loc 2 91 752 discriminator 27
	movq	32(%rax), %rax
	movl	$10, %esi
	movq	%rax, %rdi
	call	_Z6printlPKcc@PLT
	.loc 2 91 900 is_stmt 1 discriminator 28
	leaq	.LC30(%rip), %rax
	movq	%rax, %rdi
	call	puts@PLT
	.loc 2 91 924 discriminator 29
	leaq	.LC61(%rip), %rax
	movq	%rax, %rcx
	movl	$91, %edx
	leaq	.LC49(%rip), %rax
	movq	%rax, %rsi
	leaq	.LC31(%rip), %rax
	movq	%rax, %rdi
	movl	$0, %eax
	call	printf@PLT
	.loc 2 91 1137 discriminator 30
	movq	-168(%rbp), %rax
	movq	%rax, %rdx
	shrq	$3, %rdx
	addq	$2147450880, %rdx
	movzbl	(%rdx), %edx
	testb	%dl, %dl
	je	.L695
	.loc 2 91 1137 is_stmt 0
	movq	%rax, %rdi
	call	__asan_report_load8@PLT
.L695:
	.loc 2 91 1137 discriminator 30
	movq	-168(%rbp), %rax
	movq	(%rax), %rax
	.loc 2 91 1147 is_stmt 1 discriminator 30
	leaq	24(%rax), %rdx
	movq	%rdx, %rcx
	shrq	$3, %rcx
	addq	$2147450880, %rcx
	movzbl	(%rcx), %ecx
	testb	%cl, %cl
	je	.L696
	.loc 2 91 1147 is_stmt 0
	movq	%rdx, %rdi
	call	__asan_report_load8@PLT
.L696:
	.loc 2 91 1147 discriminator 30
	movq	24(%rax), %rcx
	.loc 2 91 1021 is_stmt 1 discriminator 30
	movq	-168(%rbp), %rax
	addq	$8, %rax
	movq	%rax, %rdx
	movq	%rdx, %rax
	shrq	$3, %rax
	addq	$2147450880, %rax
	movzbl	(%rax), %eax
	testb	%al, %al
	setne	%sil
	cmpb	$3, %al
	setle	%al
	andl	%esi, %eax
	testb	%al, %al
	je	.L697
	.loc 2 91 1021 is_stmt 0
	movq	%rdx, %rdi
	call	__asan_report_load4@PLT
.L697:
	.loc 2 91 1021 discriminator 30
	movq	-168(%rbp), %rax
	movl	8(%rax), %edi
	.loc 2 91 1040 is_stmt 1 discriminator 30
	movq	-168(%rbp), %rax
	movq	(%rax), %rax
	.loc 2 91 1050 discriminator 30
	leaq	8(%rax), %rdx
	movq	%rdx, %rsi
	movq	%rsi, %rdx
	shrq	$3, %rdx
	addq	$2147450880, %rdx
	movzbl	(%rdx), %edx
	testb	%dl, %dl
	setne	%r8b
	cmpb	$3, %dl
	setle	%dl
	andl	%r8d, %edx
	testb	%dl, %dl
	je	.L698
	.loc 2 91 1050 is_stmt 0
	movq	%rsi, %rdi
	call	__asan_report_load4@PLT
.L698:
	.loc 2 91 1050 discriminator 30
	movl	8(%rax), %eax
	.loc 2 91 1012 is_stmt 1 discriminator 30
	cmpl	%eax, %edi
	jge	.L699
	.loc 2 91 1078 discriminator 31
	movq	-168(%rbp), %rax
	movq	(%rax), %rax
	.loc 2 91 1088 discriminator 31
	movq	%rax, %rdx
	movq	%rdx, %rsi
	shrq	$3, %rsi
	addq	$2147450880, %rsi
	movzbl	(%rsi), %esi
	testb	%sil, %sil
	je	.L700
	.loc 2 91 1088 is_stmt 0
	movq	%rdx, %rdi
	call	__asan_report_load8@PLT
.L700:
	.loc 2 91 1088 discriminator 31
	movq	(%rax), %rsi
	.loc 2 91 1106 is_stmt 1 discriminator 31
	movq	-168(%rbp), %rax
	movl	8(%rax), %eax
	movslq	%eax, %rdx
	.loc 2 91 1098 discriminator 31
	movq	%rdx, %rax
	addq	%rax, %rax
	addq	%rdx, %rax
	salq	$4, %rax
	.loc 2 91 1012 discriminator 31
	addq	%rsi, %rax
	jmp	.L701
.L699:
	.loc 2 91 1012 is_stmt 0 discriminator 32
	movl	$0, %eax
.L701:
	.loc 2 91 1012 discriminator 34
	movq	%rcx, %rsi
	movq	%rax, %rdi
	call	_Z10PrintTokenPK5TokenPPKc@PLT
.L671:
	.loc 2 92 39 is_stmt 1
	call	_ZN6Logger11getInstanceEv@PLT
	movq	%rax, %rdi
	.loc 2 92 55
	movl	$92, %ecx
	leaq	.LC61(%rip), %rax
	movq	%rax, %rdx
	leaq	.LC50(%rip), %rax
	movq	%rax, %rsi
	movl	$0, %eax
	call	_ZN6Logger13LogMsgNullRetEPKcz@PLT
	.loc 2 92 113 discriminator 2
	movl	$92, %r8d
	leaq	.LC61(%rip), %rax
	movq	%rax, %rcx
	movl	$92, %edx
	leaq	.LC49(%rip), %rax
	movq	%rax, %rsi
	leaq	.LC51(%rip), %rax
	movq	%rax, %rdi
	movl	$0, %eax
	call	_Z13LogMsgNullRetPKcz@PLT
	.loc 2 92 235 discriminator 3
	movl	$0, %r13d
	jmp	.L645
.L662:
	.loc 2 95 15
	movq	-168(%rbp), %rax
	addq	$8, %rax
	movq	%rax, %rdx
	movq	%rdx, %rax
	shrq	$3, %rax
	addq	$2147450880, %rax
	movzbl	(%rax), %eax
	testb	%al, %al
	setne	%cl
	cmpb	$3, %al
	setle	%al
	andl	%ecx, %eax
	testb	%al, %al
	je	.L702
	movq	%rdx, %rdi
	call	__asan_report_load4@PLT
.L702:
	movq	-168(%rbp), %rax
	movl	8(%rax), %eax
	.loc 2 95 24
	leal	1(%rax), %edx
	movq	-168(%rbp), %rax
	movl	%edx, 8(%rax)
	.loc 2 97 16
	movq	-152(%rbp), %r13
	jmp	.L645
.L653:
.LBE9:
.LBE8:
	.loc 2 100 16
	movq	-168(%rbp), %rax
	movq	%rax, %rdi
	call	_ZL4GetNP12SyntacticCtx
.LEHE10:
	movq	%rax, %r13
	.loc 2 100 20
	nop
.L645:
	.loc 2 101 5
	leaq	-64(%r14), %rax
	movq	%rax, %rdi
	call	_ZN14FunctionLoggerD1Ev@PLT
	movq	%r13, %rdx
	.loc 2 79 5
	cmpq	%rbx, %r15
	je	.L641
	jmp	.L706
.L705:
	endbr64
	.loc 2 101 5
	movq	%rax, %rbx
	leaq	-64(%r14), %rax
	movq	%rax, %rdi
	call	_ZN14FunctionLoggerD1Ev@PLT
	call	__asan_handle_no_return@PLT
	movq	%rbx, %rdi
.LEHB11:
	call	_Unwind_Resume@PLT
.LEHE11:
.L706:
	.loc 2 79 5
	movq	$1172321806, (%rbx)
	movabsq	$-723401728380766731, %rax
	movq	%rax, 2147450880(%r12)
	movl	$-168430091, 2147450888(%r12)
	movq	120(%rbx), %rax
	movb	$0, (%rax)
	jmp	.L642
.L641:
	movq	$0, 2147450880(%r12)
	movl	$0, 2147450888(%r12)
.L642:
	.loc 2 101 5
	movq	%rdx, %rax
	addq	$136, %rsp
	popq	%rbx
	popq	%r12
	popq	%r13
	popq	%r14
	popq	%r15
	popq	%rbp
	.cfi_def_cfa 7, 8
	ret
	.cfi_endproc
.LFE2275:
	.section	.gcc_except_table
.LLSDA2275:
	.byte	0xff
	.byte	0xff
	.byte	0x1
	.uleb128 .LLSDACSE2275-.LLSDACSB2275
.LLSDACSB2275:
	.uleb128 .LEHB9-.LFB2275
	.uleb128 .LEHE9-.LEHB9
	.uleb128 0
	.uleb128 0
	.uleb128 .LEHB10-.LFB2275
	.uleb128 .LEHE10-.LEHB10
	.uleb128 .L705-.LFB2275
	.uleb128 0
	.uleb128 .LEHB11-.LFB2275
	.uleb128 .LEHE11-.LEHB11
	.uleb128 0
	.uleb128 0
.LLSDACSE2275:
	.text
	.size	_ZL4GetPP12SyntacticCtx, .-_ZL4GetPP12SyntacticCtx
	.section	.rodata
.LC64:
	.string	"1 32 24 12 func_105:105"
	.align 32
.LC65:
	.string	"GetN"
	.zero	59
	.align 32
.LC66:
	.string	"Token* GetN(SyntacticCtx*)"
	.zero	37
	.align 32
.LC67:
	.string	"Cringe, this is not variable or constant node =(\n"
	.zero	46
	.align 32
.LC68:
	.string	"result"
	.zero	57
	.text
	.type	_ZL4GetNP12SyntacticCtx, @function
_ZL4GetNP12SyntacticCtx:
.LASANPC2276:
.LFB2276:
	.loc 2 104 5
	.cfi_startproc
	.cfi_personality 0x9b,DW.ref.__gxx_personality_v0
	.cfi_lsda 0x1b,.LLSDA2276
	endbr64
	pushq	%rbp
	.cfi_def_cfa_offset 16
	.cfi_offset 6, -16
	movq	%rsp, %rbp
	.cfi_def_cfa_register 6
	pushq	%r15
	pushq	%r14
	pushq	%r13
	pushq	%r12
	pushq	%rbx
	subq	$136, %rsp
	.cfi_offset 15, -24
	.cfi_offset 14, -32
	.cfi_offset 13, -40
	.cfi_offset 12, -48
	.cfi_offset 3, -56
	movq	%rdi, -168(%rbp)
	leaq	-144(%rbp), %rbx
	movq	%rbx, %r15
	cmpl	$0, __asan_option_detect_stack_use_after_return(%rip)
	je	.L707
	movl	$96, %edi
	call	__asan_stack_malloc_1@PLT
	testq	%rax, %rax
	je	.L707
	movq	%rax, %rbx
.L707:
	leaq	96(%rbx), %rax
	movq	%rax, %r13
	movq	$1102416563, (%rbx)
	leaq	.LC64(%rip), %rax
	movq	%rax, 8(%rbx)
	leaq	.LASANPC2276(%rip), %rax
	movq	%rax, 16(%rbx)
	movq	%rbx, %r12
	shrq	$3, %r12
	movl	$-235802127, 2147450880(%r12)
	movl	$-218103808, 2147450884(%r12)
	movl	$-202116109, 2147450888(%r12)
	.loc 2 105 49
	leaq	-64(%r13), %rax
	leaq	.LC65(%rip), %rdx
	movl	$1, %esi
	movq	%rax, %rdi
.LEHB12:
	call	_ZN14FunctionLoggerC1EiPKc@PLT
.LEHE12:
	.loc 2 106 10
	cmpq	$0, -168(%rbp)
	jne	.L711
.LEHB13:
	.loc 2 106 43 discriminator 1
	call	_ZN6Logger11getInstanceEv@PLT
	movq	%rax, %rcx
	.loc 2 106 49 discriminator 1
	leaq	.LC13(%rip), %rax
	movq	%rax, %rdx
	leaq	.LC14(%rip), %rax
	movq	%rax, %rsi
	movq	%rcx, %rdi
	movl	$0, %eax
	call	_ZN6Logger3logEPKcz@PLT
	.loc 2 106 105 discriminator 3
	leaq	.LC13(%rip), %rax
	movq	%rax, %rsi
	leaq	.LC15(%rip), %rax
	movq	%rax, %rdi
	movl	$0, %eax
	call	printf@PLT
	.loc 2 106 249 discriminator 4
	call	_ZN6Logger11getInstanceEv@PLT
	movq	%rax, %rdi
	.loc 2 106 255 discriminator 4
	leaq	.LC66(%rip), %r8
	movl	$106, %ecx
	leaq	.LC49(%rip), %rax
	movq	%rax, %rdx
	leaq	.LC18(%rip), %rax
	movq	%rax, %rsi
	movl	$0, %eax
	call	_ZN6Logger3logEPKcz@PLT
	.loc 2 106 363 discriminator 6
	leaq	.LC66(%rip), %rax
	movq	%rax, %rcx
	movl	$106, %edx
	leaq	.LC49(%rip), %rax
	movq	%rax, %rsi
	leaq	.LC18(%rip), %rax
	movq	%rax, %rdi
	movl	$0, %eax
	call	printf@PLT
	.loc 2 106 484 discriminator 7
	call	_ZN6Logger11getInstanceEv@PLT
	movq	%rax, %r14
	.loc 2 106 490 discriminator 7
	movl	$14, %edi
	call	strerror@PLT
	movq	%rax, %rcx
	movl	$14, %edx
	leaq	.LC19(%rip), %rax
	movq	%rax, %rsi
	movq	%r14, %rdi
	movl	$0, %eax
	call	_ZN6Logger3logEPKcz@PLT
	.loc 2 106 27 discriminator 9
	call	_ZN6Logger11getInstanceEv@PLT
	movq	%rax, %rdi
	.loc 2 106 33 discriminator 9
	movl	$106, %ecx
	leaq	.LC65(%rip), %rax
	movq	%rax, %rdx
	leaq	.LC21(%rip), %rax
	movq	%rax, %rsi
	movl	$0, %eax
	call	_ZN6Logger3logEPKcz@PLT
	.loc 2 106 92 discriminator 11
	leaq	.LC22(%rip), %rax
	movq	%rax, %rdi
	call	system@PLT
	.loc 2 106 134 discriminator 12
	call	_ZN6Logger11getInstanceEv@PLT
	movq	%rax, %rdi
	.loc 2 106 150 discriminator 12
	movl	$106, %ecx
	leaq	.LC65(%rip), %rax
	movq	%rax, %rdx
	leaq	.LC50(%rip), %rax
	movq	%rax, %rsi
	movl	$0, %eax
	call	_ZN6Logger13LogMsgNullRetEPKcz@PLT
	.loc 2 106 209 discriminator 14
	movl	$106, %r8d
	leaq	.LC65(%rip), %rax
	movq	%rax, %rcx
	movl	$106, %edx
	leaq	.LC49(%rip), %rax
	movq	%rax, %rsi
	leaq	.LC51(%rip), %rax
	movq	%rax, %rdi
	movl	$0, %eax
	call	_Z13LogMsgNullRetPKcz@PLT
	.loc 2 106 333 discriminator 15
	movl	$0, %r14d
	jmp	.L712
.L711:
	.loc 2 108 17
	movq	-168(%rbp), %rax
	addq	$8, %rax
	movq	%rax, %rdx
	movq	%rdx, %rax
	shrq	$3, %rax
	addq	$2147450880, %rax
	movzbl	(%rax), %eax
	testb	%al, %al
	setne	%cl
	cmpb	$3, %al
	setle	%al
	andl	%ecx, %eax
	testb	%al, %al
	je	.L713
	movq	%rdx, %rdi
	call	__asan_report_load4@PLT
.L713:
	movq	-168(%rbp), %rax
	movl	8(%rax), %esi
	.loc 2 108 36
	movq	-168(%rbp), %rax
	movq	%rax, %rdx
	shrq	$3, %rdx
	addq	$2147450880, %rdx
	movzbl	(%rdx), %edx
	testb	%dl, %dl
	je	.L714
	movq	%rax, %rdi
	call	__asan_report_load8@PLT
.L714:
	movq	-168(%rbp), %rax
	movq	(%rax), %rax
	.loc 2 108 46
	leaq	8(%rax), %rdx
	movq	%rdx, %rcx
	movq	%rcx, %rdx
	shrq	$3, %rdx
	addq	$2147450880, %rdx
	movzbl	(%rdx), %edx
	testb	%dl, %dl
	setne	%dil
	cmpb	$3, %dl
	setle	%dl
	andl	%edi, %edx
	testb	%dl, %dl
	je	.L715
	movq	%rcx, %rdi
	call	__asan_report_load4@PLT
.L715:
	movl	8(%rax), %eax
	.loc 2 108 65
	cmpl	%eax, %esi
	jge	.L716
	.loc 2 108 74 discriminator 1
	movq	-168(%rbp), %rax
	movq	(%rax), %rax
	.loc 2 108 84 discriminator 1
	movq	%rax, %rdx
	movq	%rdx, %rcx
	shrq	$3, %rcx
	addq	$2147450880, %rcx
	movzbl	(%rcx), %ecx
	testb	%cl, %cl
	je	.L717
	.loc 2 108 84 is_stmt 0
	movq	%rdx, %rdi
	call	__asan_report_load8@PLT
.L717:
	.loc 2 108 84 discriminator 1
	movq	(%rax), %rcx
	.loc 2 108 102 is_stmt 1 discriminator 1
	movq	-168(%rbp), %rax
	movl	8(%rax), %eax
	movslq	%eax, %rdx
	.loc 2 108 94 discriminator 1
	movq	%rdx, %rax
	addq	%rax, %rax
	addq	%rdx, %rax
	salq	$4, %rax
	.loc 2 108 65 discriminator 1
	addq	%rcx, %rax
	jmp	.L718
.L716:
	.loc 2 108 65 is_stmt 0 discriminator 2
	movl	$0, %eax
.L718:
	.loc 2 108 126 is_stmt 1 discriminator 4
	leaq	16(%rax), %rdx
	movq	%rdx, %rcx
	movq	%rcx, %rdx
	shrq	$3, %rdx
	addq	$2147450880, %rdx
	movzbl	(%rdx), %edx
	testb	%dl, %dl
	setne	%sil
	cmpb	$3, %dl
	setle	%dl
	andl	%esi, %edx
	testb	%dl, %dl
	je	.L719
	.loc 2 108 126 is_stmt 0
	movq	%rcx, %rdi
	call	__asan_report_load4@PLT
.L719:
	.loc 2 108 126 discriminator 4
	movl	16(%rax), %eax
	.loc 2 108 5 is_stmt 1 discriminator 4
	cmpl	$6, %eax
	jne	.L720
	.loc 2 110 23
	movq	-168(%rbp), %rax
	movq	%rax, %rdi
	call	_ZL10DefineNameP12SyntacticCtx
	.loc 2 110 29
	cmpl	$-111, %eax
	sete	%al
	.loc 2 110 9
	testb	%al, %al
	je	.L720
	.loc 2 111 19
	movl	$0, %r14d
	jmp	.L712
.L720:
	.loc 2 114 21
	movq	-168(%rbp), %rax
	addq	$8, %rax
	movq	%rax, %rdx
	movq	%rdx, %rax
	shrq	$3, %rax
	addq	$2147450880, %rax
	movzbl	(%rax), %eax
	testb	%al, %al
	setne	%cl
	cmpb	$3, %al
	setle	%al
	andl	%ecx, %eax
	testb	%al, %al
	je	.L721
	movq	%rdx, %rdi
	call	__asan_report_load4@PLT
.L721:
	movq	-168(%rbp), %rax
	movl	8(%rax), %esi
	.loc 2 114 40
	movq	-168(%rbp), %rax
	movq	%rax, %rdx
	shrq	$3, %rdx
	addq	$2147450880, %rdx
	movzbl	(%rdx), %edx
	testb	%dl, %dl
	je	.L722
	movq	%rax, %rdi
	call	__asan_report_load8@PLT
.L722:
	movq	-168(%rbp), %rax
	movq	(%rax), %rax
	.loc 2 114 50
	leaq	8(%rax), %rdx
	movq	%rdx, %rcx
	movq	%rcx, %rdx
	shrq	$3, %rdx
	addq	$2147450880, %rdx
	movzbl	(%rdx), %edx
	testb	%dl, %dl
	setne	%dil
	cmpb	$3, %dl
	setle	%dl
	andl	%edi, %edx
	testb	%dl, %dl
	je	.L723
	movq	%rcx, %rdi
	call	__asan_report_load4@PLT
.L723:
	movl	8(%rax), %eax
	.loc 2 114 69
	cmpl	%eax, %esi
	jge	.L724
	.loc 2 114 78 discriminator 1
	movq	-168(%rbp), %rax
	movq	(%rax), %rax
	.loc 2 114 88 discriminator 1
	movq	%rax, %rdx
	movq	%rdx, %rcx
	shrq	$3, %rcx
	addq	$2147450880, %rcx
	movzbl	(%rcx), %ecx
	testb	%cl, %cl
	je	.L725
	.loc 2 114 88 is_stmt 0
	movq	%rdx, %rdi
	call	__asan_report_load8@PLT
.L725:
	.loc 2 114 88 discriminator 1
	movq	(%rax), %rcx
	.loc 2 114 106 is_stmt 1 discriminator 1
	movq	-168(%rbp), %rax
	movl	8(%rax), %eax
	movslq	%eax, %rdx
	.loc 2 114 98 discriminator 1
	movq	%rdx, %rax
	addq	%rax, %rax
	addq	%rdx, %rax
	salq	$4, %rax
	.loc 2 114 69 discriminator 1
	addq	%rcx, %rax
	jmp	.L726
.L724:
	.loc 2 114 69 is_stmt 0 discriminator 2
	movl	$0, %eax
.L726:
	.loc 2 114 5 is_stmt 1 discriminator 4
	testq	%rax, %rax
	je	.L727
	.loc 2 114 142 discriminator 6
	movq	-168(%rbp), %rax
	addq	$8, %rax
	movq	%rax, %rdx
	movq	%rdx, %rax
	shrq	$3, %rax
	addq	$2147450880, %rax
	movzbl	(%rax), %eax
	testb	%al, %al
	setne	%cl
	cmpb	$3, %al
	setle	%al
	andl	%ecx, %eax
	testb	%al, %al
	je	.L728
	.loc 2 114 142 is_stmt 0
	movq	%rdx, %rdi
	call	__asan_report_load4@PLT
.L728:
	.loc 2 114 142 discriminator 6
	movq	-168(%rbp), %rax
	movl	8(%rax), %esi
	.loc 2 114 161 is_stmt 1 discriminator 6
	movq	-168(%rbp), %rax
	movq	%rax, %rdx
	shrq	$3, %rdx
	addq	$2147450880, %rdx
	movzbl	(%rdx), %edx
	testb	%dl, %dl
	je	.L729
	.loc 2 114 161 is_stmt 0
	movq	%rax, %rdi
	call	__asan_report_load8@PLT
.L729:
	.loc 2 114 161 discriminator 6
	movq	-168(%rbp), %rax
	movq	(%rax), %rax
	.loc 2 114 171 is_stmt 1 discriminator 6
	leaq	8(%rax), %rdx
	movq	%rdx, %rcx
	movq	%rcx, %rdx
	shrq	$3, %rdx
	addq	$2147450880, %rdx
	movzbl	(%rdx), %edx
	testb	%dl, %dl
	setne	%dil
	cmpb	$3, %dl
	setle	%dl
	andl	%edi, %edx
	testb	%dl, %dl
	je	.L730
	.loc 2 114 171 is_stmt 0
	movq	%rcx, %rdi
	call	__asan_report_load4@PLT
.L730:
	.loc 2 114 171 discriminator 6
	movl	8(%rax), %eax
	.loc 2 114 190 is_stmt 1 discriminator 6
	cmpl	%eax, %esi
	jge	.L731
	.loc 2 114 199 discriminator 7
	movq	-168(%rbp), %rax
	movq	(%rax), %rax
	.loc 2 114 209 discriminator 7
	movq	%rax, %rdx
	movq	%rdx, %rcx
	shrq	$3, %rcx
	addq	$2147450880, %rcx
	movzbl	(%rcx), %ecx
	testb	%cl, %cl
	je	.L732
	.loc 2 114 209 is_stmt 0
	movq	%rdx, %rdi
	call	__asan_report_load8@PLT
.L732:
	.loc 2 114 209 discriminator 7
	movq	(%rax), %rcx
	.loc 2 114 227 is_stmt 1 discriminator 7
	movq	-168(%rbp), %rax
	movl	8(%rax), %eax
