	.file	"SyntacticCtx.cpp"
	.text
.Ltext0:
	.file 0 "/home/arsenyfucker/Cprojects/Lang/Translator/FrontEnd" "./SyntacticCtx/SyntacticCtx.cpp"
	.section	.rodata
	.align 32
	.type	_ZL12NOT_DECLARED, @object
	.size	_ZL12NOT_DECLARED, 4
_ZL12NOT_DECLARED:
	.long	-111
	.zero	60
	.align 32
	.type	_ZL11NOT_A_LABEL, @object
	.size	_ZL11NOT_A_LABEL, 4
_ZL11NOT_A_LABEL:
	.long	-9
	.zero	60
	.align 32
	.type	_ZL13_CANARY_SIZE_, @object
	.size	_ZL13_CANARY_SIZE_, 4
_ZL13_CANARY_SIZE_:
	.long	8
	.zero	60
	.align 32
	.type	_ZL16_OPENING_CANARY_, @object
	.size	_ZL16_OPENING_CANARY_, 4
_ZL16_OPENING_CANARY_:
	.long	11259375
	.zero	60
	.align 32
	.type	_ZL16_CLOSING_CANARY_, @object
	.size	_ZL16_CLOSING_CANARY_, 4
_ZL16_CLOSING_CANARY_:
	.long	16702650
	.zero	60
	.align 32
	.type	_ZL19_HEAP_MIN_CAPACITY_, @object
	.size	_ZL19_HEAP_MIN_CAPACITY_, 8
_ZL19_HEAP_MIN_CAPACITY_:
	.quad	10
	.zero	56
	.align 32
	.type	_ZL16_ELEMENT_T_SIZE_, @object
	.size	_ZL16_ELEMENT_T_SIZE_, 8
_ZL16_ELEMENT_T_SIZE_:
	.quad	8
	.zero	56
	.align 32
	.type	_ZL11GROWTH_RATE, @object
	.size	_ZL11GROWTH_RATE, 4
_ZL11GROWTH_RATE:
	.long	2
	.zero	60
	.align 32
	.type	_ZL30START_NUMBER_OF_VAR_TABELS_STK, @object
	.size	_ZL30START_NUMBER_OF_VAR_TABELS_STK, 4
_ZL30START_NUMBER_OF_VAR_TABELS_STK:
	.long	5
	.zero	60
	.align 32
.LC0:
	.string	"if"
	.zero	61
	.align 32
.LC1:
	.string	"else"
	.zero	59
	.align 32
.LC2:
	.string	"while"
	.zero	58
	.align 32
.LC3:
	.string	"return"
	.zero	57
	.section	.data.rel.ro.local,"aw"
	.align 32
	.type	_ZL12INSTRUCTIONS, @object
	.size	_ZL12INSTRUCTIONS, 32
_ZL12INSTRUCTIONS:
	.quad	.LC0
	.quad	.LC1
	.quad	.LC2
	.quad	.LC3
	.zero	32
	.section	.rodata
	.align 32
.LC4:
	.string	"fout"
	.zero	59
	.align 32
.LC5:
	.string	"fin"
	.zero	60
	.align 32
.LC6:
	.string	"sin"
	.zero	60
	.align 32
.LC7:
	.string	"cos"
	.zero	60
	.align 32
.LC8:
	.string	"pow"
	.zero	60
	.section	.data.rel.ro.local
	.align 32
	.type	_ZL16NATIVE_FUNCTIONS, @object
	.size	_ZL16NATIVE_FUNCTIONS, 80
_ZL16NATIVE_FUNCTIONS:
	.quad	.LC4
	.long	0
	.long	1
	.quad	.LC5
	.long	1
	.long	1
	.quad	.LC6
	.long	2
	.long	1
	.quad	.LC7
	.long	3
	.long	1
	.quad	.LC8
	.long	4
	.long	2
	.zero	48
	.section	.rodata
	.align 32
	.type	_ZL33NUMBER_OF_NATIVE_FUNCTIONS_STRUCT, @object
	.size	_ZL33NUMBER_OF_NATIVE_FUNCTIONS_STRUCT, 4
_ZL33NUMBER_OF_NATIVE_FUNCTIONS_STRUCT:
	.long	5
	.zero	60
	.align 32
.LC9:
	.string	"extern"
	.zero	57
	.align 32
.LC10:
	.string	"var"
	.zero	60
	.section	.data.rel.ro.local
	.align 32
	.type	_ZL14INITIALIZATORS, @object
	.size	_ZL14INITIALIZATORS, 16
_ZL14INITIALIZATORS:
	.quad	.LC9
	.quad	.LC10
	.zero	48
	.section	.rodata
	.align 32
.LC11:
	.string	"double"
	.zero	57
	.align 32
.LC12:
	.string	"void"
	.zero	59
	.section	.data.rel.ro.local
	.align 32
	.type	_ZL18FUNCTION_RET_TYPES, @object
	.size	_ZL18FUNCTION_RET_TYPES, 16
_ZL18FUNCTION_RET_TYPES:
	.quad	.LC11
	.quad	.LC12
	.zero	48
	.section	.rodata
	.align 32
	.type	_ZL9OPERATORS, @object
	.size	_ZL9OPERATORS, 9
_ZL9OPERATORS:
	.string	"+-/*<<>>"
	.zero	55
	.align 32
	.type	_ZL7COMMENT, @object
	.size	_ZL7COMMENT, 1
_ZL7COMMENT:
	.byte	35
	.zero	63
	.align 32
.LC13:
	.string	"main"
	.zero	59
	.section	.data.rel.ro.local
	.align 32
	.type	_ZL9MAIN_NAME, @object
	.size	_ZL9MAIN_NAME, 8
_ZL9MAIN_NAME:
	.quad	.LC13
	.zero	56
	.section	.rodata
	.align 32
	.type	_ZL24MAX_FUNCTION_NAME_LENGTH, @object
	.size	_ZL24MAX_FUNCTION_NAME_LENGTH, 4
_ZL24MAX_FUNCTION_NAME_LENGTH:
	.long	256
	.zero	60
	.align 32
	.type	_ZL15MAX_WORD_LENGTH, @object
	.size	_ZL15MAX_WORD_LENGTH, 4
_ZL15MAX_WORD_LENGTH:
	.long	256
	.zero	60
	.bss
	.align 32
	.type	_ZStL8__ioinit, @object
	.size	_ZStL8__ioinit, 1
_ZStL8__ioinit:
	.zero	64
	.section	.rodata
	.align 32
	.type	_ZL12STD_LOG_NAME, @object
	.size	_ZL12STD_LOG_NAME, 18
_ZL12STD_LOG_NAME:
	.string	"./logs/stdlog.ars"
	.zero	46
	.align 32
	.type	_ZL6CRINGE, @object
	.size	_ZL6CRINGE, 4
_ZL6CRINGE:
	.long	3565
	.zero	60
	.align 32
	.type	_ZL11INDENT_SIZE, @object
	.size	_ZL11INDENT_SIZE, 4
_ZL11INDENT_SIZE:
	.long	2
	.zero	60
	.align 32
.LC14:
	.string	"ctx"
	.zero	60
	.align 32
.LC15:
	.string	"ASSERTLOG:: Condition (%s) is false\n"
	.zero	59
	.align 32
.LC16:
	.string	"\033[93mASSERTLOG:: \033[0mCondition\033[95m (%s) \033[0mis \033[91mfalse\n\033[0m"
	.zero	32
	.align 32
.LC17:
	.string	"int ProgramCtxCtor(SyntacticCtx*, const Program*)"
	.zero	46
	.align 32
.LC18:
	.string	"./SyntacticCtx/SyntacticCtx.cpp"
	.zero	32
	.align 32
.LC19:
	.string	"\t%s:%d, function: %s\n"
	.zero	42
	.align 32
.LC20:
	.string	"It matches to error: (code %d) %s\n\n"
	.zero	60
	.align 32
.LC21:
	.string	"ProgramCtxCtor"
	.zero	49
	.align 32
.LC22:
	.string	"Shutting down the system (%s:%d)"
	.zero	63
	.align 32
.LC23:
	.string	"echo LOX\n"
	.zero	54
	.align 32
.LC24:
	.string	"program"
	.zero	56
	.text
	.globl	_Z14ProgramCtxCtorP12SyntacticCtxPK7Program
	.type	_Z14ProgramCtxCtorP12SyntacticCtxPK7Program, @function
_Z14ProgramCtxCtorP12SyntacticCtxPK7Program:
.LASANPC2270:
.LFB2270:
	.file 1 "./SyntacticCtx/SyntacticCtx.cpp"
	.loc 1 9 5
	.cfi_startproc
	endbr64
	pushq	%rbp
	.cfi_def_cfa_offset 16
	.cfi_offset 6, -16
	movq	%rsp, %rbp
	.cfi_def_cfa_register 6
	pushq	%rbx
	subq	$56, %rsp
	.cfi_offset 3, -24
	movq	%rdi, -56(%rbp)
	movq	%rsi, -64(%rbp)
	.loc 1 10 10
	cmpq	$0, -56(%rbp)
	jne	.L2
	.loc 1 10 43 discriminator 1
	call	_ZN6Logger11getInstanceEv@PLT
	movq	%rax, %rcx
	.loc 1 10 49 discriminator 1
	leaq	.LC14(%rip), %rax
	movq	%rax, %rdx
	leaq	.LC15(%rip), %rax
	movq	%rax, %rsi
	movq	%rcx, %rdi
	movl	$0, %eax
	call	_ZN6Logger3logEPKcz@PLT
	.loc 1 10 105 discriminator 1
	leaq	.LC14(%rip), %rax
	movq	%rax, %rsi
	leaq	.LC16(%rip), %rax
	movq	%rax, %rdi
	movl	$0, %eax
	call	printf@PLT
	.loc 1 10 249 discriminator 1
	call	_ZN6Logger11getInstanceEv@PLT
	movq	%rax, %rdi
	.loc 1 10 255 discriminator 1
	leaq	.LC17(%rip), %r8
	movl	$10, %ecx
	leaq	.LC18(%rip), %rax
	movq	%rax, %rdx
	leaq	.LC19(%rip), %rax
	movq	%rax, %rsi
	movl	$0, %eax
	call	_ZN6Logger3logEPKcz@PLT
	.loc 1 10 350 discriminator 1
	leaq	.LC17(%rip), %rax
	movq	%rax, %rcx
	movl	$10, %edx
	leaq	.LC18(%rip), %rax
	movq	%rax, %rsi
	leaq	.LC19(%rip), %rax
	movq	%rax, %rdi
	movl	$0, %eax
	call	printf@PLT
	.loc 1 10 458 discriminator 1
	call	_ZN6Logger11getInstanceEv@PLT
	movq	%rax, %rbx
	.loc 1 10 464 discriminator 1
	movl	$14, %edi
	call	strerror@PLT
	movq	%rax, %rcx
	movl	$14, %edx
	leaq	.LC20(%rip), %rax
	movq	%rax, %rsi
	movq	%rbx, %rdi
	movl	$0, %eax
	call	_ZN6Logger3logEPKcz@PLT
	.loc 1 10 27 discriminator 1
	call	_ZN6Logger11getInstanceEv@PLT
	movq	%rax, %rdi
	.loc 1 10 33 discriminator 1
	movl	$10, %ecx
	leaq	.LC21(%rip), %rax
	movq	%rax, %rdx
	leaq	.LC22(%rip), %rax
	movq	%rax, %rsi
	movl	$0, %eax
	call	_ZN6Logger3logEPKcz@PLT
	.loc 1 10 91 discriminator 1
	leaq	.LC23(%rip), %rax
	movq	%rax, %rdi
	call	system@PLT
	.loc 1 10 114 discriminator 1
	movl	$-2, %eax
	jmp	.L3
.L2:
	.loc 1 11 10
	cmpq	$0, -64(%rbp)
	jne	.L4
	.loc 1 11 47 discriminator 1
	call	_ZN6Logger11getInstanceEv@PLT
	movq	%rax, %rcx
	.loc 1 11 53 discriminator 1
	leaq	.LC24(%rip), %rax
	movq	%rax, %rdx
	leaq	.LC15(%rip), %rax
	movq	%rax, %rsi
	movq	%rcx, %rdi
	movl	$0, %eax
	call	_ZN6Logger3logEPKcz@PLT
	.loc 1 11 113 discriminator 1
	leaq	.LC24(%rip), %rax
	movq	%rax, %rsi
	leaq	.LC16(%rip), %rax
	movq	%rax, %rdi
	movl	$0, %eax
	call	printf@PLT
	.loc 1 11 261 discriminator 1
	call	_ZN6Logger11getInstanceEv@PLT
	movq	%rax, %rdi
	.loc 1 11 267 discriminator 1
	leaq	.LC17(%rip), %r8
	movl	$11, %ecx
	leaq	.LC18(%rip), %rax
	movq	%rax, %rdx
	leaq	.LC19(%rip), %rax
	movq	%rax, %rsi
	movl	$0, %eax
	call	_ZN6Logger3logEPKcz@PLT
	.loc 1 11 362 discriminator 1
	leaq	.LC17(%rip), %rax
	movq	%rax, %rcx
	movl	$11, %edx
	leaq	.LC18(%rip), %rax
	movq	%rax, %rsi
	leaq	.LC19(%rip), %rax
	movq	%rax, %rdi
	movl	$0, %eax
	call	printf@PLT
	.loc 1 11 470 discriminator 1
	call	_ZN6Logger11getInstanceEv@PLT
	movq	%rax, %rbx
	.loc 1 11 476 discriminator 1
	movl	$14, %edi
	call	strerror@PLT
	movq	%rax, %rcx
	movl	$14, %edx
	leaq	.LC20(%rip), %rax
	movq	%rax, %rsi
	movq	%rbx, %rdi
	movl	$0, %eax
	call	_ZN6Logger3logEPKcz@PLT
	.loc 1 11 27 discriminator 1
	call	_ZN6Logger11getInstanceEv@PLT
	movq	%rax, %rdi
	.loc 1 11 33 discriminator 1
	movl	$11, %ecx
	leaq	.LC21(%rip), %rax
	movq	%rax, %rdx
	leaq	.LC22(%rip), %rax
	movq	%rax, %rsi
	movl	$0, %eax
	call	_ZN6Logger3logEPKcz@PLT
	.loc 1 11 91 discriminator 1
	leaq	.LC23(%rip), %rax
	movq	%rax, %rdi
	call	system@PLT
	.loc 1 11 114 discriminator 1
	movl	$-2, %eax
	jmp	.L3
.L4:
	.loc 1 13 67
	call	_ZN6Logger11getInstanceEv@PLT
	movq	%rax, %rdi
	.loc 1 13 78
	movl	$13, %r9d
	leaq	.LC21(%rip), %r8
	leaq	.LC18(%rip), %rax
	movq	%rax, %rcx
	movl	$56, %edx
	movl	$1, %esi
	call	_ZN6Logger7CAL_LOGEmmPKcS1_i@PLT
	movq	%rax, -40(%rbp)
	.loc 1 14 5
	cmpq	$0, -40(%rbp)
	jne	.L5
	.loc 1 15 16
	movl	$-1, %eax
	jmp	.L3
.L5:
	.loc 1 17 20
	movq	-40(%rbp), %rax
	movl	$5, %esi
	movq	%rax, %rdi
	call	_Z14SuperStackCtorP10SuperStackm@PLT
	.loc 1 19 42
	call	_Z12NewFuncTabelv@PLT
	movq	%rax, -32(%rbp)
	.loc 1 20 5
	cmpq	$0, -32(%rbp)
	jne	.L6
	.loc 1 22 24
	movq	-40(%rbp), %rax
	movq	%rax, %rdi
	call	_Z14SuperStackDtorP10SuperStack@PLT
	.loc 1 23 28
	call	_ZN6Logger11getInstanceEv@PLT
	movq	%rax, %rdi
	.loc 1 23 40
	movq	-40(%rbp), %rax
	movl	$23, %r8d
	leaq	.LC21(%rip), %rdx
	movq	%rdx, %rcx
	leaq	.LC18(%rip), %rdx
	movq	%rax, %rsi
	call	_ZN6Logger8FREE_LOGEPvPKcS2_i@PLT
	.loc 1 25 16
	movl	$-1, %eax
	jmp	.L3
.L6:
	.loc 1 28 45
	call	_Z11NewVarTabelv@PLT
	movq	%rax, -24(%rbp)
	.loc 1 29 5
	cmpq	$0, -24(%rbp)
	jne	.L7
	.loc 1 31 24
	movq	-40(%rbp), %rax
	movq	%rax, %rdi
	call	_Z14SuperStackDtorP10SuperStack@PLT
	.loc 1 32 28
	call	_ZN6Logger11getInstanceEv@PLT
	movq	%rax, %rdi
	.loc 1 32 40
	movq	-40(%rbp), %rax
	movl	$32, %r8d
	leaq	.LC21(%rip), %rdx
	movq	%rdx, %rcx
	leaq	.LC18(%rip), %rdx
	movq	%rax, %rsi
	call	_ZN6Logger8FREE_LOGEPvPKcS2_i@PLT
	.loc 1 34 23
	movq	-32(%rbp), %rax
	movq	%rax, %rdi
	call	_Z14CloseFuncTabelP9FuncTabel@PLT
	.loc 1 36 16
	movl	$-1, %eax
	jmp	.L3
.L7:
	.loc 1 39 12
	movq	-24(%rbp), %rdx
	movq	-40(%rbp), %rax
	movq	%rdx, %rsi
	movq	%rax, %rdi
	call	_Z6SSpushP10SuperStackP8VarTabel@PLT
	.loc 1 41 18
	movq	-56(%rbp), %rax
	movq	%rax, %rdx
	shrq	$3, %rdx
	addq	$2147450880, %rdx
	movzbl	(%rdx), %edx
	testb	%dl, %dl
	je	.L8
	movq	%rax, %rdi
	call	__asan_report_store8@PLT
.L8:
	movq	-56(%rbp), %rax
	movq	-64(%rbp), %rdx
	movq	%rdx, (%rax)
	.loc 1 43 19
	movq	-56(%rbp), %rax
	addq	$8, %rax
	movq	%rax, %rdx
	movq	%rdx, %rax
	shrq	$3, %rax
	addq	$2147450880, %rax
	movzbl	(%rax), %eax
	testb	%al, %al
	setne	%cl
	cmpb	$3, %al
	setle	%al
	andl	%ecx, %eax
	testb	%al, %al
	je	.L9
	movq	%rdx, %rdi
	call	__asan_report_store4@PLT
.L9:
	movq	-56(%rbp), %rax
	movl	$0, 8(%rax)
	.loc 1 44 29
	movq	-56(%rbp), %rax
	addq	$12, %rax
	movq	%rax, %rdx
	shrq	$3, %rdx
	addq	$2147450880, %rdx
	movzbl	(%rdx), %edx
	testb	%dl, %dl
	setne	%sil
	movq	%rax, %rcx
	andl	$7, %ecx
	addl	$3, %ecx
	cmpb	%dl, %cl
	setge	%dl
	andl	%esi, %edx
	testb	%dl, %dl
	je	.L10
	movq	%rax, %rdi
	call	__asan_report_store4@PLT
.L10:
	movq	-56(%rbp), %rax
	movl	$0, 12(%rax)
	.loc 1 45 22
	movq	-56(%rbp), %rax
	addq	$16, %rax
	movq	%rax, %rdx
	shrq	$3, %rdx
	addq	$2147450880, %rdx
	movzbl	(%rdx), %edx
	testb	%dl, %dl
	je	.L11
	movq	%rax, %rdi
	call	__asan_report_store8@PLT
.L11:
	movq	-56(%rbp), %rax
	movq	-32(%rbp), %rdx
	movq	%rdx, 16(%rax)
	.loc 1 46 22
	movq	-56(%rbp), %rax
	addq	$24, %rax
	movq	%rax, %rdx
	shrq	$3, %rdx
	addq	$2147450880, %rdx
	movzbl	(%rdx), %edx
	testb	%dl, %dl
	je	.L12
	movq	%rax, %rdi
	call	__asan_report_store8@PLT
.L12:
	movq	-56(%rbp), %rax
	movq	-24(%rbp), %rdx
	movq	%rdx, 24(%rax)
	.loc 1 47 25
	movq	-56(%rbp), %rax
	addq	$32, %rax
	movq	%rax, %rdx
	shrq	$3, %rdx
	addq	$2147450880, %rdx
	movzbl	(%rdx), %edx
	testb	%dl, %dl
	je	.L13
	movq	%rax, %rdi
	call	__asan_report_store8@PLT
.L13:
	movq	-56(%rbp), %rax
	movq	-40(%rbp), %rdx
	movq	%rdx, 32(%rax)
	.loc 1 49 12
	movl	$0, %eax
.L3:
	.loc 1 50 5
	movq	-8(%rbp), %rbx
	leave
	.cfi_def_cfa 7, 8
	ret
	.cfi_endproc
.LFE2270:
	.size	_Z14ProgramCtxCtorP12SyntacticCtxPK7Program, .-_Z14ProgramCtxCtorP12SyntacticCtxPK7Program
	.section	.rodata
	.align 32
.LC25:
	.string	"int ProgramCtxDtor(SyntacticCtx*)"
	.zero	62
	.align 32
.LC26:
	.string	"ProgramCtxDtor"
	.zero	49
	.text
	.globl	_Z14ProgramCtxDtorP12SyntacticCtx
	.type	_Z14ProgramCtxDtorP12SyntacticCtx, @function
_Z14ProgramCtxDtorP12SyntacticCtx:
.LASANPC2271:
.LFB2271:
	.loc 1 53 5
	.cfi_startproc
	endbr64
	pushq	%rbp
	.cfi_def_cfa_offset 16
	.cfi_offset 6, -16
	movq	%rsp, %rbp
	.cfi_def_cfa_register 6
	pushq	%rbx
	subq	$24, %rsp
	.cfi_offset 3, -24
	movq	%rdi, -24(%rbp)
	.loc 1 54 10
	cmpq	$0, -24(%rbp)
	jne	.L15
	.loc 1 54 43 discriminator 1
	call	_ZN6Logger11getInstanceEv@PLT
	movq	%rax, %rcx
	.loc 1 54 49 discriminator 1
	leaq	.LC14(%rip), %rax
	movq	%rax, %rdx
	leaq	.LC15(%rip), %rax
	movq	%rax, %rsi
	movq	%rcx, %rdi
	movl	$0, %eax
	call	_ZN6Logger3logEPKcz@PLT
	.loc 1 54 105 discriminator 1
	leaq	.LC14(%rip), %rax
	movq	%rax, %rsi
	leaq	.LC16(%rip), %rax
	movq	%rax, %rdi
	movl	$0, %eax
	call	printf@PLT
	.loc 1 54 249 discriminator 1
	call	_ZN6Logger11getInstanceEv@PLT
	movq	%rax, %rdi
	.loc 1 54 255 discriminator 1
	leaq	.LC25(%rip), %r8
	movl	$54, %ecx
	leaq	.LC18(%rip), %rax
	movq	%rax, %rdx
	leaq	.LC19(%rip), %rax
	movq	%rax, %rsi
	movl	$0, %eax
	call	_ZN6Logger3logEPKcz@PLT
	.loc 1 54 350 discriminator 1
	leaq	.LC25(%rip), %rax
	movq	%rax, %rcx
	movl	$54, %edx
	leaq	.LC18(%rip), %rax
	movq	%rax, %rsi
	leaq	.LC19(%rip), %rax
	movq	%rax, %rdi
	movl	$0, %eax
	call	printf@PLT
	.loc 1 54 458 discriminator 1
	call	_ZN6Logger11getInstanceEv@PLT
	movq	%rax, %rbx
	.loc 1 54 464 discriminator 1
	movl	$14, %edi
	call	strerror@PLT
	movq	%rax, %rcx
	movl	$14, %edx
	leaq	.LC20(%rip), %rax
	movq	%rax, %rsi
	movq	%rbx, %rdi
	movl	$0, %eax
	call	_ZN6Logger3logEPKcz@PLT
	.loc 1 54 27 discriminator 1
	call	_ZN6Logger11getInstanceEv@PLT
	movq	%rax, %rdi
	.loc 1 54 33 discriminator 1
	movl	$54, %ecx
	leaq	.LC26(%rip), %rax
	movq	%rax, %rdx
	leaq	.LC22(%rip), %rax
	movq	%rax, %rsi
	movl	$0, %eax
	call	_ZN6Logger3logEPKcz@PLT
	.loc 1 54 91 discriminator 1
	leaq	.LC23(%rip), %rax
	movq	%rax, %rdi
	call	system@PLT
	.loc 1 54 114 discriminator 1
	movl	$-2, %eax
	jmp	.L16
.L15:
	.loc 1 56 20
	movq	-24(%rbp), %rax
	addq	$32, %rax
	movq	%rax, %rdx
	shrq	$3, %rdx
	addq	$2147450880, %rdx
	movzbl	(%rdx), %edx
	testb	%dl, %dl
	je	.L17
	movq	%rax, %rdi
	call	__asan_report_load8@PLT
.L17:
	movq	-24(%rbp), %rax
	movq	32(%rax), %rax
	movq	%rax, %rdi
	call	_Z14SuperStackDtorP10SuperStack@PLT
	.loc 1 57 24
	call	_ZN6Logger11getInstanceEv@PLT
	movq	%rax, %rdi
	.loc 1 57 42
	movq	-24(%rbp), %rax
	addq	$32, %rax
	movq	%rax, %rdx
	shrq	$3, %rdx
	addq	$2147450880, %rdx
	movzbl	(%rdx), %edx
	testb	%dl, %dl
	je	.L18
	movq	%rax, %rdi
	call	__asan_report_load8@PLT
.L18:
	movq	-24(%rbp), %rax
	movq	32(%rax), %rax
	.loc 1 57 36
	movl	$57, %r8d
	leaq	.LC26(%rip), %rdx
	movq	%rdx, %rcx
	leaq	.LC18(%rip), %rdx
	movq	%rax, %rsi
	call	_ZN6Logger8FREE_LOGEPvPKcS2_i@PLT
	.loc 1 59 19
	movq	-24(%rbp), %rax
	addq	$24, %rax
	movq	%rax, %rdx
	shrq	$3, %rdx
	addq	$2147450880, %rdx
	movzbl	(%rdx), %edx
	testb	%dl, %dl
	je	.L19
	movq	%rax, %rdi
	call	__asan_report_load8@PLT
.L19:
	movq	-24(%rbp), %rax
	movq	24(%rax), %rax
	movq	%rax, %rdi
	call	_Z13CloseVarTabelP8VarTabel@PLT
	.loc 1 60 19
	movq	-24(%rbp), %rax
	addq	$16, %rax
	movq	%rax, %rdx
	shrq	$3, %rdx
	addq	$2147450880, %rdx
	movzbl	(%rdx), %edx
	testb	%dl, %dl
	je	.L20
	movq	%rax, %rdi
	call	__asan_report_load8@PLT
.L20:
	movq	-24(%rbp), %rax
	movq	16(%rax), %rax
	movq	%rax, %rdi
	call	_Z14CloseFuncTabelP9FuncTabel@PLT
	.loc 1 62 12
	movl	$0, %eax
.L16:
	.loc 1 63 5
	movq	-8(%rbp), %rbx
	leave
	.cfi_def_cfa 7, 8
	ret
	.cfi_endproc
.LFE2271:
	.size	_Z14ProgramCtxDtorP12SyntacticCtx, .-_Z14ProgramCtxDtorP12SyntacticCtx
	.section	.rodata
	.align 32
.LC27:
	.string	"var_tabels"
	.zero	53
	.align 32
.LC28:
	.string	"VarLabel* GetVarLabel(int, SuperStack*)"
	.zero	56
	.align 32
.LC29:
	.string	"GetVarLabel"
	.zero	52
	.align 32
.LC30:
	.string	"Returnig null ptr (%s:%d, %s)"
	.zero	34
	.align 32
.LC31:
	.string	"\t%s: "
	.zero	58
	.align 32
.LC32:
	.string	"Empty var tabels stk"
	.zero	43
	.align 32
.LC33:
	.string	" (%s:%d)\n"
	.zero	54
	.text
	.globl	_Z11GetVarLabeliP10SuperStack
	.type	_Z11GetVarLabeliP10SuperStack, @function
_Z11GetVarLabeliP10SuperStack:
.LASANPC2272:
.LFB2272:
	.loc 1 66 5
	.cfi_startproc
	endbr64
	pushq	%rbp
	.cfi_def_cfa_offset 16
	.cfi_offset 6, -16
	movq	%rsp, %rbp
	.cfi_def_cfa_register 6
	pushq	%rbx
	subq	$56, %rsp
	.cfi_offset 3, -24
	movl	%edi, -52(%rbp)
	movq	%rsi, -64(%rbp)
	.loc 1 67 10
	cmpq	$0, -64(%rbp)
	jne	.L22
	.loc 1 67 50 discriminator 1
	call	_ZN6Logger11getInstanceEv@PLT
	movq	%rax, %rcx
	.loc 1 67 56 discriminator 1
	leaq	.LC27(%rip), %rax
	movq	%rax, %rdx
	leaq	.LC15(%rip), %rax
	movq	%rax, %rsi
	movq	%rcx, %rdi
	movl	$0, %eax
	call	_ZN6Logger3logEPKcz@PLT
	.loc 1 67 119 discriminator 1
	leaq	.LC27(%rip), %rax
	movq	%rax, %rsi
	leaq	.LC16(%rip), %rax
	movq	%rax, %rdi
	movl	$0, %eax
	call	printf@PLT
	.loc 1 67 270 discriminator 1
	call	_ZN6Logger11getInstanceEv@PLT
	movq	%rax, %rdi
	.loc 1 67 276 discriminator 1
	leaq	.LC28(%rip), %r8
	movl	$67, %ecx
	leaq	.LC18(%rip), %rax
	movq	%rax, %rdx
	leaq	.LC19(%rip), %rax
	movq	%rax, %rsi
	movl	$0, %eax
	call	_ZN6Logger3logEPKcz@PLT
	.loc 1 67 371 discriminator 1
	leaq	.LC28(%rip), %rax
	movq	%rax, %rcx
	movl	$67, %edx
	leaq	.LC18(%rip), %rax
	movq	%rax, %rsi
	leaq	.LC19(%rip), %rax
	movq	%rax, %rdi
	movl	$0, %eax
	call	printf@PLT
	.loc 1 67 479 discriminator 1
	call	_ZN6Logger11getInstanceEv@PLT
	movq	%rax, %rbx
	.loc 1 67 485 discriminator 1
	movl	$14, %edi
	call	strerror@PLT
	movq	%rax, %rcx
	movl	$14, %edx
	leaq	.LC20(%rip), %rax
	movq	%rax, %rsi
	movq	%rbx, %rdi
	movl	$0, %eax
	call	_ZN6Logger3logEPKcz@PLT
	.loc 1 67 27 discriminator 1
	call	_ZN6Logger11getInstanceEv@PLT
	movq	%rax, %rdi
	.loc 1 67 33 discriminator 1
	movl	$67, %ecx
	leaq	.LC29(%rip), %rax
	movq	%rax, %rdx
	leaq	.LC22(%rip), %rax
	movq	%rax, %rsi
	movl	$0, %eax
	call	_ZN6Logger3logEPKcz@PLT
	.loc 1 67 91 discriminator 1
	leaq	.LC23(%rip), %rax
	movq	%rax, %rdi
	call	system@PLT
	.loc 1 67 133 discriminator 1
	call	_ZN6Logger11getInstanceEv@PLT
	movq	%rax, %rdi
	.loc 1 67 149 discriminator 1
	leaq	.LC29(%rip), %r8
	movl	$67, %ecx
	leaq	.LC18(%rip), %rax
	movq	%rax, %rdx
	leaq	.LC30(%rip), %rax
	movq	%rax, %rsi
	movl	$0, %eax
	call	_ZN6Logger13LogMsgNullRetEPKcz@PLT
	.loc 1 67 230 discriminator 1
	movl	$0, %eax
	jmp	.L23
.L22:
	.loc 1 73 36
	movq	-64(%rbp), %rax
	movq	%rax, %rdi
	call	_Z11StackGetTopP10SuperStack@PLT
	movq	%rax, -40(%rbp)
	.loc 1 74 5
	cmpq	$0, -40(%rbp)
	jns	.L24
	.loc 1 75 17
	leaq	.LC29(%rip), %rax
	movq	%rax, %rsi
	leaq	.LC31(%rip), %rax
	movq	%rax, %rdi
	movl	$0, %eax
	call	printf@PLT
	.loc 1 75 45
	leaq	.LC32(%rip), %rax
	movq	%rax, %rdi
	call	puts@PLT
	.loc 1 75 79
	movl	$75, %edx
	leaq	.LC18(%rip), %rax
	movq	%rax, %rsi
	leaq	.LC33(%rip), %rax
	movq	%rax, %rdi
	movl	$0, %eax
	call	printf@PLT
.L24:
.LBB2:
	.loc 1 77 18
	movq	-40(%rbp), %rax
	movq	%rax, -48(%rbp)
	.loc 1 77 5
	jmp	.L25
.L27:
.LBB3:
	.loc 1 79 37
	movq	-48(%rbp), %rdx
	movq	-64(%rbp), %rax
	movq	%rdx, %rsi
	movq	%rax, %rdi
	call	_Z9StackLookP10SuperStackl@PLT
	movq	%rax, -32(%rbp)
	.loc 1 81 36
	movq	-32(%rbp), %rdx
	movl	-52(%rbp), %eax
	movq	%rdx, %rsi
	movl	%eax, %edi
	call	_Z10IsVarLabeliP8VarTabel@PLT
	movq	%rax, -24(%rbp)
	.loc 1 83 9
	cmpq	$0, -24(%rbp)
	je	.L26
	.loc 1 84 20
	movq	-24(%rbp), %rax
	jmp	.L23
.L26:
.LBE3:
	.loc 1 77 5 discriminator 2
	subq	$1, -48(%rbp)
.L25:
	.loc 1 77 35 discriminator 1
	cmpq	$0, -48(%rbp)
	jns	.L27
.LBE2:
	.loc 1 87 11
	movl	$0, %eax
.L23:
	.loc 1 88 5
	movq	-8(%rbp), %rbx
	leave
	.cfi_def_cfa 7, 8
	ret
	.cfi_endproc
.LFE2272:
	.size	_Z11GetVarLabeliP10SuperStack, .-_Z11GetVarLabeliP10SuperStack
	.section	.rodata
	.align 32
.LC34:
	.string	"table"
	.zero	58
	.align 32
.LC35:
	.string	"int CheckForMainAndDeclaration(const FuncTabel*, const char**, int)"
	.zero	60
	.align 32
.LC36:
	.string	"CheckForMainAndDeclaration"
	.zero	37
	.align 32
.LC37:
	.string	"\033[91mERROR: No '%s' in string_arr (%p, number %d)\n\033[0m"
	.zero	41
	.align 32
.LC38:
	.string	"\033[91mNull func label (position %zu)\n\033[0m"
	.zero	55
	.align 32
.LC39:
	.string	"\033[91mERORR '%s' function wasn't declared\n\033[0m"
	.zero	50
	.align 32
.LC40:
	.string	"\033[91mERROR, no main in program!\n\033[0m"
	.zero	59
	.text
	.globl	_Z26CheckForMainAndDeclarationPK9FuncTabelPPKci
	.type	_Z26CheckForMainAndDeclarationPK9FuncTabelPPKci, @function
_Z26CheckForMainAndDeclarationPK9FuncTabelPPKci:
.LASANPC2273:
.LFB2273:
	.loc 1 91 5
	.cfi_startproc
	endbr64
	pushq	%rbp
	.cfi_def_cfa_offset 16
	.cfi_offset 6, -16
	movq	%rsp, %rbp
	.cfi_def_cfa_register 6
	pushq	%rbx
	subq	$72, %rsp
	.cfi_offset 3, -24
	movq	%rdi, -56(%rbp)
	movq	%rsi, -64(%rbp)
	movl	%edx, -68(%rbp)
	.loc 1 92 10
	cmpq	$0, -56(%rbp)
	jne	.L29
	.loc 1 92 45 discriminator 1
	call	_ZN6Logger11getInstanceEv@PLT
	movq	%rax, %rcx
	.loc 1 92 51 discriminator 1
	leaq	.LC34(%rip), %rax
	movq	%rax, %rdx
	leaq	.LC15(%rip), %rax
	movq	%rax, %rsi
	movq	%rcx, %rdi
	movl	$0, %eax
	call	_ZN6Logger3logEPKcz@PLT
	.loc 1 92 109 discriminator 1
	leaq	.LC34(%rip), %rax
	movq	%rax, %rsi
	leaq	.LC16(%rip), %rax
	movq	%rax, %rdi
	movl	$0, %eax
	call	printf@PLT
	.loc 1 92 255 discriminator 1
	call	_ZN6Logger11getInstanceEv@PLT
	movq	%rax, %rdi
	.loc 1 92 261 discriminator 1
	leaq	.LC35(%rip), %r8
	movl	$92, %ecx
	leaq	.LC18(%rip), %rax
	movq	%rax, %rdx
	leaq	.LC19(%rip), %rax
	movq	%rax, %rsi
	movl	$0, %eax
	call	_ZN6Logger3logEPKcz@PLT
	.loc 1 92 356 discriminator 1
	leaq	.LC35(%rip), %rax
	movq	%rax, %rcx
	movl	$92, %edx
	leaq	.LC18(%rip), %rax
	movq	%rax, %rsi
	leaq	.LC19(%rip), %rax
	movq	%rax, %rdi
	movl	$0, %eax
	call	printf@PLT
	.loc 1 92 464 discriminator 1
	call	_ZN6Logger11getInstanceEv@PLT
	movq	%rax, %rbx
	.loc 1 92 470 discriminator 1
	movl	$14, %edi
	call	strerror@PLT
	movq	%rax, %rcx
	movl	$14, %edx
	leaq	.LC20(%rip), %rax
	movq	%rax, %rsi
	movq	%rbx, %rdi
	movl	$0, %eax
	call	_ZN6Logger3logEPKcz@PLT
	.loc 1 92 27 discriminator 1
	call	_ZN6Logger11getInstanceEv@PLT
	movq	%rax, %rdi
	.loc 1 92 33 discriminator 1
	movl	$92, %ecx
	leaq	.LC36(%rip), %rax
	movq	%rax, %rdx
	leaq	.LC22(%rip), %rax
	movq	%rax, %rsi
	movl	$0, %eax
	call	_ZN6Logger3logEPKcz@PLT
	.loc 1 92 91 discriminator 1
	leaq	.LC23(%rip), %rax
	movq	%rax, %rdi
	call	system@PLT
	.loc 1 92 114 discriminator 1
	movl	$-2, %eax
	jmp	.L30
.L29:
	.loc 1 94 9
	movl	$-1, -44(%rbp)
	.loc 1 97 9
	movl	$-1, -40(%rbp)
.LBB4:
	.loc 1 99 14
	movl	$0, -36(%rbp)
	.loc 1 99 5
	jmp	.L31
.L35:
	.loc 1 101 44
	movl	-36(%rbp), %eax
	cltq
	.loc 1 101 45
	leaq	0(,%rax,8), %rdx
	movq	-64(%rbp), %rax
	addq	%rdx, %rax
	.loc 1 101 21
	movq	%rax, %rdx
	movq	%rdx, %rcx
	shrq	$3, %rcx
	addq	$2147450880, %rcx
	movzbl	(%rcx), %ecx
	testb	%cl, %cl
	je	.L32
	movq	%rdx, %rdi
	call	__asan_report_load8@PLT
.L32:
	movq	(%rax), %rax
	movq	%rax, %rsi
	leaq	.LC13(%rip), %rax
	movq	%rax, %rdi
	call	_Z7stricmpPKcS0_@PLT
	.loc 1 101 13
	testl	%eax, %eax
	sete	%al
	.loc 1 101 9
	testb	%al, %al
	je	.L33
	.loc 1 103 27
	movl	-36(%rbp), %eax
	movl	%eax, -40(%rbp)
	.loc 1 104 13
	jmp	.L34
.L33:
	.loc 1 99 5 discriminator 2
	addl	$1, -36(%rbp)
.L31:
	.loc 1 99 22 discriminator 1
	movl	-36(%rbp), %eax
	cmpl	-68(%rbp), %eax
	jl	.L35
.L34:
.LBE4:
	.loc 1 108 5
	cmpl	$0, -40(%rbp)
	jns	.L36
	.loc 1 110 17
	leaq	.LC36(%rip), %rax
	movq	%rax, %rsi
	leaq	.LC31(%rip), %rax
	movq	%rax, %rdi
	movl	$0, %eax
	call	printf@PLT
	.loc 1 110 45
	movl	-68(%rbp), %edx
	movq	-64(%rbp), %rax
	movl	%edx, %ecx
	movq	%rax, %rdx
	leaq	.LC13(%rip), %rax
	movq	%rax, %rsi
	leaq	.LC37(%rip), %rax
	movq	%rax, %rdi
	movl	$0, %eax
	call	printf@PLT
	.loc 1 110 166
	movl	$110, %edx
	leaq	.LC18(%rip), %rax
	movq	%rax, %rsi
	leaq	.LC33(%rip), %rax
	movq	%rax, %rdi
	movl	$0, %eax
	call	printf@PLT
	.loc 1 111 16
	movl	$-1, %eax
	jmp	.L30
.L36:
.LBB5:
	.loc 1 114 17
	movq	$0, -32(%rbp)
	.loc 1 114 5
	jmp	.L37
.L48:
.LBB6:
	.loc 1 116 36
	movq	-56(%rbp), %rax
	movq	%rax, %rdx
	shrq	$3, %rdx
	addq	$2147450880, %rdx
	movzbl	(%rdx), %edx
	testb	%dl, %dl
	je	.L38
	movq	%rax, %rdi
	call	__asan_report_load8@PLT
.L38:
	movq	-56(%rbp), %rax
	movq	(%rax), %rdx
	.loc 1 116 46
	movq	-32(%rbp), %rax
	salq	$3, %rax
	addq	%rdx, %rax
	.loc 1 116 20
	movq	%rax, %rdx
	movq	%rdx, %rcx
	shrq	$3, %rcx
	addq	$2147450880, %rcx
	movzbl	(%rcx), %ecx
	testb	%cl, %cl
	je	.L39
	movq	%rdx, %rdi
	call	__asan_report_load8@PLT
.L39:
	movq	(%rax), %rax
	movq	%rax, -24(%rbp)
	.loc 1 118 9
	cmpq	$0, -24(%rbp)
	jne	.L40
	.loc 1 120 21
	leaq	.LC36(%rip), %rax
	movq	%rax, %rsi
	leaq	.LC31(%rip), %rax
	movq	%rax, %rdi
	movl	$0, %eax
	call	printf@PLT
	.loc 1 120 49
	movq	-32(%rbp), %rax
	movq	%rax, %rsi
	leaq	.LC38(%rip), %rax
	movq	%rax, %rdi
	movl	$0, %eax
	call	printf@PLT
	.loc 1 120 117
	movl	$120, %edx
	leaq	.LC18(%rip), %rax
	movq	%rax, %rsi
	leaq	.LC33(%rip), %rax
	movq	%rax, %rdi
	movl	$0, %eax
	call	printf@PLT
	.loc 1 121 20
	movl	$-1, %eax
	jmp	.L30
.L40:
	.loc 1 124 19
	movq	-24(%rbp), %rax
	addq	$8, %rax
	movq	%rax, %rdx
	movq	%rdx, %rax
	shrq	$3, %rax
	addq	$2147450880, %rax
	movzbl	(%rax), %eax
	testb	%al, %al
	setne	%cl
	cmpb	$3, %al
	setle	%al
	andl	%ecx, %eax
	testb	%al, %al
	je	.L41
	movq	%rdx, %rdi
	call	__asan_report_load4@PLT
.L41:
	movq	-24(%rbp), %rax
	movl	8(%rax), %eax
	.loc 1 124 9
	testl	%eax, %eax
	je	.L42
	.loc 1 126 21
	leaq	.LC36(%rip), %rax
	movq	%rax, %rsi
	leaq	.LC31(%rip), %rax
	movq	%rax, %rdi
	movl	$0, %eax
	call	printf@PLT
	.loc 1 126 129
	movq	-24(%rbp), %rax
	movq	%rax, %rdx
	movq	%rdx, %rax
	shrq	$3, %rax
	addq	$2147450880, %rax
	movzbl	(%rax), %eax
	testb	%al, %al
	setne	%cl
	cmpb	$3, %al
	setle	%al
	andl	%ecx, %eax
	testb	%al, %al
	je	.L43
	movq	%rdx, %rdi
	call	__asan_report_load4@PLT
.L43:
	movq	-24(%rbp), %rax
	movl	(%rax), %eax
	cltq
	.loc 1 126 133
	leaq	0(,%rax,8), %rdx
	movq	-64(%rbp), %rax
	addq	%rdx, %rax
	.loc 1 126 49
	movq	%rax, %rdx
	movq	%rdx, %rcx
	shrq	$3, %rcx
	addq	$2147450880, %rcx
	movzbl	(%rcx), %ecx
	testb	%cl, %cl
	je	.L44
	movq	%rdx, %rdi
	call	__asan_report_load8@PLT
.L44:
	movq	(%rax), %rax
	movq	%rax, %rsi
	leaq	.LC39(%rip), %rax
	movq	%rax, %rdi
	movl	$0, %eax
	call	printf@PLT
	.loc 1 126 143
	movl	$126, %edx
	leaq	.LC18(%rip), %rax
	movq	%rax, %rsi
	leaq	.LC33(%rip), %rax
	movq	%rax, %rdi
	movl	$0, %eax
	call	printf@PLT
	.loc 1 127 20
	movl	$-1, %eax
	jmp	.L30
.L42:
	.loc 1 130 19
	movq	-24(%rbp), %rax
	movq	%rax, %rdx
	movq	%rdx, %rax
	shrq	$3, %rax
	addq	$2147450880, %rax
	movzbl	(%rax), %eax
	testb	%al, %al
	setne	%cl
	cmpb	$3, %al
	setle	%al
	andl	%ecx, %eax
	testb	%al, %al
	je	.L45
	movq	%rdx, %rdi
	call	__asan_report_load4@PLT
.L45:
	movq	-24(%rbp), %rax
	movl	(%rax), %eax
	.loc 1 130 9
	cmpl	%eax, -40(%rbp)
	jne	.L46
	.loc 1 131 23
	movl	$0, -44(%rbp)
.L46:
.LBE6:
	.loc 1 114 5 discriminator 2
	addq	$1, -32(%rbp)
.L37:
	.loc 1 114 35 discriminator 1
	movq	-56(%rbp), %rax
	addq	$16, %rax
	movq	%rax, %rdx
	shrq	$3, %rdx
	addq	$2147450880, %rdx
	movzbl	(%rdx), %edx
	testb	%dl, %dl
	je	.L47
	.loc 1 114 35 is_stmt 0
	movq	%rax, %rdi
	call	__asan_report_load8@PLT
.L47:
	.loc 1 114 35 discriminator 1
	movq	-56(%rbp), %rax
	movq	16(%rax), %rax
	.loc 1 114 26 is_stmt 1 discriminator 1
	cmpq	%rax, -32(%rbp)
	jb	.L48
.LBE5:
	.loc 1 134 5
	cmpl	$-1, -44(%rbp)
	jne	.L49
	.loc 1 135 17
	leaq	.LC36(%rip), %rax
	movq	%rax, %rsi
	leaq	.LC31(%rip), %rax
	movq	%rax, %rdi
	movl	$0, %eax
	call	printf@PLT
	.loc 1 135 45
	leaq	.LC40(%rip), %rax
	movq	%rax, %rdi
	movl	$0, %eax
	call	printf@PLT
	.loc 1 135 106
	movl	$135, %edx
	leaq	.LC18(%rip), %rax
	movq	%rax, %rsi
	leaq	.LC33(%rip), %rax
	movq	%rax, %rdi
	movl	$0, %eax
	call	printf@PLT
.L49:
	.loc 1 137 12
	movl	-44(%rbp), %eax
.L30:
	.loc 1 138 5
	movq	-8(%rbp), %rbx
	leave
	.cfi_def_cfa 7, 8
	ret
	.cfi_endproc
.LFE2273:
	.size	_Z26CheckForMainAndDeclarationPK9FuncTabelPPKci, .-_Z26CheckForMainAndDeclarationPK9FuncTabelPPKci
	.type	_Z41__static_initialization_and_destruction_0ii, @function
_Z41__static_initialization_and_destruction_0ii:
.LASANPC2940:
.LFB2940:
	.loc 1 138 5
	.cfi_startproc
	endbr64
	pushq	%rbp
	.cfi_def_cfa_offset 16
	.cfi_offset 6, -16
	movq	%rsp, %rbp
	.cfi_def_cfa_register 6
	subq	$16, %rsp
	movl	%edi, -4(%rbp)
	movl	%esi, -8(%rbp)
	.loc 1 138 5
	cmpl	$1, -4(%rbp)
	jne	.L53
	.loc 1 138 5 is_stmt 0 discriminator 1
	leaq	.LC18(%rip), %rax
	movq	%rax, %rdi
	call	__asan_before_dynamic_init@PLT
	cmpl	$65535, -8(%rbp)
	jne	.L52
	.file 2 "/usr/include/c++/11/iostream"
	.loc 2 74 25 is_stmt 1
	leaq	_ZStL8__ioinit(%rip), %rax
	movq	%rax, %rdi
	call	_ZNSt8ios_base4InitC1Ev@PLT
	leaq	__dso_handle(%rip), %rax
	movq	%rax, %rdx
	leaq	_ZStL8__ioinit(%rip), %rax
	movq	%rax, %rsi
	movq	_ZNSt8ios_base4InitD1Ev@GOTPCREL(%rip), %rax
	movq	%rax, %rdi
	call	__cxa_atexit@PLT
.L52:
	.loc 2 74 25 is_stmt 0 discriminator 1
	call	__asan_after_dynamic_init@PLT
.L53:
	.loc 1 138 5 is_stmt 1
	nop
	leave
	.cfi_def_cfa 7, 8
	ret
	.cfi_endproc
.LFE2940:
	.size	_Z41__static_initialization_and_destruction_0ii, .-_Z41__static_initialization_and_destruction_0ii
	.type	_GLOBAL__sub_I__Z14ProgramCtxCtorP12SyntacticCtxPK7Program, @function
_GLOBAL__sub_I__Z14ProgramCtxCtorP12SyntacticCtxPK7Program:
.LASANPC2941:
.LFB2941:
	.loc 1 138 5
	.cfi_startproc
	endbr64
	pushq	%rbp
	.cfi_def_cfa_offset 16
	.cfi_offset 6, -16
	movq	%rsp, %rbp
	.cfi_def_cfa_register 6
	.loc 1 138 5
	movl	$65535, %esi
	movl	$1, %edi
	call	_Z41__static_initialization_and_destruction_0ii
	popq	%rbp
	.cfi_def_cfa 7, 8
	ret
	.cfi_endproc
.LFE2941:
	.size	_GLOBAL__sub_I__Z14ProgramCtxCtorP12SyntacticCtxPK7Program, .-_GLOBAL__sub_I__Z14ProgramCtxCtorP12SyntacticCtxPK7Program
	.section	.init_array,"aw"
	.align 8
	.quad	_GLOBAL__sub_I__Z14ProgramCtxCtorP12SyntacticCtxPK7Program
	.section	.rodata
.LC41:
	.string	"../ATC/Buffer/my_buffer.h"
	.section	.data.rel.local,"aw"
	.align 16
	.type	.LASANLOC1, @object
	.size	.LASANLOC1, 16
.LASANLOC1:
	.quad	.LC41
	.long	32
	.long	11
	.section	.rodata
	.align 8
.LC42:
	.string	"../ATC/RandomStuff/CommonEnums.h"
	.section	.data.rel.local
	.align 16
	.type	.LASANLOC2, @object
	.size	.LASANLOC2, 16
.LASANLOC2:
	.quad	.LC42
	.long	3
	.long	11
	.section	.rodata
.LC43:
	.string	"../ATC/Logger/LogConfig.h"
	.section	.data.rel.local
	.align 16
	.type	.LASANLOC3, @object
	.size	.LASANLOC3, 16
.LASANLOC3:
	.quad	.LC43
	.long	3
	.long	12
	.section	.rodata
.LC44:
	.string	"/usr/include/c++/11/iostream"
	.section	.data.rel.local
	.align 16
	.type	.LASANLOC4, @object
	.size	.LASANLOC4, 16
.LASANLOC4:
	.quad	.LC44
	.long	74
	.long	25
	.section	.rodata
.LC45:
	.string	"../Common/Grammar.h"
	.section	.data.rel.local
	.align 16
	.type	.LASANLOC5, @object
	.size	.LASANLOC5, 16
.LASANLOC5:
	.quad	.LC45
	.long	80
	.long	11
	.align 16
	.type	.LASANLOC6, @object
	.size	.LASANLOC6, 16
.LASANLOC6:
	.quad	.LC45
	.long	79
	.long	11
	.align 16
	.type	.LASANLOC7, @object
	.size	.LASANLOC7, 16
.LASANLOC7:
	.quad	.LC45
	.long	77
	.long	19
	.align 16
	.type	.LASANLOC8, @object
	.size	.LASANLOC8, 16
.LASANLOC8:
	.quad	.LC45
	.long	75
	.long	12
	.align 16
	.type	.LASANLOC9, @object
	.size	.LASANLOC9, 16
.LASANLOC9:
	.quad	.LC45
	.long	60
	.long	12
	.align 16
	.type	.LASANLOC10, @object
	.size	.LASANLOC10, 16
.LASANLOC10:
	.quad	.LC45
	.long	58
	.long	19
	.align 16
	.type	.LASANLOC11, @object
	.size	.LASANLOC11, 16
.LASANLOC11:
	.quad	.LC45
	.long	54
	.long	19
	.align 16
	.type	.LASANLOC12, @object
	.size	.LASANLOC12, 16
.LASANLOC12:
	.quad	.LC45
	.long	48
	.long	11
	.align 16
	.type	.LASANLOC13, @object
	.size	.LASANLOC13, 16
.LASANLOC13:
	.quad	.LC45
	.long	40
	.long	28
	.align 16
	.type	.LASANLOC14, @object
	.size	.LASANLOC14, 16
.LASANLOC14:
	.quad	.LC45
	.long	15
	.long	19
	.section	.rodata
.LC46:
	.string	"./SyntacticCtx/SyntacticCtx.h"
	.section	.data.rel.local
	.align 16
	.type	.LASANLOC15, @object
	.size	.LASANLOC15, 16
.LASANLOC15:
	.quad	.LC46
	.long	24
	.long	11
	.align 16
	.type	.LASANLOC16, @object
	.size	.LASANLOC16, 16
.LASANLOC16:
	.quad	.LC46
	.long	23
	.long	11
	.section	.rodata
	.align 8
.LC47:
	.string	"../ATC/SuperStack/SuperStack.h"
	.section	.data.rel.local
	.align 16
	.type	.LASANLOC17, @object
	.size	.LASANLOC17, 16
.LASANLOC17:
	.quad	.LC47
	.long	22
	.long	14
	.align 16
	.type	.LASANLOC18, @object
	.size	.LASANLOC18, 16
.LASANLOC18:
	.quad	.LC47
	.long	21
	.long	14
	.section	.rodata
.LC48:
	.string	"../ATC/my_safety/my_safety.h"
	.section	.data.rel.local
	.align 16
	.type	.LASANLOC19, @object
	.size	.LASANLOC19, 16
.LASANLOC19:
	.quad	.LC48
	.long	12
	.long	11
	.align 16
	.type	.LASANLOC20, @object
	.size	.LASANLOC20, 16
.LASANLOC20:
	.quad	.LC48
	.long	11
	.long	11
	.align 16
	.type	.LASANLOC21, @object
	.size	.LASANLOC21, 16
.LASANLOC21:
	.quad	.LC48
	.long	9
	.long	11
	.section	.rodata
	.align 8
.LC49:
	.string	"../Common/Structures/Tabels/Tabels.h"
	.section	.data.rel.local
	.align 16
	.type	.LASANLOC22, @object
	.size	.LASANLOC22, 16
.LASANLOC22:
	.quad	.LC49
	.long	11
	.long	11
	.align 16
	.type	.LASANLOC23, @object
	.size	.LASANLOC23, 16
.LASANLOC23:
	.quad	.LC49
	.long	10
	.long	11
	.section	.rodata
.LC50:
	.string	"INDENT_SIZE"
.LC51:
	.string	"CRINGE"
.LC52:
	.string	"STD_LOG_NAME"
.LC53:
	.string	"__ioinit"
.LC54:
	.string	"MAX_WORD_LENGTH"
.LC55:
	.string	"MAX_FUNCTION_NAME_LENGTH"
.LC56:
	.string	"MAIN_NAME"
.LC57:
	.string	"COMMENT"
.LC58:
	.string	"OPERATORS"
.LC59:
	.string	"FUNCTION_RET_TYPES"
.LC60:
	.string	"INITIALIZATORS"
	.align 8
.LC61:
	.string	"NUMBER_OF_NATIVE_FUNCTIONS_STRUCT"
.LC62:
	.string	"NATIVE_FUNCTIONS"
.LC63:
	.string	"INSTRUCTIONS"
	.align 8
.LC64:
	.string	"START_NUMBER_OF_VAR_TABELS_STK"
.LC65:
	.string	"GROWTH_RATE"
.LC66:
	.string	"_ELEMENT_T_SIZE_"
.LC67:
	.string	"_HEAP_MIN_CAPACITY_"
.LC68:
	.string	"_CLOSING_CANARY_"
.LC69:
	.string	"_OPENING_CANARY_"
.LC70:
	.string	"_CANARY_SIZE_"
.LC71:
	.string	"NOT_A_LABEL"
.LC72:
	.string	"NOT_DECLARED"
.LC73:
	.string	"*.LC4"
.LC74:
	.string	"*.LC39"
.LC75:
	.string	"*.LC19"
.LC76:
	.string	"*.LC31"
.LC77:
	.string	"*.LC26"
.LC78:
	.string	"*.LC25"
.LC79:
	.string	"*.LC6"
.LC80:
	.string	"*.LC11"
.LC81:
	.string	"*.LC15"
.LC82:
	.string	"*.LC5"
.LC83:
	.string	"*.LC27"
.LC84:
	.string	"*.LC24"
.LC85:
	.string	"*.LC2"
.LC86:
	.string	"*.LC12"
.LC87:
	.string	"*.LC32"
.LC88:
	.string	"*.LC40"
.LC89:
	.string	"*.LC33"
.LC90:
	.string	"*.LC10"
.LC91:
	.string	"*.LC23"
.LC92:
	.string	"*.LC36"
.LC93:
	.string	"*.LC30"
.LC94:
	.string	"*.LC3"
.LC95:
	.string	"*.LC28"
.LC96:
	.string	"*.LC21"
.LC97:
	.string	"*.LC34"
.LC98:
	.string	"*.LC7"
.LC99:
	.string	"*.LC16"
.LC100:
	.string	"*.LC37"
.LC101:
	.string	"*.LC29"
.LC102:
	.string	"*.LC20"
.LC103:
	.string	"*.LC9"
.LC104:
	.string	"*.LC35"
.LC105:
	.string	"*.LC1"
.LC106:
	.string	"*.LC22"
.LC107:
	.string	"*.LC13"
.LC108:
	.string	"*.LC14"
.LC109:
	.string	"*.LC8"
.LC110:
	.string	"*.LC38"
.LC111:
	.string	"*.LC0"
.LC112:
	.string	"*.LC17"
.LC113:
	.string	"*.LC18"
	.section	.data.rel.local
	.align 32
	.type	.LASAN0, @object
	.size	.LASAN0, 4096
.LASAN0:
	.quad	_ZL11INDENT_SIZE
	.quad	4
	.quad	64
	.quad	.LC50
	.quad	.LC18
	.quad	0
	.quad	.LASANLOC1
	.quad	0
	.quad	_ZL6CRINGE
	.quad	4
	.quad	64
	.quad	.LC51
	.quad	.LC18
	.quad	0
	.quad	.LASANLOC2
	.quad	0
	.quad	_ZL12STD_LOG_NAME
	.quad	18
	.quad	64
	.quad	.LC52
	.quad	.LC18
	.quad	0
	.quad	.LASANLOC3
	.quad	0
	.quad	_ZStL8__ioinit
	.quad	1
	.quad	64
	.quad	.LC53
	.quad	.LC18
	.quad	1
	.quad	.LASANLOC4
	.quad	0
	.quad	_ZL15MAX_WORD_LENGTH
	.quad	4
	.quad	64
	.quad	.LC54
	.quad	.LC18
	.quad	0
	.quad	.LASANLOC5
	.quad	0
	.quad	_ZL24MAX_FUNCTION_NAME_LENGTH
	.quad	4
	.quad	64
	.quad	.LC55
	.quad	.LC18
	.quad	0
	.quad	.LASANLOC6
	.quad	0
	.quad	_ZL9MAIN_NAME
	.quad	8
	.quad	64
	.quad	.LC56
	.quad	.LC18
	.quad	0
	.quad	.LASANLOC7
	.quad	0
	.quad	_ZL7COMMENT
	.quad	1
	.quad	64
	.quad	.LC57
	.quad	.LC18
	.quad	0
	.quad	.LASANLOC8
	.quad	0
	.quad	_ZL9OPERATORS
	.quad	9
	.quad	64
	.quad	.LC58
	.quad	.LC18
	.quad	0
	.quad	.LASANLOC9
	.quad	0
	.quad	_ZL18FUNCTION_RET_TYPES
	.quad	16
	.quad	64
	.quad	.LC59
	.quad	.LC18
	.quad	0
	.quad	.LASANLOC10
	.quad	0
	.quad	_ZL14INITIALIZATORS
	.quad	16
	.quad	64
	.quad	.LC60
	.quad	.LC18
	.quad	0
	.quad	.LASANLOC11
	.quad	0
	.quad	_ZL33NUMBER_OF_NATIVE_FUNCTIONS_STRUCT
	.quad	4
	.quad	64
	.quad	.LC61
	.quad	.LC18
	.quad	0
	.quad	.LASANLOC12
	.quad	0
	.quad	_ZL16NATIVE_FUNCTIONS
	.quad	80
	.quad	128
	.quad	.LC62
	.quad	.LC18
	.quad	0
	.quad	.LASANLOC13
	.quad	0
	.quad	_ZL12INSTRUCTIONS
	.quad	32
	.quad	64
	.quad	.LC63
	.quad	.LC18
	.quad	0
	.quad	.LASANLOC14
	.quad	0
	.quad	_ZL30START_NUMBER_OF_VAR_TABELS_STK
	.quad	4
	.quad	64
	.quad	.LC64
	.quad	.LC18
	.quad	0
	.quad	.LASANLOC15
	.quad	0
	.quad	_ZL11GROWTH_RATE
	.quad	4
	.quad	64
	.quad	.LC65
	.quad	.LC18
	.quad	0
	.quad	.LASANLOC16
	.quad	0
	.quad	_ZL16_ELEMENT_T_SIZE_
	.quad	8
	.quad	64
	.quad	.LC66
	.quad	.LC18
	.quad	0
	.quad	.LASANLOC17
	.quad	0
	.quad	_ZL19_HEAP_MIN_CAPACITY_
	.quad	8
	.quad	64
	.quad	.LC67
	.quad	.LC18
	.quad	0
	.quad	.LASANLOC18
	.quad	0
	.quad	_ZL16_CLOSING_CANARY_
	.quad	4
	.quad	64
	.quad	.LC68
	.quad	.LC18
	.quad	0
	.quad	.LASANLOC19
	.quad	0
	.quad	_ZL16_OPENING_CANARY_
	.quad	4
	.quad	64
	.quad	.LC69
	.quad	.LC18
	.quad	0
	.quad	.LASANLOC20
	.quad	0
	.quad	_ZL13_CANARY_SIZE_
	.quad	4
	.quad	64
	.quad	.LC70
	.quad	.LC18
	.quad	0
	.quad	.LASANLOC21
	.quad	0
	.quad	_ZL11NOT_A_LABEL
	.quad	4
	.quad	64
	.quad	.LC71
	.quad	.LC18
	.quad	0
	.quad	.LASANLOC22
	.quad	0
	.quad	_ZL12NOT_DECLARED
	.quad	4
	.quad	64
	.quad	.LC72
	.quad	.LC18
	.quad	0
	.quad	.LASANLOC23
	.quad	0
	.quad	.LC4
	.quad	5
	.quad	64
	.quad	.LC73
	.quad	.LC18
	.quad	0
	.quad	0
	.quad	0
	.quad	.LC39
	.quad	46
	.quad	96
	.quad	.LC74
	.quad	.LC18
	.quad	0
	.quad	0
	.quad	0
	.quad	.LC19
	.quad	22
	.quad	64
	.quad	.LC75
	.quad	.LC18
	.quad	0
	.quad	0
	.quad	0
	.quad	.LC31
	.quad	6
	.quad	64
	.quad	.LC76
	.quad	.LC18
	.quad	0
	.quad	0
	.quad	0
	.quad	.LC26
	.quad	15
	.quad	64
	.quad	.LC77
	.quad	.LC18
	.quad	0
	.quad	0
	.quad	0
	.quad	.LC25
	.quad	34
	.quad	96
	.quad	.LC78
	.quad	.LC18
	.quad	0
	.quad	0
	.quad	0
	.quad	.LC6
	.quad	4
	.quad	64
	.quad	.LC79
	.quad	.LC18
	.quad	0
	.quad	0
	.quad	0
	.quad	.LC11
	.quad	7
	.quad	64
	.quad	.LC80
	.quad	.LC18
	.quad	0
	.quad	0
	.quad	0
	.quad	.LC15
	.quad	37
	.quad	96
	.quad	.LC81
	.quad	.LC18
	.quad	0
	.quad	0
	.quad	0
	.quad	.LC5
	.quad	4
	.quad	64
	.quad	.LC82
	.quad	.LC18
	.quad	0
	.quad	0
	.quad	0
	.quad	.LC27
	.quad	11
	.quad	64
	.quad	.LC83
	.quad	.LC18
	.quad	0
	.quad	0
	.quad	0
	.quad	.LC24
	.quad	8
	.quad	64
	.quad	.LC84
	.quad	.LC18
	.quad	0
	.quad	0
	.quad	0
	.quad	.LC2
	.quad	6
	.quad	64
	.quad	.LC85
	.quad	.LC18
	.quad	0
	.quad	0
	.quad	0
	.quad	.LC12
	.quad	5
	.quad	64
	.quad	.LC86
	.quad	.LC18
	.quad	0
	.quad	0
	.quad	0
	.quad	.LC32
	.quad	21
	.quad	64
	.quad	.LC87
	.quad	.LC18
	.quad	0
	.quad	0
	.quad	0
	.quad	.LC40
	.quad	37
	.quad	96
	.quad	.LC88
	.quad	.LC18
	.quad	0
	.quad	0
	.quad	0
	.quad	.LC33
	.quad	10
	.quad	64
	.quad	.LC89
	.quad	.LC18
	.quad	0
	.quad	0
	.quad	0
	.quad	.LC10
	.quad	4
	.quad	64
	.quad	.LC90
	.quad	.LC18
	.quad	0
	.quad	0
	.quad	0
	.quad	.LC23
	.quad	10
	.quad	64
	.quad	.LC91
	.quad	.LC18
	.quad	0
	.quad	0
	.quad	0
	.quad	.LC36
	.quad	27
	.quad	64
	.quad	.LC92
	.quad	.LC18
	.quad	0
	.quad	0
	.quad	0
	.quad	.LC30
	.quad	30
	.quad	64
	.quad	.LC93
	.quad	.LC18
	.quad	0
	.quad	0
	.quad	0
	.quad	.LC3
	.quad	7
	.quad	64
	.quad	.LC94
	.quad	.LC18
	.quad	0
	.quad	0
	.quad	0
	.quad	.LC28
	.quad	40
	.quad	96
	.quad	.LC95
	.quad	.LC18
	.quad	0
	.quad	0
	.quad	0
	.quad	.LC21
	.quad	15
	.quad	64
	.quad	.LC96
	.quad	.LC18
	.quad	0
	.quad	0
	.quad	0
	.quad	.LC34
	.quad	6
	.quad	64
	.quad	.LC97
	.quad	.LC18
	.quad	0
	.quad	0
	.quad	0
	.quad	.LC7
	.quad	4
	.quad	64
	.quad	.LC98
	.quad	.LC18
	.quad	0
	.quad	0
	.quad	0
	.quad	.LC16
	.quad	64
	.quad	96
	.quad	.LC99
	.quad	.LC18
	.quad	0
	.quad	0
	.quad	0
	.quad	.LC37
	.quad	55
	.quad	96
	.quad	.LC100
	.quad	.LC18
	.quad	0
	.quad	0
	.quad	0
	.quad	.LC29
	.quad	12
	.quad	64
	.quad	.LC101
	.quad	.LC18
	.quad	0
	.quad	0
	.quad	0
	.quad	.LC20
	.quad	36
	.quad	96
	.quad	.LC102
	.quad	.LC18
	.quad	0
	.quad	0
	.quad	0
	.quad	.LC9
	.quad	7
	.quad	64
	.quad	.LC103
	.quad	.LC18
	.quad	0
	.quad	0
	.quad	0
	.quad	.LC35
	.quad	68
	.quad	128
	.quad	.LC104
	.quad	.LC18
	.quad	0
	.quad	0
	.quad	0
	.quad	.LC1
	.quad	5
	.quad	64
	.quad	.LC105
	.quad	.LC18
	.quad	0
	.quad	0
	.quad	0
	.quad	.LC22
	.quad	33
	.quad	96
	.quad	.LC106
	.quad	.LC18
	.quad	0
	.quad	0
	.quad	0
	.quad	.LC13
	.quad	5
	.quad	64
	.quad	.LC107
	.quad	.LC18
	.quad	0
	.quad	0
	.quad	0
	.quad	.LC14
	.quad	4
	.quad	64
	.quad	.LC108
	.quad	.LC18
	.quad	0
	.quad	0
	.quad	0
	.quad	.LC8
	.quad	4
	.quad	64
	.quad	.LC109
	.quad	.LC18
	.quad	0
	.quad	0
	.quad	0
	.quad	.LC38
	.quad	41
	.quad	96
	.quad	.LC110
	.quad	.LC18
	.quad	0
	.quad	0
	.quad	0
	.quad	.LC0
	.quad	3
	.quad	64
	.quad	.LC111
	.quad	.LC18
	.quad	0
	.quad	0
	.quad	0
	.quad	.LC17
	.quad	50
	.quad	96
	.quad	.LC112
	.quad	.LC18
	.quad	0
	.quad	0
	.quad	0
	.quad	.LC18
	.quad	32
	.quad	64
	.quad	.LC113
	.quad	.LC18
	.quad	0
	.quad	0
	.quad	0
	.text
	.type	_sub_D_00099_0, @function
_sub_D_00099_0:
.LFB2942:
	.cfi_startproc
	endbr64
	pushq	%rbp
	.cfi_def_cfa_offset 16
	.cfi_offset 6, -16
	movq	%rsp, %rbp
	.cfi_def_cfa_register 6
	movl	$64, %esi
	leaq	.LASAN0(%rip), %rax
	movq	%rax, %rdi
	call	__asan_unregister_globals@PLT
	popq	%rbp
	.cfi_def_cfa 7, 8
	ret
	.cfi_endproc
.LFE2942:
	.size	_sub_D_00099_0, .-_sub_D_00099_0
	.section	.fini_array.00099,"aw"
	.align 8
	.quad	_sub_D_00099_0
	.text
	.type	_sub_I_00099_1, @function
_sub_I_00099_1:
.LFB2943:
	.cfi_startproc
	endbr64
	pushq	%rbp
	.cfi_def_cfa_offset 16
	.cfi_offset 6, -16
	movq	%rsp, %rbp
	.cfi_def_cfa_register 6
	call	__asan_init@PLT
	call	__asan_version_mismatch_check_v8@PLT
	movl	$64, %esi
	leaq	.LASAN0(%rip), %rax
	movq	%rax, %rdi
	call	__asan_register_globals@PLT
	popq	%rbp
	.cfi_def_cfa 7, 8
	ret
	.cfi_endproc
.LFE2943:
	.size	_sub_I_00099_1, .-_sub_I_00099_1
	.section	.init_array.00099,"aw"
	.align 8
	.quad	_sub_I_00099_1
	.text
.Letext0:
	.file 3 "../Common/Structures/Tabels/NameTable.h"
	.file 4 "../Common/Structures/Token/Token.h"
	.file 5 "../Common/Structures/Tabels/Tabels.h"
	.file 6 "../Common/Structures/Program/Program.h"
	.file 7 "/usr/lib/gcc/x86_64-linux-gnu/11/include/stddef.h"
	.file 8 "./headers/SuperStackConfig.h"
	.file 9 "/usr/include/x86_64-linux-gnu/bits/types.h"
	.file 10 "/usr/include/x86_64-linux-gnu/bits/stdint-intn.h"
	.file 11 "/usr/include/x86_64-linux-gnu/bits/stdint-uintn.h"
	.file 12 "/usr/include/stdint.h"
	.file 13 "../ATC/my_safety/my_safety.h"
	.file 14 "/usr/include/x86_64-linux-gnu/sys/types.h"
	.file 15 "../ATC/SuperStack/SuperStack.h"
	.file 16 "./SyntacticCtx/SyntacticCtx.h"
	.file 17 "../Common/Grammar.h"
	.file 18 "<built-in>"
	.file 19 "/usr/include/x86_64-linux-gnu/bits/types/wint_t.h"
	.file 20 "/usr/include/x86_64-linux-gnu/bits/types/__mbstate_t.h"
	.file 21 "/usr/include/x86_64-linux-gnu/bits/types/mbstate_t.h"
	.file 22 "/usr/include/x86_64-linux-gnu/bits/types/__FILE.h"
	.file 23 "/usr/include/x86_64-linux-gnu/bits/types/struct_FILE.h"
	.file 24 "/usr/include/x86_64-linux-gnu/bits/types/FILE.h"
	.file 25 "/usr/include/c++/11/cwchar"
	.file 26 "/usr/include/c++/11/type_traits"
	.file 27 "/usr/include/c++/11/bits/exception_ptr.h"
	.file 28 "/usr/include/x86_64-linux-gnu/c++/11/bits/c++config.h"
	.file 29 "/usr/include/c++/11/concepts"
	.file 30 "/usr/include/c++/11/bits/iterator_concepts.h"
	.file 31 "/usr/include/c++/11/bits/ranges_cmp.h"
	.file 32 "/usr/include/c++/11/compare"
	.file 33 "/usr/include/c++/11/debug/debug.h"
	.file 34 "/usr/include/c++/11/cstdint"
	.file 35 "/usr/include/c++/11/clocale"
	.file 36 "/usr/include/c++/11/cstdlib"
	.file 37 "/usr/include/c++/11/numbers"
	.file 38 "/usr/include/c++/11/cstdio"
	.file 39 "/usr/include/c++/11/bits/ios_base.h"
	.file 40 "/usr/include/c++/11/cwctype"
	.file 41 "/usr/include/c++/11/bits/std_abs.h"
	.file 42 "/usr/include/wchar.h"
	.file 43 "/usr/include/x86_64-linux-gnu/bits/types/struct_tm.h"
	.file 44 "/usr/include/c++/11/bits/predefined_ops.h"
	.file 45 "/usr/include/c++/11/bits/ptr_traits.h"
	.file 46 "/usr/include/locale.h"
	.file 47 "/usr/include/stdlib.h"
	.file 48 "/usr/include/x86_64-linux-gnu/bits/types/__fpos_t.h"
	.file 49 "/usr/include/stdio.h"
	.file 50 "/usr/include/x86_64-linux-gnu/bits/wctype-wchar.h"
	.file 51 "/usr/include/wctype.h"
	.file 52 "../ATC/Logger/LogConfig.h"
	.file 53 "../ATC/RandomStuff/CommonEnums.h"
	.file 54 "/usr/include/c++/11/stdlib.h"
	.file 55 "../ATC/Buffer/my_buffer.h"
	.file 56 "../ATC/Logger/Logger.h"
	.file 57 "/usr/include/string.h"
	.file 58 "/usr/include/c++/11/bits/algorithmfwd.h"
	.section	.note.GNU-stack,"",@progbits
	.section	.note.gnu.property,"a"
	.align 8
	.long	1f - 0f
	.long	4f - 1f
	.long	5
0:
	.string	"GNU"
1:
	.align 8
	.long	0xc0000002
	.long	3f - 2f
2:
	.long	0x3
3:
	.align 8
4:
