	.file	"Tabels.cpp"
	.text
.Ltext0:
	.file 0 "/home/arsenyfucker/Cprojects/Lang/Translator/FrontEnd" "../Common/Structures/Tabels/Tabels.cpp"
	.section	.rodata
	.align 32
	.type	_ZL12NOT_DECLARED, @object
	.size	_ZL12NOT_DECLARED, 4
_ZL12NOT_DECLARED:
	.long	-111
	.zero	60
	.bss
	.align 32
	.type	_ZStL8__ioinit, @object
	.size	_ZStL8__ioinit, 1
_ZStL8__ioinit:
	.zero	64
	.section	.rodata
	.align 32
	.type	_ZL12STD_LOG_NAME, @object
	.size	_ZL12STD_LOG_NAME, 18
_ZL12STD_LOG_NAME:
	.string	"./logs/stdlog.ars"
	.zero	46
	.align 32
	.type	_ZL6CRINGE, @object
	.size	_ZL6CRINGE, 4
_ZL6CRINGE:
	.long	3565
	.zero	60
	.align 32
	.type	_ZL11GROWTH_RATE, @object
	.size	_ZL11GROWTH_RATE, 4
_ZL11GROWTH_RATE:
	.long	2
	.zero	60
	.align 32
	.type	_ZL20START_LABEL_ARR_SIZE, @object
	.size	_ZL20START_LABEL_ARR_SIZE, 4
_ZL20START_LABEL_ARR_SIZE:
	.long	10
	.zero	60
	.align 32
.LC0:
	.string	"NewFuncTabel"
	.zero	51
	.align 32
.LC1:
	.string	"../Common/Structures/Tabels/Tabels.cpp"
	.zero	57
	.text
	.globl	_Z12NewFuncTabelv
	.type	_Z12NewFuncTabelv, @function
_Z12NewFuncTabelv:
.LASANPC2270:
.LFB2270:
	.file 1 "../Common/Structures/Tabels/Tabels.cpp"
	.loc 1 17 5
	.cfi_startproc
	endbr64
	pushq	%rbp
	.cfi_def_cfa_offset 16
	.cfi_offset 6, -16
	movq	%rsp, %rbp
	.cfi_def_cfa_register 6
	subq	$16, %rsp
	.loc 1 18 56
	call	_ZN6Logger11getInstanceEv@PLT
	movq	%rax, %rdi
	.loc 1 18 67
	movl	$18, %r9d
	leaq	.LC0(%rip), %r8
	leaq	.LC1(%rip), %rax
	movq	%rax, %rcx
	movl	$24, %edx
	movl	$1, %esi
	call	_ZN6Logger7CAL_LOGEmmPKcS1_i@PLT
	movq	%rax, -8(%rbp)
	.loc 1 19 5
	cmpq	$0, -8(%rbp)
	jne	.L2
	.loc 1 20 16
	movl	$0, %eax
	jmp	.L3
.L2:
	.loc 1 22 59
	call	_ZN6Logger11getInstanceEv@PLT
	movq	%rax, %rdi
	.loc 1 22 70
	movl	$22, %r9d
	leaq	.LC0(%rip), %r8
	leaq	.LC1(%rip), %rax
	movq	%rax, %rcx
	movl	$8, %edx
	movl	$10, %esi
	call	_ZN6Logger7CAL_LOGEmmPKcS1_i@PLT
	.loc 1 22 24
	movq	-8(%rbp), %rdx
	movq	%rdx, %rcx
	shrq	$3, %rcx
	addq	$2147450880, %rcx
	movzbl	(%rcx), %ecx
	testb	%cl, %cl
	je	.L4
	movq	%rdx, %rdi
	call	__asan_report_store8@PLT
.L4:
	movq	-8(%rbp), %rdx
	movq	%rax, (%rdx)
	.loc 1 23 18
	movq	-8(%rbp), %rax
	movq	(%rax), %rax
	.loc 1 23 5
	testq	%rax, %rax
	jne	.L5
	.loc 1 25 13
	movq	-8(%rbp), %rax
	movq	%rax, %rdi
	call	free@PLT
	.loc 1 26 16
	movl	$0, %eax
	jmp	.L3
.L5:
	.loc 1 29 23
	movq	-8(%rbp), %rax
	addq	$8, %rax
	movq	%rax, %rdx
	shrq	$3, %rdx
	addq	$2147450880, %rdx
	movzbl	(%rdx), %edx
	testb	%dl, %dl
	je	.L6
	movq	%rax, %rdi
	call	__asan_report_store8@PLT
.L6:
	movq	-8(%rbp), %rax
	movq	$10, 8(%rax)
	.loc 1 30 31
	movq	-8(%rbp), %rax
	addq	$16, %rax
	movq	%rax, %rdx
	shrq	$3, %rdx
	addq	$2147450880, %rdx
	movzbl	(%rdx), %edx
	testb	%dl, %dl
	je	.L7
	movq	%rax, %rdi
	call	__asan_report_store8@PLT
.L7:
	movq	-8(%rbp), %rax
	movq	$0, 16(%rax)
	.loc 1 32 12
	movq	-8(%rbp), %rax
.L3:
	.loc 1 33 5
	leave
	.cfi_def_cfa 7, 8
	ret
	.cfi_endproc
.LFE2270:
	.size	_Z12NewFuncTabelv, .-_Z12NewFuncTabelv
	.section	.rodata
	.align 32
.LC2:
	.string	"tabel"
	.zero	58
	.align 32
.LC3:
	.string	"ASSERTLOG:: Condition (%s) is false\n"
	.zero	59
	.align 32
.LC4:
	.string	"\033[93mASSERTLOG:: \033[0mCondition\033[95m (%s) \033[0mis \033[91mfalse\n\033[0m"
	.zero	32
	.align 32
.LC5:
	.string	"int CloseFuncTabel(FuncTabel*)"
	.zero	33
	.align 32
.LC6:
	.string	"\t%s:%d, function: %s\n"
	.zero	42
	.align 32
.LC7:
	.string	"It matches to error: (code %d) %s\n\n"
	.zero	60
	.align 32
.LC8:
	.string	"CloseFuncTabel"
	.zero	49
	.align 32
.LC9:
	.string	"Shutting down the system (%s:%d)"
	.zero	63
	.align 32
.LC10:
	.string	"echo LOX\n"
	.zero	54
	.align 32
.LC11:
	.string	"\033[91mFailed %s:%d (%s:%d)\n\033[0m"
	.zero	33
	.align 32
.LC12:
	.string	"Failed (%s:%d, %s:%d)"
	.zero	42
	.align 32
.LC13:
	.string	"Tabel %p: Null label arr pointer\n"
	.zero	62
	.align 32
.LC14:
	.string	"Tabel %p: arr_size (%zu) less than namber_of_labels (%p)\n"
	.zero	38
	.align 32
.LC15:
	.string	"Tabel %p: null label in label_arr (position %zu)\n"
	.zero	46
	.text
	.globl	_Z14CloseFuncTabelP9FuncTabel
	.type	_Z14CloseFuncTabelP9FuncTabel, @function
_Z14CloseFuncTabelP9FuncTabel:
.LASANPC2271:
.LFB2271:
	.loc 1 38 5
	.cfi_startproc
	endbr64
	pushq	%rbp
	.cfi_def_cfa_offset 16
	.cfi_offset 6, -16
	movq	%rsp, %rbp
	.cfi_def_cfa_register 6
	pushq	%rbx
	subq	$40, %rsp
	.cfi_offset 3, -24
	movq	%rdi, -40(%rbp)
	.loc 1 39 10
	cmpq	$0, -40(%rbp)
	jne	.L9
	.loc 1 39 45 discriminator 1
	call	_ZN6Logger11getInstanceEv@PLT
	movq	%rax, %rcx
	.loc 1 39 51 discriminator 1
	leaq	.LC2(%rip), %rax
	movq	%rax, %rdx
	leaq	.LC3(%rip), %rax
	movq	%rax, %rsi
	movq	%rcx, %rdi
	movl	$0, %eax
	call	_ZN6Logger3logEPKcz@PLT
	.loc 1 39 109 discriminator 1
	leaq	.LC2(%rip), %rax
	movq	%rax, %rsi
	leaq	.LC4(%rip), %rax
	movq	%rax, %rdi
	movl	$0, %eax
	call	printf@PLT
	.loc 1 39 255 discriminator 1
	call	_ZN6Logger11getInstanceEv@PLT
	movq	%rax, %rdi
	.loc 1 39 261 discriminator 1
	leaq	.LC5(%rip), %r8
	movl	$39, %ecx
	leaq	.LC1(%rip), %rax
	movq	%rax, %rdx
	leaq	.LC6(%rip), %rax
	movq	%rax, %rsi
	movl	$0, %eax
	call	_ZN6Logger3logEPKcz@PLT
	.loc 1 39 363 discriminator 1
	leaq	.LC5(%rip), %rax
	movq	%rax, %rcx
	movl	$39, %edx
	leaq	.LC1(%rip), %rax
	movq	%rax, %rsi
	leaq	.LC6(%rip), %rax
	movq	%rax, %rdi
	movl	$0, %eax
	call	printf@PLT
	.loc 1 39 478 discriminator 1
	call	_ZN6Logger11getInstanceEv@PLT
	movq	%rax, %rbx
	.loc 1 39 484 discriminator 1
	movl	$14, %edi
	call	strerror@PLT
	movq	%rax, %rcx
	movl	$14, %edx
	leaq	.LC7(%rip), %rax
	movq	%rax, %rsi
	movq	%rbx, %rdi
	movl	$0, %eax
	call	_ZN6Logger3logEPKcz@PLT
	.loc 1 39 27 discriminator 1
	call	_ZN6Logger11getInstanceEv@PLT
	movq	%rax, %rdi
	.loc 1 39 33 discriminator 1
	movl	$39, %ecx
	leaq	.LC8(%rip), %rax
	movq	%rax, %rdx
	leaq	.LC9(%rip), %rax
	movq	%rax, %rsi
	movl	$0, %eax
	call	_ZN6Logger3logEPKcz@PLT
	.loc 1 39 91 discriminator 1
	leaq	.LC10(%rip), %rax
	movq	%rax, %rdi
	call	system@PLT
	.loc 1 39 133 discriminator 1
	call	_ZN6Logger11getInstanceEv@PLT
	.loc 1 39 155 discriminator 1
	call	_ZN6Logger11getInstanceEv@PLT
	movq	%rax, %rbx
	.loc 1 39 168 discriminator 1
	movl	$39, %r9d
	leaq	.LC8(%rip), %r8
	movl	$39, %ecx
	leaq	.LC1(%rip), %rax
	movq	%rax, %rdx
	leaq	.LC11(%rip), %rax
	movq	%rax, %rsi
	movl	$-1, %edi
	movl	$0, %eax
	call	_Z6MsgRetiPKcz@PLT
	movl	%eax, %esi
	subq	$8, %rsp
	pushq	$39
	leaq	.LC8(%rip), %r9
	movl	$39, %r8d
	leaq	.LC1(%rip), %rax
	movq	%rax, %rcx
	leaq	.LC12(%rip), %rax
	movq	%rax, %rdx
	movq	%rbx, %rdi
	movl	$0, %eax
	call	_ZN6Logger9LogMsgRetEiPKcz@PLT
	addq	$16, %rsp
	.loc 1 39 377 discriminator 1
	jmp	.L10
.L9:
	.loc 1 41 18
	movq	-40(%rbp), %rax
	movq	%rax, %rdx
	shrq	$3, %rdx
	addq	$2147450880, %rdx
	movzbl	(%rdx), %edx
	testb	%dl, %dl
	je	.L11
	movq	%rax, %rdi
	call	__asan_report_load8@PLT
.L11:
	movq	-40(%rbp), %rax
	movq	(%rax), %rax
	.loc 1 41 5
	testq	%rax, %rax
	jne	.L12
	.loc 1 43 15
	movq	-40(%rbp), %rax
	movq	%rax, %rsi
	leaq	.LC13(%rip), %rax
	movq	%rax, %rdi
	movl	$0, %eax
	call	printf@PLT
	.loc 1 44 16
	movl	$-1, %eax
	jmp	.L10
.L12:
	.loc 1 47 17
	movq	-40(%rbp), %rax
	addq	$8, %rax
	movq	%rax, %rdx
	shrq	$3, %rdx
	addq	$2147450880, %rdx
	movzbl	(%rdx), %edx
	testb	%dl, %dl
	je	.L13
	movq	%rax, %rdi
	call	__asan_report_load8@PLT
.L13:
	movq	-40(%rbp), %rax
	movq	8(%rax), %rcx
	.loc 1 47 37
	movq	-40(%rbp), %rax
	addq	$16, %rax
	movq	%rax, %rdx
	shrq	$3, %rdx
	addq	$2147450880, %rdx
	movzbl	(%rdx), %edx
	testb	%dl, %dl
	je	.L14
	movq	%rax, %rdi
	call	__asan_report_load8@PLT
.L14:
	movq	-40(%rbp), %rax
	movq	16(%rax), %rax
	.loc 1 47 5
	cmpq	%rax, %rcx
	jnb	.L15
	.loc 1 49 15
	movq	-40(%rbp), %rax
	movq	16(%rax), %rcx
	movq	-40(%rbp), %rax
	movq	8(%rax), %rdx
	movq	-40(%rbp), %rax
	movq	%rax, %rsi
	leaq	.LC14(%rip), %rax
	movq	%rax, %rdi
	movl	$0, %eax
	call	printf@PLT
	.loc 1 52 16
	movl	$-1, %eax
	jmp	.L10
.L15:
.LBB2:
	.loc 1 55 17
	movq	$0, -24(%rbp)
	.loc 1 55 5
	jmp	.L16
.L22:
	.loc 1 57 23
	movq	-40(%rbp), %rax
	movq	%rax, %rdx
	shrq	$3, %rdx
	addq	$2147450880, %rdx
	movzbl	(%rdx), %edx
	testb	%dl, %dl
	je	.L17
	movq	%rax, %rdi
	call	__asan_report_load8@PLT
.L17:
	movq	-40(%rbp), %rax
	movq	(%rax), %rdx
	.loc 1 57 34
	movq	-24(%rbp), %rax
	salq	$3, %rax
	addq	%rdx, %rax
	.loc 1 57 9
	testq	%rax, %rax
	jne	.L18
	.loc 1 59 20
	movq	-24(%rbp), %rdx
	movq	-40(%rbp), %rax
	movq	%rax, %rsi
	leaq	.LC15(%rip), %rax
	movq	%rax, %rdi
	movl	$0, %eax
	call	printf@PLT
	.loc 1 61 20
	movl	$-1, %eax
	jmp	.L10
.L18:
	.loc 1 64 23 discriminator 2
	movq	-40(%rbp), %rax
	movq	%rax, %rdx
	shrq	$3, %rdx
	addq	$2147450880, %rdx
	movzbl	(%rdx), %edx
	testb	%dl, %dl
	je	.L19
	.loc 1 64 23 is_stmt 0
	movq	%rax, %rdi
	call	__asan_report_load8@PLT
.L19:
	.loc 1 64 23 discriminator 2
	movq	-40(%rbp), %rax
	movq	(%rax), %rdx
	.loc 1 64 35 is_stmt 1 discriminator 2
	movq	-24(%rbp), %rax
	salq	$3, %rax
	addq	%rdx, %rax
	.loc 1 64 14 discriminator 2
	movq	%rax, %rdx
	movq	%rdx, %rcx
	shrq	$3, %rcx
	addq	$2147450880, %rcx
	movzbl	(%rcx), %ecx
	testb	%cl, %cl
	je	.L20
	.loc 1 64 14 is_stmt 0
	movq	%rdx, %rdi
	call	__asan_report_load8@PLT
.L20:
	.loc 1 64 14 discriminator 2
	movq	(%rax), %rax
	movq	%rax, %rdi
	call	free@PLT
	.loc 1 55 5 is_stmt 1 discriminator 2
	addq	$1, -24(%rbp)
.L16:
	.loc 1 55 36 discriminator 1
	movq	-40(%rbp), %rax
	addq	$16, %rax
	movq	%rax, %rdx
	shrq	$3, %rdx
	addq	$2147450880, %rdx
	movzbl	(%rdx), %edx
	testb	%dl, %dl
	je	.L21
	.loc 1 55 36 is_stmt 0
	movq	%rax, %rdi
	call	__asan_report_load8@PLT
.L21:
	.loc 1 55 36 discriminator 1
	movq	-40(%rbp), %rax
	movq	16(%rax), %rax
	.loc 1 55 26 is_stmt 1 discriminator 1
	cmpq	%rax, -24(%rbp)
	jb	.L22
.LBE2:
	.loc 1 67 19
	movq	-40(%rbp), %rax
	movq	%rax, %rdx
	shrq	$3, %rdx
	addq	$2147450880, %rdx
	movzbl	(%rdx), %edx
	testb	%dl, %dl
	je	.L23
	movq	%rax, %rdi
	call	__asan_report_load8@PLT
.L23:
	movq	-40(%rbp), %rax
	movq	(%rax), %rax
	.loc 1 67 10
	movq	%rax, %rdi
	call	free@PLT
	.loc 1 68 10
	movq	-40(%rbp), %rax
	movq	%rax, %rdi
	call	free@PLT
	.loc 1 70 12
	movl	$0, %eax
.L10:
	.loc 1 71 5
	movq	-8(%rbp), %rbx
	leave
	.cfi_def_cfa 7, 8
	ret
	.cfi_endproc
.LFE2271:
	.size	_Z14CloseFuncTabelP9FuncTabel, .-_Z14CloseFuncTabelP9FuncTabel
	.section	.rodata
	.align 32
.LC16:
	.string	"func_tabel"
	.zero	53
	.align 32
.LC17:
	.string	"FuncLabel* IsFuncLabel(int, FuncTabel*)"
	.zero	56
	.align 32
.LC18:
	.string	"IsFuncLabel"
	.zero	52
	.align 32
.LC19:
	.string	"Returnig null ptr (%s:%d)"
	.zero	38
	.align 32
.LC20:
	.string	"\033[94mReturnig null ptr %s:%d (%s:%d)\n\033[0m"
	.zero	54
	.align 32
.LC21:
	.string	"\t%s: "
	.zero	58
	.align 32
.LC22:
	.string	"Empty label array in func tabel %p\n"
	.zero	60
	.text
	.globl	_Z11IsFuncLabeliP9FuncTabel
	.type	_Z11IsFuncLabeliP9FuncTabel, @function
_Z11IsFuncLabeliP9FuncTabel:
.LASANPC2272:
.LFB2272:
	.loc 1 74 5
	.cfi_startproc
	endbr64
	pushq	%rbp
	.cfi_def_cfa_offset 16
	.cfi_offset 6, -16
	movq	%rsp, %rbp
	.cfi_def_cfa_register 6
	pushq	%rbx
	subq	$56, %rsp
	.cfi_offset 3, -24
	movl	%edi, -52(%rbp)
	movq	%rsi, -64(%rbp)
	.loc 1 75 10
	cmpq	$0, -64(%rbp)
	jne	.L25
	.loc 1 75 50 discriminator 1
	call	_ZN6Logger11getInstanceEv@PLT
	movq	%rax, %rcx
	.loc 1 75 56 discriminator 1
	leaq	.LC16(%rip), %rax
	movq	%rax, %rdx
	leaq	.LC3(%rip), %rax
	movq	%rax, %rsi
	movq	%rcx, %rdi
	movl	$0, %eax
	call	_ZN6Logger3logEPKcz@PLT
	.loc 1 75 119 discriminator 1
	leaq	.LC16(%rip), %rax
	movq	%rax, %rsi
	leaq	.LC4(%rip), %rax
	movq	%rax, %rdi
	movl	$0, %eax
	call	printf@PLT
	.loc 1 75 270 discriminator 1
	call	_ZN6Logger11getInstanceEv@PLT
	movq	%rax, %rdi
	.loc 1 75 276 discriminator 1
	leaq	.LC17(%rip), %r8
	movl	$75, %ecx
	leaq	.LC1(%rip), %rax
	movq	%rax, %rdx
	leaq	.LC6(%rip), %rax
	movq	%rax, %rsi
	movl	$0, %eax
	call	_ZN6Logger3logEPKcz@PLT
	.loc 1 75 378 discriminator 1
	leaq	.LC17(%rip), %rax
	movq	%rax, %rcx
	movl	$75, %edx
	leaq	.LC1(%rip), %rax
	movq	%rax, %rsi
	leaq	.LC6(%rip), %rax
	movq	%rax, %rdi
	movl	$0, %eax
	call	printf@PLT
	.loc 1 75 493 discriminator 1
	call	_ZN6Logger11getInstanceEv@PLT
	movq	%rax, %rbx
	.loc 1 75 499 discriminator 1
	movl	$14, %edi
	call	strerror@PLT
	movq	%rax, %rcx
	movl	$14, %edx
	leaq	.LC7(%rip), %rax
	movq	%rax, %rsi
	movq	%rbx, %rdi
	movl	$0, %eax
	call	_ZN6Logger3logEPKcz@PLT
	.loc 1 75 27 discriminator 1
	call	_ZN6Logger11getInstanceEv@PLT
	movq	%rax, %rdi
	.loc 1 75 33 discriminator 1
	movl	$75, %ecx
	leaq	.LC18(%rip), %rax
	movq	%rax, %rdx
	leaq	.LC9(%rip), %rax
	movq	%rax, %rsi
	movl	$0, %eax
	call	_ZN6Logger3logEPKcz@PLT
	.loc 1 75 91 discriminator 1
	leaq	.LC10(%rip), %rax
	movq	%rax, %rdi
	call	system@PLT
	.loc 1 75 133 discriminator 1
	call	_ZN6Logger11getInstanceEv@PLT
	movq	%rax, %rdi
	.loc 1 75 149 discriminator 1
	movl	$75, %ecx
	leaq	.LC18(%rip), %rax
	movq	%rax, %rdx
	leaq	.LC19(%rip), %rax
	movq	%rax, %rsi
	movl	$0, %eax
	call	_ZN6Logger13LogMsgNullRetEPKcz@PLT
	.loc 1 75 207 discriminator 1
	movl	$75, %r8d
	leaq	.LC18(%rip), %rax
	movq	%rax, %rcx
	movl	$75, %edx
	leaq	.LC1(%rip), %rax
	movq	%rax, %rsi
	leaq	.LC20(%rip), %rax
	movq	%rax, %rdi
	movl	$0, %eax
	call	_Z13LogMsgNullRetPKcz@PLT
	.loc 1 75 324 discriminator 1
	movl	$0, %eax
	jmp	.L26
.L25:
	.loc 1 77 12
	movq	-64(%rbp), %rax
	addq	$16, %rax
	movq	%rax, %rdx
	shrq	$3, %rdx
	addq	$2147450880, %rdx
	movzbl	(%rdx), %edx
	testb	%dl, %dl
	je	.L27
	movq	%rax, %rdi
	call	__asan_report_load8@PLT
.L27:
	movq	-64(%rbp), %rax
	movq	16(%rax), %rax
	movq	%rax, -32(%rbp)
	.loc 1 78 5
	cmpq	$0, -32(%rbp)
	jne	.L28
	.loc 1 79 15
	movl	$0, %eax
	jmp	.L26
.L28:
	.loc 1 81 17
	movq	-64(%rbp), %rax
	movq	%rax, %rdx
	shrq	$3, %rdx
	addq	$2147450880, %rdx
	movzbl	(%rdx), %edx
	testb	%dl, %dl
	je	.L29
	movq	%rax, %rdi
	call	__asan_report_load8@PLT
.L29:
	movq	-64(%rbp), %rax
	movq	(%rax), %rax
	movq	%rax, -24(%rbp)
	.loc 1 82 5
	cmpq	$0, -24(%rbp)
	jne	.L30
	.loc 1 84 17
	leaq	.LC18(%rip), %rax
	movq	%rax, %rsi
	leaq	.LC21(%rip), %rax
	movq	%rax, %rdi
	movl	$0, %eax
	call	printf@PLT
	.loc 1 84 45
	movq	-64(%rbp), %rax
	movq	%rax, %rsi
	leaq	.LC22(%rip), %rax
	movq	%rax, %rdi
	movl	$0, %eax
	call	printf@PLT
	.loc 1 85 35
	call	_ZN6Logger11getInstanceEv@PLT
	movq	%rax, %rdi
	.loc 1 85 51
	movl	$85, %ecx
	leaq	.LC18(%rip), %rax
	movq	%rax, %rdx
	leaq	.LC19(%rip), %rax
	movq	%rax, %rsi
	movl	$0, %eax
	call	_ZN6Logger13LogMsgNullRetEPKcz@PLT
	.loc 1 85 109
	movl	$85, %r8d
	leaq	.LC18(%rip), %rax
	movq	%rax, %rcx
	movl	$85, %edx
	leaq	.LC1(%rip), %rax
	movq	%rax, %rsi
	leaq	.LC20(%rip), %rax
	movq	%rax, %rdi
	movl	$0, %eax
	call	_Z13LogMsgNullRetPKcz@PLT
	.loc 1 85 226
	movl	$0, %eax
	jmp	.L26
.L30:
.LBB3:
	.loc 1 88 16
	movq	$0, -40(%rbp)
	.loc 1 88 5
	jmp	.L31
.L36:
	.loc 1 90 37
	movq	-40(%rbp), %rax
	leaq	0(,%rax,8), %rdx
	movq	-24(%rbp), %rax
	addq	%rdx, %rax
	.loc 1 90 25
	movq	%rax, %rdx
	movq	%rdx, %rcx
	shrq	$3, %rcx
	addq	$2147450880, %rcx
	movzbl	(%rcx), %ecx
	testb	%cl, %cl
	je	.L32
	movq	%rdx, %rdi
	call	__asan_report_load8@PLT
.L32:
	movq	(%rax), %rax
	.loc 1 90 44
	movq	%rax, %rdx
	movq	%rdx, %rcx
	movq	%rcx, %rdx
	shrq	$3, %rdx
	addq	$2147450880, %rdx
	movzbl	(%rdx), %edx
	testb	%dl, %dl
	setne	%sil
	cmpb	$3, %dl
	setle	%dl
	andl	%esi, %edx
	testb	%dl, %dl
	je	.L33
	movq	%rcx, %rdi
	call	__asan_report_load4@PLT
.L33:
	movl	(%rax), %eax
	.loc 1 90 9
	cmpl	%eax, -52(%rbp)
	jne	.L34
	.loc 1 91 32
	movq	-40(%rbp), %rax
	leaq	0(,%rax,8), %rdx
	movq	-24(%rbp), %rax
	addq	%rdx, %rax
	.loc 1 91 35
	movq	%rax, %rdx
	movq	%rdx, %rcx
	shrq	$3, %rcx
	addq	$2147450880, %rcx
	movzbl	(%rcx), %ecx
	testb	%cl, %cl
	je	.L35
	movq	%rdx, %rdi
	call	__asan_report_load8@PLT
.L35:
	movq	(%rax), %rax
	jmp	.L26
.L34:
	.loc 1 88 5 discriminator 2
	addq	$1, -40(%rbp)
.L31:
	.loc 1 88 25 discriminator 1
	movq	-40(%rbp), %rax
	cmpq	-32(%rbp), %rax
	jb	.L36
.LBE3:
	.loc 1 94 11
	movl	$0, %eax
.L26:
	.loc 1 95 5
	movq	-8(%rbp), %rbx
	leave
	.cfi_def_cfa 7, 8
	ret
	.cfi_endproc
.LFE2272:
	.size	_Z11IsFuncLabeliP9FuncTabel, .-_Z11IsFuncLabeliP9FuncTabel
	.section	.rodata
	.align 32
.LC23:
	.string	"int AddFuncLabel(int, int, int, FuncTabel*)"
	.zero	52
	.align 32
.LC24:
	.string	"AddFuncLabel"
	.zero	51
	.align 32
.LC25:
	.string	"%s:%d::CHECK: ResizeFuncTabel(func_tabel) == SUCCESS is false\n"
	.zero	33
	.text
	.globl	_Z12AddFuncLabeliiiP9FuncTabel
	.type	_Z12AddFuncLabeliiiP9FuncTabel, @function
_Z12AddFuncLabeliiiP9FuncTabel:
.LASANPC2273:
.LFB2273:
	.loc 1 99 5
	.cfi_startproc
	endbr64
	pushq	%rbp
	.cfi_def_cfa_offset 16
	.cfi_offset 6, -16
	movq	%rsp, %rbp
	.cfi_def_cfa_register 6
	pushq	%rbx
	subq	$56, %rsp
	.cfi_offset 3, -24
	movl	%edi, -36(%rbp)
	movl	%esi, -40(%rbp)
	movl	%edx, -44(%rbp)
	movq	%rcx, -56(%rbp)
	.loc 1 100 10
	cmpq	$0, -56(%rbp)
	jne	.L38
	.loc 1 100 50 discriminator 1
	call	_ZN6Logger11getInstanceEv@PLT
	movq	%rax, %rcx
	.loc 1 100 56 discriminator 1
	leaq	.LC16(%rip), %rax
	movq	%rax, %rdx
	leaq	.LC3(%rip), %rax
	movq	%rax, %rsi
	movq	%rcx, %rdi
	movl	$0, %eax
	call	_ZN6Logger3logEPKcz@PLT
	.loc 1 100 119 discriminator 1
	leaq	.LC16(%rip), %rax
	movq	%rax, %rsi
	leaq	.LC4(%rip), %rax
	movq	%rax, %rdi
	movl	$0, %eax
	call	printf@PLT
	.loc 1 100 270 discriminator 1
	call	_ZN6Logger11getInstanceEv@PLT
	movq	%rax, %rdi
	.loc 1 100 276 discriminator 1
	leaq	.LC23(%rip), %r8
	movl	$100, %ecx
	leaq	.LC1(%rip), %rax
	movq	%rax, %rdx
	leaq	.LC6(%rip), %rax
	movq	%rax, %rsi
	movl	$0, %eax
	call	_ZN6Logger3logEPKcz@PLT
	.loc 1 100 379 discriminator 1
	leaq	.LC23(%rip), %rax
	movq	%rax, %rcx
	movl	$100, %edx
	leaq	.LC1(%rip), %rax
	movq	%rax, %rsi
	leaq	.LC6(%rip), %rax
	movq	%rax, %rdi
	movl	$0, %eax
	call	printf@PLT
	.loc 1 100 495 discriminator 1
	call	_ZN6Logger11getInstanceEv@PLT
	movq	%rax, %rbx
	.loc 1 100 501 discriminator 1
	movl	$14, %edi
	call	strerror@PLT
	movq	%rax, %rcx
	movl	$14, %edx
	leaq	.LC7(%rip), %rax
	movq	%rax, %rsi
	movq	%rbx, %rdi
	movl	$0, %eax
	call	_ZN6Logger3logEPKcz@PLT
	.loc 1 100 27 discriminator 1
	call	_ZN6Logger11getInstanceEv@PLT
	movq	%rax, %rdi
	.loc 1 100 33 discriminator 1
	movl	$100, %ecx
	leaq	.LC24(%rip), %rax
	movq	%rax, %rdx
	leaq	.LC9(%rip), %rax
	movq	%rax, %rsi
	movl	$0, %eax
	call	_ZN6Logger3logEPKcz@PLT
	.loc 1 100 92 discriminator 1
	leaq	.LC10(%rip), %rax
	movq	%rax, %rdi
	call	system@PLT
	.loc 1 100 134 discriminator 1
	call	_ZN6Logger11getInstanceEv@PLT
	.loc 1 100 156 discriminator 1
	call	_ZN6Logger11getInstanceEv@PLT
	movq	%rax, %rbx
	.loc 1 100 169 discriminator 1
	movl	$100, %r9d
	leaq	.LC24(%rip), %r8
	movl	$100, %ecx
	leaq	.LC1(%rip), %rax
	movq	%rax, %rdx
	leaq	.LC11(%rip), %rax
	movq	%rax, %rsi
	movl	$-1, %edi
	movl	$0, %eax
	call	_Z6MsgRetiPKcz@PLT
	movl	%eax, %esi
	subq	$8, %rsp
	pushq	$100
	leaq	.LC24(%rip), %r9
	movl	$100, %r8d
	leaq	.LC1(%rip), %rax
	movq	%rax, %rcx
	leaq	.LC12(%rip), %rax
	movq	%rax, %rdx
	movq	%rbx, %rdi
	movl	$0, %eax
	call	_ZN6Logger9LogMsgRetEiPKcz@PLT
	addq	$16, %rsp
	.loc 1 100 382 discriminator 1
	jmp	.L39
.L38:
	.loc 1 102 22
	movq	-56(%rbp), %rax
	addq	$8, %rax
	movq	%rax, %rdx
	shrq	$3, %rdx
	addq	$2147450880, %rdx
	movzbl	(%rdx), %edx
	testb	%dl, %dl
	je	.L40
	movq	%rax, %rdi
	call	__asan_report_load8@PLT
.L40:
	movq	-56(%rbp), %rax
	movq	8(%rax), %rcx
	.loc 1 102 48
	movq	-56(%rbp), %rax
	addq	$16, %rax
	movq	%rax, %rdx
	shrq	$3, %rdx
	addq	$2147450880, %rdx
	movzbl	(%rdx), %edx
	testb	%dl, %dl
	je	.L41
	movq	%rax, %rdi
	call	__asan_report_load8@PLT
.L41:
	movq	-56(%rbp), %rax
	movq	16(%rax), %rax
	.loc 1 102 5
	cmpq	%rax, %rcx
	ja	.L42
	.loc 1 103 34
	movq	-56(%rbp), %rax
	movq	%rax, %rdi
	call	_ZL15ResizeFuncTabelP9FuncTabel
	.loc 1 103 47
	testl	%eax, %eax
	setne	%al
	.loc 1 103 14
	testb	%al, %al
	je	.L42
	.loc 1 103 80 discriminator 1
	call	_ZN6Logger11getInstanceEv@PLT
	movq	%rax, %rdi
	.loc 1 103 86 discriminator 1
	movl	$103, %ecx
	leaq	.LC24(%rip), %rax
	movq	%rax, %rdx
	leaq	.LC25(%rip), %rax
	movq	%rax, %rsi
	movl	$0, %eax
	call	_ZN6Logger3logEPKcz@PLT
	.loc 1 103 203 discriminator 1
	call	_ZN6Logger11getInstanceEv@PLT
	.loc 1 103 225 discriminator 1
	call	_ZN6Logger11getInstanceEv@PLT
	movq	%rax, %rbx
	.loc 1 103 238 discriminator 1
	movl	$103, %r9d
	leaq	.LC24(%rip), %r8
	movl	$103, %ecx
	leaq	.LC1(%rip), %rax
	movq	%rax, %rdx
	leaq	.LC11(%rip), %rax
	movq	%rax, %rsi
	movl	$-1, %edi
	movl	$0, %eax
	call	_Z6MsgRetiPKcz@PLT
	movl	%eax, %esi
	subq	$8, %rsp
	pushq	$103
	leaq	.LC24(%rip), %r9
	movl	$103, %r8d
	leaq	.LC1(%rip), %rax
	movq	%rax, %rcx
	leaq	.LC12(%rip), %rax
	movq	%rax, %rdx
	movq	%rbx, %rdi
	movl	$0, %eax
	call	_ZN6Logger9LogMsgRetEiPKcz@PLT
	addq	$16, %rsp
	.loc 1 103 451 discriminator 1
	jmp	.L39
.L42:
	.loc 1 105 60
	call	_ZN6Logger11getInstanceEv@PLT
	movq	%rax, %rdi
	.loc 1 105 71
	movl	$105, %r9d
	leaq	.LC24(%rip), %r8
	leaq	.LC1(%rip), %rax
	movq	%rax, %rcx
	movl	$24, %edx
	movl	$1, %esi
	call	_ZN6Logger7CAL_LOGEmmPKcS1_i@PLT
	movq	%rax, -24(%rbp)
	.loc 1 106 5
	cmpq	$0, -24(%rbp)
	jne	.L43
	.loc 1 107 35
	call	_ZN6Logger11getInstanceEv@PLT
	.loc 1 107 57
	call	_ZN6Logger11getInstanceEv@PLT
	movq	%rax, %rbx
	.loc 1 107 70
	movl	$107, %r9d
	leaq	.LC24(%rip), %r8
	movl	$107, %ecx
	leaq	.LC1(%rip), %rax
	movq	%rax, %rdx
	leaq	.LC11(%rip), %rax
	movq	%rax, %rsi
	movl	$-1, %edi
	movl	$0, %eax
	call	_Z6MsgRetiPKcz@PLT
	movl	%eax, %esi
	subq	$8, %rsp
	pushq	$107
	leaq	.LC24(%rip), %r9
	movl	$107, %r8d
	leaq	.LC1(%rip), %rax
	movq	%rax, %rcx
	leaq	.LC12(%rip), %rax
	movq	%rax, %rdx
	movq	%rbx, %rdi
	movl	$0, %eax
	call	_ZN6Logger9LogMsgRetEiPKcz@PLT
	addq	$16, %rsp
	.loc 1 107 283
	jmp	.L39
.L43:
	.loc 1 109 21
	movq	-24(%rbp), %rax
	movq	%rax, %rdx
	movq	%rdx, %rax
	shrq	$3, %rax
	addq	$2147450880, %rax
	movzbl	(%rax), %eax
	testb	%al, %al
	setne	%cl
	cmpb	$3, %al
	setle	%al
	andl	%ecx, %eax
	testb	%al, %al
	je	.L44
	movq	%rdx, %rdi
	call	__asan_report_store4@PLT
.L44:
	movq	-24(%rbp), %rax
	movl	-36(%rbp), %edx
	movl	%edx, (%rax)
	.loc 1 110 25
	movq	-24(%rbp), %rax
	addq	$4, %rax
	movq	%rax, %rdx
	shrq	$3, %rdx
	addq	$2147450880, %rdx
	movzbl	(%rdx), %edx
	testb	%dl, %dl
	setne	%sil
	movq	%rax, %rcx
	andl	$7, %ecx
	addl	$3, %ecx
	cmpb	%dl, %cl
	setge	%dl
	andl	%esi, %edx
	testb	%dl, %dl
	je	.L45
	movq	%rax, %rdi
	call	__asan_report_store4@PLT
.L45:
	movq	-24(%rbp), %rax
	movl	-40(%rbp), %edx
	movl	%edx, 4(%rax)
	.loc 1 111 28
	movq	-24(%rbp), %rax
	addq	$8, %rax
	movq	%rax, %rdx
	movq	%rdx, %rax
	shrq	$3, %rax
	addq	$2147450880, %rax
	movzbl	(%rax), %eax
	testb	%al, %al
	setne	%cl
	cmpb	$3, %al
	setle	%al
	andl	%ecx, %eax
	testb	%al, %al
	je	.L46
	movq	%rdx, %rdi
	call	__asan_report_store4@PLT
.L46:
	movq	-24(%rbp), %rax
	movl	-44(%rbp), %edx
	movl	%edx, 8(%rax)
	.loc 1 114 42
	movq	-24(%rbp), %rax
	addq	$16, %rax
	movq	%rax, %rdx
	shrq	$3, %rdx
	addq	$2147450880, %rdx
	movzbl	(%rdx), %edx
	testb	%dl, %dl
	je	.L47
	movq	%rax, %rdi
	call	__asan_report_store8@PLT
.L47:
	movq	-24(%rbp), %rax
	movq	$0, 16(%rax)
	.loc 1 116 20
	movq	-56(%rbp), %rax
	movq	%rax, %rdx
	shrq	$3, %rdx
	addq	$2147450880, %rdx
	movzbl	(%rdx), %edx
	testb	%dl, %dl
	je	.L48
	movq	%rax, %rdi
	call	__asan_report_load8@PLT
.L48:
	movq	-56(%rbp), %rax
	movq	(%rax), %rcx
	.loc 1 116 46
	movq	-56(%rbp), %rax
	addq	$16, %rax
	movq	%rax, %rdx
	shrq	$3, %rdx
	addq	$2147450880, %rdx
	movzbl	(%rdx), %edx
	testb	%dl, %dl
	je	.L49
	movq	%rax, %rdi
	call	__asan_report_load8@PLT
.L49:
	movq	-56(%rbp), %rax
	movq	16(%rax), %rax
	.loc 1 116 31
	salq	$3, %rax
	addq	%rcx, %rax
	.loc 1 116 65
	movq	%rax, %rdx
	movq	%rdx, %rcx
	shrq	$3, %rcx
	addq	$2147450880, %rcx
	movzbl	(%rcx), %ecx
	testb	%cl, %cl
	je	.L50
	movq	%rdx, %rdi
	call	__asan_report_store8@PLT
.L50:
	movq	-24(%rbp), %rdx
	movq	%rdx, (%rax)
	.loc 1 117 18
	movq	-56(%rbp), %rax
	movq	16(%rax), %rax
	.loc 1 117 35
	leaq	1(%rax), %rdx
	movq	-56(%rbp), %rax
	movq	%rdx, 16(%rax)
	.loc 1 119 12
	movl	$0, %eax
.L39:
	.loc 1 120 5
	movq	-8(%rbp), %rbx
	leave
	.cfi_def_cfa 7, 8
	ret
	.cfi_endproc
.LFE2273:
	.size	_Z12AddFuncLabeliiiP9FuncTabel, .-_Z12AddFuncLabeliiiP9FuncTabel
	.section	.rodata
	.align 32
.LC26:
	.string	"label"
	.zero	58
	.align 32
.LC27:
	.string	"int AddFuncLabel(FuncLabel*, FuncTabel*)"
	.zero	55
	.text
	.globl	_Z12AddFuncLabelP9FuncLabelP9FuncTabel
	.type	_Z12AddFuncLabelP9FuncLabelP9FuncTabel, @function
_Z12AddFuncLabelP9FuncLabelP9FuncTabel:
.LASANPC2274:
.LFB2274:
	.loc 1 123 5
	.cfi_startproc
	endbr64
	pushq	%rbp
	.cfi_def_cfa_offset 16
	.cfi_offset 6, -16
	movq	%rsp, %rbp
	.cfi_def_cfa_register 6
	pushq	%rbx
	subq	$24, %rsp
	.cfi_offset 3, -24
	movq	%rdi, -24(%rbp)
	movq	%rsi, -32(%rbp)
	.loc 1 124 10
	cmpq	$0, -24(%rbp)
	jne	.L52
	.loc 1 124 45 discriminator 1
	call	_ZN6Logger11getInstanceEv@PLT
	movq	%rax, %rcx
	.loc 1 124 51 discriminator 1
	leaq	.LC26(%rip), %rax
	movq	%rax, %rdx
	leaq	.LC3(%rip), %rax
	movq	%rax, %rsi
	movq	%rcx, %rdi
	movl	$0, %eax
	call	_ZN6Logger3logEPKcz@PLT
	.loc 1 124 109 discriminator 1
	leaq	.LC26(%rip), %rax
	movq	%rax, %rsi
	leaq	.LC4(%rip), %rax
	movq	%rax, %rdi
	movl	$0, %eax
	call	printf@PLT
	.loc 1 124 255 discriminator 1
	call	_ZN6Logger11getInstanceEv@PLT
	movq	%rax, %rdi
	.loc 1 124 261 discriminator 1
	leaq	.LC27(%rip), %r8
	movl	$124, %ecx
	leaq	.LC1(%rip), %rax
	movq	%rax, %rdx
	leaq	.LC6(%rip), %rax
	movq	%rax, %rsi
	movl	$0, %eax
	call	_ZN6Logger3logEPKcz@PLT
	.loc 1 124 364 discriminator 1
	leaq	.LC27(%rip), %rax
	movq	%rax, %rcx
	movl	$124, %edx
	leaq	.LC1(%rip), %rax
	movq	%rax, %rsi
	leaq	.LC6(%rip), %rax
	movq	%rax, %rdi
	movl	$0, %eax
	call	printf@PLT
	.loc 1 124 480 discriminator 1
	call	_ZN6Logger11getInstanceEv@PLT
	movq	%rax, %rbx
	.loc 1 124 486 discriminator 1
	movl	$14, %edi
	call	strerror@PLT
	movq	%rax, %rcx
	movl	$14, %edx
	leaq	.LC7(%rip), %rax
	movq	%rax, %rsi
	movq	%rbx, %rdi
	movl	$0, %eax
	call	_ZN6Logger3logEPKcz@PLT
	.loc 1 124 27 discriminator 1
	call	_ZN6Logger11getInstanceEv@PLT
	movq	%rax, %rdi
	.loc 1 124 33 discriminator 1
	movl	$124, %ecx
	leaq	.LC24(%rip), %rax
	movq	%rax, %rdx
	leaq	.LC9(%rip), %rax
	movq	%rax, %rsi
	movl	$0, %eax
	call	_ZN6Logger3logEPKcz@PLT
	.loc 1 124 92 discriminator 1
	leaq	.LC10(%rip), %rax
	movq	%rax, %rdi
	call	system@PLT
	.loc 1 124 134 discriminator 1
	call	_ZN6Logger11getInstanceEv@PLT
	.loc 1 124 156 discriminator 1
	call	_ZN6Logger11getInstanceEv@PLT
	movq	%rax, %rbx
	.loc 1 124 169 discriminator 1
	movl	$124, %r9d
	leaq	.LC24(%rip), %r8
	movl	$124, %ecx
	leaq	.LC1(%rip), %rax
	movq	%rax, %rdx
	leaq	.LC11(%rip), %rax
	movq	%rax, %rsi
	movl	$-1, %edi
	movl	$0, %eax
	call	_Z6MsgRetiPKcz@PLT
	movl	%eax, %esi
	subq	$8, %rsp
	pushq	$124
	leaq	.LC24(%rip), %r9
	movl	$124, %r8d
	leaq	.LC1(%rip), %rax
	movq	%rax, %rcx
	leaq	.LC12(%rip), %rax
	movq	%rax, %rdx
	movq	%rbx, %rdi
	movl	$0, %eax
	call	_ZN6Logger9LogMsgRetEiPKcz@PLT
	addq	$16, %rsp
	.loc 1 124 382 discriminator 1
	jmp	.L53
.L52:
	.loc 1 125 10
	cmpq	$0, -32(%rbp)
	jne	.L54
	.loc 1 125 50 discriminator 1
	call	_ZN6Logger11getInstanceEv@PLT
	movq	%rax, %rcx
	.loc 1 125 56 discriminator 1
	leaq	.LC16(%rip), %rax
	movq	%rax, %rdx
	leaq	.LC3(%rip), %rax
	movq	%rax, %rsi
	movq	%rcx, %rdi
	movl	$0, %eax
	call	_ZN6Logger3logEPKcz@PLT
	.loc 1 125 119 discriminator 1
	leaq	.LC16(%rip), %rax
	movq	%rax, %rsi
	leaq	.LC4(%rip), %rax
	movq	%rax, %rdi
	movl	$0, %eax
	call	printf@PLT
	.loc 1 125 270 discriminator 1
	call	_ZN6Logger11getInstanceEv@PLT
	movq	%rax, %rdi
	.loc 1 125 276 discriminator 1
	leaq	.LC27(%rip), %r8
	movl	$125, %ecx
	leaq	.LC1(%rip), %rax
	movq	%rax, %rdx
	leaq	.LC6(%rip), %rax
	movq	%rax, %rsi
	movl	$0, %eax
	call	_ZN6Logger3logEPKcz@PLT
	.loc 1 125 379 discriminator 1
	leaq	.LC27(%rip), %rax
	movq	%rax, %rcx
	movl	$125, %edx
	leaq	.LC1(%rip), %rax
	movq	%rax, %rsi
	leaq	.LC6(%rip), %rax
	movq	%rax, %rdi
	movl	$0, %eax
	call	printf@PLT
	.loc 1 125 495 discriminator 1
	call	_ZN6Logger11getInstanceEv@PLT
	movq	%rax, %rbx
	.loc 1 125 501 discriminator 1
	movl	$14, %edi
	call	strerror@PLT
	movq	%rax, %rcx
	movl	$14, %edx
	leaq	.LC7(%rip), %rax
	movq	%rax, %rsi
	movq	%rbx, %rdi
	movl	$0, %eax
	call	_ZN6Logger3logEPKcz@PLT
	.loc 1 125 27 discriminator 1
	call	_ZN6Logger11getInstanceEv@PLT
	movq	%rax, %rdi
	.loc 1 125 33 discriminator 1
	movl	$125, %ecx
	leaq	.LC24(%rip), %rax
	movq	%rax, %rdx
	leaq	.LC9(%rip), %rax
	movq	%rax, %rsi
	movl	$0, %eax
	call	_ZN6Logger3logEPKcz@PLT
	.loc 1 125 92 discriminator 1
	leaq	.LC10(%rip), %rax
	movq	%rax, %rdi
	call	system@PLT
	.loc 1 125 134 discriminator 1
	call	_ZN6Logger11getInstanceEv@PLT
	.loc 1 125 156 discriminator 1
	call	_ZN6Logger11getInstanceEv@PLT
	movq	%rax, %rbx
	.loc 1 125 169 discriminator 1
	movl	$125, %r9d
	leaq	.LC24(%rip), %r8
	movl	$125, %ecx
	leaq	.LC1(%rip), %rax
	movq	%rax, %rdx
	leaq	.LC11(%rip), %rax
	movq	%rax, %rsi
	movl	$-1, %edi
	movl	$0, %eax
	call	_Z6MsgRetiPKcz@PLT
	movl	%eax, %esi
	subq	$8, %rsp
	pushq	$125
	leaq	.LC24(%rip), %r9
	movl	$125, %r8d
	leaq	.LC1(%rip), %rax
	movq	%rax, %rcx
	leaq	.LC12(%rip), %rax
	movq	%rax, %rdx
	movq	%rbx, %rdi
	movl	$0, %eax
	call	_ZN6Logger9LogMsgRetEiPKcz@PLT
	addq	$16, %rsp
	.loc 1 125 382 discriminator 1
	jmp	.L53
.L54:
	.loc 1 127 22
	movq	-32(%rbp), %rax
	addq	$8, %rax
	movq	%rax, %rdx
	shrq	$3, %rdx
	addq	$2147450880, %rdx
	movzbl	(%rdx), %edx
	testb	%dl, %dl
	je	.L55
	movq	%rax, %rdi
	call	__asan_report_load8@PLT
.L55:
	movq	-32(%rbp), %rax
	movq	8(%rax), %rcx
	.loc 1 127 48
	movq	-32(%rbp), %rax
	addq	$16, %rax
	movq	%rax, %rdx
	shrq	$3, %rdx
	addq	$2147450880, %rdx
	movzbl	(%rdx), %edx
	testb	%dl, %dl
	je	.L56
	movq	%rax, %rdi
	call	__asan_report_load8@PLT
.L56:
	movq	-32(%rbp), %rax
	movq	16(%rax), %rax
	.loc 1 127 5
	cmpq	%rax, %rcx
	ja	.L57
	.loc 1 128 34
	movq	-32(%rbp), %rax
	movq	%rax, %rdi
	call	_ZL15ResizeFuncTabelP9FuncTabel
	.loc 1 128 47
	testl	%eax, %eax
	setne	%al
	.loc 1 128 14
	testb	%al, %al
	je	.L57
	.loc 1 128 80 discriminator 1
	call	_ZN6Logger11getInstanceEv@PLT
	movq	%rax, %rdi
	.loc 1 128 86 discriminator 1
	movl	$128, %ecx
	leaq	.LC24(%rip), %rax
	movq	%rax, %rdx
	leaq	.LC25(%rip), %rax
	movq	%rax, %rsi
	movl	$0, %eax
	call	_ZN6Logger3logEPKcz@PLT
	.loc 1 128 203 discriminator 1
	call	_ZN6Logger11getInstanceEv@PLT
	.loc 1 128 225 discriminator 1
	call	_ZN6Logger11getInstanceEv@PLT
	movq	%rax, %rbx
	.loc 1 128 238 discriminator 1
	movl	$128, %r9d
	leaq	.LC24(%rip), %r8
	movl	$128, %ecx
	leaq	.LC1(%rip), %rax
	movq	%rax, %rdx
	leaq	.LC11(%rip), %rax
	movq	%rax, %rsi
	movl	$-1, %edi
	movl	$0, %eax
	call	_Z6MsgRetiPKcz@PLT
	movl	%eax, %esi
	subq	$8, %rsp
	pushq	$128
	leaq	.LC24(%rip), %r9
	movl	$128, %r8d
	leaq	.LC1(%rip), %rax
	movq	%rax, %rcx
	leaq	.LC12(%rip), %rax
	movq	%rax, %rdx
	movq	%rbx, %rdi
	movl	$0, %eax
	call	_ZN6Logger9LogMsgRetEiPKcz@PLT
	addq	$16, %rsp
	.loc 1 128 451 discriminator 1
	jmp	.L53
.L57:
	.loc 1 130 20
	movq	-32(%rbp), %rax
	movq	%rax, %rdx
	shrq	$3, %rdx
	addq	$2147450880, %rdx
	movzbl	(%rdx), %edx
	testb	%dl, %dl
	je	.L58
	movq	%rax, %rdi
	call	__asan_report_load8@PLT
.L58:
	movq	-32(%rbp), %rax
	movq	(%rax), %rcx
	.loc 1 130 46
	movq	-32(%rbp), %rax
	addq	$16, %rax
	movq	%rax, %rdx
	shrq	$3, %rdx
	addq	$2147450880, %rdx
	movzbl	(%rdx), %edx
	testb	%dl, %dl
	je	.L59
	movq	%rax, %rdi
	call	__asan_report_load8@PLT
.L59:
	movq	-32(%rbp), %rax
	movq	16(%rax), %rax
	.loc 1 130 31
	salq	$3, %rax
	addq	%rcx, %rax
	.loc 1 130 65
	movq	%rax, %rdx
	movq	%rdx, %rcx
	shrq	$3, %rcx
	addq	$2147450880, %rcx
	movzbl	(%rcx), %ecx
	testb	%cl, %cl
	je	.L60
	movq	%rdx, %rdi
	call	__asan_report_store8@PLT
.L60:
	movq	-24(%rbp), %rdx
	movq	%rdx, (%rax)
	.loc 1 131 18
	movq	-32(%rbp), %rax
	movq	16(%rax), %rax
	.loc 1 131 35
	leaq	1(%rax), %rdx
	movq	-32(%rbp), %rax
	movq	%rdx, 16(%rax)
	.loc 1 133 12
	movl	$0, %eax
.L53:
	.loc 1 134 5
	movq	-8(%rbp), %rbx
	leave
	.cfi_def_cfa 7, 8
	ret
	.cfi_endproc
.LFE2274:
	.size	_Z12AddFuncLabelP9FuncLabelP9FuncTabel, .-_Z12AddFuncLabelP9FuncLabelP9FuncTabel
	.section	.rodata
	.align 32
.LC28:
	.string	"label1"
	.zero	57
	.align 32
.LC29:
	.string	"int CompareFuncLabels(FuncLabel*, FuncLabel*)"
	.zero	50
	.align 32
.LC30:
	.string	"CompareFuncLabels"
	.zero	46
	.align 32
.LC31:
	.string	"label2"
	.zero	57
	.text
	.globl	_Z17CompareFuncLabelsP9FuncLabelS0_
	.type	_Z17CompareFuncLabelsP9FuncLabelS0_, @function
_Z17CompareFuncLabelsP9FuncLabelS0_:
.LASANPC2275:
.LFB2275:
	.loc 1 137 5
	.cfi_startproc
	endbr64
	pushq	%rbp
	.cfi_def_cfa_offset 16
	.cfi_offset 6, -16
	movq	%rsp, %rbp
	.cfi_def_cfa_register 6
	pushq	%rbx
	subq	$24, %rsp
	.cfi_offset 3, -24
	movq	%rdi, -24(%rbp)
	movq	%rsi, -32(%rbp)
	.loc 1 138 10
	cmpq	$0, -24(%rbp)
	jne	.L62
	.loc 1 138 46 discriminator 1
	call	_ZN6Logger11getInstanceEv@PLT
	movq	%rax, %rcx
	.loc 1 138 52 discriminator 1
	leaq	.LC28(%rip), %rax
	movq	%rax, %rdx
	leaq	.LC3(%rip), %rax
	movq	%rax, %rsi
	movq	%rcx, %rdi
	movl	$0, %eax
	call	_ZN6Logger3logEPKcz@PLT
	.loc 1 138 111 discriminator 1
	leaq	.LC28(%rip), %rax
	movq	%rax, %rsi
	leaq	.LC4(%rip), %rax
	movq	%rax, %rdi
	movl	$0, %eax
	call	printf@PLT
	.loc 1 138 258 discriminator 1
	call	_ZN6Logger11getInstanceEv@PLT
	movq	%rax, %rdi
	.loc 1 138 264 discriminator 1
	leaq	.LC29(%rip), %r8
	movl	$138, %ecx
	leaq	.LC1(%rip), %rax
	movq	%rax, %rdx
	leaq	.LC6(%rip), %rax
	movq	%rax, %rsi
	movl	$0, %eax
	call	_ZN6Logger3logEPKcz@PLT
	.loc 1 138 367 discriminator 1
	leaq	.LC29(%rip), %rax
	movq	%rax, %rcx
	movl	$138, %edx
	leaq	.LC1(%rip), %rax
	movq	%rax, %rsi
	leaq	.LC6(%rip), %rax
	movq	%rax, %rdi
	movl	$0, %eax
	call	printf@PLT
	.loc 1 138 483 discriminator 1
	call	_ZN6Logger11getInstanceEv@PLT
	movq	%rax, %rbx
	.loc 1 138 489 discriminator 1
	movl	$14, %edi
	call	strerror@PLT
	movq	%rax, %rcx
	movl	$14, %edx
	leaq	.LC7(%rip), %rax
	movq	%rax, %rsi
	movq	%rbx, %rdi
	movl	$0, %eax
	call	_ZN6Logger3logEPKcz@PLT
	.loc 1 138 27 discriminator 1
	call	_ZN6Logger11getInstanceEv@PLT
	movq	%rax, %rdi
	.loc 1 138 33 discriminator 1
	movl	$138, %ecx
	leaq	.LC30(%rip), %rax
	movq	%rax, %rdx
	leaq	.LC9(%rip), %rax
	movq	%rax, %rsi
	movl	$0, %eax
	call	_ZN6Logger3logEPKcz@PLT
	.loc 1 138 92 discriminator 1
	leaq	.LC10(%rip), %rax
	movq	%rax, %rdi
	call	system@PLT
	.loc 1 138 115 discriminator 1
	movl	$0, %eax
	jmp	.L63
.L62:
	.loc 1 139 10
	cmpq	$0, -32(%rbp)
	jne	.L64
	.loc 1 139 46 discriminator 1
	call	_ZN6Logger11getInstanceEv@PLT
	movq	%rax, %rcx
	.loc 1 139 52 discriminator 1
	leaq	.LC31(%rip), %rax
	movq	%rax, %rdx
	leaq	.LC3(%rip), %rax
	movq	%rax, %rsi
	movq	%rcx, %rdi
	movl	$0, %eax
	call	_ZN6Logger3logEPKcz@PLT
	.loc 1 139 111 discriminator 1
	leaq	.LC31(%rip), %rax
	movq	%rax, %rsi
	leaq	.LC4(%rip), %rax
	movq	%rax, %rdi
	movl	$0, %eax
	call	printf@PLT
	.loc 1 139 258 discriminator 1
	call	_ZN6Logger11getInstanceEv@PLT
	movq	%rax, %rdi
	.loc 1 139 264 discriminator 1
	leaq	.LC29(%rip), %r8
	movl	$139, %ecx
	leaq	.LC1(%rip), %rax
	movq	%rax, %rdx
	leaq	.LC6(%rip), %rax
	movq	%rax, %rsi
	movl	$0, %eax
	call	_ZN6Logger3logEPKcz@PLT
	.loc 1 139 367 discriminator 1
	leaq	.LC29(%rip), %rax
	movq	%rax, %rcx
	movl	$139, %edx
	leaq	.LC1(%rip), %rax
	movq	%rax, %rsi
	leaq	.LC6(%rip), %rax
	movq	%rax, %rdi
	movl	$0, %eax
	call	printf@PLT
	.loc 1 139 483 discriminator 1
	call	_ZN6Logger11getInstanceEv@PLT
	movq	%rax, %rbx
	.loc 1 139 489 discriminator 1
	movl	$14, %edi
	call	strerror@PLT
	movq	%rax, %rcx
	movl	$14, %edx
	leaq	.LC7(%rip), %rax
	movq	%rax, %rsi
	movq	%rbx, %rdi
	movl	$0, %eax
	call	_ZN6Logger3logEPKcz@PLT
	.loc 1 139 27 discriminator 1
	call	_ZN6Logger11getInstanceEv@PLT
	movq	%rax, %rdi
	.loc 1 139 33 discriminator 1
	movl	$139, %ecx
	leaq	.LC30(%rip), %rax
	movq	%rax, %rdx
	leaq	.LC9(%rip), %rax
	movq	%rax, %rsi
	movl	$0, %eax
	call	_ZN6Logger3logEPKcz@PLT
	.loc 1 139 92 discriminator 1
	leaq	.LC10(%rip), %rax
	movq	%rax, %rdi
	call	system@PLT
	.loc 1 139 115 discriminator 1
	movl	$0, %eax
	jmp	.L63
.L64:
	.loc 1 141 17
	movq	-24(%rbp), %rax
	movq	%rax, %rdx
	movq	%rdx, %rax
	shrq	$3, %rax
	addq	$2147450880, %rax
	movzbl	(%rax), %eax
	testb	%al, %al
	setne	%cl
	cmpb	$3, %al
	setle	%al
	andl	%ecx, %eax
	testb	%al, %al
	je	.L65
	movq	%rdx, %rdi
	call	__asan_report_load4@PLT
.L65:
	movq	-24(%rbp), %rax
	movl	(%rax), %ecx
	.loc 1 141 34
	movq	-32(%rbp), %rax
	movq	%rax, %rdx
	movq	%rdx, %rax
	shrq	$3, %rax
	addq	$2147450880, %rax
	movzbl	(%rax), %eax
	testb	%al, %al
	setne	%sil
	cmpb	$3, %al
	setle	%al
	andl	%esi, %eax
	testb	%al, %al
	je	.L66
	movq	%rdx, %rdi
	call	__asan_report_load4@PLT
.L66:
	movq	-32(%rbp), %rax
	movl	(%rax), %eax
	.loc 1 141 5
	cmpl	%eax, %ecx
	je	.L67
	.loc 1 142 16
	movl	$0, %eax
	jmp	.L63
.L67:
	.loc 1 144 17
	movq	-24(%rbp), %rax
	addq	$4, %rax
	movq	%rax, %rdx
	shrq	$3, %rdx
	addq	$2147450880, %rdx
	movzbl	(%rdx), %edx
	testb	%dl, %dl
	setne	%sil
	movq	%rax, %rcx
	andl	$7, %ecx
	addl	$3, %ecx
	cmpb	%dl, %cl
	setge	%dl
	andl	%esi, %edx
	testb	%dl, %dl
	je	.L68
	movq	%rax, %rdi
	call	__asan_report_load4@PLT
.L68:
	movq	-24(%rbp), %rax
	movl	4(%rax), %ecx
	.loc 1 144 37
	movq	-32(%rbp), %rax
	addq	$4, %rax
	movq	%rax, %rdx
	shrq	$3, %rdx
	addq	$2147450880, %rdx
	movzbl	(%rdx), %edx
	testb	%dl, %dl
	setne	%dil
	movq	%rax, %rsi
	andl	$7, %esi
	addl	$3, %esi
	cmpb	%dl, %sil
	setge	%dl
	andl	%edi, %edx
	testb	%dl, %dl
	je	.L69
	movq	%rax, %rdi
	call	__asan_report_load4@PLT
.L69:
	movq	-32(%rbp), %rax
	movl	4(%rax), %eax
	.loc 1 144 5
	cmpl	%eax, %ecx
	je	.L70
	.loc 1 145 16
	movl	$0, %eax
	jmp	.L63
.L70:
	.loc 1 152 12
	movl	$1, %eax
.L63:
	.loc 1 153 5
	movq	-8(%rbp), %rbx
	leave
	.cfi_def_cfa 7, 8
	ret
	.cfi_endproc
.LFE2275:
	.size	_Z17CompareFuncLabelsP9FuncLabelS0_, .-_Z17CompareFuncLabelsP9FuncLabelS0_
	.section	.rodata
	.align 32
.LC32:
	.string	"int ResizeFuncTabel(FuncTabel*)"
	.zero	32
	.align 32
.LC33:
	.string	"ResizeFuncTabel"
	.zero	48
	.text
	.type	_ZL15ResizeFuncTabelP9FuncTabel, @function
_ZL15ResizeFuncTabelP9FuncTabel:
.LASANPC2276:
.LFB2276:
	.loc 1 158 5
	.cfi_startproc
	endbr64
	pushq	%rbp
	.cfi_def_cfa_offset 16
	.cfi_offset 6, -16
	movq	%rsp, %rbp
	.cfi_def_cfa_register 6
	pushq	%rbx
	subq	$40, %rsp
	.cfi_offset 3, -24
	movq	%rdi, -40(%rbp)
	.loc 1 159 10
	cmpq	$0, -40(%rbp)
	jne	.L72
	.loc 1 159 50 discriminator 1
	call	_ZN6Logger11getInstanceEv@PLT
	movq	%rax, %rcx
	.loc 1 159 56 discriminator 1
	leaq	.LC16(%rip), %rax
	movq	%rax, %rdx
	leaq	.LC3(%rip), %rax
	movq	%rax, %rsi
	movq	%rcx, %rdi
	movl	$0, %eax
	call	_ZN6Logger3logEPKcz@PLT
	.loc 1 159 119 discriminator 1
	leaq	.LC16(%rip), %rax
	movq	%rax, %rsi
	leaq	.LC4(%rip), %rax
	movq	%rax, %rdi
	movl	$0, %eax
	call	printf@PLT
	.loc 1 159 270 discriminator 1
	call	_ZN6Logger11getInstanceEv@PLT
	movq	%rax, %rdi
	.loc 1 159 276 discriminator 1
	leaq	.LC32(%rip), %r8
	movl	$159, %ecx
	leaq	.LC1(%rip), %rax
	movq	%rax, %rdx
	leaq	.LC6(%rip), %rax
	movq	%rax, %rsi
	movl	$0, %eax
	call	_ZN6Logger3logEPKcz@PLT
	.loc 1 159 379 discriminator 1
	leaq	.LC32(%rip), %rax
	movq	%rax, %rcx
	movl	$159, %edx
	leaq	.LC1(%rip), %rax
	movq	%rax, %rsi
	leaq	.LC6(%rip), %rax
	movq	%rax, %rdi
	movl	$0, %eax
	call	printf@PLT
	.loc 1 159 495 discriminator 1
	call	_ZN6Logger11getInstanceEv@PLT
	movq	%rax, %rbx
	.loc 1 159 501 discriminator 1
	movl	$14, %edi
	call	strerror@PLT
	movq	%rax, %rcx
	movl	$14, %edx
	leaq	.LC7(%rip), %rax
	movq	%rax, %rsi
	movq	%rbx, %rdi
	movl	$0, %eax
	call	_ZN6Logger3logEPKcz@PLT
	.loc 1 159 27 discriminator 1
	call	_ZN6Logger11getInstanceEv@PLT
	movq	%rax, %rdi
	.loc 1 159 33 discriminator 1
	movl	$159, %ecx
	leaq	.LC33(%rip), %rax
	movq	%rax, %rdx
	leaq	.LC9(%rip), %rax
	movq	%rax, %rsi
	movl	$0, %eax
	call	_ZN6Logger3logEPKcz@PLT
	.loc 1 159 92 discriminator 1
	leaq	.LC10(%rip), %rax
	movq	%rax, %rdi
	call	system@PLT
	.loc 1 159 134 discriminator 1
	call	_ZN6Logger11getInstanceEv@PLT
	.loc 1 159 156 discriminator 1
	call	_ZN6Logger11getInstanceEv@PLT
	movq	%rax, %rbx
	.loc 1 159 169 discriminator 1
	movl	$159, %r9d
	leaq	.LC33(%rip), %r8
	movl	$159, %ecx
	leaq	.LC1(%rip), %rax
	movq	%rax, %rdx
	leaq	.LC11(%rip), %rax
	movq	%rax, %rsi
	movl	$-1, %edi
	movl	$0, %eax
	call	_Z6MsgRetiPKcz@PLT
	movl	%eax, %esi
	subq	$8, %rsp
	pushq	$159
	leaq	.LC33(%rip), %r9
	movl	$159, %r8d
	leaq	.LC1(%rip), %rax
	movq	%rax, %rcx
	leaq	.LC12(%rip), %rax
	movq	%rax, %rdx
	movq	%rbx, %rdi
	movl	$0, %eax
	call	_ZN6Logger9LogMsgRetEiPKcz@PLT
	addq	$16, %rsp
	.loc 1 159 382 discriminator 1
	jmp	.L73
.L72:
	.loc 1 161 61
	call	_ZN6Logger11getInstanceEv@PLT
	movq	%rax, %rdi
	.loc 1 161 113
	movq	-40(%rbp), %rax
	addq	$8, %rax
	movq	%rax, %rdx
	shrq	$3, %rdx
	addq	$2147450880, %rdx
	movzbl	(%rdx), %edx
	testb	%dl, %dl
	je	.L74
	movq	%rax, %rdi
	call	__asan_report_load8@PLT
.L74:
	movq	-40(%rbp), %rax
	movq	8(%rax), %rax
	.loc 1 161 74
	salq	$4, %rax
	movq	%rax, %rdx
	.loc 1 161 88
	movq	-40(%rbp), %rax
	movq	%rax, %rcx
	shrq	$3, %rcx
	addq	$2147450880, %rcx
	movzbl	(%rcx), %ecx
	testb	%cl, %cl
	je	.L75
	movq	%rax, %rdi
	call	__asan_report_load8@PLT
.L75:
	movq	-40(%rbp), %rax
	movq	(%rax), %rax
	.loc 1 161 74
	movl	$161, %r9d
	leaq	.LC33(%rip), %r8
	leaq	.LC1(%rip), %rcx
	movq	%rax, %rsi
	call	_ZN6Logger9RECAL_LOGEPvmPKcS2_i@PLT
	movq	%rax, -24(%rbp)
	.loc 1 162 5
	cmpq	$0, -24(%rbp)
	jne	.L76
	.loc 1 163 35
	call	_ZN6Logger11getInstanceEv@PLT
	.loc 1 163 57
	call	_ZN6Logger11getInstanceEv@PLT
	movq	%rax, %rbx
	.loc 1 163 70
	movl	$163, %r9d
	leaq	.LC33(%rip), %r8
	movl	$163, %ecx
	leaq	.LC1(%rip), %rax
	movq	%rax, %rdx
	leaq	.LC11(%rip), %rax
	movq	%rax, %rsi
	movl	$-1, %edi
	movl	$0, %eax
	call	_Z6MsgRetiPKcz@PLT
	movl	%eax, %esi
	subq	$8, %rsp
	pushq	$163
	leaq	.LC33(%rip), %r9
	movl	$163, %r8d
	leaq	.LC1(%rip), %rax
	movq	%rax, %rcx
	leaq	.LC12(%rip), %rax
	movq	%rax, %rdx
	movq	%rbx, %rdi
	movl	$0, %eax
	call	_ZN6Logger9LogMsgRetEiPKcz@PLT
	addq	$16, %rsp
	.loc 1 163 283
	jmp	.L73
.L76:
	.loc 1 165 29
	movq	-40(%rbp), %rax
	movq	%rax, %rdx
	shrq	$3, %rdx
	addq	$2147450880, %rdx
	movzbl	(%rdx), %edx
	testb	%dl, %dl
	je	.L77
	movq	%rax, %rdi
	call	__asan_report_store8@PLT
.L77:
	movq	-40(%rbp), %rax
	movq	-24(%rbp), %rdx
	movq	%rdx, (%rax)
	.loc 1 166 29
	movq	-40(%rbp), %rax
	addq	$8, %rax
	movq	%rax, %rdx
	shrq	$3, %rdx
	addq	$2147450880, %rdx
	movzbl	(%rdx), %edx
	testb	%dl, %dl
	je	.L78
	movq	%rax, %rdi
	call	__asan_report_load8@PLT
.L78:
	movq	-40(%rbp), %rax
	movq	8(%rax), %rax
	leaq	(%rax,%rax), %rdx
	movq	-40(%rbp), %rax
	movq	%rdx, 8(%rax)
	.loc 1 168 12
	movl	$0, %eax
.L73:
	.loc 1 169 5
	movq	-8(%rbp), %rbx
	leave
	.cfi_def_cfa 7, 8
	ret
	.cfi_endproc
.LFE2276:
	.size	_ZL15ResizeFuncTabelP9FuncTabel, .-_ZL15ResizeFuncTabelP9FuncTabel
	.section	.rodata
	.align 32
.LC34:
	.string	"NewVarTabel"
	.zero	52
	.text
	.globl	_Z11NewVarTabelv
	.type	_Z11NewVarTabelv, @function
_Z11NewVarTabelv:
.LASANPC2277:
.LFB2277:
	.loc 1 173 5
	.cfi_startproc
	endbr64
	pushq	%rbp
	.cfi_def_cfa_offset 16
	.cfi_offset 6, -16
	movq	%rsp, %rbp
	.cfi_def_cfa_register 6
	subq	$16, %rsp
	.loc 1 174 54
	call	_ZN6Logger11getInstanceEv@PLT
	movq	%rax, %rdi
	.loc 1 174 65
	movl	$174, %r9d
	leaq	.LC34(%rip), %r8
	leaq	.LC1(%rip), %rax
	movq	%rax, %rcx
	movl	$24, %edx
	movl	$1, %esi
	call	_ZN6Logger7CAL_LOGEmmPKcS1_i@PLT
	movq	%rax, -8(%rbp)
	.loc 1 175 5
	cmpq	$0, -8(%rbp)
	jne	.L80
	.loc 1 176 16
	movl	$0, %eax
	jmp	.L81
.L80:
	.loc 1 178 58
	call	_ZN6Logger11getInstanceEv@PLT
	movq	%rax, %rdi
	.loc 1 178 69
	movl	$178, %r9d
	leaq	.LC34(%rip), %r8
	leaq	.LC1(%rip), %rax
	movq	%rax, %rcx
	movl	$8, %edx
	movl	$10, %esi
	call	_ZN6Logger7CAL_LOGEmmPKcS1_i@PLT
	.loc 1 178 24
	movq	-8(%rbp), %rdx
	movq	%rdx, %rcx
	shrq	$3, %rcx
	addq	$2147450880, %rcx
	movzbl	(%rcx), %ecx
	testb	%cl, %cl
	je	.L82
	movq	%rdx, %rdi
	call	__asan_report_store8@PLT
.L82:
	movq	-8(%rbp), %rdx
	movq	%rax, (%rdx)
	.loc 1 179 18
	movq	-8(%rbp), %rax
	movq	(%rax), %rax
	.loc 1 179 5
	testq	%rax, %rax
	jne	.L83
	.loc 1 181 13
	movq	-8(%rbp), %rax
	movq	%rax, %rdi
	call	free@PLT
	.loc 1 182 16
	movl	$0, %eax
	jmp	.L81
.L83:
	.loc 1 185 23
	movq	-8(%rbp), %rax
	addq	$8, %rax
	movq	%rax, %rdx
	shrq	$3, %rdx
	addq	$2147450880, %rdx
	movzbl	(%rdx), %edx
	testb	%dl, %dl
	je	.L84
	movq	%rax, %rdi
	call	__asan_report_store8@PLT
.L84:
	movq	-8(%rbp), %rax
	movq	$10, 8(%rax)
	.loc 1 186 31
	movq	-8(%rbp), %rax
	addq	$16, %rax
	movq	%rax, %rdx
	shrq	$3, %rdx
	addq	$2147450880, %rdx
	movzbl	(%rdx), %edx
	testb	%dl, %dl
	je	.L85
	movq	%rax, %rdi
	call	__asan_report_store8@PLT
.L85:
	movq	-8(%rbp), %rax
	movq	$0, 16(%rax)
	.loc 1 188 12
	movq	-8(%rbp), %rax
.L81:
	.loc 1 189 5
	leave
	.cfi_def_cfa 7, 8
	ret
	.cfi_endproc
.LFE2277:
	.size	_Z11NewVarTabelv, .-_Z11NewVarTabelv
	.section	.rodata
	.align 32
.LC35:
	.string	"int CloseVarTabel(VarTabel*)"
	.zero	35
	.align 32
.LC36:
	.string	"CloseVarTabel"
	.zero	50
	.text
	.globl	_Z13CloseVarTabelP8VarTabel
	.type	_Z13CloseVarTabelP8VarTabel, @function
_Z13CloseVarTabelP8VarTabel:
.LASANPC2278:
.LFB2278:
	.loc 1 192 5
	.cfi_startproc
	endbr64
	pushq	%rbp
	.cfi_def_cfa_offset 16
	.cfi_offset 6, -16
	movq	%rsp, %rbp
	.cfi_def_cfa_register 6
	pushq	%rbx
	subq	$40, %rsp
	.cfi_offset 3, -24
	movq	%rdi, -40(%rbp)
	.loc 1 193 10
	cmpq	$0, -40(%rbp)
	jne	.L87
	.loc 1 193 45 discriminator 1
	call	_ZN6Logger11getInstanceEv@PLT
	movq	%rax, %rcx
	.loc 1 193 51 discriminator 1
	leaq	.LC2(%rip), %rax
	movq	%rax, %rdx
	leaq	.LC3(%rip), %rax
	movq	%rax, %rsi
	movq	%rcx, %rdi
	movl	$0, %eax
	call	_ZN6Logger3logEPKcz@PLT
	.loc 1 193 109 discriminator 1
	leaq	.LC2(%rip), %rax
	movq	%rax, %rsi
	leaq	.LC4(%rip), %rax
	movq	%rax, %rdi
	movl	$0, %eax
	call	printf@PLT
	.loc 1 193 255 discriminator 1
	call	_ZN6Logger11getInstanceEv@PLT
	movq	%rax, %rdi
	.loc 1 193 261 discriminator 1
	leaq	.LC35(%rip), %r8
	movl	$193, %ecx
	leaq	.LC1(%rip), %rax
	movq	%rax, %rdx
	leaq	.LC6(%rip), %rax
	movq	%rax, %rsi
	movl	$0, %eax
	call	_ZN6Logger3logEPKcz@PLT
	.loc 1 193 364 discriminator 1
	leaq	.LC35(%rip), %rax
	movq	%rax, %rcx
	movl	$193, %edx
	leaq	.LC1(%rip), %rax
	movq	%rax, %rsi
	leaq	.LC6(%rip), %rax
	movq	%rax, %rdi
	movl	$0, %eax
	call	printf@PLT
	.loc 1 193 480 discriminator 1
	call	_ZN6Logger11getInstanceEv@PLT
	movq	%rax, %rbx
	.loc 1 193 486 discriminator 1
	movl	$14, %edi
	call	strerror@PLT
	movq	%rax, %rcx
	movl	$14, %edx
	leaq	.LC7(%rip), %rax
	movq	%rax, %rsi
	movq	%rbx, %rdi
	movl	$0, %eax
	call	_ZN6Logger3logEPKcz@PLT
	.loc 1 193 27 discriminator 1
	call	_ZN6Logger11getInstanceEv@PLT
	movq	%rax, %rdi
	.loc 1 193 33 discriminator 1
	movl	$193, %ecx
	leaq	.LC36(%rip), %rax
	movq	%rax, %rdx
	leaq	.LC9(%rip), %rax
	movq	%rax, %rsi
	movl	$0, %eax
	call	_ZN6Logger3logEPKcz@PLT
	.loc 1 193 92 discriminator 1
	leaq	.LC10(%rip), %rax
	movq	%rax, %rdi
	call	system@PLT
	.loc 1 193 134 discriminator 1
	call	_ZN6Logger11getInstanceEv@PLT
	.loc 1 193 156 discriminator 1
	call	_ZN6Logger11getInstanceEv@PLT
	movq	%rax, %rbx
	.loc 1 193 169 discriminator 1
	movl	$193, %r9d
	leaq	.LC36(%rip), %r8
	movl	$193, %ecx
	leaq	.LC1(%rip), %rax
	movq	%rax, %rdx
	leaq	.LC11(%rip), %rax
	movq	%rax, %rsi
	movl	$-1, %edi
	movl	$0, %eax
	call	_Z6MsgRetiPKcz@PLT
	movl	%eax, %esi
	subq	$8, %rsp
	pushq	$193
	leaq	.LC36(%rip), %r9
	movl	$193, %r8d
	leaq	.LC1(%rip), %rax
	movq	%rax, %rcx
	leaq	.LC12(%rip), %rax
	movq	%rax, %rdx
	movq	%rbx, %rdi
	movl	$0, %eax
	call	_ZN6Logger9LogMsgRetEiPKcz@PLT
	addq	$16, %rsp
	.loc 1 193 382 discriminator 1
	jmp	.L88
.L87:
	.loc 1 195 18
	movq	-40(%rbp), %rax
	movq	%rax, %rdx
	shrq	$3, %rdx
	addq	$2147450880, %rdx
	movzbl	(%rdx), %edx
	testb	%dl, %dl
	je	.L89
	movq	%rax, %rdi
	call	__asan_report_load8@PLT
.L89:
	movq	-40(%rbp), %rax
	movq	(%rax), %rax
	.loc 1 195 5
	testq	%rax, %rax
	jne	.L90
	.loc 1 197 15
	movq	-40(%rbp), %rax
	movq	%rax, %rsi
	leaq	.LC13(%rip), %rax
	movq	%rax, %rdi
	movl	$0, %eax
	call	printf@PLT
	.loc 1 198 16
	movl	$-1, %eax
	jmp	.L88
.L90:
	.loc 1 201 17
	movq	-40(%rbp), %rax
	addq	$8, %rax
	movq	%rax, %rdx
	shrq	$3, %rdx
	addq	$2147450880, %rdx
	movzbl	(%rdx), %edx
	testb	%dl, %dl
	je	.L91
	movq	%rax, %rdi
	call	__asan_report_load8@PLT
.L91:
	movq	-40(%rbp), %rax
	movq	8(%rax), %rcx
	.loc 1 201 37
	movq	-40(%rbp), %rax
	addq	$16, %rax
	movq	%rax, %rdx
	shrq	$3, %rdx
	addq	$2147450880, %rdx
	movzbl	(%rdx), %edx
	testb	%dl, %dl
	je	.L92
	movq	%rax, %rdi
	call	__asan_report_load8@PLT
.L92:
	movq	-40(%rbp), %rax
	movq	16(%rax), %rax
	.loc 1 201 5
	cmpq	%rax, %rcx
	jnb	.L93
	.loc 1 203 15
	movq	-40(%rbp), %rax
	movq	16(%rax), %rcx
	movq	-40(%rbp), %rax
	movq	8(%rax), %rdx
	movq	-40(%rbp), %rax
	movq	%rax, %rsi
	leaq	.LC14(%rip), %rax
	movq	%rax, %rdi
	movl	$0, %eax
	call	printf@PLT
	.loc 1 206 16
	movl	$-1, %eax
	jmp	.L88
.L93:
.LBB4:
	.loc 1 209 17
	movq	$0, -24(%rbp)
	.loc 1 209 5
	jmp	.L94
.L100:
	.loc 1 211 23
	movq	-40(%rbp), %rax
	movq	%rax, %rdx
	shrq	$3, %rdx
	addq	$2147450880, %rdx
	movzbl	(%rdx), %edx
	testb	%dl, %dl
	je	.L95
	movq	%rax, %rdi
	call	__asan_report_load8@PLT
.L95:
	movq	-40(%rbp), %rax
	movq	(%rax), %rdx
	.loc 1 211 34
	movq	-24(%rbp), %rax
	salq	$3, %rax
	addq	%rdx, %rax
	.loc 1 211 9
	testq	%rax, %rax
	jne	.L96
	.loc 1 213 20
	movq	-24(%rbp), %rdx
	movq	-40(%rbp), %rax
	movq	%rax, %rsi
	leaq	.LC15(%rip), %rax
	movq	%rax, %rdi
	movl	$0, %eax
	call	printf@PLT
	.loc 1 215 20
	movl	$-1, %eax
	jmp	.L88
.L96:
	.loc 1 218 23 discriminator 2
	movq	-40(%rbp), %rax
	movq	%rax, %rdx
	shrq	$3, %rdx
	addq	$2147450880, %rdx
	movzbl	(%rdx), %edx
	testb	%dl, %dl
	je	.L97
	.loc 1 218 23 is_stmt 0
	movq	%rax, %rdi
	call	__asan_report_load8@PLT
.L97:
	.loc 1 218 23 discriminator 2
	movq	-40(%rbp), %rax
	movq	(%rax), %rdx
	.loc 1 218 35 is_stmt 1 discriminator 2
	movq	-24(%rbp), %rax
	salq	$3, %rax
	addq	%rdx, %rax
	.loc 1 218 14 discriminator 2
	movq	%rax, %rdx
	movq	%rdx, %rcx
	shrq	$3, %rcx
	addq	$2147450880, %rcx
	movzbl	(%rcx), %ecx
	testb	%cl, %cl
	je	.L98
	.loc 1 218 14 is_stmt 0
	movq	%rdx, %rdi
	call	__asan_report_load8@PLT
.L98:
	.loc 1 218 14 discriminator 2
	movq	(%rax), %rax
	movq	%rax, %rdi
	call	free@PLT
	.loc 1 209 5 is_stmt 1 discriminator 2
	addq	$1, -24(%rbp)
.L94:
	.loc 1 209 36 discriminator 1
	movq	-40(%rbp), %rax
	addq	$16, %rax
	movq	%rax, %rdx
	shrq	$3, %rdx
	addq	$2147450880, %rdx
	movzbl	(%rdx), %edx
	testb	%dl, %dl
	je	.L99
	.loc 1 209 36 is_stmt 0
	movq	%rax, %rdi
	call	__asan_report_load8@PLT
.L99:
	.loc 1 209 36 discriminator 1
	movq	-40(%rbp), %rax
	movq	16(%rax), %rax
	.loc 1 209 26 is_stmt 1 discriminator 1
	cmpq	%rax, -24(%rbp)
	jb	.L100
.LBE4:
	.loc 1 221 19
	movq	-40(%rbp), %rax
	movq	%rax, %rdx
	shrq	$3, %rdx
	addq	$2147450880, %rdx
	movzbl	(%rdx), %edx
	testb	%dl, %dl
	je	.L101
	movq	%rax, %rdi
	call	__asan_report_load8@PLT
.L101:
	movq	-40(%rbp), %rax
	movq	(%rax), %rax
	.loc 1 221 10
	movq	%rax, %rdi
	call	free@PLT
	.loc 1 222 10
	movq	-40(%rbp), %rax
	movq	%rax, %rdi
	call	free@PLT
	.loc 1 224 12
	movl	$0, %eax
.L88:
	.loc 1 225 5
	movq	-8(%rbp), %rbx
	leave
	.cfi_def_cfa 7, 8
	ret
	.cfi_endproc
.LFE2278:
	.size	_Z13CloseVarTabelP8VarTabel, .-_Z13CloseVarTabelP8VarTabel
	.section	.rodata
	.align 32
.LC37:
	.string	"VarLabel* IsVarLabel(int, VarTabel*)"
	.zero	59
	.align 32
.LC38:
	.string	"IsVarLabel"
	.zero	53
	.align 32
.LC39:
	.string	"Empty label array in var tabel %p\n"
	.zero	61
	.text
	.globl	_Z10IsVarLabeliP8VarTabel
	.type	_Z10IsVarLabeliP8VarTabel, @function
_Z10IsVarLabeliP8VarTabel:
.LASANPC2279:
.LFB2279:
	.loc 1 228 5
	.cfi_startproc
	endbr64
	pushq	%rbp
	.cfi_def_cfa_offset 16
	.cfi_offset 6, -16
	movq	%rsp, %rbp
	.cfi_def_cfa_register 6
	pushq	%rbx
	subq	$56, %rsp
	.cfi_offset 3, -24
	movl	%edi, -52(%rbp)
	movq	%rsi, -64(%rbp)
	.loc 1 229 10
	cmpq	$0, -64(%rbp)
	jne	.L103
	.loc 1 229 45 discriminator 1
	call	_ZN6Logger11getInstanceEv@PLT
	movq	%rax, %rcx
	.loc 1 229 51 discriminator 1
	leaq	.LC2(%rip), %rax
	movq	%rax, %rdx
	leaq	.LC3(%rip), %rax
	movq	%rax, %rsi
	movq	%rcx, %rdi
	movl	$0, %eax
	call	_ZN6Logger3logEPKcz@PLT
	.loc 1 229 109 discriminator 1
	leaq	.LC2(%rip), %rax
	movq	%rax, %rsi
	leaq	.LC4(%rip), %rax
	movq	%rax, %rdi
	movl	$0, %eax
	call	printf@PLT
	.loc 1 229 255 discriminator 1
	call	_ZN6Logger11getInstanceEv@PLT
	movq	%rax, %rdi
	.loc 1 229 261 discriminator 1
	leaq	.LC37(%rip), %r8
	movl	$229, %ecx
	leaq	.LC1(%rip), %rax
	movq	%rax, %rdx
	leaq	.LC6(%rip), %rax
	movq	%rax, %rsi
	movl	$0, %eax
	call	_ZN6Logger3logEPKcz@PLT
	.loc 1 229 364 discriminator 1
	leaq	.LC37(%rip), %rax
	movq	%rax, %rcx
	movl	$229, %edx
	leaq	.LC1(%rip), %rax
	movq	%rax, %rsi
	leaq	.LC6(%rip), %rax
	movq	%rax, %rdi
	movl	$0, %eax
	call	printf@PLT
	.loc 1 229 480 discriminator 1
	call	_ZN6Logger11getInstanceEv@PLT
	movq	%rax, %rbx
	.loc 1 229 486 discriminator 1
	movl	$14, %edi
	call	strerror@PLT
	movq	%rax, %rcx
	movl	$14, %edx
	leaq	.LC7(%rip), %rax
	movq	%rax, %rsi
	movq	%rbx, %rdi
	movl	$0, %eax
	call	_ZN6Logger3logEPKcz@PLT
	.loc 1 229 27 discriminator 1
	call	_ZN6Logger11getInstanceEv@PLT
	movq	%rax, %rdi
	.loc 1 229 33 discriminator 1
	movl	$229, %ecx
	leaq	.LC38(%rip), %rax
	movq	%rax, %rdx
	leaq	.LC9(%rip), %rax
	movq	%rax, %rsi
	movl	$0, %eax
	call	_ZN6Logger3logEPKcz@PLT
	.loc 1 229 92 discriminator 1
	leaq	.LC10(%rip), %rax
	movq	%rax, %rdi
	call	system@PLT
	.loc 1 229 134 discriminator 1
	call	_ZN6Logger11getInstanceEv@PLT
	movq	%rax, %rdi
	.loc 1 229 150 discriminator 1
	movl	$229, %ecx
	leaq	.LC38(%rip), %rax
	movq	%rax, %rdx
	leaq	.LC19(%rip), %rax
	movq	%rax, %rsi
	movl	$0, %eax
	call	_ZN6Logger13LogMsgNullRetEPKcz@PLT
	.loc 1 229 209 discriminator 1
	movl	$229, %r8d
	leaq	.LC38(%rip), %rax
	movq	%rax, %rcx
	movl	$229, %edx
	leaq	.LC1(%rip), %rax
	movq	%rax, %rsi
	leaq	.LC20(%rip), %rax
	movq	%rax, %rdi
	movl	$0, %eax
	call	_Z13LogMsgNullRetPKcz@PLT
	.loc 1 229 328 discriminator 1
	movl	$0, %eax
	jmp	.L104
.L103:
	.loc 1 231 12
	movq	-64(%rbp), %rax
	addq	$16, %rax
	movq	%rax, %rdx
	shrq	$3, %rdx
	addq	$2147450880, %rdx
	movzbl	(%rdx), %edx
	testb	%dl, %dl
	je	.L105
	movq	%rax, %rdi
	call	__asan_report_load8@PLT
.L105:
	movq	-64(%rbp), %rax
	movq	16(%rax), %rax
	movq	%rax, -32(%rbp)
	.loc 1 232 5
	cmpq	$0, -32(%rbp)
	jne	.L106
	.loc 1 233 15
	movl	$0, %eax
	jmp	.L104
.L106:
	.loc 1 235 16
	movq	-64(%rbp), %rax
	movq	%rax, %rdx
	shrq	$3, %rdx
	addq	$2147450880, %rdx
	movzbl	(%rdx), %edx
	testb	%dl, %dl
	je	.L107
	movq	%rax, %rdi
	call	__asan_report_load8@PLT
.L107:
	movq	-64(%rbp), %rax
	movq	(%rax), %rax
	movq	%rax, -24(%rbp)
	.loc 1 236 5
	cmpq	$0, -24(%rbp)
	jne	.L108
	.loc 1 238 17
	leaq	.LC38(%rip), %rax
	movq	%rax, %rsi
	leaq	.LC21(%rip), %rax
	movq	%rax, %rdi
	movl	$0, %eax
	call	printf@PLT
	.loc 1 238 45
	movq	-64(%rbp), %rax
	movq	%rax, %rsi
	leaq	.LC39(%rip), %rax
	movq	%rax, %rdi
	movl	$0, %eax
	call	printf@PLT
	.loc 1 239 35
	call	_ZN6Logger11getInstanceEv@PLT
	movq	%rax, %rdi
	.loc 1 239 51
	movl	$239, %ecx
	leaq	.LC38(%rip), %rax
	movq	%rax, %rdx
	leaq	.LC19(%rip), %rax
	movq	%rax, %rsi
	movl	$0, %eax
	call	_ZN6Logger13LogMsgNullRetEPKcz@PLT
	.loc 1 239 110
	movl	$239, %r8d
	leaq	.LC38(%rip), %rax
	movq	%rax, %rcx
	movl	$239, %edx
	leaq	.LC1(%rip), %rax
	movq	%rax, %rsi
	leaq	.LC20(%rip), %rax
	movq	%rax, %rdi
	movl	$0, %eax
	call	_Z13LogMsgNullRetPKcz@PLT
	.loc 1 239 229
	movl	$0, %eax
	jmp	.L104
.L108:
.LBB5:
	.loc 1 242 16
	movq	$0, -40(%rbp)
	.loc 1 242 5
	jmp	.L109
.L114:
	.loc 1 244 37
	movq	-40(%rbp), %rax
	leaq	0(,%rax,8), %rdx
	movq	-24(%rbp), %rax
	addq	%rdx, %rax
	.loc 1 244 25
	movq	%rax, %rdx
	movq	%rdx, %rcx
	shrq	$3, %rcx
	addq	$2147450880, %rcx
	movzbl	(%rcx), %ecx
	testb	%cl, %cl
	je	.L110
	movq	%rdx, %rdi
	call	__asan_report_load8@PLT
.L110:
	movq	(%rax), %rdx
	.loc 1 244 44
	movq	%rdx, %rax
	movq	%rax, %rcx
	shrq	$3, %rcx
	addq	$2147450880, %rcx
	movzbl	(%rcx), %ecx
	testb	%cl, %cl
	setne	%dil
	movq	%rax, %rsi
	andl	$7, %esi
	addl	$3, %esi
	cmpb	%cl, %sil
	setge	%cl
	andl	%edi, %ecx
	testb	%cl, %cl
	je	.L111
	movq	%rax, %rdi
	call	__asan_report_load4@PLT
.L111:
	movl	(%rdx), %eax
	.loc 1 244 9
	cmpl	%eax, -52(%rbp)
	jne	.L112
	.loc 1 245 32
	movq	-40(%rbp), %rax
	leaq	0(,%rax,8), %rdx
	movq	-24(%rbp), %rax
	addq	%rdx, %rax
	.loc 1 245 35
	movq	%rax, %rdx
	movq	%rdx, %rcx
	shrq	$3, %rcx
	addq	$2147450880, %rcx
	movzbl	(%rcx), %ecx
	testb	%cl, %cl
	je	.L113
	movq	%rdx, %rdi
	call	__asan_report_load8@PLT
.L113:
	movq	(%rax), %rax
	jmp	.L104
.L112:
	.loc 1 242 5 discriminator 2
	addq	$1, -40(%rbp)
.L109:
	.loc 1 242 25 discriminator 1
	movq	-40(%rbp), %rax
	cmpq	-32(%rbp), %rax
	jb	.L114
.LBE5:
	.loc 1 248 11
	movl	$0, %eax
.L104:
	.loc 1 249 5
	movq	-8(%rbp), %rbx
	leave
	.cfi_def_cfa 7, 8
	ret
	.cfi_endproc
.LFE2279:
	.size	_Z10IsVarLabeliP8VarTabel, .-_Z10IsVarLabeliP8VarTabel
	.section	.rodata
	.align 32
.LC40:
	.string	"int AddVarLabel(VarLabel*, VarTabel*)"
	.zero	58
	.align 32
.LC41:
	.string	"AddVarLabel"
	.zero	52
	.align 32
.LC42:
	.string	"%s:%d::CHECK: ResizeVarTabel(tabel) == SUCCESS is false\n"
	.zero	39
	.text
	.globl	_Z11AddVarLabelP8VarLabelP8VarTabel
	.type	_Z11AddVarLabelP8VarLabelP8VarTabel, @function
_Z11AddVarLabelP8VarLabelP8VarTabel:
.LASANPC2280:
.LFB2280:
	.loc 1 252 5
	.cfi_startproc
	endbr64
	pushq	%rbp
	.cfi_def_cfa_offset 16
	.cfi_offset 6, -16
	movq	%rsp, %rbp
	.cfi_def_cfa_register 6
	pushq	%rbx
	subq	$24, %rsp
	.cfi_offset 3, -24
	movq	%rdi, -24(%rbp)
	movq	%rsi, -32(%rbp)
	.loc 1 253 10
	cmpq	$0, -24(%rbp)
	jne	.L116
	.loc 1 253 45 discriminator 1
	call	_ZN6Logger11getInstanceEv@PLT
	movq	%rax, %rcx
	.loc 1 253 51 discriminator 1
	leaq	.LC26(%rip), %rax
	movq	%rax, %rdx
	leaq	.LC3(%rip), %rax
	movq	%rax, %rsi
	movq	%rcx, %rdi
	movl	$0, %eax
	call	_ZN6Logger3logEPKcz@PLT
	.loc 1 253 109 discriminator 1
	leaq	.LC26(%rip), %rax
	movq	%rax, %rsi
	leaq	.LC4(%rip), %rax
	movq	%rax, %rdi
	movl	$0, %eax
	call	printf@PLT
	.loc 1 253 255 discriminator 1
	call	_ZN6Logger11getInstanceEv@PLT
	movq	%rax, %rdi
	.loc 1 253 261 discriminator 1
	leaq	.LC40(%rip), %r8
	movl	$253, %ecx
	leaq	.LC1(%rip), %rax
	movq	%rax, %rdx
	leaq	.LC6(%rip), %rax
	movq	%rax, %rsi
	movl	$0, %eax
	call	_ZN6Logger3logEPKcz@PLT
	.loc 1 253 364 discriminator 1
	leaq	.LC40(%rip), %rax
	movq	%rax, %rcx
	movl	$253, %edx
	leaq	.LC1(%rip), %rax
	movq	%rax, %rsi
	leaq	.LC6(%rip), %rax
	movq	%rax, %rdi
	movl	$0, %eax
	call	printf@PLT
	.loc 1 253 480 discriminator 1
	call	_ZN6Logger11getInstanceEv@PLT
	movq	%rax, %rbx
	.loc 1 253 486 discriminator 1
	movl	$14, %edi
	call	strerror@PLT
	movq	%rax, %rcx
	movl	$14, %edx
	leaq	.LC7(%rip), %rax
	movq	%rax, %rsi
	movq	%rbx, %rdi
	movl	$0, %eax
	call	_ZN6Logger3logEPKcz@PLT
	.loc 1 253 27 discriminator 1
	call	_ZN6Logger11getInstanceEv@PLT
	movq	%rax, %rdi
	.loc 1 253 33 discriminator 1
	movl	$253, %ecx
	leaq	.LC41(%rip), %rax
	movq	%rax, %rdx
	leaq	.LC9(%rip), %rax
	movq	%rax, %rsi
	movl	$0, %eax
	call	_ZN6Logger3logEPKcz@PLT
	.loc 1 253 92 discriminator 1
	leaq	.LC10(%rip), %rax
	movq	%rax, %rdi
	call	system@PLT
	.loc 1 253 115 discriminator 1
	movl	$-1, %eax
	jmp	.L117
.L116:
	.loc 1 254 10
	cmpq	$0, -32(%rbp)
	jne	.L118
	.loc 1 254 45 discriminator 1
	call	_ZN6Logger11getInstanceEv@PLT
	movq	%rax, %rcx
	.loc 1 254 51 discriminator 1
	leaq	.LC2(%rip), %rax
	movq	%rax, %rdx
	leaq	.LC3(%rip), %rax
	movq	%rax, %rsi
	movq	%rcx, %rdi
	movl	$0, %eax
	call	_ZN6Logger3logEPKcz@PLT
	.loc 1 254 109 discriminator 1
	leaq	.LC2(%rip), %rax
	movq	%rax, %rsi
	leaq	.LC4(%rip), %rax
	movq	%rax, %rdi
	movl	$0, %eax
	call	printf@PLT
	.loc 1 254 255 discriminator 1
	call	_ZN6Logger11getInstanceEv@PLT
	movq	%rax, %rdi
	.loc 1 254 261 discriminator 1
	leaq	.LC40(%rip), %r8
	movl	$254, %ecx
	leaq	.LC1(%rip), %rax
	movq	%rax, %rdx
	leaq	.LC6(%rip), %rax
	movq	%rax, %rsi
	movl	$0, %eax
	call	_ZN6Logger3logEPKcz@PLT
	.loc 1 254 364 discriminator 1
	leaq	.LC40(%rip), %rax
	movq	%rax, %rcx
	movl	$254, %edx
	leaq	.LC1(%rip), %rax
	movq	%rax, %rsi
	leaq	.LC6(%rip), %rax
	movq	%rax, %rdi
	movl	$0, %eax
	call	printf@PLT
	.loc 1 254 480 discriminator 1
	call	_ZN6Logger11getInstanceEv@PLT
	movq	%rax, %rbx
	.loc 1 254 486 discriminator 1
	movl	$14, %edi
	call	strerror@PLT
	movq	%rax, %rcx
	movl	$14, %edx
	leaq	.LC7(%rip), %rax
	movq	%rax, %rsi
	movq	%rbx, %rdi
	movl	$0, %eax
	call	_ZN6Logger3logEPKcz@PLT
	.loc 1 254 27 discriminator 1
	call	_ZN6Logger11getInstanceEv@PLT
	movq	%rax, %rdi
	.loc 1 254 33 discriminator 1
	movl	$254, %ecx
	leaq	.LC41(%rip), %rax
	movq	%rax, %rdx
	leaq	.LC9(%rip), %rax
	movq	%rax, %rsi
	movl	$0, %eax
	call	_ZN6Logger3logEPKcz@PLT
	.loc 1 254 92 discriminator 1
	leaq	.LC10(%rip), %rax
	movq	%rax, %rdi
	call	system@PLT
	.loc 1 254 115 discriminator 1
	movl	$-1, %eax
	jmp	.L117
.L118:
	.loc 1 256 17
	movq	-32(%rbp), %rax
	addq	$8, %rax
	movq	%rax, %rdx
	shrq	$3, %rdx
	addq	$2147450880, %rdx
	movzbl	(%rdx), %edx
	testb	%dl, %dl
	je	.L119
	movq	%rax, %rdi
	call	__asan_report_load8@PLT
.L119:
	movq	-32(%rbp), %rax
	movq	8(%rax), %rcx
	.loc 1 256 38
	movq	-32(%rbp), %rax
	addq	$16, %rax
	movq	%rax, %rdx
	shrq	$3, %rdx
	addq	$2147450880, %rdx
	movzbl	(%rdx), %edx
	testb	%dl, %dl
	je	.L120
	movq	%rax, %rdi
	call	__asan_report_load8@PLT
.L120:
	movq	-32(%rbp), %rax
	movq	16(%rax), %rax
	.loc 1 256 5
	cmpq	%rax, %rcx
	ja	.L121
	.loc 1 257 33
	movq	-32(%rbp), %rax
	movq	%rax, %rdi
	call	_ZL14ResizeVarTabelP8VarTabel
	.loc 1 257 41
	testl	%eax, %eax
	setne	%al
	.loc 1 257 14
	testb	%al, %al
	je	.L121
	.loc 1 257 74 discriminator 1
	call	_ZN6Logger11getInstanceEv@PLT
	movq	%rax, %rdi
	.loc 1 257 80 discriminator 1
	movl	$257, %ecx
	leaq	.LC41(%rip), %rax
	movq	%rax, %rdx
	leaq	.LC42(%rip), %rax
	movq	%rax, %rsi
	movl	$0, %eax
	call	_ZN6Logger3logEPKcz@PLT
	.loc 1 257 191 discriminator 1
	call	_ZN6Logger11getInstanceEv@PLT
	.loc 1 257 213 discriminator 1
	call	_ZN6Logger11getInstanceEv@PLT
	movq	%rax, %rbx
	.loc 1 257 226 discriminator 1
	movl	$257, %r9d
	leaq	.LC41(%rip), %r8
	movl	$257, %ecx
	leaq	.LC1(%rip), %rax
	movq	%rax, %rdx
	leaq	.LC11(%rip), %rax
	movq	%rax, %rsi
	movl	$-1, %edi
	movl	$0, %eax
	call	_Z6MsgRetiPKcz@PLT
	movl	%eax, %esi
	subq	$8, %rsp
	pushq	$257
	leaq	.LC41(%rip), %r9
	movl	$257, %r8d
	leaq	.LC1(%rip), %rax
	movq	%rax, %rcx
	leaq	.LC12(%rip), %rax
	movq	%rax, %rdx
	movq	%rbx, %rdi
	movl	$0, %eax
	call	_ZN6Logger9LogMsgRetEiPKcz@PLT
	addq	$16, %rsp
	.loc 1 257 439 discriminator 1
	jmp	.L117
.L121:
	.loc 1 259 15
	movq	-32(%rbp), %rax
	movq	%rax, %rdx
	shrq	$3, %rdx
	addq	$2147450880, %rdx
	movzbl	(%rdx), %edx
	testb	%dl, %dl
	je	.L122
	movq	%rax, %rdi
	call	__asan_report_load8@PLT
.L122:
	movq	-32(%rbp), %rax
	movq	(%rax), %rcx
	.loc 1 259 36
	movq	-32(%rbp), %rax
	addq	$16, %rax
	movq	%rax, %rdx
	shrq	$3, %rdx
	addq	$2147450880, %rdx
	movzbl	(%rdx), %edx
	testb	%dl, %dl
	je	.L123
	movq	%rax, %rdi
	call	__asan_report_load8@PLT
.L123:
	movq	-32(%rbp), %rax
	movq	16(%rax), %rax
	.loc 1 259 26
	salq	$3, %rax
	addq	%rcx, %rax
	.loc 1 259 55
	movq	%rax, %rdx
	movq	%rdx, %rcx
	shrq	$3, %rcx
	addq	$2147450880, %rcx
	movzbl	(%rcx), %ecx
	testb	%cl, %cl
	je	.L124
	movq	%rdx, %rdi
	call	__asan_report_store8@PLT
.L124:
	movq	-24(%rbp), %rdx
	movq	%rdx, (%rax)
	.loc 1 260 13
	movq	-32(%rbp), %rax
	movq	16(%rax), %rax
	.loc 1 260 30
	leaq	1(%rax), %rdx
	movq	-32(%rbp), %rax
	movq	%rdx, 16(%rax)
	.loc 1 262 12
	movl	$0, %eax
.L117:
	.loc 1 263 5
	movq	-8(%rbp), %rbx
	leave
	.cfi_def_cfa 7, 8
	ret
	.cfi_endproc
.LFE2280:
	.size	_Z11AddVarLabelP8VarLabelP8VarTabel, .-_Z11AddVarLabelP8VarLabelP8VarTabel
	.section	.rodata
	.align 32
.LC43:
	.string	"int AddVarLabel(int, VarTabel*)"
	.zero	32
	.text
	.globl	_Z11AddVarLabeliP8VarTabel
	.type	_Z11AddVarLabeliP8VarTabel, @function
_Z11AddVarLabeliP8VarTabel:
.LASANPC2281:
.LFB2281:
	.loc 1 266 5
	.cfi_startproc
	endbr64
	pushq	%rbp
	.cfi_def_cfa_offset 16
	.cfi_offset 6, -16
	movq	%rsp, %rbp
	.cfi_def_cfa_register 6
	pushq	%rbx
	subq	$40, %rsp
	.cfi_offset 3, -24
	movl	%edi, -36(%rbp)
	movq	%rsi, -48(%rbp)
	.loc 1 267 10
	cmpq	$0, -48(%rbp)
	jne	.L126
	.loc 1 267 45 discriminator 1
	call	_ZN6Logger11getInstanceEv@PLT
	movq	%rax, %rcx
	.loc 1 267 51 discriminator 1
	leaq	.LC2(%rip), %rax
	movq	%rax, %rdx
	leaq	.LC3(%rip), %rax
	movq	%rax, %rsi
	movq	%rcx, %rdi
	movl	$0, %eax
	call	_ZN6Logger3logEPKcz@PLT
	.loc 1 267 109 discriminator 1
	leaq	.LC2(%rip), %rax
	movq	%rax, %rsi
	leaq	.LC4(%rip), %rax
	movq	%rax, %rdi
	movl	$0, %eax
	call	printf@PLT
	.loc 1 267 255 discriminator 1
	call	_ZN6Logger11getInstanceEv@PLT
	movq	%rax, %rdi
	.loc 1 267 261 discriminator 1
	leaq	.LC43(%rip), %r8
	movl	$267, %ecx
	leaq	.LC1(%rip), %rax
	movq	%rax, %rdx
	leaq	.LC6(%rip), %rax
	movq	%rax, %rsi
	movl	$0, %eax
	call	_ZN6Logger3logEPKcz@PLT
	.loc 1 267 364 discriminator 1
	leaq	.LC43(%rip), %rax
	movq	%rax, %rcx
	movl	$267, %edx
	leaq	.LC1(%rip), %rax
	movq	%rax, %rsi
	leaq	.LC6(%rip), %rax
	movq	%rax, %rdi
	movl	$0, %eax
	call	printf@PLT
	.loc 1 267 480 discriminator 1
	call	_ZN6Logger11getInstanceEv@PLT
	movq	%rax, %rbx
	.loc 1 267 486 discriminator 1
	movl	$14, %edi
	call	strerror@PLT
	movq	%rax, %rcx
	movl	$14, %edx
	leaq	.LC7(%rip), %rax
	movq	%rax, %rsi
	movq	%rbx, %rdi
	movl	$0, %eax
	call	_ZN6Logger3logEPKcz@PLT
	.loc 1 267 27 discriminator 1
	call	_ZN6Logger11getInstanceEv@PLT
	movq	%rax, %rdi
	.loc 1 267 33 discriminator 1
	movl	$267, %ecx
	leaq	.LC41(%rip), %rax
	movq	%rax, %rdx
	leaq	.LC9(%rip), %rax
	movq	%rax, %rsi
	movl	$0, %eax
	call	_ZN6Logger3logEPKcz@PLT
	.loc 1 267 92 discriminator 1
	leaq	.LC10(%rip), %rax
	movq	%rax, %rdi
	call	system@PLT
	.loc 1 267 134 discriminator 1
	call	_ZN6Logger11getInstanceEv@PLT
	.loc 1 267 156 discriminator 1
	call	_ZN6Logger11getInstanceEv@PLT
	movq	%rax, %rbx
	.loc 1 267 169 discriminator 1
	movl	$267, %r9d
	leaq	.LC41(%rip), %r8
	movl	$267, %ecx
	leaq	.LC1(%rip), %rax
	movq	%rax, %rdx
	leaq	.LC11(%rip), %rax
	movq	%rax, %rsi
	movl	$-1, %edi
	movl	$0, %eax
	call	_Z6MsgRetiPKcz@PLT
	movl	%eax, %esi
	subq	$8, %rsp
	pushq	$267
	leaq	.LC41(%rip), %r9
	movl	$267, %r8d
	leaq	.LC1(%rip), %rax
	movq	%rax, %rcx
	leaq	.LC12(%rip), %rax
	movq	%rax, %rdx
	movq	%rbx, %rdi
	movl	$0, %eax
	call	_ZN6Logger9LogMsgRetEiPKcz@PLT
	addq	$16, %rsp
	.loc 1 267 382 discriminator 1
	jmp	.L127
.L126:
	.loc 1 269 17
	movq	-48(%rbp), %rax
	addq	$8, %rax
	movq	%rax, %rdx
	shrq	$3, %rdx
	addq	$2147450880, %rdx
	movzbl	(%rdx), %edx
	testb	%dl, %dl
	je	.L128
	movq	%rax, %rdi
	call	__asan_report_load8@PLT
.L128:
	movq	-48(%rbp), %rax
	movq	8(%rax), %rcx
	.loc 1 269 38
	movq	-48(%rbp), %rax
	addq	$16, %rax
	movq	%rax, %rdx
	shrq	$3, %rdx
	addq	$2147450880, %rdx
	movzbl	(%rdx), %edx
	testb	%dl, %dl
	je	.L129
	movq	%rax, %rdi
	call	__asan_report_load8@PLT
.L129:
	movq	-48(%rbp), %rax
	movq	16(%rax), %rax
	.loc 1 269 5
	cmpq	%rax, %rcx
	ja	.L130
	.loc 1 270 33
	movq	-48(%rbp), %rax
	movq	%rax, %rdi
	call	_ZL14ResizeVarTabelP8VarTabel
	.loc 1 270 41
	testl	%eax, %eax
	setne	%al
	.loc 1 270 14
	testb	%al, %al
	je	.L130
	.loc 1 270 74 discriminator 1
	call	_ZN6Logger11getInstanceEv@PLT
	movq	%rax, %rdi
	.loc 1 270 80 discriminator 1
	movl	$270, %ecx
	leaq	.LC41(%rip), %rax
	movq	%rax, %rdx
	leaq	.LC42(%rip), %rax
	movq	%rax, %rsi
	movl	$0, %eax
	call	_ZN6Logger3logEPKcz@PLT
	.loc 1 270 191 discriminator 1
	call	_ZN6Logger11getInstanceEv@PLT
	.loc 1 270 213 discriminator 1
	call	_ZN6Logger11getInstanceEv@PLT
	movq	%rax, %rbx
	.loc 1 270 226 discriminator 1
	movl	$270, %r9d
	leaq	.LC41(%rip), %r8
	movl	$270, %ecx
	leaq	.LC1(%rip), %rax
	movq	%rax, %rdx
	leaq	.LC11(%rip), %rax
	movq	%rax, %rsi
	movl	$-1, %edi
	movl	$0, %eax
	call	_Z6MsgRetiPKcz@PLT
	movl	%eax, %esi
	subq	$8, %rsp
	pushq	$270
	leaq	.LC41(%rip), %r9
	movl	$270, %r8d
	leaq	.LC1(%rip), %rax
	movq	%rax, %rcx
	leaq	.LC12(%rip), %rax
	movq	%rax, %rdx
	movq	%rbx, %rdi
	movl	$0, %eax
	call	_ZN6Logger9LogMsgRetEiPKcz@PLT
	addq	$16, %rsp
	.loc 1 270 439 discriminator 1
	jmp	.L127
.L130:
	.loc 1 272 58
	call	_ZN6Logger11getInstanceEv@PLT
	movq	%rax, %rdi
	.loc 1 272 69
	movl	$272, %r9d
	leaq	.LC41(%rip), %r8
	leaq	.LC1(%rip), %rax
	movq	%rax, %rcx
	movl	$8, %edx
	movl	$1, %esi
	call	_ZN6Logger7CAL_LOGEmmPKcS1_i@PLT
	movq	%rax, -24(%rbp)
	.loc 1 274 5
	cmpq	$0, -24(%rbp)
	jne	.L131
	.loc 1 275 35
	call	_ZN6Logger11getInstanceEv@PLT
	.loc 1 275 57
	call	_ZN6Logger11getInstanceEv@PLT
	movq	%rax, %rbx
	.loc 1 275 70
	movl	$275, %r9d
	leaq	.LC41(%rip), %r8
	movl	$275, %ecx
	leaq	.LC1(%rip), %rax
	movq	%rax, %rdx
	leaq	.LC11(%rip), %rax
	movq	%rax, %rsi
	movl	$-1, %edi
	movl	$0, %eax
	call	_Z6MsgRetiPKcz@PLT
	movl	%eax, %esi
	subq	$8, %rsp
	pushq	$275
	leaq	.LC41(%rip), %r9
	movl	$275, %r8d
	leaq	.LC1(%rip), %rax
	movq	%rax, %rcx
	leaq	.LC12(%rip), %rax
	movq	%rax, %rdx
	movq	%rbx, %rdi
	movl	$0, %eax
	call	_ZN6Logger9LogMsgRetEiPKcz@PLT
	addq	$16, %rsp
	.loc 1 275 283
	jmp	.L127
.L131:
	.loc 1 277 24
	movq	-24(%rbp), %rax
	movq	%rax, %rdx
	shrq	$3, %rdx
	addq	$2147450880, %rdx
	movzbl	(%rdx), %edx
	testb	%dl, %dl
	setne	%sil
	movq	%rax, %rcx
	andl	$7, %ecx
	addl	$3, %ecx
	cmpb	%dl, %cl
	setge	%dl
	andl	%esi, %edx
	testb	%dl, %dl
	je	.L132
	movq	%rax, %rdi
	call	__asan_report_store4@PLT
.L132:
	movq	-24(%rbp), %rax
	movl	-36(%rbp), %edx
	movl	%edx, (%rax)
	.loc 1 279 15
	movq	-48(%rbp), %rax
	movq	%rax, %rdx
	shrq	$3, %rdx
	addq	$2147450880, %rdx
	movzbl	(%rdx), %edx
	testb	%dl, %dl
	je	.L133
	movq	%rax, %rdi
	call	__asan_report_load8@PLT
.L133:
	movq	-48(%rbp), %rax
	movq	(%rax), %rcx
	.loc 1 279 36
	movq	-48(%rbp), %rax
	addq	$16, %rax
	movq	%rax, %rdx
	shrq	$3, %rdx
	addq	$2147450880, %rdx
	movzbl	(%rdx), %edx
	testb	%dl, %dl
	je	.L134
	movq	%rax, %rdi
	call	__asan_report_load8@PLT
.L134:
	movq	-48(%rbp), %rax
	movq	16(%rax), %rax
	.loc 1 279 26
	salq	$3, %rax
	addq	%rcx, %rax
	.loc 1 279 55
	movq	%rax, %rdx
	movq	%rdx, %rcx
	shrq	$3, %rcx
	addq	$2147450880, %rcx
	movzbl	(%rcx), %ecx
	testb	%cl, %cl
	je	.L135
	movq	%rdx, %rdi
	call	__asan_report_store8@PLT
.L135:
	movq	-24(%rbp), %rdx
	movq	%rdx, (%rax)
	.loc 1 280 13
	movq	-48(%rbp), %rax
	movq	16(%rax), %rax
	.loc 1 280 30
	leaq	1(%rax), %rdx
	movq	-48(%rbp), %rax
	movq	%rdx, 16(%rax)
	.loc 1 282 12
	movl	$0, %eax
.L127:
	.loc 1 283 5
	movq	-8(%rbp), %rbx
	leave
	.cfi_def_cfa 7, 8
	ret
	.cfi_endproc
.LFE2281:
	.size	_Z11AddVarLabeliP8VarTabel, .-_Z11AddVarLabeliP8VarTabel
	.section	.rodata
	.align 32
.LC44:
	.string	"int ResizeVarTabel(VarTabel*)"
	.zero	34
	.align 32
.LC45:
	.string	"ResizeVarTabel"
	.zero	49
	.text
	.type	_ZL14ResizeVarTabelP8VarTabel, @function
_ZL14ResizeVarTabelP8VarTabel:
.LASANPC2282:
.LFB2282:
	.loc 1 286 5
	.cfi_startproc
	endbr64
	pushq	%rbp
	.cfi_def_cfa_offset 16
	.cfi_offset 6, -16
	movq	%rsp, %rbp
	.cfi_def_cfa_register 6
	pushq	%rbx
	subq	$40, %rsp
	.cfi_offset 3, -24
	movq	%rdi, -40(%rbp)
	.loc 1 287 10
	cmpq	$0, -40(%rbp)
	jne	.L137
	.loc 1 287 45 discriminator 1
	call	_ZN6Logger11getInstanceEv@PLT
	movq	%rax, %rcx
	.loc 1 287 51 discriminator 1
	leaq	.LC2(%rip), %rax
	movq	%rax, %rdx
	leaq	.LC3(%rip), %rax
	movq	%rax, %rsi
	movq	%rcx, %rdi
	movl	$0, %eax
	call	_ZN6Logger3logEPKcz@PLT
	.loc 1 287 109 discriminator 1
	leaq	.LC2(%rip), %rax
	movq	%rax, %rsi
	leaq	.LC4(%rip), %rax
	movq	%rax, %rdi
	movl	$0, %eax
	call	printf@PLT
	.loc 1 287 255 discriminator 1
	call	_ZN6Logger11getInstanceEv@PLT
	movq	%rax, %rdi
	.loc 1 287 261 discriminator 1
	leaq	.LC44(%rip), %r8
	movl	$287, %ecx
	leaq	.LC1(%rip), %rax
	movq	%rax, %rdx
	leaq	.LC6(%rip), %rax
	movq	%rax, %rsi
	movl	$0, %eax
	call	_ZN6Logger3logEPKcz@PLT
	.loc 1 287 364 discriminator 1
	leaq	.LC44(%rip), %rax
	movq	%rax, %rcx
	movl	$287, %edx
	leaq	.LC1(%rip), %rax
	movq	%rax, %rsi
	leaq	.LC6(%rip), %rax
	movq	%rax, %rdi
	movl	$0, %eax
	call	printf@PLT
	.loc 1 287 480 discriminator 1
	call	_ZN6Logger11getInstanceEv@PLT
	movq	%rax, %rbx
	.loc 1 287 486 discriminator 1
	movl	$14, %edi
	call	strerror@PLT
	movq	%rax, %rcx
	movl	$14, %edx
	leaq	.LC7(%rip), %rax
	movq	%rax, %rsi
	movq	%rbx, %rdi
	movl	$0, %eax
	call	_ZN6Logger3logEPKcz@PLT
	.loc 1 287 27 discriminator 1
	call	_ZN6Logger11getInstanceEv@PLT
	movq	%rax, %rdi
	.loc 1 287 33 discriminator 1
	movl	$287, %ecx
	leaq	.LC45(%rip), %rax
	movq	%rax, %rdx
	leaq	.LC9(%rip), %rax
	movq	%rax, %rsi
	movl	$0, %eax
	call	_ZN6Logger3logEPKcz@PLT
	.loc 1 287 92 discriminator 1
	leaq	.LC10(%rip), %rax
	movq	%rax, %rdi
	call	system@PLT
	.loc 1 287 134 discriminator 1
	call	_ZN6Logger11getInstanceEv@PLT
	.loc 1 287 156 discriminator 1
	call	_ZN6Logger11getInstanceEv@PLT
	movq	%rax, %rbx
	.loc 1 287 169 discriminator 1
	movl	$287, %r9d
	leaq	.LC45(%rip), %r8
	movl	$287, %ecx
	leaq	.LC1(%rip), %rax
	movq	%rax, %rdx
	leaq	.LC11(%rip), %rax
	movq	%rax, %rsi
	movl	$-1, %edi
	movl	$0, %eax
	call	_Z6MsgRetiPKcz@PLT
	movl	%eax, %esi
	subq	$8, %rsp
	pushq	$287
	leaq	.LC45(%rip), %r9
	movl	$287, %r8d
	leaq	.LC1(%rip), %rax
	movq	%rax, %rcx
	leaq	.LC12(%rip), %rax
	movq	%rax, %rdx
	movq	%rbx, %rdi
	movl	$0, %eax
	call	_ZN6Logger9LogMsgRetEiPKcz@PLT
	addq	$16, %rsp
	.loc 1 287 382 discriminator 1
	jmp	.L138
.L137:
	.loc 1 289 59
	call	_ZN6Logger11getInstanceEv@PLT
	movq	%rax, %rdi
	.loc 1 289 101
	movq	-40(%rbp), %rax
	addq	$8, %rax
	movq	%rax, %rdx
	shrq	$3, %rdx
	addq	$2147450880, %rdx
	movzbl	(%rdx), %edx
	testb	%dl, %dl
	je	.L139
	movq	%rax, %rdi
	call	__asan_report_load8@PLT
.L139:
	movq	-40(%rbp), %rax
	movq	8(%rax), %rax
	.loc 1 289 72
	salq	$4, %rax
	movq	%rax, %rdx
	.loc 1 289 81
	movq	-40(%rbp), %rax
	movq	%rax, %rcx
	shrq	$3, %rcx
	addq	$2147450880, %rcx
	movzbl	(%rcx), %ecx
	testb	%cl, %cl
	je	.L140
	movq	%rax, %rdi
	call	__asan_report_load8@PLT
.L140:
	movq	-40(%rbp), %rax
	movq	(%rax), %rax
	.loc 1 289 72
	movl	$289, %r9d
	leaq	.LC45(%rip), %r8
	leaq	.LC1(%rip), %rcx
	movq	%rax, %rsi
	call	_ZN6Logger9RECAL_LOGEPvmPKcS2_i@PLT
	movq	%rax, -24(%rbp)
	.loc 1 290 5
	cmpq	$0, -24(%rbp)
	jne	.L141
	.loc 1 291 35
	call	_ZN6Logger11getInstanceEv@PLT
	.loc 1 291 57
	call	_ZN6Logger11getInstanceEv@PLT
	movq	%rax, %rbx
	.loc 1 291 70
	movl	$291, %r9d
	leaq	.LC45(%rip), %r8
	movl	$291, %ecx
	leaq	.LC1(%rip), %rax
	movq	%rax, %rdx
	leaq	.LC11(%rip), %rax
	movq	%rax, %rsi
	movl	$-1, %edi
	movl	$0, %eax
	call	_Z6MsgRetiPKcz@PLT
	movl	%eax, %esi
	subq	$8, %rsp
	pushq	$291
	leaq	.LC45(%rip), %r9
	movl	$291, %r8d
	leaq	.LC1(%rip), %rax
	movq	%rax, %rcx
	leaq	.LC12(%rip), %rax
	movq	%rax, %rdx
	movq	%rbx, %rdi
	movl	$0, %eax
	call	_ZN6Logger9LogMsgRetEiPKcz@PLT
	addq	$16, %rsp
	.loc 1 291 283
	jmp	.L138
.L141:
	.loc 1 293 24
	movq	-40(%rbp), %rax
	movq	%rax, %rdx
	shrq	$3, %rdx
	addq	$2147450880, %rdx
	movzbl	(%rdx), %edx
	testb	%dl, %dl
	je	.L142
	movq	%rax, %rdi
	call	__asan_report_store8@PLT
.L142:
	movq	-40(%rbp), %rax
	movq	-24(%rbp), %rdx
	movq	%rdx, (%rax)
	.loc 1 294 24
	movq	-40(%rbp), %rax
	addq	$8, %rax
	movq	%rax, %rdx
	shrq	$3, %rdx
	addq	$2147450880, %rdx
	movzbl	(%rdx), %edx
	testb	%dl, %dl
	je	.L143
	movq	%rax, %rdi
	call	__asan_report_load8@PLT
.L143:
	movq	-40(%rbp), %rax
	movq	8(%rax), %rax
	leaq	(%rax,%rax), %rdx
	movq	-40(%rbp), %rax
	movq	%rdx, 8(%rax)
	.loc 1 296 12
	movl	$0, %eax
.L138:
	.loc 1 297 5
	movq	-8(%rbp), %rbx
	leave
	.cfi_def_cfa 7, 8
	ret
	.cfi_endproc
.LFE2282:
	.size	_ZL14ResizeVarTabelP8VarTabel, .-_ZL14ResizeVarTabelP8VarTabel
	.type	_Z41__static_initialization_and_destruction_0ii, @function
_Z41__static_initialization_and_destruction_0ii:
.LASANPC2949:
.LFB2949:
	.loc 1 297 5
	.cfi_startproc
	endbr64
	pushq	%rbp
	.cfi_def_cfa_offset 16
	.cfi_offset 6, -16
	movq	%rsp, %rbp
	.cfi_def_cfa_register 6
	subq	$16, %rsp
	movl	%edi, -4(%rbp)
	movl	%esi, -8(%rbp)
	.loc 1 297 5
	cmpl	$1, -4(%rbp)
	jne	.L147
	.loc 1 297 5 is_stmt 0 discriminator 1
	leaq	.LC1(%rip), %rax
	movq	%rax, %rdi
	call	__asan_before_dynamic_init@PLT
	cmpl	$65535, -8(%rbp)
	jne	.L146
	.file 2 "/usr/include/c++/11/iostream"
	.loc 2 74 25 is_stmt 1
	leaq	_ZStL8__ioinit(%rip), %rax
	movq	%rax, %rdi
	call	_ZNSt8ios_base4InitC1Ev@PLT
	leaq	__dso_handle(%rip), %rax
	movq	%rax, %rdx
	leaq	_ZStL8__ioinit(%rip), %rax
	movq	%rax, %rsi
	movq	_ZNSt8ios_base4InitD1Ev@GOTPCREL(%rip), %rax
	movq	%rax, %rdi
	call	__cxa_atexit@PLT
.L146:
	.loc 2 74 25 is_stmt 0 discriminator 1
	call	__asan_after_dynamic_init@PLT
.L147:
	.loc 1 297 5 is_stmt 1
	nop
	leave
	.cfi_def_cfa 7, 8
	ret
	.cfi_endproc
.LFE2949:
	.size	_Z41__static_initialization_and_destruction_0ii, .-_Z41__static_initialization_and_destruction_0ii
	.type	_GLOBAL__sub_I__Z12NewFuncTabelv, @function
_GLOBAL__sub_I__Z12NewFuncTabelv:
.LASANPC2950:
.LFB2950:
	.loc 1 297 5
	.cfi_startproc
	endbr64
	pushq	%rbp
	.cfi_def_cfa_offset 16
	.cfi_offset 6, -16
	movq	%rsp, %rbp
	.cfi_def_cfa_register 6
	.loc 1 297 5
	movl	$65535, %esi
	movl	$1, %edi
	call	_Z41__static_initialization_and_destruction_0ii
	popq	%rbp
	.cfi_def_cfa 7, 8
	ret
	.cfi_endproc
.LFE2950:
	.size	_GLOBAL__sub_I__Z12NewFuncTabelv, .-_GLOBAL__sub_I__Z12NewFuncTabelv
	.section	.init_array,"aw"
	.align 8
	.quad	_GLOBAL__sub_I__Z12NewFuncTabelv
	.section	.data.rel.local,"aw"
	.align 16
	.type	.LASANLOC1, @object
	.size	.LASANLOC1, 16
.LASANLOC1:
	.quad	.LC1
	.long	7
	.long	11
	.align 16
	.type	.LASANLOC2, @object
	.size	.LASANLOC2, 16
.LASANLOC2:
	.quad	.LC1
	.long	5
	.long	11
	.section	.rodata
	.align 8
.LC46:
	.string	"../ATC/RandomStuff/CommonEnums.h"
	.section	.data.rel.local
	.align 16
	.type	.LASANLOC3, @object
	.size	.LASANLOC3, 16
.LASANLOC3:
	.quad	.LC46
	.long	3
	.long	11
	.section	.rodata
.LC47:
	.string	"../ATC/Logger/LogConfig.h"
	.section	.data.rel.local
	.align 16
	.type	.LASANLOC4, @object
	.size	.LASANLOC4, 16
.LASANLOC4:
	.quad	.LC47
	.long	3
	.long	12
	.section	.rodata
.LC48:
	.string	"/usr/include/c++/11/iostream"
	.section	.data.rel.local
	.align 16
	.type	.LASANLOC5, @object
	.size	.LASANLOC5, 16
.LASANLOC5:
	.quad	.LC48
	.long	74
	.long	25
	.section	.rodata
	.align 8
.LC49:
	.string	"../Common/Structures/Tabels/Tabels.h"
	.section	.data.rel.local
	.align 16
	.type	.LASANLOC6, @object
	.size	.LASANLOC6, 16
.LASANLOC6:
	.quad	.LC49
	.long	7
	.long	11
	.section	.rodata
.LC50:
	.string	"START_LABEL_ARR_SIZE"
.LC51:
	.string	"GROWTH_RATE"
.LC52:
	.string	"CRINGE"
.LC53:
	.string	"STD_LOG_NAME"
.LC54:
	.string	"__ioinit"
.LC55:
	.string	"NOT_DECLARED"
.LC56:
	.string	"*.LC6"
.LC57:
	.string	"*.LC21"
.LC58:
	.string	"*.LC38"
.LC59:
	.string	"*.LC1"
.LC60:
	.string	"*.LC0"
.LC61:
	.string	"*.LC19"
.LC62:
	.string	"*.LC3"
.LC63:
	.string	"*.LC8"
.LC64:
	.string	"*.LC11"
.LC65:
	.string	"*.LC4"
.LC66:
	.string	"*.LC44"
.LC67:
	.string	"*.LC34"
.LC68:
	.string	"*.LC33"
.LC69:
	.string	"*.LC40"
.LC70:
	.string	"*.LC29"
.LC71:
	.string	"*.LC27"
.LC72:
	.string	"*.LC28"
.LC73:
	.string	"*.LC10"
.LC74:
	.string	"*.LC43"
.LC75:
	.string	"*.LC16"
.LC76:
	.string	"*.LC32"
.LC77:
	.string	"*.LC22"
.LC78:
	.string	"*.LC45"
.LC79:
	.string	"*.LC30"
.LC80:
	.string	"*.LC7"
.LC81:
	.string	"*.LC25"
.LC82:
	.string	"*.LC37"
.LC83:
	.string	"*.LC17"
.LC84:
	.string	"*.LC42"
.LC85:
	.string	"*.LC13"
.LC86:
	.string	"*.LC24"
.LC87:
	.string	"*.LC41"
.LC88:
	.string	"*.LC15"
.LC89:
	.string	"*.LC20"
.LC90:
	.string	"*.LC14"
.LC91:
	.string	"*.LC2"
.LC92:
	.string	"*.LC23"
.LC93:
	.string	"*.LC26"
.LC94:
	.string	"*.LC31"
.LC95:
	.string	"*.LC5"
.LC96:
	.string	"*.LC9"
.LC97:
	.string	"*.LC39"
.LC98:
	.string	"*.LC35"
.LC99:
	.string	"*.LC18"
.LC100:
	.string	"*.LC36"
.LC101:
	.string	"*.LC12"
	.section	.data.rel.local
	.align 32
	.type	.LASAN0, @object
	.size	.LASAN0, 3328
.LASAN0:
	.quad	_ZL20START_LABEL_ARR_SIZE
	.quad	4
	.quad	64
	.quad	.LC50
	.quad	.LC1
	.quad	0
	.quad	.LASANLOC1
	.quad	0
	.quad	_ZL11GROWTH_RATE
	.quad	4
	.quad	64
	.quad	.LC51
	.quad	.LC1
	.quad	0
	.quad	.LASANLOC2
	.quad	0
	.quad	_ZL6CRINGE
	.quad	4
	.quad	64
	.quad	.LC52
	.quad	.LC1
	.quad	0
	.quad	.LASANLOC3
	.quad	0
	.quad	_ZL12STD_LOG_NAME
	.quad	18
	.quad	64
	.quad	.LC53
	.quad	.LC1
	.quad	0
	.quad	.LASANLOC4
	.quad	0
	.quad	_ZStL8__ioinit
	.quad	1
	.quad	64
	.quad	.LC54
	.quad	.LC1
	.quad	1
	.quad	.LASANLOC5
	.quad	0
	.quad	_ZL12NOT_DECLARED
	.quad	4
	.quad	64
	.quad	.LC55
	.quad	.LC1
	.quad	0
	.quad	.LASANLOC6
	.quad	0
	.quad	.LC6
	.quad	22
	.quad	64
	.quad	.LC56
	.quad	.LC1
	.quad	0
	.quad	0
	.quad	0
	.quad	.LC21
	.quad	6
	.quad	64
	.quad	.LC57
	.quad	.LC1
	.quad	0
	.quad	0
	.quad	0
	.quad	.LC38
	.quad	11
	.quad	64
	.quad	.LC58
	.quad	.LC1
	.quad	0
	.quad	0
	.quad	0
	.quad	.LC1
	.quad	39
	.quad	96
	.quad	.LC59
	.quad	.LC1
	.quad	0
	.quad	0
	.quad	0
	.quad	.LC0
	.quad	13
	.quad	64
	.quad	.LC60
	.quad	.LC1
	.quad	0
	.quad	0
	.quad	0
	.quad	.LC19
	.quad	26
	.quad	64
	.quad	.LC61
	.quad	.LC1
	.quad	0
	.quad	0
	.quad	0
	.quad	.LC3
	.quad	37
	.quad	96
	.quad	.LC62
	.quad	.LC1
	.quad	0
	.quad	0
	.quad	0
	.quad	.LC8
	.quad	15
	.quad	64
	.quad	.LC63
	.quad	.LC1
	.quad	0
	.quad	0
	.quad	0
	.quad	.LC11
	.quad	31
	.quad	64
	.quad	.LC64
	.quad	.LC1
	.quad	0
	.quad	0
	.quad	0
	.quad	.LC4
	.quad	64
	.quad	96
	.quad	.LC65
	.quad	.LC1
	.quad	0
	.quad	0
	.quad	0
	.quad	.LC44
	.quad	30
	.quad	64
	.quad	.LC66
	.quad	.LC1
	.quad	0
	.quad	0
	.quad	0
	.quad	.LC34
	.quad	12
	.quad	64
	.quad	.LC67
	.quad	.LC1
	.quad	0
	.quad	0
	.quad	0
	.quad	.LC33
	.quad	16
	.quad	64
	.quad	.LC68
	.quad	.LC1
	.quad	0
	.quad	0
	.quad	0
	.quad	.LC40
	.quad	38
	.quad	96
	.quad	.LC69
	.quad	.LC1
	.quad	0
	.quad	0
	.quad	0
	.quad	.LC29
	.quad	46
	.quad	96
	.quad	.LC70
	.quad	.LC1
	.quad	0
	.quad	0
	.quad	0
	.quad	.LC27
	.quad	41
	.quad	96
	.quad	.LC71
	.quad	.LC1
	.quad	0
	.quad	0
	.quad	0
	.quad	.LC28
	.quad	7
	.quad	64
	.quad	.LC72
	.quad	.LC1
	.quad	0
	.quad	0
	.quad	0
	.quad	.LC10
	.quad	10
	.quad	64
	.quad	.LC73
	.quad	.LC1
	.quad	0
	.quad	0
	.quad	0
	.quad	.LC43
	.quad	32
	.quad	64
	.quad	.LC74
	.quad	.LC1
	.quad	0
	.quad	0
	.quad	0
	.quad	.LC16
	.quad	11
	.quad	64
	.quad	.LC75
	.quad	.LC1
	.quad	0
	.quad	0
	.quad	0
	.quad	.LC32
	.quad	32
	.quad	64
	.quad	.LC76
	.quad	.LC1
	.quad	0
	.quad	0
	.quad	0
	.quad	.LC22
	.quad	36
	.quad	96
	.quad	.LC77
	.quad	.LC1
	.quad	0
	.quad	0
	.quad	0
	.quad	.LC45
	.quad	15
	.quad	64
	.quad	.LC78
	.quad	.LC1
	.quad	0
	.quad	0
	.quad	0
	.quad	.LC30
	.quad	18
	.quad	64
	.quad	.LC79
	.quad	.LC1
	.quad	0
	.quad	0
	.quad	0
	.quad	.LC7
	.quad	36
	.quad	96
	.quad	.LC80
	.quad	.LC1
	.quad	0
	.quad	0
	.quad	0
	.quad	.LC25
	.quad	63
	.quad	96
	.quad	.LC81
	.quad	.LC1
	.quad	0
	.quad	0
	.quad	0
	.quad	.LC37
	.quad	37
	.quad	96
	.quad	.LC82
	.quad	.LC1
	.quad	0
	.quad	0
	.quad	0
	.quad	.LC17
	.quad	40
	.quad	96
	.quad	.LC83
	.quad	.LC1
	.quad	0
	.quad	0
	.quad	0
	.quad	.LC42
	.quad	57
	.quad	96
	.quad	.LC84
	.quad	.LC1
	.quad	0
	.quad	0
	.quad	0
	.quad	.LC13
	.quad	34
	.quad	96
	.quad	.LC85
	.quad	.LC1
	.quad	0
	.quad	0
	.quad	0
	.quad	.LC24
	.quad	13
	.quad	64
	.quad	.LC86
	.quad	.LC1
	.quad	0
	.quad	0
	.quad	0
	.quad	.LC41
	.quad	12
	.quad	64
	.quad	.LC87
	.quad	.LC1
	.quad	0
	.quad	0
	.quad	0
	.quad	.LC15
	.quad	50
	.quad	96
	.quad	.LC88
	.quad	.LC1
	.quad	0
	.quad	0
	.quad	0
	.quad	.LC20
	.quad	42
	.quad	96
	.quad	.LC89
	.quad	.LC1
	.quad	0
	.quad	0
	.quad	0
	.quad	.LC14
	.quad	58
	.quad	96
	.quad	.LC90
	.quad	.LC1
	.quad	0
	.quad	0
	.quad	0
	.quad	.LC2
	.quad	6
	.quad	64
	.quad	.LC91
	.quad	.LC1
	.quad	0
	.quad	0
	.quad	0
	.quad	.LC23
	.quad	44
	.quad	96
	.quad	.LC92
	.quad	.LC1
	.quad	0
	.quad	0
	.quad	0
	.quad	.LC26
	.quad	6
	.quad	64
	.quad	.LC93
	.quad	.LC1
	.quad	0
	.quad	0
	.quad	0
	.quad	.LC31
	.quad	7
	.quad	64
	.quad	.LC94
	.quad	.LC1
	.quad	0
	.quad	0
	.quad	0
	.quad	.LC5
	.quad	31
	.quad	64
	.quad	.LC95
	.quad	.LC1
	.quad	0
	.quad	0
	.quad	0
	.quad	.LC9
	.quad	33
	.quad	96
	.quad	.LC96
	.quad	.LC1
	.quad	0
	.quad	0
	.quad	0
	.quad	.LC39
	.quad	35
	.quad	96
	.quad	.LC97
	.quad	.LC1
	.quad	0
	.quad	0
	.quad	0
	.quad	.LC35
	.quad	29
	.quad	64
	.quad	.LC98
	.quad	.LC1
	.quad	0
	.quad	0
	.quad	0
	.quad	.LC18
	.quad	12
	.quad	64
	.quad	.LC99
	.quad	.LC1
	.quad	0
	.quad	0
	.quad	0
	.quad	.LC36
	.quad	14
	.quad	64
	.quad	.LC100
	.quad	.LC1
	.quad	0
	.quad	0
	.quad	0
	.quad	.LC12
	.quad	22
	.quad	64
	.quad	.LC101
	.quad	.LC1
	.quad	0
	.quad	0
	.quad	0
	.text
	.type	_sub_D_00099_0, @function
_sub_D_00099_0:
.LFB2951:
	.cfi_startproc
	endbr64
	pushq	%rbp
	.cfi_def_cfa_offset 16
	.cfi_offset 6, -16
	movq	%rsp, %rbp
	.cfi_def_cfa_register 6
	movl	$52, %esi
	leaq	.LASAN0(%rip), %rax
	movq	%rax, %rdi
	call	__asan_unregister_globals@PLT
	popq	%rbp
	.cfi_def_cfa 7, 8
	ret
	.cfi_endproc
.LFE2951:
	.size	_sub_D_00099_0, .-_sub_D_00099_0
	.section	.fini_array.00099,"aw"
	.align 8
	.quad	_sub_D_00099_0
	.text
	.type	_sub_I_00099_1, @function
_sub_I_00099_1:
.LFB2952:
	.cfi_startproc
	endbr64
	pushq	%rbp
	.cfi_def_cfa_offset 16
	.cfi_offset 6, -16
	movq	%rsp, %rbp
	.cfi_def_cfa_register 6
	call	__asan_init@PLT
	call	__asan_version_mismatch_check_v8@PLT
	movl	$52, %esi
	leaq	.LASAN0(%rip), %rax
	movq	%rax, %rdi
	call	__asan_register_globals@PLT
	popq	%rbp
	.cfi_def_cfa 7, 8
	ret
	.cfi_endproc
.LFE2952:
	.size	_sub_I_00099_1, .-_sub_I_00099_1
	.section	.init_array.00099,"aw"
	.align 8
	.quad	_sub_I_00099_1
	.text
.Letext0:
	.file 3 "../Common/Structures/Tabels/Tabels.h"
	.file 4 "<built-in>"
	.file 5 "/usr/lib/gcc/x86_64-linux-gnu/11/include/stddef.h"
	.file 6 "/usr/include/x86_64-linux-gnu/bits/types/wint_t.h"
	.file 7 "/usr/include/x86_64-linux-gnu/bits/types/__mbstate_t.h"
	.file 8 "/usr/include/x86_64-linux-gnu/bits/types/mbstate_t.h"
	.file 9 "/usr/include/x86_64-linux-gnu/bits/types/__FILE.h"
	.file 10 "/usr/include/x86_64-linux-gnu/bits/types/struct_FILE.h"
	.file 11 "/usr/include/x86_64-linux-gnu/bits/types/FILE.h"
	.file 12 "/usr/include/c++/11/cwchar"
	.file 13 "/usr/include/c++/11/type_traits"
	.file 14 "/usr/include/c++/11/bits/exception_ptr.h"
	.file 15 "/usr/include/x86_64-linux-gnu/c++/11/bits/c++config.h"
	.file 16 "/usr/include/c++/11/concepts"
	.file 17 "/usr/include/c++/11/bits/iterator_concepts.h"
	.file 18 "/usr/include/c++/11/bits/ranges_cmp.h"
	.file 19 "/usr/include/c++/11/compare"
	.file 20 "/usr/include/c++/11/debug/debug.h"
	.file 21 "/usr/include/c++/11/cstdint"
	.file 22 "/usr/include/c++/11/clocale"
	.file 23 "/usr/include/c++/11/cstdlib"
	.file 24 "/usr/include/c++/11/numbers"
	.file 25 "/usr/include/c++/11/cstdio"
	.file 26 "/usr/include/c++/11/bits/ios_base.h"
	.file 27 "/usr/include/c++/11/cwctype"
	.file 28 "/usr/include/wchar.h"
	.file 29 "/usr/include/x86_64-linux-gnu/bits/types/struct_tm.h"
	.file 30 "/usr/include/c++/11/bits/predefined_ops.h"
	.file 31 "/usr/include/c++/11/bits/ptr_traits.h"
	.file 32 "/usr/include/x86_64-linux-gnu/bits/types.h"
	.file 33 "/usr/include/x86_64-linux-gnu/bits/stdint-intn.h"
	.file 34 "/usr/include/x86_64-linux-gnu/bits/stdint-uintn.h"
	.file 35 "/usr/include/stdint.h"
	.file 36 "/usr/include/locale.h"
	.file 37 "/usr/include/stdlib.h"
	.file 38 "/usr/include/x86_64-linux-gnu/bits/types/__fpos_t.h"
	.file 39 "/usr/include/stdio.h"
	.file 40 "/usr/include/x86_64-linux-gnu/bits/wctype-wchar.h"
	.file 41 "/usr/include/wctype.h"
	.file 42 "../ATC/Logger/LogConfig.h"
	.file 43 "../ATC/RandomStuff/CommonEnums.h"
	.file 44 "../ATC/Logger/Logger.h"
	.file 45 "../ATC/Utils/Utils.h"
	.file 46 "/usr/include/string.h"
	.file 47 "/usr/include/c++/11/bits/algorithmfwd.h"
	.section	.note.GNU-stack,"",@progbits
	.section	.note.gnu.property,"a"
	.align 8
	.long	1f - 0f
	.long	4f - 1f
	.long	5
0:
	.string	"GNU"
1:
	.align 8
	.long	0xc0000002
	.long	3f - 2f
2:
	.long	0x3
3:
	.align 8
4:
