	.file	"LexicalAnalysis.cpp"
	.text
.Ltext0:
	.file 0 "/home/arsenyfucker/Cprojects/Lang/Translator" "./src/LexicalAnalysis.cpp"
	.section	.rodata
	.align 32
	.type	_ZL22START_NUMBER_OF_TOKENS, @object
	.size	_ZL22START_NUMBER_OF_TOKENS, 4
_ZL22START_NUMBER_OF_TOKENS:
	.long	20
	.zero	60
	.align 32
	.type	_ZL23START_NUMBER_OF_STRINGS, @object
	.size	_ZL23START_NUMBER_OF_STRINGS, 4
_ZL23START_NUMBER_OF_STRINGS:
	.long	16
	.zero	60
	.align 32
	.type	_ZL21NUMBER_OF_INSTUCTIONS, @object
	.size	_ZL21NUMBER_OF_INSTUCTIONS, 4
_ZL21NUMBER_OF_INSTUCTIONS:
	.long	5
	.zero	60
	.align 32
.LC0:
	.string	"if"
	.zero	61
	.align 32
.LC1:
	.string	"else"
	.zero	59
	.align 32
.LC2:
	.string	"while"
	.zero	58
	.align 32
.LC3:
	.string	"fout"
	.zero	59
	.align 32
.LC4:
	.string	"return"
	.zero	57
	.section	.data.rel.ro.local,"aw"
	.align 32
	.type	_ZL12INSTRUCTIONS, @object
	.size	_ZL12INSTRUCTIONS, 40
_ZL12INSTRUCTIONS:
	.quad	.LC0
	.quad	.LC1
	.quad	.LC2
	.quad	.LC3
	.quad	.LC4
	.zero	56
	.section	.rodata
	.align 32
	.type	_ZL24NUMBER_OF_INITIALIZATORS, @object
	.size	_ZL24NUMBER_OF_INITIALIZATORS, 4
_ZL24NUMBER_OF_INITIALIZATORS:
	.long	2
	.zero	60
	.align 32
.LC5:
	.string	"func"
	.zero	59
	.align 32
.LC6:
	.string	"var"
	.zero	60
	.section	.data.rel.ro.local
	.align 32
	.type	_ZL14INITIALIZATORS, @object
	.size	_ZL14INITIALIZATORS, 16
_ZL14INITIALIZATORS:
	.quad	.LC5
	.quad	.LC6
	.zero	48
	.section	.rodata
	.align 32
	.type	_ZL28NUMBER_OF_FUNCTION_RET_TYPES, @object
	.size	_ZL28NUMBER_OF_FUNCTION_RET_TYPES, 4
_ZL28NUMBER_OF_FUNCTION_RET_TYPES:
	.long	2
	.zero	60
	.align 32
.LC7:
	.string	"double"
	.zero	57
	.align 32
.LC8:
	.string	"void"
	.zero	59
	.section	.data.rel.ro.local
	.align 32
	.type	_ZL18FUNCTION_RET_TYPES, @object
	.size	_ZL18FUNCTION_RET_TYPES, 16
_ZL18FUNCTION_RET_TYPES:
	.quad	.LC7
	.quad	.LC8
	.zero	48
	.section	.rodata
	.align 32
	.type	_ZL9OPERATORS, @object
	.size	_ZL9OPERATORS, 8
_ZL9OPERATORS:
	.string	"+-/*^<<"
	.zero	56
	.align 32
	.type	_ZL7COMMENT, @object
	.size	_ZL7COMMENT, 1
_ZL7COMMENT:
	.byte	35
	.zero	63
	.align 32
	.type	_ZL24MAX_FUNCTION_NAME_LENGTH, @object
	.size	_ZL24MAX_FUNCTION_NAME_LENGTH, 4
_ZL24MAX_FUNCTION_NAME_LENGTH:
	.long	16
	.zero	60
	.align 32
	.type	_ZL15MAX_WORD_LENGTH, @object
	.size	_ZL15MAX_WORD_LENGTH, 4
_ZL15MAX_WORD_LENGTH:
	.long	16
	.zero	60
	.bss
	.align 32
	.type	_ZStL8__ioinit, @object
	.size	_ZStL8__ioinit, 1
_ZStL8__ioinit:
	.zero	64
	.section	.rodata
	.align 32
	.type	_ZL12STD_LOG_NAME, @object
	.size	_ZL12STD_LOG_NAME, 18
_ZL12STD_LOG_NAME:
	.string	"./logs/stdlog.ars"
	.zero	46
	.align 32
	.type	_ZL6CRINGE, @object
	.size	_ZL6CRINGE, 4
_ZL6CRINGE:
	.long	3565
	.zero	60
	.align 32
	.type	_ZL11INDENT_SIZE, @object
	.size	_ZL11INDENT_SIZE, 4
_ZL11INDENT_SIZE:
	.long	2
	.zero	60
	.globl	__asan_stack_malloc_1
	.align 8
.LC9:
	.string	"2 32 16 8 buf_orig 64 24 10 func_42:42"
	.align 32
.LC10:
	.string	"Tokenizer"
	.zero	54
	.align 32
.LC11:
	.string	"programm"
	.zero	55
	.align 32
.LC12:
	.string	"Condition (%s) is false\n"
	.zero	39
	.align 32
.LC13:
	.string	"Condition\033[91m (%s) is false\n\033[0m"
	.zero	62
	.align 32
.LC14:
	.string	"./src/LexicalAnalysis.cpp"
	.zero	38
	.align 32
.LC15:
	.string	"\t(function: %s, file: %s, line: %d)\n"
	.zero	59
	.align 32
.LC16:
	.string	"It matches to error: (code %d) %s\n\n"
	.zero	60
	.align 32
.LC17:
	.string	"Shutting down the system (%s:%d)"
	.zero	63
	.align 32
.LC18:
	.string	"powerof"
	.zero	56
	.align 32
.LC19:
	.string	"\033[91mFailed %s:%d (%s:%d)\n\033[0m"
	.zero	33
	.align 32
.LC20:
	.string	"Failed (%s:%d, %s:%d)"
	.zero	42
	.align 32
.LC21:
	.string	"buffer"
	.zero	57
	.align 32
.LC22:
	.string	"%s:%d::CHECK: BufferCtor(&buf_orig, buffer) == SUCCESS is false\n"
	.zero	63
	.align 32
.LC23:
	.string	"\033[93mLexical Error\n\033[0m"
	.zero	40
	.align 32
.LC24:
	.string	"Lexical Error\n"
	.zero	49
	.align 32
.LC25:
	.string	""
	.zero	63
	.align 32
.LC26:
	.string	"Unknown type\n"
	.zero	50
	.align 32
.LC27:
	.string	"In "
	.zero	60
	.align 32
.LC28:
	.string	"number_of_tokens"
	.zero	47
	.align 32
.LC29:
	.string	"\t%s: %d\n"
	.zero	55
	.align 32
.LC30:
	.string	"i"
	.zero	62
	.align 32
.LC31:
	.string	"arr + i"
	.zero	56
	.text
	.globl	_Z9TokenizerP8ProgrammPKc
	.type	_Z9TokenizerP8ProgrammPKc, @function
_Z9TokenizerP8ProgrammPKc:
.LASANPC2865:
.LFB2865:
	.file 1 "./src/LexicalAnalysis.cpp"
	.loc 1 41 5
	.cfi_startproc
	.cfi_personality 0x9b,DW.ref.__gxx_personality_v0
	.cfi_lsda 0x1b,.LLSDA2865
	endbr64
	pushq	%rbp
	.cfi_def_cfa_offset 16
	.cfi_offset 6, -16
	movq	%rsp, %rbp
	.cfi_def_cfa_register 6
	pushq	%r15
	pushq	%r14
	pushq	%r13
	pushq	%r12
	pushq	%rbx
	subq	$216, %rsp
	.cfi_offset 15, -24
	.cfi_offset 14, -32
	.cfi_offset 13, -40
	.cfi_offset 12, -48
	.cfi_offset 3, -56
	movq	%rdi, -248(%rbp)
	movq	%rsi, -256(%rbp)
	leaq	-176(%rbp), %rbx
	movq	%rbx, %r15
	cmpl	$0, __asan_option_detect_stack_use_after_return(%rip)
	je	.L1
	movl	$128, %edi
	call	__asan_stack_malloc_1@PLT
	testq	%rax, %rax
	je	.L1
	movq	%rax, %rbx
.L1:
	leaq	128(%rbx), %rax
	movq	%rax, %r13
	movq	$1102416563, (%rbx)
	leaq	.LC9(%rip), %rax
	movq	%rax, 8(%rbx)
	leaq	.LASANPC2865(%rip), %rax
	movq	%rax, 16(%rbx)
	movq	%rbx, %r14
	shrq	$3, %r14
	movl	$-235802127, 2147450880(%r14)
	movl	$-219021312, 2147450884(%r14)
	movl	$-218103808, 2147450888(%r14)
	movl	$-202116109, 2147450892(%r14)
	.loc 1 42 40
	leaq	-64(%r13), %rax
	leaq	.LC10(%rip), %rdx
	movl	$1, %esi
	movq	%rax, %rdi
.LEHB0:
	call	_ZN14FunctionLoggerC1EiPKc@PLT
.LEHE0:
	.loc 1 43 10
	cmpq	$0, -248(%rbp)
	jne	.L5
.LEHB1:
	.loc 1 43 48 discriminator 1
	call	_ZN6Logger11getInstanceEv@PLT
	movq	%rax, %rcx
	.loc 1 43 54 discriminator 1
	leaq	.LC11(%rip), %rax
	movq	%rax, %rdx
	leaq	.LC12(%rip), %rax
	movq	%rax, %rsi
	movq	%rcx, %rdi
	movl	$0, %eax
	call	_ZN6Logger3logEPKcz@PLT
	.loc 1 43 103 discriminator 3
	leaq	.LC11(%rip), %rax
	movq	%rax, %rsi
	leaq	.LC13(%rip), %rax
	movq	%rax, %rdi
	movl	$0, %eax
	call	printf@PLT
	.loc 1 43 189 discriminator 4
	call	_ZN6Logger11getInstanceEv@PLT
	movq	%rax, %rdi
	.loc 1 43 195 discriminator 4
	movl	$43, %r8d
	leaq	.LC14(%rip), %rax
	movq	%rax, %rcx
	leaq	.LC10(%rip), %rax
	movq	%rax, %rdx
	leaq	.LC15(%rip), %rax
	movq	%rax, %rsi
	movl	$0, %eax
	call	_ZN6Logger3logEPKcz@PLT
	.loc 1 43 288 discriminator 6
	movl	$43, %ecx
	leaq	.LC14(%rip), %rax
	movq	%rax, %rdx
	leaq	.LC10(%rip), %rax
	movq	%rax, %rsi
	leaq	.LC15(%rip), %rax
	movq	%rax, %rdi
	movl	$0, %eax
	call	printf@PLT
	.loc 1 43 394 discriminator 7
	call	_ZN6Logger11getInstanceEv@PLT
	movq	%rax, %r12
	.loc 1 43 400 discriminator 7
	movl	$14, %edi
	call	strerror@PLT
	movq	%rax, %rcx
	movl	$14, %edx
	leaq	.LC16(%rip), %rax
	movq	%rax, %rsi
	movq	%r12, %rdi
	movl	$0, %eax
	call	_ZN6Logger3logEPKcz@PLT
	.loc 1 43 27 discriminator 9
	call	_ZN6Logger11getInstanceEv@PLT
	movq	%rax, %rdi
	.loc 1 43 33 discriminator 9
	movl	$43, %ecx
	leaq	.LC10(%rip), %rax
	movq	%rax, %rdx
	leaq	.LC17(%rip), %rax
	movq	%rax, %rsi
	movl	$0, %eax
	call	_ZN6Logger3logEPKcz@PLT
	.loc 1 43 91 discriminator 11
	leaq	.LC18(%rip), %rax
	movq	%rax, %rdi
	call	system@PLT
	.loc 1 43 130 discriminator 12
	call	_ZN6Logger11getInstanceEv@PLT
	.loc 1 43 152 discriminator 12
	call	_ZN6Logger11getInstanceEv@PLT
	.loc 1 43 152 is_stmt 0 discriminator 13
	movq	%rax, %r12
	.loc 1 43 165 is_stmt 1 discriminator 13
	movl	$43, %r9d
	leaq	.LC10(%rip), %r8
	movl	$43, %ecx
	leaq	.LC14(%rip), %rax
	movq	%rax, %rdx
	leaq	.LC19(%rip), %rax
	movq	%rax, %rsi
	movl	$-1, %edi
	movl	$0, %eax
	call	_Z6MsgRetiPKcz@PLT
	.loc 1 43 165 is_stmt 0 discriminator 14
	movl	%eax, %esi
	subq	$8, %rsp
	pushq	$43
	leaq	.LC10(%rip), %r9
	movl	$43, %r8d
	leaq	.LC14(%rip), %rax
	movq	%rax, %rcx
	leaq	.LC20(%rip), %rax
	movq	%rax, %rdx
	movq	%r12, %rdi
	movl	$0, %eax
	.cfi_escape 0x2e,0x10
	call	_ZN6Logger9LogMsgRetEiPKcz@PLT
	.loc 1 43 165 discriminator 15
	addq	$16, %rsp
	movl	%eax, %r12d
	.loc 1 43 348 is_stmt 1 discriminator 15
	jmp	.L6
.L5:
	.loc 1 44 10
	cmpq	$0, -256(%rbp)
	jne	.L7
	.cfi_escape 0x2e,0
	.loc 1 44 46 discriminator 1
	call	_ZN6Logger11getInstanceEv@PLT
	movq	%rax, %rcx
	.loc 1 44 52 discriminator 1
	leaq	.LC21(%rip), %rax
	movq	%rax, %rdx
	leaq	.LC12(%rip), %rax
	movq	%rax, %rsi
	movq	%rcx, %rdi
	movl	$0, %eax
	call	_ZN6Logger3logEPKcz@PLT
	.loc 1 44 99 discriminator 3
	leaq	.LC21(%rip), %rax
	movq	%rax, %rsi
	leaq	.LC13(%rip), %rax
	movq	%rax, %rdi
	movl	$0, %eax
	call	printf@PLT
	.loc 1 44 183 discriminator 4
	call	_ZN6Logger11getInstanceEv@PLT
	movq	%rax, %rdi
	.loc 1 44 189 discriminator 4
	movl	$44, %r8d
	leaq	.LC14(%rip), %rax
	movq	%rax, %rcx
	leaq	.LC10(%rip), %rax
	movq	%rax, %rdx
	leaq	.LC15(%rip), %rax
	movq	%rax, %rsi
	movl	$0, %eax
	call	_ZN6Logger3logEPKcz@PLT
	.loc 1 44 282 discriminator 6
	movl	$44, %ecx
	leaq	.LC14(%rip), %rax
	movq	%rax, %rdx
	leaq	.LC10(%rip), %rax
	movq	%rax, %rsi
	leaq	.LC15(%rip), %rax
	movq	%rax, %rdi
	movl	$0, %eax
	call	printf@PLT
	.loc 1 44 388 discriminator 7
	call	_ZN6Logger11getInstanceEv@PLT
	movq	%rax, %r12
	.loc 1 44 394 discriminator 7
	movl	$14, %edi
	call	strerror@PLT
	movq	%rax, %rcx
	movl	$14, %edx
	leaq	.LC16(%rip), %rax
	movq	%rax, %rsi
	movq	%r12, %rdi
	movl	$0, %eax
	call	_ZN6Logger3logEPKcz@PLT
	.loc 1 44 27 discriminator 9
	call	_ZN6Logger11getInstanceEv@PLT
	movq	%rax, %rdi
	.loc 1 44 33 discriminator 9
	movl	$44, %ecx
	leaq	.LC10(%rip), %rax
	movq	%rax, %rdx
	leaq	.LC17(%rip), %rax
	movq	%rax, %rsi
	movl	$0, %eax
	call	_ZN6Logger3logEPKcz@PLT
	.loc 1 44 91 discriminator 11
	leaq	.LC18(%rip), %rax
	movq	%rax, %rdi
	call	system@PLT
	.loc 1 44 130 discriminator 12
	call	_ZN6Logger11getInstanceEv@PLT
	.loc 1 44 152 discriminator 12
	call	_ZN6Logger11getInstanceEv@PLT
	.loc 1 44 152 is_stmt 0 discriminator 13
	movq	%rax, %r12
	.loc 1 44 165 is_stmt 1 discriminator 13
	movl	$44, %r9d
	leaq	.LC10(%rip), %r8
	movl	$44, %ecx
	leaq	.LC14(%rip), %rax
	movq	%rax, %rdx
	leaq	.LC19(%rip), %rax
	movq	%rax, %rsi
	movl	$-1, %edi
	movl	$0, %eax
	call	_Z6MsgRetiPKcz@PLT
	.loc 1 44 165 is_stmt 0 discriminator 14
	movl	%eax, %esi
	subq	$8, %rsp
	pushq	$44
	leaq	.LC10(%rip), %r9
	movl	$44, %r8d
	leaq	.LC14(%rip), %rax
	movq	%rax, %rcx
	leaq	.LC20(%rip), %rax
	movq	%rax, %rdx
	movq	%r12, %rdi
	movl	$0, %eax
	.cfi_escape 0x2e,0x10
	call	_ZN6Logger9LogMsgRetEiPKcz@PLT
	.loc 1 44 165 discriminator 15
	addq	$16, %rsp
	movl	%eax, %r12d
	.loc 1 44 348 is_stmt 1 discriminator 15
	jmp	.L6
.L7:
	.cfi_escape 0x2e,0
	.loc 1 46 46
	call	_ZN6Logger11getInstanceEv@PLT
	movq	%rax, %rdi
	.loc 1 46 57
	movl	$46, %r9d
	leaq	.LC10(%rip), %r8
	leaq	.LC14(%rip), %rax
	movq	%rax, %rcx
	movl	$32, %edx
	movl	$20, %esi
	call	_ZN6Logger7CAL_LOGEmmPKcS1_i@PLT
	.loc 1 46 57 is_stmt 0 discriminator 1
	movq	%rax, -216(%rbp)
	.loc 1 47 5 is_stmt 1 discriminator 1
	cmpq	$0, -216(%rbp)
	jne	.L8
	.loc 1 48 16
	movl	$-1, %r12d
	jmp	.L6
.L8:
	.loc 1 50 9
	movl	$20, -236(%rbp)
	.loc 1 52 65
	call	_ZN6Logger11getInstanceEv@PLT
	movq	%rax, %rdi
	.loc 1 52 76
	movl	$52, %r9d
	leaq	.LC10(%rip), %r8
	leaq	.LC14(%rip), %rax
	movq	%rax, %rcx
	movl	$8, %edx
	movl	$16, %esi
	call	_ZN6Logger7CAL_LOGEmmPKcS1_i@PLT
	.loc 1 52 76 is_stmt 0 discriminator 1
	movq	%rax, -208(%rbp)
	.loc 1 53 5 is_stmt 1 discriminator 1
	cmpq	$0, -208(%rbp)
	jne	.L9
	.loc 1 55 28
	call	_ZN6Logger11getInstanceEv@PLT
	movq	%rax, %rdi
	.loc 1 55 40
	movq	-216(%rbp), %rax
	movl	$55, %r8d
	leaq	.LC10(%rip), %rdx
	movq	%rdx, %rcx
	leaq	.LC14(%rip), %rdx
	movq	%rax, %rsi
	call	_ZN6Logger8FREE_LOGEPvPKcS2_i@PLT
	.loc 1 56 16
	movl	$-1, %r12d
	jmp	.L6
.L9:
	.loc 1 59 9
	movl	$16, -232(%rbp)
	.loc 1 61 12
	leaq	-96(%r13), %rax
	movq	%rax, %rdx
	shrq	$3, %rdx
	addq	$2147450880, %rdx
	movzwl	(%rdx), %edx
	testw	%dx, %dx
	je	.L10
	movq	%rax, %rdi
	call	__asan_report_store16@PLT
.L10:
	movq	$0, -96(%r13)
	movq	$0, -88(%r13)
	.loc 1 62 25
	movq	-256(%rbp), %rdx
	leaq	-96(%r13), %rax
	movq	%rdx, %rsi
	movq	%rax, %rdi
	call	_Z10BufferCtorP6BufferPKc@PLT
	.loc 1 62 45
	testl	%eax, %eax
	setne	%al
	.loc 1 62 10
	testb	%al, %al
	je	.L11
	.loc 1 62 78 discriminator 2
	call	_ZN6Logger11getInstanceEv@PLT
	movq	%rax, %rdi
	.loc 1 62 84 discriminator 2
	movl	$62, %ecx
	leaq	.LC10(%rip), %rax
	movq	%rax, %rdx
	leaq	.LC22(%rip), %rax
	movq	%rax, %rsi
	movl	$0, %eax
	call	_ZN6Logger3logEPKcz@PLT
	.loc 1 62 202 discriminator 4
	call	_ZN6Logger11getInstanceEv@PLT
	.loc 1 62 224 discriminator 4
	call	_ZN6Logger11getInstanceEv@PLT
	.loc 1 62 224 is_stmt 0 discriminator 5
	movq	%rax, %r12
	.loc 1 62 237 is_stmt 1 discriminator 5
	movl	$62, %r9d
	leaq	.LC10(%rip), %r8
	movl	$62, %ecx
	leaq	.LC14(%rip), %rax
	movq	%rax, %rdx
	leaq	.LC19(%rip), %rax
	movq	%rax, %rsi
	movl	$-1, %edi
	movl	$0, %eax
	call	_Z6MsgRetiPKcz@PLT
	.loc 1 62 237 is_stmt 0 discriminator 6
	movl	%eax, %esi
	subq	$8, %rsp
	pushq	$62
	leaq	.LC10(%rip), %r9
	movl	$62, %r8d
	leaq	.LC14(%rip), %rax
	movq	%rax, %rcx
	leaq	.LC20(%rip), %rax
	movq	%rax, %rdx
	movq	%r12, %rdi
	movl	$0, %eax
	.cfi_escape 0x2e,0x10
	call	_ZN6Logger9LogMsgRetEiPKcz@PLT
	.loc 1 62 237 discriminator 7
	addq	$16, %rsp
	movl	%eax, %r12d
	.loc 1 62 420 is_stmt 1 discriminator 7
	jmp	.L6
.L11:
	.loc 1 64 13
	leaq	-96(%r13), %rax
	movq	%rax, -200(%rbp)
	.loc 1 66 9
	movl	$0, -228(%rbp)
	.loc 1 67 9
	movl	$0, -224(%rbp)
	.loc 1 69 5
	jmp	.L12
.L25:
.LBB2:
.LBB3:
	.loc 1 72 9
	movl	-228(%rbp), %eax
	cmpl	-236(%rbp), %eax
	jne	.L13
.LBB4:
	.loc 1 74 18
	sall	-236(%rbp)
	.cfi_escape 0x2e,0
	.loc 1 75 55
	call	_ZN6Logger11getInstanceEv@PLT
	movq	%rax, %rdi
	.loc 1 75 74
	movl	-236(%rbp), %eax
	cltq
	.loc 1 75 68
	salq	$5, %rax
	movq	%rax, %rdx
	movq	-216(%rbp), %rax
	movl	$75, %r9d
	leaq	.LC10(%rip), %r8
	leaq	.LC14(%rip), %rcx
	movq	%rax, %rsi
	call	_ZN6Logger9RECAL_LOGEPvmPKcS2_i@PLT
	.loc 1 75 68 is_stmt 0 discriminator 1
	movq	%rax, -192(%rbp)
	.loc 1 76 13 is_stmt 1 discriminator 1
	cmpq	$0, -192(%rbp)
	jne	.L14
	.loc 1 78 36
	call	_ZN6Logger11getInstanceEv@PLT
	movq	%rax, %rdi
	.loc 1 78 48
	movq	-208(%rbp), %rax
	movl	$78, %r8d
	leaq	.LC10(%rip), %rdx
	movq	%rdx, %rcx
	leaq	.LC14(%rip), %rdx
	movq	%rax, %rsi
	call	_ZN6Logger8FREE_LOGEPvPKcS2_i@PLT
	.loc 1 79 43
	call	_ZN6Logger11getInstanceEv@PLT
	.loc 1 79 65
	call	_ZN6Logger11getInstanceEv@PLT
	.loc 1 79 65 is_stmt 0 discriminator 1
	movq	%rax, %r12
	.loc 1 79 78 is_stmt 1 discriminator 1
	movl	$79, %r9d
	leaq	.LC10(%rip), %r8
	movl	$79, %ecx
	leaq	.LC14(%rip), %rax
	movq	%rax, %rdx
	leaq	.LC19(%rip), %rax
	movq	%rax, %rsi
	movl	$-1, %edi
	movl	$0, %eax
	call	_Z6MsgRetiPKcz@PLT
	.loc 1 79 78 is_stmt 0 discriminator 2
	movl	%eax, %esi
	subq	$8, %rsp
	pushq	$79
	leaq	.LC10(%rip), %r9
	movl	$79, %r8d
	leaq	.LC14(%rip), %rax
	movq	%rax, %rcx
	leaq	.LC20(%rip), %rax
	movq	%rax, %rdx
	movq	%r12, %rdi
	movl	$0, %eax
	.cfi_escape 0x2e,0x10
	call	_ZN6Logger9LogMsgRetEiPKcz@PLT
	.loc 1 79 78 discriminator 3
	addq	$16, %rsp
	movl	%eax, %r12d
	.loc 1 79 261 is_stmt 1 discriminator 3
	jmp	.L6
.L14:
	.loc 1 82 17
	movq	-192(%rbp), %rax
	movq	%rax, -216(%rbp)
.L13:
.LBE4:
.LBE3:
.LBB5:
	.loc 1 85 9
	movl	-224(%rbp), %eax
	cmpl	-232(%rbp), %eax
	jne	.L15
.LBB6:
	.loc 1 87 26
	sall	-232(%rbp)
	.cfi_escape 0x2e,0
	.loc 1 88 66
	call	_ZN6Logger11getInstanceEv@PLT
	movq	%rax, %rdi
	.loc 1 88 92
	movl	-232(%rbp), %eax
	cltq
	.loc 1 88 79
	leaq	0(,%rax,8), %rdx
	movq	-208(%rbp), %rax
	movl	$88, %r9d
	leaq	.LC10(%rip), %r8
	leaq	.LC14(%rip), %rcx
	movq	%rax, %rsi
	call	_ZN6Logger9RECAL_LOGEPvmPKcS2_i@PLT
	.loc 1 88 79 is_stmt 0 discriminator 1
	movq	%rax, -184(%rbp)
	.loc 1 89 13 is_stmt 1 discriminator 1
	cmpq	$0, -184(%rbp)
	jne	.L16
	.loc 1 91 36
	call	_ZN6Logger11getInstanceEv@PLT
	movq	%rax, %rdi
	.loc 1 91 48
	movq	-216(%rbp), %rax
	movl	$91, %r8d
	leaq	.LC10(%rip), %rdx
	movq	%rdx, %rcx
	leaq	.LC14(%rip), %rdx
	movq	%rax, %rsi
	call	_ZN6Logger8FREE_LOGEPvPKcS2_i@PLT
	.loc 1 92 43
	call	_ZN6Logger11getInstanceEv@PLT
	.loc 1 92 65
	call	_ZN6Logger11getInstanceEv@PLT
	.loc 1 92 65 is_stmt 0 discriminator 1
	movq	%rax, %r12
	.loc 1 92 78 is_stmt 1 discriminator 1
	movl	$92, %r9d
	leaq	.LC10(%rip), %r8
	movl	$92, %ecx
	leaq	.LC14(%rip), %rax
	movq	%rax, %rdx
	leaq	.LC19(%rip), %rax
	movq	%rax, %rsi
	movl	$-1, %edi
	movl	$0, %eax
	call	_Z6MsgRetiPKcz@PLT
	.loc 1 92 78 is_stmt 0 discriminator 2
	movl	%eax, %esi
	subq	$8, %rsp
	pushq	$92
	leaq	.LC10(%rip), %r9
	movl	$92, %r8d
	leaq	.LC14(%rip), %rax
	movq	%rax, %rcx
	leaq	.LC20(%rip), %rax
	movq	%rax, %rdx
	movq	%r12, %rdi
	movl	$0, %eax
	.cfi_escape 0x2e,0x10
	call	_ZN6Logger9LogMsgRetEiPKcz@PLT
	.loc 1 92 78 discriminator 3
	addq	$16, %rsp
	movl	%eax, %r12d
	.loc 1 92 261 is_stmt 1 discriminator 3
	jmp	.L6
.L16:
	.loc 1 95 24
	movq	-184(%rbp), %rax
	movq	%rax, -208(%rbp)
.L15:
.LBE6:
.LBE5:
	.loc 1 99 65
	movl	-228(%rbp), %eax
	cltq
	.loc 1 99 63
	salq	$5, %rax
	movq	%rax, %rdx
	movq	-216(%rbp), %rax
	addq	%rdx, %rax
	.loc 1 99 56
	leaq	24(%rax), %rdx
	.loc 1 99 16
	movl	-228(%rbp), %eax
	cltq
	.loc 1 99 14
	salq	$5, %rax
	movq	%rax, %rcx
	movq	-216(%rbp), %rax
	leaq	(%rcx,%rax), %r12
	.loc 1 99 56
	movq	-200(%rbp), %rax
	movq	%rax, %rsi
	movq	%rdx, %rdi
	.cfi_escape 0x2e,0
	call	_ZL13GetTokenValueP10TokenValueP6Buffer
	movl	%eax, %edx
	.loc 1 99 40
	leaq	16(%r12), %rax
	movq	%rax, %rcx
	movq	%rcx, %rax
	shrq	$3, %rax
	addq	$2147450880, %rax
	movzbl	(%rax), %eax
	testb	%al, %al
	setne	%sil
	cmpb	$3, %al
	setle	%al
	andl	%esi, %eax
	testb	%al, %al
	je	.L17
	movq	%rcx, %rdi
	call	__asan_report_store4@PLT
.L17:
	.loc 1 99 40 is_stmt 0 discriminator 1
	movl	%edx, 16(%r12)
	.loc 1 100 20 is_stmt 1 discriminator 1
	movl	-228(%rbp), %eax
	cltq
	.loc 1 100 18 discriminator 1
	salq	$5, %rax
	movq	%rax, %rdx
	movq	-216(%rbp), %rax
	addq	%rax, %rdx
	.loc 1 100 39 discriminator 1
	leaq	16(%rdx), %rax
	movq	%rax, %rcx
	movq	%rcx, %rax
	shrq	$3, %rax
	addq	$2147450880, %rax
	movzbl	(%rax), %eax
	testb	%al, %al
	setne	%sil
	cmpb	$3, %al
	setle	%al
	andl	%esi, %eax
	testb	%al, %al
	je	.L18
	.loc 1 100 39 is_stmt 0
	movq	%rcx, %rdi
	call	__asan_report_load4@PLT
.L18:
	.loc 1 100 39 discriminator 1
	movl	16(%rdx), %eax
	.loc 1 100 9 is_stmt 1 discriminator 1
	cmpl	$-999, %eax
	jne	.L19
	.loc 1 102 24
	leaq	.LC23(%rip), %rax
	movq	%rax, %rdi
	movl	$0, %eax
	call	printf@PLT
	.loc 1 102 83 discriminator 1
	call	_ZN6Logger11getInstanceEv@PLT
	movq	%rax, %rdx
	.loc 1 102 89 discriminator 1
	leaq	.LC24(%rip), %rax
	movq	%rax, %rsi
	movq	%rdx, %rdi
	movl	$0, %eax
	call	_ZN6Logger3logEPKcz@PLT
	.loc 1 102 130 discriminator 3
	call	_ZN6Logger11getInstanceEv@PLT
	movq	%rax, %rdx
	.loc 1 102 136 discriminator 3
	leaq	.LC25(%rip), %rax
	movq	%rax, %rsi
	movq	%rdx, %rdi
	movl	$0, %eax
	call	_ZN6Logger3logEPKcz@PLT
	.loc 1 102 162 discriminator 5
	call	_ZN6Logger11getInstanceEv@PLT
	movq	%rax, %rdx
	.loc 1 102 180 discriminator 5
	leaq	.LC26(%rip), %rax
	movq	%rax, %rsi
	movq	%rdx, %rdi
	movl	$0, %eax
	call	_ZN6Logger15log_dup_consoleEPKcz@PLT
	.loc 1 102 207 discriminator 7
	leaq	.LC27(%rip), %rax
	movq	%rax, %rdi
	movl	$0, %eax
	call	printf@PLT
	.loc 1 102 228 discriminator 8
	movq	-200(%rbp), %rax
	addq	$8, %rax
	movq	%rax, %rdx
	shrq	$3, %rdx
	addq	$2147450880, %rdx
	movzbl	(%rdx), %edx
	testb	%dl, %dl
	je	.L20
	.loc 1 102 228 is_stmt 0
	movq	%rax, %rdi
	call	__asan_report_load8@PLT
.L20:
	.loc 1 102 228 discriminator 8
	movq	-200(%rbp), %rax
	movq	8(%rax), %rax
	.loc 1 102 222 is_stmt 1 discriminator 8
	movl	$10, %esi
	movq	%rax, %rdi
	call	_Z6printlPKcc@PLT
	.loc 1 104 32
	call	_ZN6Logger11getInstanceEv@PLT
	movq	%rax, %rdi
	.loc 1 104 44
	movq	-216(%rbp), %rax
	movl	$104, %r8d
	leaq	.LC10(%rip), %rdx
	movq	%rdx, %rcx
	leaq	.LC14(%rip), %rdx
	movq	%rax, %rsi
	call	_ZN6Logger8FREE_LOGEPvPKcS2_i@PLT
	.loc 1 105 32
	call	_ZN6Logger11getInstanceEv@PLT
	movq	%rax, %rdi
	.loc 1 105 44
	movq	-208(%rbp), %rax
	movl	$105, %r8d
	leaq	.LC10(%rip), %rdx
	movq	%rdx, %rcx
	leaq	.LC14(%rip), %rdx
	movq	%rax, %rsi
	call	_ZN6Logger8FREE_LOGEPvPKcS2_i@PLT
	.loc 1 106 39
	call	_ZN6Logger11getInstanceEv@PLT
	.loc 1 106 61
	call	_ZN6Logger11getInstanceEv@PLT
	.loc 1 106 61 is_stmt 0 discriminator 1
	movq	%rax, %r12
	.loc 1 106 74 is_stmt 1 discriminator 1
	movl	$106, %r9d
	leaq	.LC10(%rip), %r8
	movl	$106, %ecx
	leaq	.LC14(%rip), %rax
	movq	%rax, %rdx
	leaq	.LC19(%rip), %rax
	movq	%rax, %rsi
	movl	$-1, %edi
	movl	$0, %eax
	call	_Z6MsgRetiPKcz@PLT
	.loc 1 106 74 is_stmt 0 discriminator 2
	movl	%eax, %esi
	subq	$8, %rsp
	pushq	$106
	leaq	.LC10(%rip), %r9
	movl	$106, %r8d
	leaq	.LC14(%rip), %rax
	movq	%rax, %rcx
	leaq	.LC20(%rip), %rax
	movq	%rax, %rdx
	movq	%r12, %rdi
	movl	$0, %eax
	.cfi_escape 0x2e,0x10
	call	_ZN6Logger9LogMsgRetEiPKcz@PLT
	.loc 1 106 74 discriminator 3
	addq	$16, %rsp
	movl	%eax, %r12d
	.loc 1 106 261 is_stmt 1 discriminator 3
	jmp	.L6
.L19:
	.loc 1 109 20
	movl	-228(%rbp), %eax
	cltq
	.loc 1 109 18
	salq	$5, %rax
	movq	%rax, %rdx
	movq	-216(%rbp), %rax
	addq	%rax, %rdx
	.loc 1 109 39
	leaq	16(%rdx), %rax
	movq	%rax, %rcx
	movq	%rcx, %rax
	shrq	$3, %rax
	addq	$2147450880, %rax
	movzbl	(%rax), %eax
	testb	%al, %al
	setne	%sil
	cmpb	$3, %al
	setle	%al
	andl	%esi, %eax
	testb	%al, %al
	je	.L21
	movq	%rcx, %rdi
	call	__asan_report_load4@PLT
.L21:
	movl	16(%rdx), %eax
	.loc 1 109 9
	cmpl	$5, %eax
	jne	.L22
	.loc 1 111 63
	movl	-228(%rbp), %eax
	cltq
	.loc 1 111 61
	salq	$5, %rax
	movq	%rax, %rdx
	movq	-216(%rbp), %rax
	addq	%rdx, %rax
	.loc 1 111 88
	leaq	24(%rax), %rdx
	movq	%rdx, %rcx
	shrq	$3, %rcx
	addq	$2147450880, %rcx
	movzbl	(%rcx), %ecx
	testb	%cl, %cl
	je	.L23
	movq	%rdx, %rdi
	call	__asan_report_load8@PLT
.L23:
	movq	24(%rax), %rax
	.loc 1 111 28
	movl	-224(%rbp), %edx
	movslq	%edx, %rdx
	.loc 1 111 26
	leaq	0(,%rdx,8), %rcx
	movq	-208(%rbp), %rdx
	leaq	(%rcx,%rdx), %r12
	.loc 1 111 55
	movq	%rax, %rdi
	call	strdup@PLT
	movq	%rax, %rcx
	.loc 1 111 47
	movq	%r12, %rax
	movq	%rax, %rdx
	shrq	$3, %rdx
	addq	$2147450880, %rdx
	movzbl	(%rdx), %edx
	testb	%dl, %dl
	je	.L24
	movq	%rax, %rdi
	call	__asan_report_store8@PLT
.L24:
	movq	%rcx, (%r12)
	.loc 1 112 30
	addl	$1, -224(%rbp)
.L22:
	.loc 1 115 25
	addl	$1, -228(%rbp)
.L12:
.LBE2:
	.loc 1 69 22
	movq	-200(%rbp), %rax
	movq	%rax, %rdi
	.cfi_escape 0x2e,0
	call	_Z10BufferLookP6Buffer@PLT
	.loc 1 69 28
	testl	%eax, %eax
	setne	%al
	testb	%al, %al
	jne	.L25
	.loc 1 118 55
	call	_ZN6Logger11getInstanceEv@PLT
	movq	%rax, %rdi
	.loc 1 118 74
	movl	-228(%rbp), %eax
	cltq
	.loc 1 118 68
	salq	$5, %rax
	movq	%rax, %rdx
	movq	-216(%rbp), %rax
	movl	$118, %r9d
	leaq	.LC10(%rip), %r8
	leaq	.LC14(%rip), %rcx
	movq	%rax, %rsi
	call	_ZN6Logger9RECAL_LOGEPvmPKcS2_i@PLT
	.loc 1 118 25 discriminator 1
	movq	-248(%rbp), %rdx
	movq	%rdx, %rcx
	shrq	$3, %rcx
	addq	$2147450880, %rcx
	movzbl	(%rcx), %ecx
	testb	%cl, %cl
	je	.L26
	.loc 1 118 25 is_stmt 0
	movq	%rdx, %rdi
	call	__asan_report_store8@PLT
.L26:
	.loc 1 118 25 discriminator 2
	movq	-248(%rbp), %rdx
	movq	%rax, (%rdx)
	.loc 1 119 32 is_stmt 1 discriminator 2
	movq	-248(%rbp), %rax
	addq	$8, %rax
	movq	%rax, %rdx
	movq	%rdx, %rax
	shrq	$3, %rax
	addq	$2147450880, %rax
	movzbl	(%rax), %eax
	testb	%al, %al
	setne	%cl
	cmpb	$3, %al
	setle	%al
	andl	%ecx, %eax
	testb	%al, %al
	je	.L27
	.loc 1 119 32 is_stmt 0
	movq	%rdx, %rdi
	call	__asan_report_store4@PLT
.L27:
	.loc 1 119 32 discriminator 2
	movq	-248(%rbp), %rax
	movl	-228(%rbp), %edx
	movl	%edx, 8(%rax)
	.loc 1 121 62 is_stmt 1 discriminator 2
	call	_ZN6Logger11getInstanceEv@PLT
	movq	%rax, %rdi
	.loc 1 121 88 discriminator 2
	movl	-224(%rbp), %eax
	cltq
	.loc 1 121 75 discriminator 2
	leaq	0(,%rax,8), %rdx
	movq	-208(%rbp), %rax
	movl	$121, %r9d
	leaq	.LC10(%rip), %r8
	leaq	.LC14(%rip), %rcx
	movq	%rax, %rsi
	call	_ZN6Logger9RECAL_LOGEPvmPKcS2_i@PLT
	.loc 1 121 26 discriminator 1
	movq	-248(%rbp), %rdx
	addq	$32, %rdx
	movq	%rdx, %rcx
	shrq	$3, %rcx
	addq	$2147450880, %rcx
	movzbl	(%rcx), %ecx
	testb	%cl, %cl
	je	.L28
	.loc 1 121 26 is_stmt 0
	movq	%rdx, %rdi
	call	__asan_report_store8@PLT
.L28:
	.loc 1 121 26 discriminator 2
	movq	-248(%rbp), %rdx
	movq	%rax, 32(%rdx)
	.loc 1 122 33 is_stmt 1 discriminator 2
	movq	-248(%rbp), %rax
	addq	$40, %rax
	movq	%rax, %rdx
	movq	%rdx, %rax
	shrq	$3, %rax
	addq	$2147450880, %rax
	movzbl	(%rax), %eax
	testb	%al, %al
	setne	%cl
	cmpb	$3, %al
	setle	%al
	andl	%ecx, %eax
	testb	%al, %al
	je	.L29
	.loc 1 122 33 is_stmt 0
	movq	%rdx, %rdi
	call	__asan_report_store4@PLT
.L29:
	.loc 1 122 33 discriminator 2
	movq	-248(%rbp), %rax
	movl	-224(%rbp), %edx
	movl	%edx, 40(%rax)
	.loc 1 125 29 is_stmt 1 discriminator 2
	call	_ZN6Logger11getInstanceEv@PLT
	movq	%rax, %rdi
	.loc 1 125 35 discriminator 2
	movl	-228(%rbp), %eax
	movl	%eax, %ecx
	leaq	.LC28(%rip), %rax
	movq	%rax, %rdx
	leaq	.LC29(%rip), %rax
	movq	%rax, %rsi
	movl	$0, %eax
	call	_ZN6Logger3logEPKcz@PLT
.LBB7:
	.loc 1 126 14
	movl	$0, -220(%rbp)
	.loc 1 126 5
	jmp	.L30
.L31:
	.loc 1 128 33
	call	_ZN6Logger11getInstanceEv@PLT
	movq	%rax, %rdi
	.loc 1 128 39
	movl	-220(%rbp), %eax
	movl	%eax, %ecx
	leaq	.LC30(%rip), %rax
	movq	%rax, %rdx
	leaq	.LC29(%rip), %rax
	movq	%rax, %rsi
	movl	$0, %eax
	call	_ZN6Logger3logEPKcz@PLT
	.loc 1 129 24
	movl	-220(%rbp), %eax
	cltq
	.loc 1 129 22
	salq	$5, %rax
	movq	%rax, %rdx
	movq	-216(%rbp), %rax
	addq	%rdx, %rax
	.loc 1 129 17
	leaq	.LC31(%rip), %rdx
	movq	%rdx, %rsi
	movq	%rax, %rdi
	call	_Z8LogTokenPK5TokenPKc@PLT
.LEHE1:
	.loc 1 126 5 discriminator 2
	addl	$1, -220(%rbp)
.L30:
	.loc 1 126 23 discriminator 1
	movl	-220(%rbp), %eax
	cmpl	-228(%rbp), %eax
	jl	.L31
.LBE7:
	.loc 1 132 12
	movl	$0, %r12d
.L6:
	.loc 1 133 5
	leaq	-64(%r13), %rax
	movq	%rax, %rdi
	call	_ZN14FunctionLoggerD1Ev@PLT
	movl	%r12d, %edx
	.loc 1 41 5
	cmpq	%rbx, %r15
	je	.L2
	jmp	.L35
.L34:
	endbr64
	.loc 1 133 5
	movq	%rax, %rbx
	leaq	-64(%r13), %rax
	movq	%rax, %rdi
	call	_ZN14FunctionLoggerD1Ev@PLT
	call	__asan_handle_no_return@PLT
	movq	%rbx, %rdi
.LEHB2:
	call	_Unwind_Resume@PLT
.LEHE2:
.L35:
	.loc 1 41 5
	movq	$1172321806, (%rbx)
	movabsq	$-723401728380766731, %rsi
	movabsq	$-723401728380766731, %rdi
	movq	%rsi, 2147450880(%r14)
	movq	%rdi, 2147450888(%r14)
	movq	120(%rbx), %rax
	movb	$0, (%rax)
	jmp	.L3
.L2:
	movq	$0, 2147450880(%r14)
	movq	$0, 2147450888(%r14)
.L3:
	.loc 1 133 5
	movl	%edx, %eax
	leaq	-40(%rbp), %rsp
	popq	%rbx
	popq	%r12
	popq	%r13
	popq	%r14
	popq	%r15
	popq	%rbp
	.cfi_def_cfa 7, 8
	ret
	.cfi_endproc
.LFE2865:
	.globl	__gxx_personality_v0
	.section	.gcc_except_table,"a",@progbits
.LLSDA2865:
	.byte	0xff
	.byte	0xff
	.byte	0x1
	.uleb128 .LLSDACSE2865-.LLSDACSB2865
.LLSDACSB2865:
	.uleb128 .LEHB0-.LFB2865
	.uleb128 .LEHE0-.LEHB0
	.uleb128 0
	.uleb128 0
	.uleb128 .LEHB1-.LFB2865
	.uleb128 .LEHE1-.LEHB1
	.uleb128 .L34-.LFB2865
	.uleb128 0
	.uleb128 .LEHB2-.LFB2865
	.uleb128 .LEHE2-.LEHB2
	.uleb128 0
	.uleb128 0
.LLSDACSE2865:
	.text
	.size	_Z9TokenizerP8ProgrammPKc, .-_Z9TokenizerP8ProgrammPKc
	.globl	__asan_stack_malloc_2
	.section	.rodata
	.align 8
.LC32:
	.string	"4 48 4 1 n 64 8 9 const_val 96 24 12 func_140:140 160 16 4 word"
	.align 32
.LC33:
	.string	"GetTokenValue"
	.zero	50
	.align 32
.LC34:
	.string	"val"
	.zero	60
	.align 32
.LC35:
	.string	"buf"
	.zero	60
	.align 32
.LC36:
	.string	"temp"
	.zero	59
	.align 32
.LC37:
	.string	"\t%s: '%c'\n"
	.zero	53
	.align 32
.LC38:
	.string	"%*[^\n]%n"
	.zero	55
	.align 32
.LC40:
	.string	"Missing '<' for out operator\n"
	.zero	34
	.text
	.type	_ZL13GetTokenValueP10TokenValueP6Buffer, @function
_ZL13GetTokenValueP10TokenValueP6Buffer:
.LASANPC2866:
.LFB2866:
	.loc 1 139 5
	.cfi_startproc
	.cfi_personality 0x9b,DW.ref.__gxx_personality_v0
	.cfi_lsda 0x1b,.LLSDA2866
	endbr64
	pushq	%rbp
	.cfi_def_cfa_offset 16
	.cfi_offset 6, -16
	movq	%rsp, %rbp
	.cfi_def_cfa_register 6
	pushq	%r15
	pushq	%r14
	pushq	%r13
	pushq	%r12
	pushq	%rbx
	subq	$264, %rsp
	.cfi_offset 15, -24
	.cfi_offset 14, -32
	.cfi_offset 13, -40
	.cfi_offset 12, -48
	.cfi_offset 3, -56
	movq	%rdi, -296(%rbp)
	movq	%rsi, -304(%rbp)
	leaq	-272(%rbp), %r13
	movq	%r13, %r15
	cmpl	$0, __asan_option_detect_stack_use_after_return(%rip)
	je	.L36
	movl	$192, %edi
	call	__asan_stack_malloc_2@PLT
	testq	%rax, %rax
	je	.L36
	movq	%rax, %r13
.L36:
	leaq	224(%r13), %rax
	movq	%rax, %rbx
	movq	$1102416563, 0(%r13)
	leaq	.LC32(%rip), %rax
	movq	%rax, 8(%r13)
	leaq	.LASANPC2866(%rip), %rax
	movq	%rax, 16(%r13)
	movq	%r13, %r12
	shrq	$3, %r12
	movl	$-235802127, 2147450880(%r12)
	movl	$-234556943, 2147450884(%r12)
	movl	$-218959360, 2147450888(%r12)
	movl	$-234881024, 2147450892(%r12)
	movl	$-218959118, 2147450896(%r12)
	movl	$-202178560, 2147450900(%r12)
	.loc 1 139 5
	movq	%fs:40, %rax
	movq	%rax, -56(%rbp)
	xorl	%eax, %eax
	.loc 1 140 41
	leaq	-128(%rbx), %rax
	leaq	.LC33(%rip), %rdx
	movl	$1, %esi
	movq	%rax, %rdi
.LEHB3:
	call	_ZN14FunctionLoggerC1EiPKc@PLT
.LEHE3:
	.loc 1 141 10
	cmpq	$0, -296(%rbp)
	jne	.L40
.LEHB4:
	.loc 1 141 43 discriminator 1
	call	_ZN6Logger11getInstanceEv@PLT
	movq	%rax, %rcx
	.loc 1 141 49 discriminator 1
	leaq	.LC34(%rip), %rax
	movq	%rax, %rdx
	leaq	.LC12(%rip), %rax
	movq	%rax, %rsi
	movq	%rcx, %rdi
	movl	$0, %eax
	call	_ZN6Logger3logEPKcz@PLT
	.loc 1 141 93 discriminator 3
	leaq	.LC34(%rip), %rax
	movq	%rax, %rsi
	leaq	.LC13(%rip), %rax
	movq	%rax, %rdi
	movl	$0, %eax
	call	printf@PLT
	.loc 1 141 174 discriminator 4
	call	_ZN6Logger11getInstanceEv@PLT
	movq	%rax, %rdi
	.loc 1 141 180 discriminator 4
	movl	$141, %r8d
	leaq	.LC14(%rip), %rax
	movq	%rax, %rcx
	leaq	.LC33(%rip), %rax
	movq	%rax, %rdx
	leaq	.LC15(%rip), %rax
	movq	%rax, %rsi
	movl	$0, %eax
	call	_ZN6Logger3logEPKcz@PLT
	.loc 1 141 274 discriminator 6
	movl	$141, %ecx
	leaq	.LC14(%rip), %rax
	movq	%rax, %rdx
	leaq	.LC33(%rip), %rax
	movq	%rax, %rsi
	leaq	.LC15(%rip), %rax
	movq	%rax, %rdi
	movl	$0, %eax
	call	printf@PLT
	.loc 1 141 381 discriminator 7
	call	_ZN6Logger11getInstanceEv@PLT
	movq	%rax, %r14
	.loc 1 141 387 discriminator 7
	movl	$14, %edi
	call	strerror@PLT
	movq	%rax, %rcx
	movl	$14, %edx
	leaq	.LC16(%rip), %rax
	movq	%rax, %rsi
	movq	%r14, %rdi
	movl	$0, %eax
	call	_ZN6Logger3logEPKcz@PLT
	.loc 1 141 27 discriminator 9
	call	_ZN6Logger11getInstanceEv@PLT
	movq	%rax, %rdi
	.loc 1 141 33 discriminator 9
	movl	$141, %ecx
	leaq	.LC33(%rip), %rax
	movq	%rax, %rdx
	leaq	.LC17(%rip), %rax
	movq	%rax, %rsi
	movl	$0, %eax
	call	_ZN6Logger3logEPKcz@PLT
	.loc 1 141 92 discriminator 11
	leaq	.LC18(%rip), %rax
	movq	%rax, %rdi
	call	system@PLT
	.loc 1 141 112 discriminator 12
	movl	$-999, %r14d
	jmp	.L41
.L40:
	.loc 1 142 10
	cmpq	$0, -304(%rbp)
	jne	.L42
	.loc 1 142 43 discriminator 1
	call	_ZN6Logger11getInstanceEv@PLT
	movq	%rax, %rcx
	.loc 1 142 49 discriminator 1
	leaq	.LC35(%rip), %rax
	movq	%rax, %rdx
	leaq	.LC12(%rip), %rax
	movq	%rax, %rsi
	movq	%rcx, %rdi
	movl	$0, %eax
	call	_ZN6Logger3logEPKcz@PLT
	.loc 1 142 93 discriminator 3
	leaq	.LC35(%rip), %rax
	movq	%rax, %rsi
	leaq	.LC13(%rip), %rax
	movq	%rax, %rdi
	movl	$0, %eax
	call	printf@PLT
	.loc 1 142 174 discriminator 4
	call	_ZN6Logger11getInstanceEv@PLT
	movq	%rax, %rdi
	.loc 1 142 180 discriminator 4
	movl	$142, %r8d
	leaq	.LC14(%rip), %rax
	movq	%rax, %rcx
	leaq	.LC33(%rip), %rax
	movq	%rax, %rdx
	leaq	.LC15(%rip), %rax
	movq	%rax, %rsi
	movl	$0, %eax
	call	_ZN6Logger3logEPKcz@PLT
	.loc 1 142 274 discriminator 6
	movl	$142, %ecx
	leaq	.LC14(%rip), %rax
	movq	%rax, %rdx
	leaq	.LC33(%rip), %rax
	movq	%rax, %rsi
	leaq	.LC15(%rip), %rax
	movq	%rax, %rdi
	movl	$0, %eax
	call	printf@PLT
	.loc 1 142 381 discriminator 7
	call	_ZN6Logger11getInstanceEv@PLT
	movq	%rax, %r14
	.loc 1 142 387 discriminator 7
	movl	$14, %edi
	call	strerror@PLT
	movq	%rax, %rcx
	movl	$14, %edx
	leaq	.LC16(%rip), %rax
	movq	%rax, %rsi
	movq	%r14, %rdi
	movl	$0, %eax
	call	_ZN6Logger3logEPKcz@PLT
	.loc 1 142 27 discriminator 9
	call	_ZN6Logger11getInstanceEv@PLT
	movq	%rax, %rdi
	.loc 1 142 33 discriminator 9
	movl	$142, %ecx
	leaq	.LC33(%rip), %rax
	movq	%rax, %rdx
	leaq	.LC17(%rip), %rax
	movq	%rax, %rsi
	movl	$0, %eax
	call	_ZN6Logger3logEPKcz@PLT
	.loc 1 142 92 discriminator 11
	leaq	.LC18(%rip), %rax
	movq	%rax, %rdi
	call	system@PLT
	.loc 1 142 112 discriminator 12
	movl	$-999, %r14d
	jmp	.L41
.L42:
	.loc 1 144 32
	movq	-304(%rbp), %rax
	addq	$8, %rax
	movq	%rax, %rdx
	shrq	$3, %rdx
	addq	$2147450880, %rdx
	movzbl	(%rdx), %edx
	testb	%dl, %dl
	je	.L43
	movq	%rax, %rdi
	call	__asan_report_load8@PLT
.L43:
	movq	-304(%rbp), %rax
	movq	8(%rax), %rax
	.loc 1 144 26
	movq	%rax, %rdi
	call	_Z10SkipSpacesPKc@PLT
	.loc 1 144 14
	movq	-304(%rbp), %rdx
	addq	$8, %rdx
	movq	%rdx, %rcx
	shrq	$3, %rcx
	addq	$2147450880, %rcx
	movzbl	(%rcx), %ecx
	testb	%cl, %cl
	je	.L44
	movq	%rdx, %rdi
	call	__asan_report_store8@PLT
.L44:
	.loc 1 144 14 is_stmt 0 discriminator 1
	movq	-304(%rbp), %rdx
	movq	%rax, 8(%rdx)
	.loc 1 145 27 is_stmt 1 discriminator 1
	movq	-304(%rbp), %rax
	movq	%rax, %rdi
	call	_Z10BufferLookP6Buffer@PLT
	.loc 1 145 31 discriminator 1
	movb	%al, -285(%rbp)
	.loc 1 146 29 discriminator 1
	call	_ZN6Logger11getInstanceEv@PLT
	movq	%rax, %rdi
	.loc 1 146 35 discriminator 1
	movsbl	-285(%rbp), %eax
	movl	%eax, %ecx
	leaq	.LC36(%rip), %rax
	movq	%rax, %rdx
	leaq	.LC37(%rip), %rax
	movq	%rax, %rsi
	movl	$0, %eax
	call	_ZN6Logger3logEPKcz@PLT
.LEHE4:
.LBB8:
	.loc 1 148 5
	cmpb	$35, -285(%rbp)
	jne	.L45
.LBB9:
	.loc 1 150 17
	leaq	-176(%rbx), %rax
	movq	%rax, %rdx
	movq	%rdx, %rax
	shrq	$3, %rax
	addq	$2147450880, %rax
	movzbl	(%rax), %eax
	testb	%al, %al
	setne	%cl
	cmpb	$3, %al
	setle	%al
	andl	%ecx, %eax
	testb	%al, %al
	je	.L46
	movq	%rdx, %rdi
	call	__asan_report_store4@PLT
.L46:
	movl	$0, -176(%rbx)
	.loc 1 151 25
	movq	-304(%rbp), %rax
	addq	$8, %rax
	movq	%rax, %rdx
	shrq	$3, %rdx
	addq	$2147450880, %rdx
	movzbl	(%rdx), %edx
	testb	%dl, %dl
	je	.L47
	movq	%rax, %rdi
	call	__asan_report_load8@PLT
.L47:
	movq	-304(%rbp), %rax
	movq	8(%rax), %rax
	.loc 1 151 19
	leaq	-176(%rbx), %rdx
	leaq	.LC38(%rip), %rcx
	movq	%rcx, %rsi
	movq	%rax, %rdi
	movl	$0, %eax
	call	__isoc99_sscanf@PLT
	.loc 1 153 22
	movq	-304(%rbp), %rax
	addq	$8, %rax
	movq	%rax, %rdx
	shrq	$3, %rdx
	addq	$2147450880, %rdx
	movzbl	(%rdx), %edx
	testb	%dl, %dl
	je	.L48
	movq	%rax, %rdi
	call	__asan_report_load8@PLT
.L48:
	movq	-304(%rbp), %rax
	movq	8(%rax), %rcx
	.loc 1 153 25
	leaq	-176(%rbx), %rax
	movq	%rax, %rdx
	movq	%rdx, %rax
	shrq	$3, %rax
	addq	$2147450880, %rax
	movzbl	(%rax), %eax
	testb	%al, %al
	setne	%sil
	cmpb	$3, %al
	setle	%al
	andl	%esi, %eax
	testb	%al, %al
	je	.L49
	movq	%rdx, %rdi
	call	__asan_report_load4@PLT
.L49:
	movl	-176(%rbx), %eax
	cltq
	.loc 1 153 22
	leaq	(%rcx,%rax), %rdx
	movq	-304(%rbp), %rax
	movq	%rdx, 8(%rax)
	.loc 1 155 30
	movq	-304(%rbp), %rax
	movq	%rax, %rdi
.LEHB5:
	call	_Z10BufferLookP6Buffer@PLT
	.loc 1 155 18
	movb	%al, -285(%rbp)
	.loc 1 156 37
	call	_ZN6Logger11getInstanceEv@PLT
	.loc 1 156 37 is_stmt 0 discriminator 1
	movq	%rax, %rdi
	.loc 1 156 43 is_stmt 1 discriminator 1
	movsbl	-285(%rbp), %eax
	movl	%eax, %ecx
	leaq	.LC36(%rip), %rax
	movq	%rax, %rdx
	leaq	.LC37(%rip), %rax
	movq	%rax, %rsi
	movl	$0, %eax
	call	_ZN6Logger3logEPKcz@PLT
.LEHE5:
	leaq	-176(%rbx), %rax
	shrq	$3, %rax
	addq	$2147450880, %rax
	movb	$-8, (%rax)
.L45:
.LBE9:
.LBE8:
	.loc 1 160 5
	cmpb	$61, -285(%rbp)
	jne	.L50
	.loc 1 162 42
	movq	-304(%rbp), %rax
	movq	%rax, %rdi
.LEHB6:
	call	_Z11BufferGetChP6Buffer@PLT
.LEHE6:
	.loc 1 162 29
	movl	%eax, %ecx
	movq	-296(%rbp), %rax
	movq	%rax, %rdx
	movq	%rdx, %rax
	shrq	$3, %rax
	addq	$2147450880, %rax
	movzbl	(%rax), %eax
	testb	%al, %al
	setne	%sil
	testb	%al, %al
	setle	%al
	andl	%esi, %eax
	testb	%al, %al
	je	.L51
	movq	%rdx, %rdi
	call	__asan_report_store1@PLT
.L51:
	.loc 1 162 29 is_stmt 0 discriminator 1
	movq	-296(%rbp), %rax
	movb	%cl, (%rax)
	.loc 1 164 20 is_stmt 1 discriminator 1
	movl	$61, %r14d
	jmp	.L41
.L50:
.LBB11:
	.loc 1 168 16
	movsbl	-285(%rbp), %eax
	subl	$48, %eax
	cmpl	$9, %eax
	setbe	%al
	movzbl	%al, %eax
	.loc 1 168 5
	testl	%eax, %eax
	jne	.L52
	.loc 1 168 23 discriminator 1
	cmpb	$45, -285(%rbp)
	je	.L52
	.loc 1 168 38 discriminator 2
	cmpb	$43, -285(%rbp)
	jne	.L53
.L52:
.LBB12:
	.loc 1 170 16
	leaq	-160(%rbx), %rax
	shrq	$3, %rax
	addq	$2147450880, %rax
	movb	$0, (%rax)
	leaq	-160(%rbx), %rax
	movq	%rax, %rdx
	shrq	$3, %rdx
	addq	$2147450880, %rdx
	movzbl	(%rdx), %edx
	testb	%dl, %dl
	je	.L54
	movq	%rax, %rdi
	call	__asan_report_store8@PLT
.L54:
	movsd	.LC39(%rip), %xmm0
	movsd	%xmm0, -160(%rbx)
	.loc 1 172 28
	leaq	-160(%rbx), %rdx
	movq	-304(%rbp), %rax
	movq	%rdx, %rsi
	movq	%rax, %rdi
.LEHB7:
	call	_Z15BufferGetDoubleP6BufferPd@PLT
.LEHE7:
	testl	%eax, %eax
	setne	%al
	.loc 1 172 9
	testb	%al, %al
	je	.L55
	.loc 1 174 29
	leaq	-160(%rbx), %rax
	movq	%rax, %rdx
	shrq	$3, %rdx
	addq	$2147450880, %rdx
	movzbl	(%rdx), %edx
	testb	%dl, %dl
	je	.L56
	movq	%rax, %rdi
	call	__asan_report_load8@PLT
.L56:
	movsd	-160(%rbx), %xmm0
	movq	-296(%rbp), %rax
	movq	%rax, %rdx
	shrq	$3, %rdx
	addq	$2147450880, %rdx
	movzbl	(%rdx), %edx
	testb	%dl, %dl
	je	.L57
	movq	%rax, %rdi
	call	__asan_report_store8@PLT
.L57:
	movq	-296(%rbp), %rax
	movsd	%xmm0, (%rax)
	.loc 1 176 20
	movl	$7, %r14d
	movl	$0, %edx
	jmp	.L58
.L55:
	movl	$1, %edx
.L58:
	leaq	-160(%rbx), %rax
	shrq	$3, %rax
	addq	$2147450880, %rax
	movb	$-8, (%rax)
	cmpl	$1, %edx
	jne	.L41
.L53:
.LBE12:
.LBE11:
	.loc 1 181 15
	movsbl	-285(%rbp), %eax
	movl	%eax, %esi
	leaq	_ZL9OPERATORS(%rip), %rax
	movq	%rax, %rdi
	call	strchr@PLT
	.loc 1 181 5
	testq	%rax, %rax
	je	.L59
	.loc 1 183 38
	movq	-304(%rbp), %rax
	movq	%rax, %rdi
.LEHB8:
	call	_Z11BufferGetChP6Buffer@PLT
	.loc 1 183 25
	movl	%eax, %ecx
	movq	-296(%rbp), %rax
	movq	%rax, %rdx
	movq	%rdx, %rax
	shrq	$3, %rax
	addq	$2147450880, %rax
	movzbl	(%rax), %eax
	testb	%al, %al
	setne	%sil
	testb	%al, %al
	setle	%al
	andl	%esi, %eax
	testb	%al, %al
	je	.L60
	movq	%rdx, %rdi
	call	__asan_report_store1@PLT
.L60:
	.loc 1 183 25 is_stmt 0 discriminator 1
	movq	-296(%rbp), %rax
	movb	%cl, (%rax)
	.loc 1 185 18 is_stmt 1 discriminator 1
	movq	-296(%rbp), %rax
	movzbl	(%rax), %eax
	.loc 1 185 9 discriminator 1
	cmpb	$60, %al
	jne	.L61
	.loc 1 186 28
	movq	-304(%rbp), %rax
	movq	%rax, %rdi
	call	_Z11BufferGetChP6Buffer@PLT
	.loc 1 186 34
	cmpl	$60, %eax
	setne	%al
	.loc 1 186 13
	testb	%al, %al
	je	.L61
	.loc 1 188 28
	leaq	.LC23(%rip), %rax
	movq	%rax, %rdi
	movl	$0, %eax
	call	printf@PLT
	.loc 1 188 87 discriminator 1
	call	_ZN6Logger11getInstanceEv@PLT
	movq	%rax, %rdx
	.loc 1 188 93 discriminator 1
	leaq	.LC24(%rip), %rax
	movq	%rax, %rsi
	movq	%rdx, %rdi
	movl	$0, %eax
	call	_ZN6Logger3logEPKcz@PLT
	.loc 1 188 134 discriminator 3
	call	_ZN6Logger11getInstanceEv@PLT
	movq	%rax, %rdx
	.loc 1 188 140 discriminator 3
	leaq	.LC25(%rip), %rax
	movq	%rax, %rsi
	movq	%rdx, %rdi
	movl	$0, %eax
	call	_ZN6Logger3logEPKcz@PLT
	.loc 1 188 166 discriminator 5
	call	_ZN6Logger11getInstanceEv@PLT
	movq	%rax, %rdx
	.loc 1 188 184 discriminator 5
	leaq	.LC40(%rip), %rax
	movq	%rax, %rsi
	movq	%rdx, %rdi
	movl	$0, %eax
	call	_ZN6Logger15log_dup_consoleEPKcz@PLT
	.loc 1 188 227 discriminator 7
	leaq	.LC27(%rip), %rax
	movq	%rax, %rdi
	movl	$0, %eax
	call	printf@PLT
	.loc 1 188 248 discriminator 8
	movq	-304(%rbp), %rax
	addq	$8, %rax
	movq	%rax, %rdx
	shrq	$3, %rdx
	addq	$2147450880, %rdx
	movzbl	(%rdx), %edx
	testb	%dl, %dl
	je	.L62
	.loc 1 188 248 is_stmt 0
	movq	%rax, %rdi
	call	__asan_report_load8@PLT
.L62:
	.loc 1 188 248 discriminator 8
	movq	-304(%rbp), %rax
	movq	8(%rax), %rax
	.loc 1 188 242 is_stmt 1 discriminator 8
	movl	$10, %esi
	movq	%rax, %rdi
	call	_Z6printlPKcc@PLT
.LEHE8:
	.loc 1 190 24
	movl	$-1, %r14d
	jmp	.L41
.L61:
	.loc 1 193 16
	movl	$4, %r14d
	jmp	.L41
.L59:
.LBB14:
	.loc 1 197 16
	movsbl	-285(%rbp), %eax
	movl	%eax, %edi
	call	isalpha@PLT
	.loc 1 197 5
	testl	%eax, %eax
	je	.L63
.LBB15:
	.loc 1 199 14
	leaq	-64(%rbx), %rax
	shrq	$3, %rax
	addq	$2147450880, %rax
	movw	$0, (%rax)
	leaq	-64(%rbx), %rax
	movq	%rax, %rdx
	shrq	$3, %rdx
	addq	$2147450880, %rdx
	movzwl	(%rdx), %edx
	testw	%dx, %dx
	je	.L64
	movq	%rax, %rdi
	call	__asan_report_store16@PLT
.L64:
	movq	$0, -64(%rbx)
	movq	$0, -56(%rbx)
	.loc 1 200 23
	leaq	-64(%rbx), %rdx
	movq	-304(%rbp), %rax
	movq	%rdx, %rsi
	movq	%rax, %rdi
.LEHB9:
	call	_ZL13BufferGetWordP6BufferPc
	.loc 1 202 40
	leaq	-64(%rbx), %rax
	movq	%rax, %rdi
	call	_ZL13IsInstructionPc
	movl	%eax, -284(%rbp)
	.loc 1 203 9
	cmpl	$-666, -284(%rbp)
	je	.L65
	.loc 1 205 32
	movq	-296(%rbp), %rax
	movq	%rax, %rdx
	movq	%rdx, %rax
	shrq	$3, %rax
	addq	$2147450880, %rax
	movzbl	(%rax), %eax
	testb	%al, %al
	setne	%cl
	cmpb	$3, %al
	setle	%al
	andl	%ecx, %eax
	testb	%al, %al
	je	.L66
	movq	%rdx, %rdi
	call	__asan_report_store4@PLT
.L66:
	movq	-296(%rbp), %rax
	movl	-284(%rbp), %edx
	movl	%edx, (%rax)
	.loc 1 207 20
	movl	$1, %r14d
	jmp	.L67
.L65:
	.loc 1 210 44
	leaq	-64(%rbx), %rax
	movq	%rax, %rdi
	call	_ZL15IsInitializatorPc
	movl	%eax, -280(%rbp)
	.loc 1 211 9
	cmpl	$-111, -280(%rbp)
	je	.L68
	.loc 1 213 34
	movq	-296(%rbp), %rax
	movq	%rax, %rdx
	movq	%rdx, %rax
	shrq	$3, %rax
	addq	$2147450880, %rax
	movzbl	(%rax), %eax
	testb	%al, %al
	setne	%cl
	cmpb	$3, %al
	setle	%al
	andl	%ecx, %eax
	testb	%al, %al
	je	.L69
	movq	%rdx, %rdi
	call	__asan_report_store4@PLT
.L69:
	movq	-296(%rbp), %rax
	movl	-280(%rbp), %edx
	movl	%edx, (%rax)
	.loc 1 215 20
	movl	$2, %r14d
	jmp	.L67
.L68:
	.loc 1 218 41
	leaq	-64(%rbx), %rax
	movq	%rax, %rdi
	call	_ZL17IsFunctionRetTypePc
.LEHE9:
	movl	%eax, -276(%rbp)
	.loc 1 219 9
	cmpl	$-333, -276(%rbp)
	je	.L70
	.loc 1 221 38
	movq	-296(%rbp), %rax
	movq	%rax, %rdx
	movq	%rdx, %rax
	shrq	$3, %rax
	addq	$2147450880, %rax
	movzbl	(%rax), %eax
	testb	%al, %al
	setne	%cl
	cmpb	$3, %al
	setle	%al
	andl	%ecx, %eax
	testb	%al, %al
	je	.L71
	movq	%rdx, %rdi
	call	__asan_report_store4@PLT
.L71:
	movq	-296(%rbp), %rax
	movl	-276(%rbp), %edx
	movl	%edx, (%rax)
	.loc 1 223 20
	movl	$3, %r14d
	jmp	.L67
.L70:
	.loc 1 227 21
	movq	-296(%rbp), %rax
	movq	%rax, %rdx
	shrq	$3, %rdx
	addq	$2147450880, %rdx
	movzbl	(%rdx), %edx
	testb	%dl, %dl
	je	.L72
	movq	%rax, %rdi
	call	__asan_report_store8@PLT
.L72:
	movq	-296(%rbp), %rax
	leaq	-64(%rbx), %rdx
	movq	%rdx, (%rax)
	.loc 1 229 16
	movl	$5, %r14d
.L67:
	leaq	-64(%rbx), %rax
	shrq	$3, %rax
	addq	$2147450880, %rax
	movw	$-1800, (%rax)
	jmp	.L41
.L63:
.LBE15:
.LBE14:
	.loc 1 234 5
	cmpb	$123, -285(%rbp)
	je	.L73
	.loc 1 234 33 discriminator 1
	cmpb	$125, -285(%rbp)
	je	.L73
	.loc 1 234 60 discriminator 2
	cmpb	$40, -285(%rbp)
	je	.L73
	.loc 1 235 44
	cmpb	$41, -285(%rbp)
	jne	.L74
.L73:
	.loc 1 237 38
	movq	-304(%rbp), %rax
	movq	%rax, %rdi
.LEHB10:
	call	_Z11BufferGetChP6Buffer@PLT
	.loc 1 237 25
	movl	%eax, %ecx
	movq	-296(%rbp), %rax
	movq	%rax, %rdx
	movq	%rdx, %rax
	shrq	$3, %rax
	addq	$2147450880, %rax
	movzbl	(%rax), %eax
	testb	%al, %al
	setne	%sil
	testb	%al, %al
	setle	%al
	andl	%esi, %eax
	testb	%al, %al
	je	.L75
	movq	%rdx, %rdi
	call	__asan_report_store1@PLT
.L75:
	.loc 1 237 25 is_stmt 0 discriminator 1
	movq	-296(%rbp), %rax
	movb	%cl, (%rax)
	.loc 1 239 21 is_stmt 1 discriminator 1
	movq	-296(%rbp), %rax
	movzbl	(%rax), %eax
	movsbl	%al, %r14d
	jmp	.L41
.L74:
	.loc 1 243 5
	cmpb	$59, -285(%rbp)
	jne	.L76
	.loc 1 245 38
	movq	-304(%rbp), %rax
	movq	%rax, %rdi
	call	_Z11BufferGetChP6Buffer@PLT
.LEHE10:
	.loc 1 245 25
	movl	%eax, %ecx
	movq	-296(%rbp), %rax
	movq	%rax, %rdx
	movq	%rdx, %rax
	shrq	$3, %rax
	addq	$2147450880, %rax
	movzbl	(%rax), %eax
	testb	%al, %al
	setne	%sil
	testb	%al, %al
	setle	%al
	andl	%esi, %eax
	testb	%al, %al
	je	.L77
	movq	%rdx, %rdi
	call	__asan_report_store1@PLT
.L77:
	.loc 1 245 25 is_stmt 0 discriminator 1
	movq	-296(%rbp), %rax
	movb	%cl, (%rax)
	.loc 1 247 16 is_stmt 1 discriminator 1
	movl	$59, %r14d
	jmp	.L41
.L76:
	.loc 1 250 12
	movl	$-999, %r14d
.L41:
	.loc 1 251 5
	leaq	-128(%rbx), %rax
	movq	%rax, %rdi
	call	_ZN14FunctionLoggerD1Ev@PLT
	movl	%r14d, %edx
	.loc 1 139 5
	cmpq	%r13, %r15
	je	.L37
	jmp	.L88
.L85:
	endbr64
.LBB17:
.LBB10:
	leaq	-176(%rbx), %rdx
	shrq	$3, %rdx
	addq	$2147450880, %rdx
	movb	$-8, (%rdx)
	movq	%rax, %r12
	jmp	.L80
.L86:
	endbr64
.LBE10:
.LBE17:
.LBB18:
.LBB13:
	leaq	-160(%rbx), %rdx
	shrq	$3, %rdx
	addq	$2147450880, %rdx
	movb	$-8, (%rdx)
	movq	%rax, %r12
	jmp	.L80
.L87:
	endbr64
.LBE13:
.LBE18:
.LBB19:
.LBB16:
	leaq	-64(%rbx), %rdx
	shrq	$3, %rdx
	addq	$2147450880, %rdx
	movw	$-1800, (%rdx)
	movq	%rax, %r12
	jmp	.L80
.L84:
	endbr64
.LBE16:
.LBE19:
	.loc 1 251 5
	movq	%rax, %r12
.L80:
	leaq	-128(%rbx), %rax
	movq	%rax, %rdi
	call	_ZN14FunctionLoggerD1Ev@PLT
	movq	%r12, %rbx
	call	__asan_handle_no_return@PLT
	movq	%rbx, %rdi
.LEHB11:
	call	_Unwind_Resume@PLT
.LEHE11:
.L88:
	.loc 1 139 5
	movq	$1172321806, 0(%r13)
	movabsq	$-723401728380766731, %rbx
	movabsq	$-723401728380766731, %rsi
	movq	%rbx, 2147450880(%r12)
	movq	%rsi, 2147450888(%r12)
	movabsq	$-723401728380766731, %rax
	movq	%rax, 2147450896(%r12)
	movq	248(%r13), %rax
	movb	$0, (%rax)
	jmp	.L38
.L37:
	movq	$0, 2147450880(%r12)
	movq	$0, 2147450888(%r12)
	movq	$0, 2147450896(%r12)
.L38:
	.loc 1 251 5
	movq	-56(%rbp), %rax
	subq	%fs:40, %rax
	je	.L83
	call	__stack_chk_fail@PLT
.L83:
	movl	%edx, %eax
	addq	$264, %rsp
	popq	%rbx
	popq	%r12
	popq	%r13
	popq	%r14
	popq	%r15
	popq	%rbp
	.cfi_def_cfa 7, 8
	ret
	.cfi_endproc
.LFE2866:
	.section	.gcc_except_table
.LLSDA2866:
	.byte	0xff
	.byte	0xff
	.byte	0x1
	.uleb128 .LLSDACSE2866-.LLSDACSB2866
.LLSDACSB2866:
	.uleb128 .LEHB3-.LFB2866
	.uleb128 .LEHE3-.LEHB3
	.uleb128 0
	.uleb128 0
	.uleb128 .LEHB4-.LFB2866
	.uleb128 .LEHE4-.LEHB4
	.uleb128 .L84-.LFB2866
	.uleb128 0
	.uleb128 .LEHB5-.LFB2866
	.uleb128 .LEHE5-.LEHB5
	.uleb128 .L85-.LFB2866
	.uleb128 0
	.uleb128 .LEHB6-.LFB2866
	.uleb128 .LEHE6-.LEHB6
	.uleb128 .L84-.LFB2866
	.uleb128 0
	.uleb128 .LEHB7-.LFB2866
	.uleb128 .LEHE7-.LEHB7
	.uleb128 .L86-.LFB2866
	.uleb128 0
	.uleb128 .LEHB8-.LFB2866
	.uleb128 .LEHE8-.LEHB8
	.uleb128 .L84-.LFB2866
	.uleb128 0
	.uleb128 .LEHB9-.LFB2866
	.uleb128 .LEHE9-.LEHB9
	.uleb128 .L87-.LFB2866
	.uleb128 0
	.uleb128 .LEHB10-.LFB2866
	.uleb128 .LEHE10-.LEHB10
	.uleb128 .L84-.LFB2866
	.uleb128 0
	.uleb128 .LEHB11-.LFB2866
	.uleb128 .LEHE11-.LEHB11
	.uleb128 0
	.uleb128 0
.LLSDACSE2866:
	.text
	.size	_ZL13GetTokenValueP10TokenValueP6Buffer, .-_ZL13GetTokenValueP10TokenValueP6Buffer
	.globl	__asan_stack_malloc_0
	.section	.rodata
.LC41:
	.string	"1 32 4 1 n"
	.align 32
.LC42:
	.string	"BufferGetWord"
	.zero	50
	.align 32
.LC43:
	.string	"word_buffer"
	.zero	52
	.align 32
.LC44:
	.string	"%[a-zA-Z]%n"
	.zero	52
	.text
	.type	_ZL13BufferGetWordP6BufferPc, @function
_ZL13BufferGetWordP6BufferPc:
.LASANPC2867:
.LFB2867:
	.loc 1 254 5
	.cfi_startproc
	endbr64
	pushq	%rbp
	.cfi_def_cfa_offset 16
	.cfi_offset 6, -16
	movq	%rsp, %rbp
	.cfi_def_cfa_register 6
	pushq	%r14
	pushq	%r13
	pushq	%r12
	pushq	%rbx
	subq	$80, %rsp
	.cfi_offset 14, -24
	.cfi_offset 13, -32
	.cfi_offset 12, -40
	.cfi_offset 3, -48
	movq	%rdi, -104(%rbp)
	movq	%rsi, -112(%rbp)
	leaq	-96(%rbp), %rbx
	movq	%rbx, %r14
	cmpl	$0, __asan_option_detect_stack_use_after_return(%rip)
	je	.L89
	movl	$64, %edi
	call	__asan_stack_malloc_0@PLT
	testq	%rax, %rax
	je	.L89
	movq	%rax, %rbx
.L89:
	leaq	64(%rbx), %rax
	movq	%rax, %r12
	movq	$1102416563, (%rbx)
	leaq	.LC41(%rip), %rax
	movq	%rax, 8(%rbx)
	leaq	.LASANPC2867(%rip), %rax
	movq	%rax, 16(%rbx)
	movq	%rbx, %r13
	shrq	$3, %r13
	movl	$-235802127, 2147450880(%r13)
	movl	$-202116348, 2147450884(%r13)
	.loc 1 255 10
	cmpq	$0, -104(%rbp)
	jne	.L93
	.loc 1 255 43 discriminator 1
	call	_ZN6Logger11getInstanceEv@PLT
	movq	%rax, %rcx
	.loc 1 255 49 discriminator 1
	leaq	.LC35(%rip), %rax
	movq	%rax, %rdx
	leaq	.LC12(%rip), %rax
	movq	%rax, %rsi
	movq	%rcx, %rdi
	movl	$0, %eax
	call	_ZN6Logger3logEPKcz@PLT
	.loc 1 255 93 discriminator 1
	leaq	.LC35(%rip), %rax
	movq	%rax, %rsi
	leaq	.LC13(%rip), %rax
	movq	%rax, %rdi
	movl	$0, %eax
	call	printf@PLT
	.loc 1 255 174 discriminator 1
	call	_ZN6Logger11getInstanceEv@PLT
	movq	%rax, %rdi
	.loc 1 255 180 discriminator 1
	movl	$255, %r8d
	leaq	.LC14(%rip), %rax
	movq	%rax, %rcx
	leaq	.LC42(%rip), %rax
	movq	%rax, %rdx
	leaq	.LC15(%rip), %rax
	movq	%rax, %rsi
	movl	$0, %eax
	call	_ZN6Logger3logEPKcz@PLT
	.loc 1 255 274 discriminator 1
	movl	$255, %ecx
	leaq	.LC14(%rip), %rax
	movq	%rax, %rdx
	leaq	.LC42(%rip), %rax
	movq	%rax, %rsi
	leaq	.LC15(%rip), %rax
	movq	%rax, %rdi
	movl	$0, %eax
	call	printf@PLT
	.loc 1 255 381 discriminator 1
	call	_ZN6Logger11getInstanceEv@PLT
	movq	%rax, %r12
	.loc 1 255 387 discriminator 1
	movl	$14, %edi
	call	strerror@PLT
	movq	%rax, %rcx
	movl	$14, %edx
	leaq	.LC16(%rip), %rax
	movq	%rax, %rsi
	movq	%r12, %rdi
	movl	$0, %eax
	call	_ZN6Logger3logEPKcz@PLT
	.loc 1 255 27 discriminator 1
	call	_ZN6Logger11getInstanceEv@PLT
	movq	%rax, %rdi
	.loc 1 255 33 discriminator 1
	movl	$255, %ecx
	leaq	.LC42(%rip), %rax
	movq	%rax, %rdx
	leaq	.LC17(%rip), %rax
	movq	%rax, %rsi
	movl	$0, %eax
	call	_ZN6Logger3logEPKcz@PLT
	.loc 1 255 92 discriminator 1
	leaq	.LC18(%rip), %rax
	movq	%rax, %rdi
	call	system@PLT
	.loc 1 255 131 discriminator 1
	call	_ZN6Logger11getInstanceEv@PLT
	.loc 1 255 153 discriminator 1
	call	_ZN6Logger11getInstanceEv@PLT
	movq	%rax, %r12
	.loc 1 255 166 discriminator 1
	movl	$255, %r9d
	leaq	.LC42(%rip), %r8
	movl	$255, %ecx
	leaq	.LC14(%rip), %rax
	movq	%rax, %rdx
	leaq	.LC19(%rip), %rax
	movq	%rax, %rsi
	movl	$-1, %edi
	movl	$0, %eax
	call	_Z6MsgRetiPKcz@PLT
	movl	%eax, %esi
	subq	$8, %rsp
	pushq	$255
	leaq	.LC42(%rip), %r9
	movl	$255, %r8d
	leaq	.LC14(%rip), %rax
	movq	%rax, %rcx
	leaq	.LC20(%rip), %rax
	movq	%rax, %rdx
	movq	%r12, %rdi
	movl	$0, %eax
	call	_ZN6Logger9LogMsgRetEiPKcz@PLT
	addq	$16, %rsp
	.loc 1 255 353 discriminator 1
	jmp	.L103
.L93:
	.loc 1 256 10
	cmpq	$0, -112(%rbp)
	jne	.L95
	.loc 1 256 51 discriminator 1
	call	_ZN6Logger11getInstanceEv@PLT
	movq	%rax, %rcx
	.loc 1 256 57 discriminator 1
	leaq	.LC43(%rip), %rax
	movq	%rax, %rdx
	leaq	.LC12(%rip), %rax
	movq	%rax, %rsi
	movq	%rcx, %rdi
	movl	$0, %eax
	call	_ZN6Logger3logEPKcz@PLT
	.loc 1 256 109 discriminator 1
	leaq	.LC43(%rip), %rax
	movq	%rax, %rsi
	leaq	.LC13(%rip), %rax
	movq	%rax, %rdi
	movl	$0, %eax
	call	printf@PLT
	.loc 1 256 198 discriminator 1
	call	_ZN6Logger11getInstanceEv@PLT
	movq	%rax, %rdi
	.loc 1 256 204 discriminator 1
	movl	$256, %r8d
	leaq	.LC14(%rip), %rax
	movq	%rax, %rcx
	leaq	.LC42(%rip), %rax
	movq	%rax, %rdx
	leaq	.LC15(%rip), %rax
	movq	%rax, %rsi
	movl	$0, %eax
	call	_ZN6Logger3logEPKcz@PLT
	.loc 1 256 298 discriminator 1
	movl	$256, %ecx
	leaq	.LC14(%rip), %rax
	movq	%rax, %rdx
	leaq	.LC42(%rip), %rax
	movq	%rax, %rsi
	leaq	.LC15(%rip), %rax
	movq	%rax, %rdi
	movl	$0, %eax
	call	printf@PLT
	.loc 1 256 405 discriminator 1
	call	_ZN6Logger11getInstanceEv@PLT
	movq	%rax, %r12
	.loc 1 256 411 discriminator 1
	movl	$14, %edi
	call	strerror@PLT
	movq	%rax, %rcx
	movl	$14, %edx
	leaq	.LC16(%rip), %rax
	movq	%rax, %rsi
	movq	%r12, %rdi
	movl	$0, %eax
	call	_ZN6Logger3logEPKcz@PLT
	.loc 1 256 27 discriminator 1
	call	_ZN6Logger11getInstanceEv@PLT
	movq	%rax, %rdi
	.loc 1 256 33 discriminator 1
	movl	$256, %ecx
	leaq	.LC42(%rip), %rax
	movq	%rax, %rdx
	leaq	.LC17(%rip), %rax
	movq	%rax, %rsi
	movl	$0, %eax
	call	_ZN6Logger3logEPKcz@PLT
	.loc 1 256 92 discriminator 1
	leaq	.LC18(%rip), %rax
	movq	%rax, %rdi
	call	system@PLT
	.loc 1 256 131 discriminator 1
	call	_ZN6Logger11getInstanceEv@PLT
	.loc 1 256 153 discriminator 1
	call	_ZN6Logger11getInstanceEv@PLT
	movq	%rax, %r12
	.loc 1 256 166 discriminator 1
	movl	$256, %r9d
	leaq	.LC42(%rip), %r8
	movl	$256, %ecx
	leaq	.LC14(%rip), %rax
	movq	%rax, %rdx
	leaq	.LC19(%rip), %rax
	movq	%rax, %rsi
	movl	$-1, %edi
	movl	$0, %eax
	call	_Z6MsgRetiPKcz@PLT
	movl	%eax, %esi
	subq	$8, %rsp
	pushq	$256
	leaq	.LC42(%rip), %r9
	movl	$256, %r8d
	leaq	.LC14(%rip), %rax
	movq	%rax, %rcx
	leaq	.LC20(%rip), %rax
	movq	%rax, %rdx
	movq	%r12, %rdi
	movl	$0, %eax
	call	_ZN6Logger9LogMsgRetEiPKcz@PLT
	addq	$16, %rsp
	.loc 1 256 353 discriminator 1
	jmp	.L103
.L95:
	.loc 1 258 32
	movq	-104(%rbp), %rax
	addq	$8, %rax
	movq	%rax, %rdx
	shrq	$3, %rdx
	addq	$2147450880, %rdx
	movzbl	(%rdx), %edx
	testb	%dl, %dl
	je	.L96
	movq	%rax, %rdi
	call	__asan_report_load8@PLT
.L96:
	movq	-104(%rbp), %rax
	movq	8(%rax), %rax
	.loc 1 258 26
	movq	%rax, %rdi
	call	_Z10SkipSpacesPKc@PLT
	.loc 1 258 14
	movq	-104(%rbp), %rdx
	addq	$8, %rdx
	movq	%rdx, %rcx
	shrq	$3, %rcx
	addq	$2147450880, %rcx
	movzbl	(%rcx), %ecx
	testb	%cl, %cl
	je	.L97
	movq	%rdx, %rdi
	call	__asan_report_store8@PLT
.L97:
	.loc 1 258 14 is_stmt 0 discriminator 1
	movq	-104(%rbp), %rdx
	movq	%rax, 8(%rdx)
	.loc 1 260 9 is_stmt 1 discriminator 1
	leaq	-32(%r12), %rax
	movq	%rax, %rdx
	movq	%rdx, %rax
	shrq	$3, %rax
	addq	$2147450880, %rax
	movzbl	(%rax), %eax
	testb	%al, %al
	setne	%cl
	cmpb	$3, %al
	setle	%al
	andl	%ecx, %eax
	testb	%al, %al
	je	.L98
	.loc 1 260 9 is_stmt 0
	movq	%rdx, %rdi
	call	__asan_report_store4@PLT
.L98:
	.loc 1 260 9 discriminator 1
	movl	$0, -32(%r12)
	.loc 1 261 17 is_stmt 1 discriminator 1
	movq	-104(%rbp), %rax
	movq	8(%rax), %rax
	.loc 1 261 11 discriminator 1
	leaq	-32(%r12), %rcx
	movq	-112(%rbp), %rdx
	leaq	.LC44(%rip), %rsi
	movq	%rax, %rdi
	movl	$0, %eax
	call	__isoc99_sscanf@PLT
	.loc 1 262 32 discriminator 1
	movq	-104(%rbp), %rax
	addq	$8, %rax
	movq	%rax, %rdx
	shrq	$3, %rdx
	addq	$2147450880, %rdx
	movzbl	(%rdx), %edx
	testb	%dl, %dl
	je	.L99
	.loc 1 262 32 is_stmt 0
	movq	%rax, %rdi
	call	__asan_report_load8@PLT
.L99:
	.loc 1 262 32 discriminator 1
	movq	-104(%rbp), %rax
	movq	8(%rax), %rcx
	.loc 1 262 38 is_stmt 1 discriminator 1
	leaq	-32(%r12), %rax
	movq	%rax, %rdx
	movq	%rdx, %rax
	shrq	$3, %rax
	addq	$2147450880, %rax
	movzbl	(%rax), %eax
	testb	%al, %al
	setne	%sil
	cmpb	$3, %al
	setle	%al
	andl	%esi, %eax
	testb	%al, %al
	je	.L100
	.loc 1 262 38 is_stmt 0
	movq	%rdx, %rdi
	call	__asan_report_load4@PLT
.L100:
	.loc 1 262 38 discriminator 1
	movl	-32(%r12), %eax
	cltq
	.loc 1 262 36 is_stmt 1 discriminator 1
	addq	%rcx, %rax
	.loc 1 262 26 discriminator 1
	movq	%rax, %rdi
	call	_Z10SkipSpacesPKc@PLT
	.loc 1 262 14 discriminator 1
	movq	-104(%rbp), %rdx
	addq	$8, %rdx
	movq	%rdx, %rcx
	shrq	$3, %rcx
	addq	$2147450880, %rcx
	movzbl	(%rcx), %ecx
	testb	%cl, %cl
	je	.L101
	.loc 1 262 14 is_stmt 0
	movq	%rdx, %rdi
	call	__asan_report_store8@PLT
.L101:
	.loc 1 262 14 discriminator 1
	movq	-104(%rbp), %rdx
	movq	%rax, 8(%rdx)
	.loc 1 269 12 is_stmt 1 discriminator 1
	leaq	-32(%r12), %rax
	movq	%rax, %rdx
	movq	%rdx, %rax
	shrq	$3, %rax
	addq	$2147450880, %rax
	movzbl	(%rax), %eax
	testb	%al, %al
	setne	%cl
	cmpb	$3, %al
	setle	%al
	andl	%ecx, %eax
	testb	%al, %al
	je	.L102
	.loc 1 269 12 is_stmt 0
	movq	%rdx, %rdi
	call	__asan_report_load4@PLT
.L102:
	.loc 1 269 12 discriminator 1
	movl	-32(%r12), %eax
.L103:
	.loc 1 270 5 is_stmt 1 discriminator 1
	movl	%eax, %edx
	.loc 1 254 5 discriminator 1
	cmpq	%rbx, %r14
	je	.L90
	.loc 1 254 5 is_stmt 0
	movq	$1172321806, (%rbx)
	movabsq	$-723401728380766731, %rax
	movq	%rax, 2147450880(%r13)
	movq	56(%rbx), %rax
	movb	$0, (%rax)
	jmp	.L91
.L90:
	movq	$0, 2147450880(%r13)
.L91:
	.loc 1 270 5 is_stmt 1
	movl	%edx, %eax
	leaq	-32(%rbp), %rsp
	popq	%rbx
	popq	%r12
	popq	%r13
	popq	%r14
	popq	%rbp
	.cfi_def_cfa 7, 8
	ret
	.cfi_endproc
.LFE2867:
	.size	_ZL13BufferGetWordP6BufferPc, .-_ZL13BufferGetWordP6BufferPc
	.section	.rodata
	.align 32
.LC45:
	.string	"str"
	.zero	60
	.align 32
.LC46:
	.string	"IsInstruction"
	.zero	50
	.text
	.type	_ZL13IsInstructionPc, @function
_ZL13IsInstructionPc:
.LASANPC2868:
.LFB2868:
	.loc 1 273 5
	.cfi_startproc
	endbr64
	pushq	%rbp
	.cfi_def_cfa_offset 16
	.cfi_offset 6, -16
	movq	%rsp, %rbp
	.cfi_def_cfa_register 6
	pushq	%rbx
	subq	$40, %rsp
	.cfi_offset 3, -24
	movq	%rdi, -40(%rbp)
	.loc 1 274 10
	cmpq	$0, -40(%rbp)
	jne	.L105
	.loc 1 274 43 discriminator 1
	call	_ZN6Logger11getInstanceEv@PLT
	movq	%rax, %rcx
	.loc 1 274 49 discriminator 1
	leaq	.LC45(%rip), %rax
	movq	%rax, %rdx
	leaq	.LC12(%rip), %rax
	movq	%rax, %rsi
	movq	%rcx, %rdi
	movl	$0, %eax
	call	_ZN6Logger3logEPKcz@PLT
	.loc 1 274 93 discriminator 1
	leaq	.LC45(%rip), %rax
	movq	%rax, %rsi
	leaq	.LC13(%rip), %rax
	movq	%rax, %rdi
	movl	$0, %eax
	call	printf@PLT
	.loc 1 274 174 discriminator 1
	call	_ZN6Logger11getInstanceEv@PLT
	movq	%rax, %rdi
	.loc 1 274 180 discriminator 1
	movl	$274, %r8d
	leaq	.LC14(%rip), %rax
	movq	%rax, %rcx
	leaq	.LC46(%rip), %rax
	movq	%rax, %rdx
	leaq	.LC15(%rip), %rax
	movq	%rax, %rsi
	movl	$0, %eax
	call	_ZN6Logger3logEPKcz@PLT
	.loc 1 274 274 discriminator 1
	movl	$274, %ecx
	leaq	.LC14(%rip), %rax
	movq	%rax, %rdx
	leaq	.LC46(%rip), %rax
	movq	%rax, %rsi
	leaq	.LC15(%rip), %rax
	movq	%rax, %rdi
	movl	$0, %eax
	call	printf@PLT
	.loc 1 274 381 discriminator 1
	call	_ZN6Logger11getInstanceEv@PLT
	movq	%rax, %rbx
	.loc 1 274 387 discriminator 1
	movl	$14, %edi
	call	strerror@PLT
	movq	%rax, %rcx
	movl	$14, %edx
	leaq	.LC16(%rip), %rax
	movq	%rax, %rsi
	movq	%rbx, %rdi
	movl	$0, %eax
	call	_ZN6Logger3logEPKcz@PLT
	.loc 1 274 27 discriminator 1
	call	_ZN6Logger11getInstanceEv@PLT
	movq	%rax, %rdi
	.loc 1 274 33 discriminator 1
	movl	$274, %ecx
	leaq	.LC46(%rip), %rax
	movq	%rax, %rdx
	leaq	.LC17(%rip), %rax
	movq	%rax, %rsi
	movl	$0, %eax
	call	_ZN6Logger3logEPKcz@PLT
	.loc 1 274 92 discriminator 1
	leaq	.LC18(%rip), %rax
	movq	%rax, %rdi
	call	system@PLT
	.loc 1 274 112 discriminator 1
	movl	$-666, %eax
	jmp	.L106
.L105:
.LBB20:
	.loc 1 276 14
	movl	$0, -20(%rbp)
	.loc 1 276 5
	jmp	.L107
.L110:
	.loc 1 277 41
	movl	-20(%rbp), %eax
	cltq
	leaq	0(,%rax,8), %rdx
	leaq	_ZL12INSTRUCTIONS(%rip), %rax
	addq	%rdx, %rax
	movq	%rax, %rdx
	shrq	$3, %rdx
	addq	$2147450880, %rdx
	movzbl	(%rdx), %edx
	testb	%dl, %dl
	je	.L108
	movq	%rax, %rdi
	call	__asan_report_load8@PLT
.L108:
	movl	-20(%rbp), %eax
	cltq
	leaq	0(,%rax,8), %rdx
	leaq	_ZL12INSTRUCTIONS(%rip), %rax
	movq	(%rdx,%rax), %rdx
	.loc 1 277 21
	movq	-40(%rbp), %rax
	movq	%rdx, %rsi
	movq	%rax, %rdi
	call	_Z7stricmpPKcS0_@PLT
	.loc 1 277 13
	testl	%eax, %eax
	sete	%al
	.loc 1 277 9
	testb	%al, %al
	je	.L109
	.loc 1 278 20
	movl	-20(%rbp), %eax
	jmp	.L106
.L109:
	.loc 1 276 5 discriminator 2
	addl	$1, -20(%rbp)
.L107:
	.loc 1 276 23 discriminator 1
	cmpl	$4, -20(%rbp)
	jle	.L110
.LBE20:
	.loc 1 280 12
	movl	$-666, %eax
.L106:
	.loc 1 281 5
	movq	-8(%rbp), %rbx
	leave
	.cfi_def_cfa 7, 8
	ret
	.cfi_endproc
.LFE2868:
	.size	_ZL13IsInstructionPc, .-_ZL13IsInstructionPc
	.section	.rodata
	.align 32
.LC47:
	.string	"IsInitializator"
	.zero	48
	.text
	.type	_ZL15IsInitializatorPc, @function
_ZL15IsInitializatorPc:
.LASANPC2869:
.LFB2869:
	.loc 1 284 5
	.cfi_startproc
	endbr64
	pushq	%rbp
	.cfi_def_cfa_offset 16
	.cfi_offset 6, -16
	movq	%rsp, %rbp
	.cfi_def_cfa_register 6
	pushq	%rbx
	subq	$40, %rsp
	.cfi_offset 3, -24
	movq	%rdi, -40(%rbp)
	.loc 1 285 10
	cmpq	$0, -40(%rbp)
	jne	.L112
	.loc 1 285 43 discriminator 1
	call	_ZN6Logger11getInstanceEv@PLT
	movq	%rax, %rcx
	.loc 1 285 49 discriminator 1
	leaq	.LC45(%rip), %rax
	movq	%rax, %rdx
	leaq	.LC12(%rip), %rax
	movq	%rax, %rsi
	movq	%rcx, %rdi
	movl	$0, %eax
	call	_ZN6Logger3logEPKcz@PLT
	.loc 1 285 93 discriminator 1
	leaq	.LC45(%rip), %rax
	movq	%rax, %rsi
	leaq	.LC13(%rip), %rax
	movq	%rax, %rdi
	movl	$0, %eax
	call	printf@PLT
	.loc 1 285 174 discriminator 1
	call	_ZN6Logger11getInstanceEv@PLT
	movq	%rax, %rdi
	.loc 1 285 180 discriminator 1
	movl	$285, %r8d
	leaq	.LC14(%rip), %rax
	movq	%rax, %rcx
	leaq	.LC47(%rip), %rax
	movq	%rax, %rdx
	leaq	.LC15(%rip), %rax
	movq	%rax, %rsi
	movl	$0, %eax
	call	_ZN6Logger3logEPKcz@PLT
	.loc 1 285 274 discriminator 1
	movl	$285, %ecx
	leaq	.LC14(%rip), %rax
	movq	%rax, %rdx
	leaq	.LC47(%rip), %rax
	movq	%rax, %rsi
	leaq	.LC15(%rip), %rax
	movq	%rax, %rdi
	movl	$0, %eax
	call	printf@PLT
	.loc 1 285 381 discriminator 1
	call	_ZN6Logger11getInstanceEv@PLT
	movq	%rax, %rbx
	.loc 1 285 387 discriminator 1
	movl	$14, %edi
	call	strerror@PLT
	movq	%rax, %rcx
	movl	$14, %edx
	leaq	.LC16(%rip), %rax
	movq	%rax, %rsi
	movq	%rbx, %rdi
	movl	$0, %eax
	call	_ZN6Logger3logEPKcz@PLT
	.loc 1 285 27 discriminator 1
	call	_ZN6Logger11getInstanceEv@PLT
	movq	%rax, %rdi
	.loc 1 285 33 discriminator 1
	movl	$285, %ecx
	leaq	.LC47(%rip), %rax
	movq	%rax, %rdx
	leaq	.LC17(%rip), %rax
	movq	%rax, %rsi
	movl	$0, %eax
	call	_ZN6Logger3logEPKcz@PLT
	.loc 1 285 92 discriminator 1
	leaq	.LC18(%rip), %rax
	movq	%rax, %rdi
	call	system@PLT
	.loc 1 285 112 discriminator 1
	movl	$-111, %eax
	jmp	.L113
.L112:
.LBB21:
	.loc 1 287 14
	movl	$0, -20(%rbp)
	.loc 1 287 5
	jmp	.L114
.L117:
	.loc 1 288 43
	movl	-20(%rbp), %eax
	cltq
	leaq	0(,%rax,8), %rdx
	leaq	_ZL14INITIALIZATORS(%rip), %rax
	addq	%rdx, %rax
	movq	%rax, %rdx
	shrq	$3, %rdx
	addq	$2147450880, %rdx
	movzbl	(%rdx), %edx
	testb	%dl, %dl
	je	.L115
	movq	%rax, %rdi
	call	__asan_report_load8@PLT
.L115:
	movl	-20(%rbp), %eax
	cltq
	leaq	0(,%rax,8), %rdx
	leaq	_ZL14INITIALIZATORS(%rip), %rax
	movq	(%rdx,%rax), %rdx
	.loc 1 288 21
	movq	-40(%rbp), %rax
	movq	%rdx, %rsi
	movq	%rax, %rdi
	call	_Z7stricmpPKcS0_@PLT
	.loc 1 288 13
	testl	%eax, %eax
	sete	%al
	.loc 1 288 9
	testb	%al, %al
	je	.L116
	.loc 1 289 20
	movl	-20(%rbp), %eax
	jmp	.L113
.L116:
	.loc 1 287 5 discriminator 2
	addl	$1, -20(%rbp)
.L114:
	.loc 1 287 23 discriminator 1
	cmpl	$1, -20(%rbp)
	jle	.L117
.LBE21:
	.loc 1 291 12
	movl	$-111, %eax
.L113:
	.loc 1 292 5
	movq	-8(%rbp), %rbx
	leave
	.cfi_def_cfa 7, 8
	ret
	.cfi_endproc
.LFE2869:
	.size	_ZL15IsInitializatorPc, .-_ZL15IsInitializatorPc
	.section	.rodata
	.align 32
.LC48:
	.string	"IsFunctionRetType"
	.zero	46
	.text
	.type	_ZL17IsFunctionRetTypePc, @function
_ZL17IsFunctionRetTypePc:
.LASANPC2870:
.LFB2870:
	.loc 1 295 5
	.cfi_startproc
	endbr64
	pushq	%rbp
	.cfi_def_cfa_offset 16
	.cfi_offset 6, -16
	movq	%rsp, %rbp
	.cfi_def_cfa_register 6
	pushq	%rbx
	subq	$40, %rsp
	.cfi_offset 3, -24
	movq	%rdi, -40(%rbp)
	.loc 1 296 10
	cmpq	$0, -40(%rbp)
	jne	.L119
	.loc 1 296 43 discriminator 1
	call	_ZN6Logger11getInstanceEv@PLT
	movq	%rax, %rcx
	.loc 1 296 49 discriminator 1
	leaq	.LC45(%rip), %rax
	movq	%rax, %rdx
	leaq	.LC12(%rip), %rax
	movq	%rax, %rsi
	movq	%rcx, %rdi
	movl	$0, %eax
	call	_ZN6Logger3logEPKcz@PLT
	.loc 1 296 93 discriminator 1
	leaq	.LC45(%rip), %rax
	movq	%rax, %rsi
	leaq	.LC13(%rip), %rax
	movq	%rax, %rdi
	movl	$0, %eax
	call	printf@PLT
	.loc 1 296 174 discriminator 1
	call	_ZN6Logger11getInstanceEv@PLT
	movq	%rax, %rdi
	.loc 1 296 180 discriminator 1
	movl	$296, %r8d
	leaq	.LC14(%rip), %rax
	movq	%rax, %rcx
	leaq	.LC48(%rip), %rax
	movq	%rax, %rdx
	leaq	.LC15(%rip), %rax
	movq	%rax, %rsi
	movl	$0, %eax
	call	_ZN6Logger3logEPKcz@PLT
	.loc 1 296 274 discriminator 1
	movl	$296, %ecx
	leaq	.LC14(%rip), %rax
	movq	%rax, %rdx
	leaq	.LC48(%rip), %rax
	movq	%rax, %rsi
	leaq	.LC15(%rip), %rax
	movq	%rax, %rdi
	movl	$0, %eax
	call	printf@PLT
	.loc 1 296 381 discriminator 1
	call	_ZN6Logger11getInstanceEv@PLT
	movq	%rax, %rbx
	.loc 1 296 387 discriminator 1
	movl	$14, %edi
	call	strerror@PLT
	movq	%rax, %rcx
	movl	$14, %edx
	leaq	.LC16(%rip), %rax
	movq	%rax, %rsi
	movq	%rbx, %rdi
	movl	$0, %eax
	call	_ZN6Logger3logEPKcz@PLT
	.loc 1 296 27 discriminator 1
	call	_ZN6Logger11getInstanceEv@PLT
	movq	%rax, %rdi
	.loc 1 296 33 discriminator 1
	movl	$296, %ecx
	leaq	.LC48(%rip), %rax
	movq	%rax, %rdx
	leaq	.LC17(%rip), %rax
	movq	%rax, %rsi
	movl	$0, %eax
	call	_ZN6Logger3logEPKcz@PLT
	.loc 1 296 92 discriminator 1
	leaq	.LC18(%rip), %rax
	movq	%rax, %rdi
	call	system@PLT
	.loc 1 296 112 discriminator 1
	movl	$-333, %eax
	jmp	.L120
.L119:
.LBB22:
	.loc 1 298 14
	movl	$0, -20(%rbp)
	.loc 1 298 5
	jmp	.L121
.L124:
	.loc 1 299 47
	movl	-20(%rbp), %eax
	cltq
	leaq	0(,%rax,8), %rdx
	leaq	_ZL18FUNCTION_RET_TYPES(%rip), %rax
	addq	%rdx, %rax
	movq	%rax, %rdx
	shrq	$3, %rdx
	addq	$2147450880, %rdx
	movzbl	(%rdx), %edx
	testb	%dl, %dl
	je	.L122
	movq	%rax, %rdi
	call	__asan_report_load8@PLT
.L122:
	movl	-20(%rbp), %eax
	cltq
	leaq	0(,%rax,8), %rdx
	leaq	_ZL18FUNCTION_RET_TYPES(%rip), %rax
	movq	(%rdx,%rax), %rdx
	.loc 1 299 21
	movq	-40(%rbp), %rax
	movq	%rdx, %rsi
	movq	%rax, %rdi
	call	_Z7stricmpPKcS0_@PLT
	.loc 1 299 13
	testl	%eax, %eax
	sete	%al
	.loc 1 299 9
	testb	%al, %al
	je	.L123
	.loc 1 300 20
	movl	-20(%rbp), %eax
	jmp	.L120
.L123:
	.loc 1 298 5 discriminator 2
	addl	$1, -20(%rbp)
.L121:
	.loc 1 298 23 discriminator 1
	cmpl	$1, -20(%rbp)
	jle	.L124
.LBE22:
	.loc 1 302 12
	movl	$-333, %eax
.L120:
	.loc 1 303 5
	movq	-8(%rbp), %rbx
	leave
	.cfi_def_cfa 7, 8
	ret
	.cfi_endproc
.LFE2870:
	.size	_ZL17IsFunctionRetTypePc, .-_ZL17IsFunctionRetTypePc
	.type	_Z41__static_initialization_and_destruction_0ii, @function
_Z41__static_initialization_and_destruction_0ii:
.LASANPC3654:
.LFB3654:
	.loc 1 303 5
	.cfi_startproc
	endbr64
	pushq	%rbp
	.cfi_def_cfa_offset 16
	.cfi_offset 6, -16
	movq	%rsp, %rbp
	.cfi_def_cfa_register 6
	subq	$16, %rsp
	movl	%edi, -4(%rbp)
	movl	%esi, -8(%rbp)
	.loc 1 303 5
	cmpl	$1, -4(%rbp)
	jne	.L128
	.loc 1 303 5 is_stmt 0 discriminator 1
	leaq	.LC14(%rip), %rax
	movq	%rax, %rdi
	call	__asan_before_dynamic_init@PLT
	cmpl	$65535, -8(%rbp)
	jne	.L127
	.file 2 "/usr/include/c++/11/iostream"
	.loc 2 74 25 is_stmt 1
	leaq	_ZStL8__ioinit(%rip), %rax
	movq	%rax, %rdi
	call	_ZNSt8ios_base4InitC1Ev@PLT
	leaq	__dso_handle(%rip), %rax
	movq	%rax, %rdx
	leaq	_ZStL8__ioinit(%rip), %rax
	movq	%rax, %rsi
	movq	_ZNSt8ios_base4InitD1Ev@GOTPCREL(%rip), %rax
	movq	%rax, %rdi
	call	__cxa_atexit@PLT
.L127:
	.loc 2 74 25 is_stmt 0 discriminator 1
	call	__asan_after_dynamic_init@PLT
.L128:
	.loc 1 303 5 is_stmt 1
	nop
	leave
	.cfi_def_cfa 7, 8
	ret
	.cfi_endproc
.LFE3654:
	.size	_Z41__static_initialization_and_destruction_0ii, .-_Z41__static_initialization_and_destruction_0ii
	.type	_GLOBAL__sub_I__Z9TokenizerP8ProgrammPKc, @function
_GLOBAL__sub_I__Z9TokenizerP8ProgrammPKc:
.LASANPC3655:
.LFB3655:
	.loc 1 303 5
	.cfi_startproc
	endbr64
	pushq	%rbp
	.cfi_def_cfa_offset 16
	.cfi_offset 6, -16
	movq	%rsp, %rbp
	.cfi_def_cfa_register 6
	.loc 1 303 5
	movl	$65535, %esi
	movl	$1, %edi
	call	_Z41__static_initialization_and_destruction_0ii
	popq	%rbp
	.cfi_def_cfa 7, 8
	ret
	.cfi_endproc
.LFE3655:
	.size	_GLOBAL__sub_I__Z9TokenizerP8ProgrammPKc, .-_GLOBAL__sub_I__Z9TokenizerP8ProgrammPKc
	.section	.init_array,"aw"
	.align 8
	.quad	_GLOBAL__sub_I__Z9TokenizerP8ProgrammPKc
	.section	.rodata
.LC49:
	.string	"../ATC/Buffer/my_buffer.h"
	.section	.data.rel.local,"aw"
	.align 16
	.type	.LASANLOC1, @object
	.size	.LASANLOC1, 16
.LASANLOC1:
	.quad	.LC49
	.long	32
	.long	11
	.section	.rodata
	.align 8
.LC50:
	.string	"../ATC/RandomStuff/CommonEnums.h"
	.section	.data.rel.local
	.align 16
	.type	.LASANLOC2, @object
	.size	.LASANLOC2, 16
.LASANLOC2:
	.quad	.LC50
	.long	3
	.long	11
	.section	.rodata
.LC51:
	.string	"../ATC/Logger/LogConfig.h"
	.section	.data.rel.local
	.align 16
	.type	.LASANLOC3, @object
	.size	.LASANLOC3, 16
.LASANLOC3:
	.quad	.LC51
	.long	3
	.long	12
	.section	.rodata
.LC52:
	.string	"/usr/include/c++/11/iostream"
	.section	.data.rel.local
	.align 16
	.type	.LASANLOC4, @object
	.size	.LASANLOC4, 16
.LASANLOC4:
	.quad	.LC52
	.long	74
	.long	25
	.section	.rodata
.LC53:
	.string	"./headers/Grammar.h"
	.section	.data.rel.local
	.align 16
	.type	.LASANLOC5, @object
	.size	.LASANLOC5, 16
.LASANLOC5:
	.quad	.LC53
	.long	84
	.long	11
	.align 16
	.type	.LASANLOC6, @object
	.size	.LASANLOC6, 16
.LASANLOC6:
	.quad	.LC53
	.long	83
	.long	11
	.align 16
	.type	.LASANLOC7, @object
	.size	.LASANLOC7, 16
.LASANLOC7:
	.quad	.LC53
	.long	81
	.long	12
	.align 16
	.type	.LASANLOC8, @object
	.size	.LASANLOC8, 16
.LASANLOC8:
	.quad	.LC53
	.long	70
	.long	12
	.align 16
	.type	.LASANLOC9, @object
	.size	.LASANLOC9, 16
.LASANLOC9:
	.quad	.LC53
	.long	61
	.long	19
	.align 16
	.type	.LASANLOC10, @object
	.size	.LASANLOC10, 16
.LASANLOC10:
	.quad	.LC53
	.long	60
	.long	11
	.align 16
	.type	.LASANLOC11, @object
	.size	.LASANLOC11, 16
.LASANLOC11:
	.quad	.LC53
	.long	51
	.long	19
	.align 16
	.type	.LASANLOC12, @object
	.size	.LASANLOC12, 16
.LASANLOC12:
	.quad	.LC53
	.long	50
	.long	11
	.align 16
	.type	.LASANLOC13, @object
	.size	.LASANLOC13, 16
.LASANLOC13:
	.quad	.LC53
	.long	38
	.long	19
	.align 16
	.type	.LASANLOC14, @object
	.size	.LASANLOC14, 16
.LASANLOC14:
	.quad	.LC53
	.long	37
	.long	11
	.section	.rodata
.LC54:
	.string	"./headers/LexicalAnalysis.h"
	.section	.data.rel.local
	.align 16
	.type	.LASANLOC15, @object
	.size	.LASANLOC15, 16
.LASANLOC15:
	.quad	.LC54
	.long	6
	.long	11
	.align 16
	.type	.LASANLOC16, @object
	.size	.LASANLOC16, 16
.LASANLOC16:
	.quad	.LC54
	.long	5
	.long	11
	.section	.rodata
.LC55:
	.string	"INDENT_SIZE"
.LC56:
	.string	"CRINGE"
.LC57:
	.string	"STD_LOG_NAME"
.LC58:
	.string	"__ioinit"
.LC59:
	.string	"MAX_WORD_LENGTH"
.LC60:
	.string	"MAX_FUNCTION_NAME_LENGTH"
.LC61:
	.string	"COMMENT"
.LC62:
	.string	"OPERATORS"
.LC63:
	.string	"FUNCTION_RET_TYPES"
.LC64:
	.string	"NUMBER_OF_FUNCTION_RET_TYPES"
.LC65:
	.string	"INITIALIZATORS"
.LC66:
	.string	"NUMBER_OF_INITIALIZATORS"
.LC67:
	.string	"INSTRUCTIONS"
.LC68:
	.string	"NUMBER_OF_INSTUCTIONS"
.LC69:
	.string	"START_NUMBER_OF_STRINGS"
.LC70:
	.string	"START_NUMBER_OF_TOKENS"
.LC71:
	.string	"*.LC42"
.LC72:
	.string	"*.LC47"
.LC73:
	.string	"*.LC22"
.LC74:
	.string	"*.LC10"
.LC75:
	.string	"*.LC8"
.LC76:
	.string	"*.LC15"
.LC77:
	.string	"*.LC5"
.LC78:
	.string	"*.LC12"
.LC79:
	.string	"*.LC29"
.LC80:
	.string	"*.LC7"
.LC81:
	.string	"*.LC11"
.LC82:
	.string	"*.LC43"
.LC83:
	.string	"*.LC36"
.LC84:
	.string	"*.LC40"
.LC85:
	.string	"*.LC2"
.LC86:
	.string	"*.LC18"
.LC87:
	.string	"*.LC24"
.LC88:
	.string	"*.LC27"
.LC89:
	.string	"*.LC45"
.LC90:
	.string	"*.LC23"
.LC91:
	.string	"*.LC14"
.LC92:
	.string	"*.LC6"
.LC93:
	.string	"*.LC38"
.LC94:
	.string	"*.LC33"
.LC95:
	.string	"*.LC34"
.LC96:
	.string	"*.LC30"
.LC97:
	.string	"*.LC13"
.LC98:
	.string	"*.LC48"
.LC99:
	.string	"*.LC4"
.LC100:
	.string	"*.LC37"
.LC101:
	.string	"*.LC35"
.LC102:
	.string	"*.LC31"
.LC103:
	.string	"*.LC26"
.LC104:
	.string	"*.LC44"
.LC105:
	.string	"*.LC28"
.LC106:
	.string	"*.LC16"
.LC107:
	.string	"*.LC21"
.LC108:
	.string	"*.LC25"
.LC109:
	.string	"*.LC1"
.LC110:
	.string	"*.LC3"
.LC111:
	.string	"*.LC17"
.LC112:
	.string	"*.LC19"
.LC113:
	.string	"*.LC0"
.LC114:
	.string	"*.LC20"
.LC115:
	.string	"*.LC46"
	.section	.data.rel.local
	.align 32
	.type	.LASAN0, @object
	.size	.LASAN0, 3904
.LASAN0:
	.quad	_ZL11INDENT_SIZE
	.quad	4
	.quad	64
	.quad	.LC55
	.quad	.LC14
	.quad	0
	.quad	.LASANLOC1
	.quad	0
	.quad	_ZL6CRINGE
	.quad	4
	.quad	64
	.quad	.LC56
	.quad	.LC14
	.quad	0
	.quad	.LASANLOC2
	.quad	0
	.quad	_ZL12STD_LOG_NAME
	.quad	18
	.quad	64
	.quad	.LC57
	.quad	.LC14
	.quad	0
	.quad	.LASANLOC3
	.quad	0
	.quad	_ZStL8__ioinit
	.quad	1
	.quad	64
	.quad	.LC58
	.quad	.LC14
	.quad	1
	.quad	.LASANLOC4
	.quad	0
	.quad	_ZL15MAX_WORD_LENGTH
	.quad	4
	.quad	64
	.quad	.LC59
	.quad	.LC14
	.quad	0
	.quad	.LASANLOC5
	.quad	0
	.quad	_ZL24MAX_FUNCTION_NAME_LENGTH
	.quad	4
	.quad	64
	.quad	.LC60
	.quad	.LC14
	.quad	0
	.quad	.LASANLOC6
	.quad	0
	.quad	_ZL7COMMENT
	.quad	1
	.quad	64
	.quad	.LC61
	.quad	.LC14
	.quad	0
	.quad	.LASANLOC7
	.quad	0
	.quad	_ZL9OPERATORS
	.quad	8
	.quad	64
	.quad	.LC62
	.quad	.LC14
	.quad	0
	.quad	.LASANLOC8
	.quad	0
	.quad	_ZL18FUNCTION_RET_TYPES
	.quad	16
	.quad	64
	.quad	.LC63
	.quad	.LC14
	.quad	0
	.quad	.LASANLOC9
	.quad	0
	.quad	_ZL28NUMBER_OF_FUNCTION_RET_TYPES
	.quad	4
	.quad	64
	.quad	.LC64
	.quad	.LC14
	.quad	0
	.quad	.LASANLOC10
	.quad	0
	.quad	_ZL14INITIALIZATORS
	.quad	16
	.quad	64
	.quad	.LC65
	.quad	.LC14
	.quad	0
	.quad	.LASANLOC11
	.quad	0
	.quad	_ZL24NUMBER_OF_INITIALIZATORS
	.quad	4
	.quad	64
	.quad	.LC66
	.quad	.LC14
	.quad	0
	.quad	.LASANLOC12
	.quad	0
	.quad	_ZL12INSTRUCTIONS
	.quad	40
	.quad	96
	.quad	.LC67
	.quad	.LC14
	.quad	0
	.quad	.LASANLOC13
	.quad	0
	.quad	_ZL21NUMBER_OF_INSTUCTIONS
	.quad	4
	.quad	64
	.quad	.LC68
	.quad	.LC14
	.quad	0
	.quad	.LASANLOC14
	.quad	0
	.quad	_ZL23START_NUMBER_OF_STRINGS
	.quad	4
	.quad	64
	.quad	.LC69
	.quad	.LC14
	.quad	0
	.quad	.LASANLOC15
	.quad	0
	.quad	_ZL22START_NUMBER_OF_TOKENS
	.quad	4
	.quad	64
	.quad	.LC70
	.quad	.LC14
	.quad	0
	.quad	.LASANLOC16
	.quad	0
	.quad	.LC42
	.quad	14
	.quad	64
	.quad	.LC71
	.quad	.LC14
	.quad	0
	.quad	0
	.quad	0
	.quad	.LC47
	.quad	16
	.quad	64
	.quad	.LC72
	.quad	.LC14
	.quad	0
	.quad	0
	.quad	0
	.quad	.LC22
	.quad	65
	.quad	128
	.quad	.LC73
	.quad	.LC14
	.quad	0
	.quad	0
	.quad	0
	.quad	.LC10
	.quad	10
	.quad	64
	.quad	.LC74
	.quad	.LC14
	.quad	0
	.quad	0
	.quad	0
	.quad	.LC8
	.quad	5
	.quad	64
	.quad	.LC75
	.quad	.LC14
	.quad	0
	.quad	0
	.quad	0
	.quad	.LC15
	.quad	37
	.quad	96
	.quad	.LC76
	.quad	.LC14
	.quad	0
	.quad	0
	.quad	0
	.quad	.LC5
	.quad	5
	.quad	64
	.quad	.LC77
	.quad	.LC14
	.quad	0
	.quad	0
	.quad	0
	.quad	.LC12
	.quad	25
	.quad	64
	.quad	.LC78
	.quad	.LC14
	.quad	0
	.quad	0
	.quad	0
	.quad	.LC29
	.quad	9
	.quad	64
	.quad	.LC79
	.quad	.LC14
	.quad	0
	.quad	0
	.quad	0
	.quad	.LC7
	.quad	7
	.quad	64
	.quad	.LC80
	.quad	.LC14
	.quad	0
	.quad	0
	.quad	0
	.quad	.LC11
	.quad	9
	.quad	64
	.quad	.LC81
	.quad	.LC14
	.quad	0
	.quad	0
	.quad	0
	.quad	.LC43
	.quad	12
	.quad	64
	.quad	.LC82
	.quad	.LC14
	.quad	0
	.quad	0
	.quad	0
	.quad	.LC36
	.quad	5
	.quad	64
	.quad	.LC83
	.quad	.LC14
	.quad	0
	.quad	0
	.quad	0
	.quad	.LC40
	.quad	30
	.quad	64
	.quad	.LC84
	.quad	.LC14
	.quad	0
	.quad	0
	.quad	0
	.quad	.LC2
	.quad	6
	.quad	64
	.quad	.LC85
	.quad	.LC14
	.quad	0
	.quad	0
	.quad	0
	.quad	.LC18
	.quad	8
	.quad	64
	.quad	.LC86
	.quad	.LC14
	.quad	0
	.quad	0
	.quad	0
	.quad	.LC24
	.quad	15
	.quad	64
	.quad	.LC87
	.quad	.LC14
	.quad	0
	.quad	0
	.quad	0
	.quad	.LC27
	.quad	4
	.quad	64
	.quad	.LC88
	.quad	.LC14
	.quad	0
	.quad	0
	.quad	0
	.quad	.LC45
	.quad	4
	.quad	64
	.quad	.LC89
	.quad	.LC14
	.quad	0
	.quad	0
	.quad	0
	.quad	.LC23
	.quad	24
	.quad	64
	.quad	.LC90
	.quad	.LC14
	.quad	0
	.quad	0
	.quad	0
	.quad	.LC14
	.quad	26
	.quad	64
	.quad	.LC91
	.quad	.LC14
	.quad	0
	.quad	0
	.quad	0
	.quad	.LC6
	.quad	4
	.quad	64
	.quad	.LC92
	.quad	.LC14
	.quad	0
	.quad	0
	.quad	0
	.quad	.LC38
	.quad	9
	.quad	64
	.quad	.LC93
	.quad	.LC14
	.quad	0
	.quad	0
	.quad	0
	.quad	.LC33
	.quad	14
	.quad	64
	.quad	.LC94
	.quad	.LC14
	.quad	0
	.quad	0
	.quad	0
	.quad	.LC34
	.quad	4
	.quad	64
	.quad	.LC95
	.quad	.LC14
	.quad	0
	.quad	0
	.quad	0
	.quad	.LC30
	.quad	2
	.quad	64
	.quad	.LC96
	.quad	.LC14
	.quad	0
	.quad	0
	.quad	0
	.quad	.LC13
	.quad	34
	.quad	96
	.quad	.LC97
	.quad	.LC14
	.quad	0
	.quad	0
	.quad	0
	.quad	.LC48
	.quad	18
	.quad	64
	.quad	.LC98
	.quad	.LC14
	.quad	0
	.quad	0
	.quad	0
	.quad	.LC4
	.quad	7
	.quad	64
	.quad	.LC99
	.quad	.LC14
	.quad	0
	.quad	0
	.quad	0
	.quad	.LC37
	.quad	11
	.quad	64
	.quad	.LC100
	.quad	.LC14
	.quad	0
	.quad	0
	.quad	0
	.quad	.LC35
	.quad	4
	.quad	64
	.quad	.LC101
	.quad	.LC14
	.quad	0
	.quad	0
	.quad	0
	.quad	.LC31
	.quad	8
	.quad	64
	.quad	.LC102
	.quad	.LC14
	.quad	0
	.quad	0
	.quad	0
	.quad	.LC26
	.quad	14
	.quad	64
	.quad	.LC103
	.quad	.LC14
	.quad	0
	.quad	0
	.quad	0
	.quad	.LC44
	.quad	12
	.quad	64
	.quad	.LC104
	.quad	.LC14
	.quad	0
	.quad	0
	.quad	0
	.quad	.LC28
	.quad	17
	.quad	64
	.quad	.LC105
	.quad	.LC14
	.quad	0
	.quad	0
	.quad	0
	.quad	.LC16
	.quad	36
	.quad	96
	.quad	.LC106
	.quad	.LC14
	.quad	0
	.quad	0
	.quad	0
	.quad	.LC21
	.quad	7
	.quad	64
	.quad	.LC107
	.quad	.LC14
	.quad	0
	.quad	0
	.quad	0
	.quad	.LC25
	.quad	1
	.quad	64
	.quad	.LC108
	.quad	.LC14
	.quad	0
	.quad	0
	.quad	0
	.quad	.LC1
	.quad	5
	.quad	64
	.quad	.LC109
	.quad	.LC14
	.quad	0
	.quad	0
	.quad	0
	.quad	.LC3
	.quad	5
	.quad	64
	.quad	.LC110
	.quad	.LC14
	.quad	0
	.quad	0
	.quad	0
	.quad	.LC17
	.quad	33
	.quad	96
	.quad	.LC111
	.quad	.LC14
	.quad	0
	.quad	0
	.quad	0
	.quad	.LC19
	.quad	31
	.quad	64
	.quad	.LC112
	.quad	.LC14
	.quad	0
	.quad	0
	.quad	0
	.quad	.LC0
	.quad	3
	.quad	64
	.quad	.LC113
	.quad	.LC14
	.quad	0
	.quad	0
	.quad	0
	.quad	.LC20
	.quad	22
	.quad	64
	.quad	.LC114
	.quad	.LC14
	.quad	0
	.quad	0
	.quad	0
	.quad	.LC46
	.quad	14
	.quad	64
	.quad	.LC115
	.quad	.LC14
	.quad	0
	.quad	0
	.quad	0
	.text
	.type	_sub_D_00099_0, @function
_sub_D_00099_0:
.LFB3656:
	.cfi_startproc
	endbr64
	pushq	%rbp
	.cfi_def_cfa_offset 16
	.cfi_offset 6, -16
	movq	%rsp, %rbp
	.cfi_def_cfa_register 6
	movl	$61, %esi
	leaq	.LASAN0(%rip), %rax
	movq	%rax, %rdi
	call	__asan_unregister_globals@PLT
	popq	%rbp
	.cfi_def_cfa 7, 8
	ret
	.cfi_endproc
.LFE3656:
	.size	_sub_D_00099_0, .-_sub_D_00099_0
	.section	.fini_array.00099,"aw"
	.align 8
	.quad	_sub_D_00099_0
	.text
	.type	_sub_I_00099_1, @function
_sub_I_00099_1:
.LFB3657:
	.cfi_startproc
	endbr64
	pushq	%rbp
	.cfi_def_cfa_offset 16
	.cfi_offset 6, -16
	movq	%rsp, %rbp
	.cfi_def_cfa_register 6
	call	__asan_init@PLT
	call	__asan_version_mismatch_check_v8@PLT
	movl	$61, %esi
	leaq	.LASAN0(%rip), %rax
	movq	%rax, %rdi
	call	__asan_register_globals@PLT
	popq	%rbp
	.cfi_def_cfa 7, 8
	ret
	.cfi_endproc
.LFE3657:
	.size	_sub_I_00099_1, .-_sub_I_00099_1
	.section	.init_array.00099,"aw"
	.align 8
	.quad	_sub_I_00099_1
	.section	.rodata
	.align 8
.LC39:
	.long	0
	.long	2146959360
	.text
.Letext0:
	.file 3 "./headers/Token.h"
	.file 4 "./headers/Tabels.h"
	.file 5 "./headers/Programm.h"
	.file 6 "./headers/LexicalAnalysis.h"
	.file 7 "<built-in>"
	.file 8 "/usr/lib/gcc/x86_64-linux-gnu/11/include/stddef.h"
	.file 9 "/usr/include/x86_64-linux-gnu/bits/types.h"
	.file 10 "/usr/include/x86_64-linux-gnu/bits/types/__mbstate_t.h"
	.file 11 "/usr/include/x86_64-linux-gnu/bits/types/__fpos_t.h"
	.file 12 "/usr/include/x86_64-linux-gnu/bits/types/__FILE.h"
	.file 13 "/usr/include/x86_64-linux-gnu/bits/types/struct_FILE.h"
	.file 14 "/usr/include/x86_64-linux-gnu/bits/types/FILE.h"
	.file 15 "/usr/include/stdio.h"
	.file 16 "/usr/include/c++/11/cmath"
	.file 17 "/usr/include/c++/11/type_traits"
	.file 18 "/usr/include/c++/11/concepts"
	.file 19 "/usr/include/c++/11/bits/iterator_concepts.h"
	.file 20 "/usr/include/c++/11/bits/ranges_cmp.h"
	.file 21 "/usr/include/c++/11/compare"
	.file 22 "/usr/include/c++/11/debug/debug.h"
	.file 23 "/usr/include/c++/11/bits/std_abs.h"
	.file 24 "/usr/include/c++/11/cwchar"
	.file 25 "/usr/include/c++/11/bits/exception_ptr.h"
	.file 26 "/usr/include/x86_64-linux-gnu/c++/11/bits/c++config.h"
	.file 27 "/usr/include/c++/11/cstdint"
	.file 28 "/usr/include/c++/11/clocale"
	.file 29 "/usr/include/c++/11/cstdlib"
	.file 30 "/usr/include/c++/11/numbers"
	.file 31 "/usr/include/c++/11/cstdio"
	.file 32 "/usr/include/c++/11/bits/ios_base.h"
	.file 33 "/usr/include/c++/11/cwctype"
	.file 34 "/usr/include/c++/11/bits/predefined_ops.h"
	.file 35 "/usr/include/math.h"
	.file 36 "/usr/include/stdlib.h"
	.file 37 "/usr/include/x86_64-linux-gnu/bits/stdint-intn.h"
	.file 38 "/usr/include/c++/11/bits/ptr_traits.h"
	.file 39 "/usr/include/c++/11/math.h"
	.file 40 "./headers/Grammar.h"
	.file 41 "/usr/include/x86_64-linux-gnu/bits/types/wint_t.h"
	.file 42 "/usr/include/x86_64-linux-gnu/bits/types/mbstate_t.h"
	.file 43 "/usr/include/wchar.h"
	.file 44 "/usr/include/x86_64-linux-gnu/bits/types/struct_tm.h"
	.file 45 "/usr/include/x86_64-linux-gnu/bits/stdint-uintn.h"
	.file 46 "/usr/include/stdint.h"
	.file 47 "/usr/include/locale.h"
	.file 48 "/usr/include/x86_64-linux-gnu/bits/wctype-wchar.h"
	.file 49 "/usr/include/wctype.h"
	.file 50 "../ATC/Logger/LogConfig.h"
	.file 51 "../ATC/Logger/FunctionLogger.h"
	.file 52 "../ATC/RandomStuff/CommonEnums.h"
	.file 53 "/usr/include/c++/11/stdlib.h"
	.file 54 "../ATC/Buffer/my_buffer.h"
	.file 55 "/usr/include/ctype.h"
	.file 56 "/usr/include/string.h"
	.file 57 "./headers/LangUtils.h"
	.file 58 "../ATC/RandomStuff/SomeStuff.h"
	.file 59 "../ATC/Logger/Logger.h"
	.file 60 "../ATC/Utils/Utils.h"
	.file 61 "/usr/include/c++/11/bits/algorithmfwd.h"
	.section	.data.rel.local.DW.ref.__gxx_personality_v0,"awG",@progbits,DW.ref.__gxx_personality_v0,comdat
	.align 8
	.type	DW.ref.__gxx_personality_v0, @object
	.size	DW.ref.__gxx_personality_v0, 8
DW.ref.__gxx_personality_v0:
	.quad	__gxx_personality_v0
	.hidden	__dso_handle
	.ident	"GCC: (Ubuntu 11.3.0-1ubuntu1~22.04) 11.3.0"
	.section	.note.GNU-stack,"",@progbits
	.section	.note.gnu.property,"a"
	.align 8
	.long	1f - 0f
	.long	4f - 1f
	.long	5
0:
	.string	"GNU"
1:
	.align 8
	.long	0xc0000002
	.long	3f - 2f
2:
	.long	0x3
3:
	.align 8
4:
