	.file	"main.cpp"
	.text
.Ltext0:
	.file 0 "/home/arsenyfucker/Cprojects/Lang/Translator" "./src/main.cpp"
	.section	.rodata
	.align 32
	.type	_ZL22START_NUMBER_OF_TOKENS, @object
	.size	_ZL22START_NUMBER_OF_TOKENS, 4
_ZL22START_NUMBER_OF_TOKENS:
	.long	20
	.zero	60
	.align 32
	.type	_ZL23START_NUMBER_OF_STRINGS, @object
	.size	_ZL23START_NUMBER_OF_STRINGS, 4
_ZL23START_NUMBER_OF_STRINGS:
	.long	16
	.zero	60
	.align 32
	.type	_ZL21MAX_GRAPH_NAME_LENGTH, @object
	.size	_ZL21MAX_GRAPH_NAME_LENGTH, 4
_ZL21MAX_GRAPH_NAME_LENGTH:
	.long	128
	.zero	60
	.align 32
	.type	_ZL17IMAGE_NAME_LENGTH, @object
	.size	_ZL17IMAGE_NAME_LENGTH, 4
_ZL17IMAGE_NAME_LENGTH:
	.long	128
	.zero	60
	.align 32
	.type	_ZL12PATH_FOR_DOT, @object
	.size	_ZL12PATH_FOR_DOT, 16
_ZL12PATH_FOR_DOT:
	.string	"./graphics/dot/"
	.zero	48
	.align 32
	.type	_ZL12PATH_FOR_IMG, @object
	.size	_ZL12PATH_FOR_IMG, 12
_ZL12PATH_FOR_IMG:
	.string	"./graphics/"
	.zero	52
	.align 32
	.type	_ZL9EXTENSION, @object
	.size	_ZL9EXTENSION, 4
_ZL9EXTENSION:
	.string	"png"
	.zero	60
	.align 32
	.type	_ZL7RANKDIR, @object
	.size	_ZL7RANKDIR, 3
_ZL7RANKDIR:
	.string	"TB"
	.zero	61
	.align 32
	.type	_ZL21SYSTEM_COMMAND_LENGTH, @object
	.size	_ZL21SYSTEM_COMMAND_LENGTH, 4
_ZL21SYSTEM_COMMAND_LENGTH:
	.long	512
	.zero	60
	.align 32
	.type	_ZL11INDENT_SIZE, @object
	.size	_ZL11INDENT_SIZE, 4
_ZL11INDENT_SIZE:
	.long	2
	.zero	60
	.bss
	.align 32
	.type	_ZStL8__ioinit, @object
	.size	_ZStL8__ioinit, 1
_ZStL8__ioinit:
	.zero	64
	.section	.rodata
	.align 32
	.type	_ZL12STD_LOG_NAME, @object
	.size	_ZL12STD_LOG_NAME, 18
_ZL12STD_LOG_NAME:
	.string	"./logs/stdlog.ars"
	.zero	46
	.align 32
	.type	_ZL6CRINGE, @object
	.size	_ZL6CRINGE, 4
_ZL6CRINGE:
	.long	3565
	.zero	60
	.globl	__asan_stack_malloc_2
	.align 8
.LC0:
	.string	"3 32 24 10 func_32:32 96 88 11 programm:39 224 10 7 path:34"
	.align 32
.LC1:
	.string	"main"
	.zero	59
	.align 32
.LC2:
	.string	"./src/main.cpp"
	.zero	49
	.align 32
.LC3:
	.string	"\033[91mCan't tokenize file \033[0m%s\n"
	.zero	63
	.align 32
.LC4:
	.string	"\033[91mFailed %s:%d (%s:%d)\n\033[0m"
	.zero	33
	.align 32
.LC5:
	.string	"Failed (%s:%d, %s:%d)"
	.zero	42
	.align 32
.LC6:
	.string	"to do grapphvis"
	.zero	48
	.text
	.globl	main
	.type	main, @function
main:
.LASANPC2270:
.LFB2270:
	.file 1 "./src/main.cpp"
	.loc 1 31 5
	.cfi_startproc
	.cfi_personality 0x9b,DW.ref.__gxx_personality_v0
	.cfi_lsda 0x1b,.LLSDA2270
	endbr64
	pushq	%rbp
	.cfi_def_cfa_offset 16
	.cfi_offset 6, -16
	movq	%rsp, %rbp
	.cfi_def_cfa_register 6
	pushq	%r15
	pushq	%r14
	pushq	%r13
	pushq	%r12
	pushq	%rbx
	subq	$312, %rsp
	.cfi_offset 15, -24
	.cfi_offset 14, -32
	.cfi_offset 13, -40
	.cfi_offset 12, -48
	.cfi_offset 3, -56
	leaq	-336(%rbp), %r13
	movq	%r13, %r15
	cmpl	$0, __asan_option_detect_stack_use_after_return(%rip)
	je	.L1
	movl	$256, %edi
	call	__asan_stack_malloc_2@PLT
	testq	%rax, %rax
	je	.L1
	movq	%rax, %r13
.L1:
	leaq	288(%r13), %rax
	movq	%rax, %rbx
	movq	$1102416563, 0(%r13)
	leaq	.LC0(%rip), %rax
	movq	%rax, 8(%r13)
	leaq	.LASANPC2270(%rip), %rax
	movq	%rax, 16(%r13)
	movq	%r13, %r12
	shrq	$3, %r12
	movl	$-235802127, 2147450880(%r12)
	movl	$-234881024, 2147450884(%r12)
	movl	$-218959118, 2147450888(%r12)
	movl	$-234881024, 2147450900(%r12)
	movl	$-218959118, 2147450904(%r12)
	movl	$-202178048, 2147450908(%r12)
	.loc 1 31 5
	movq	%fs:40, %rax
	movq	%rax, -56(%rbp)
	xorl	%eax, %eax
	.loc 1 32 46
	leaq	-256(%rbx), %rax
	leaq	.LC1(%rip), %rdx
	movl	$666, %esi
	movq	%rax, %rdi
.LEHB0:
	call	_ZN14FunctionLoggerC1EiPKc@PLT
.LEHE0:
	.loc 1 34 10
	leaq	-64(%rbx), %rax
	movq	%rax, %rdx
	shrq	$3, %rdx
	addq	$2147450880, %rdx
	movzbl	(%rdx), %edx
	testb	%dl, %dl
	setne	%cl
	testb	%dl, %dl
	setle	%dl
	andl	%edx, %ecx
	movl	%ecx, %esi
	movl	$10, %edx
	subq	$1, %rdx
	leaq	(%rax,%rdx), %rcx
	movq	%rcx, %rdx
	shrq	$3, %rdx
	addq	$2147450880, %rdx
	movzbl	(%rdx), %edx
	testb	%dl, %dl
	setne	%dil
	andl	$7, %ecx
	cmpb	%dl, %cl
	setge	%dl
	andl	%edi, %edx
	orl	%esi, %edx
	testb	%dl, %dl
	je	.L5
	movl	$10, %esi
	movq	%rax, %rdi
	call	__asan_report_store_n@PLT
.L5:
	movabsq	$5927096849444070772, %rax
	movq	%rax, -64(%rbx)
	movw	$83, -56(%rbx)
	.loc 1 37 33
	leaq	-64(%rbx), %rax
	movq	%rax, %rdi
.LEHB1:
	call	_Z10GetSrcFilePKc@PLT
	movq	%rax, -344(%rbp)
	.loc 1 39 14
	leaq	-192(%rbx), %rax
	movq	%rax, %rdx
	shrq	$3, %rdx
	addq	$2147450880, %rdx
	movzbl	(%rdx), %edx
	testb	%dl, %dl
	setne	%cl
	testb	%dl, %dl
	setle	%dl
	movl	%ecx, %esi
	andl	%edx, %esi
	movl	$88, %edx
	subq	$1, %rdx
	leaq	(%rax,%rdx), %rcx
	movq	%rcx, %rdx
	shrq	$3, %rdx
	addq	$2147450880, %rdx
	movzbl	(%rdx), %edx
	testb	%dl, %dl
	setne	%dil
	andl	$7, %ecx
	cmpb	%dl, %cl
	setge	%dl
	andl	%edi, %edx
	orl	%esi, %edx
	testb	%dl, %dl
	je	.L6
	movl	$88, %esi
	movq	%rax, %rdi
	call	__asan_report_store_n@PLT
.L6:
	.loc 1 39 14 is_stmt 0 discriminator 1
	leaq	-192(%rbx), %rdx
	movl	$0, %eax
	movl	$11, %ecx
	movq	%rdx, %rdi
	rep stosq
	.loc 1 41 27 is_stmt 1 discriminator 1
	movq	-344(%rbp), %rdx
	leaq	-192(%rbx), %rax
	movq	%rdx, %rsi
	movq	%rax, %rdi
	call	_Z9TokenizerP8ProgrammPKc@PLT
	movl	%eax, -348(%rbp)
	.loc 1 42 24 discriminator 1
	call	_ZN6Logger11getInstanceEv@PLT
	movq	%rax, %rdi
	.loc 1 42 36 discriminator 1
	movq	-344(%rbp), %rax
	movl	$42, %r8d
	leaq	.LC1(%rip), %rdx
	movq	%rdx, %rcx
	leaq	.LC2(%rip), %rdx
	movq	%rax, %rsi
	call	_ZN6Logger8FREE_LOGEPvPKcS2_i@PLT
	.loc 1 44 5
	cmpl	$0, -348(%rbp)
	je	.L7
	.loc 1 46 15
	leaq	-64(%rbx), %rax
	movq	%rax, %rsi
	leaq	.LC3(%rip), %rax
	movq	%rax, %rdi
	movl	$0, %eax
	call	printf@PLT
	.loc 1 47 35
	call	_ZN6Logger11getInstanceEv@PLT
	.loc 1 47 57
	call	_ZN6Logger11getInstanceEv@PLT
	.loc 1 47 57 is_stmt 0 discriminator 1
	movq	%rax, %r14
	.loc 1 47 70 is_stmt 1 discriminator 1
	movl	$47, %r9d
	leaq	.LC1(%rip), %r8
	movl	$47, %ecx
	leaq	.LC2(%rip), %rax
	movq	%rax, %rdx
	leaq	.LC4(%rip), %rax
	movq	%rax, %rsi
	movl	$-1, %edi
	movl	$0, %eax
	call	_Z6MsgRetiPKcz@PLT
	.loc 1 47 70 is_stmt 0 discriminator 2
	movl	%eax, %esi
	subq	$8, %rsp
	pushq	$47
	leaq	.LC1(%rip), %r9
	movl	$47, %r8d
	leaq	.LC2(%rip), %rax
	movq	%rax, %rcx
	leaq	.LC5(%rip), %rax
	movq	%rax, %rdx
	movq	%r14, %rdi
	movl	$0, %eax
	.cfi_escape 0x2e,0x10
	call	_ZN6Logger9LogMsgRetEiPKcz@PLT
	.loc 1 47 70 discriminator 3
	addq	$16, %rsp
	movl	%eax, %r14d
	.loc 1 47 231 is_stmt 1 discriminator 3
	jmp	.L8
.L7:
	.loc 1 51 19
	leaq	-192(%rbx), %rax
	movq	%rax, %rdi
	.cfi_escape 0x2e,0
	call	_Z4GetGP8Programm@PLT
	.loc 1 51 12
	orl	%eax, -348(%rbp)
	.loc 1 52 5
	cmpl	$0, -348(%rbp)
	je	.L9
	.loc 1 54 22
	leaq	-192(%rbx), %rax
	movq	%rax, %rdi
	call	_Z13CloseProgrammP8Programm@PLT
	.loc 1 55 35
	call	_ZN6Logger11getInstanceEv@PLT
	.loc 1 55 57
	call	_ZN6Logger11getInstanceEv@PLT
	.loc 1 55 57 is_stmt 0 discriminator 1
	movq	%rax, %r14
	.loc 1 55 70 is_stmt 1 discriminator 1
	movl	$55, %r9d
	leaq	.LC1(%rip), %r8
	movl	$55, %ecx
	leaq	.LC2(%rip), %rax
	movq	%rax, %rdx
	leaq	.LC4(%rip), %rax
	movq	%rax, %rsi
	movl	$-1, %edi
	movl	$0, %eax
	call	_Z6MsgRetiPKcz@PLT
	.loc 1 55 70 is_stmt 0 discriminator 2
	movl	%eax, %esi
	subq	$8, %rsp
	pushq	$55
	leaq	.LC1(%rip), %r9
	movl	$55, %r8d
	leaq	.LC2(%rip), %rax
	movq	%rax, %rcx
	leaq	.LC5(%rip), %rax
	movq	%rax, %rdx
	movq	%r14, %rdi
	movl	$0, %eax
	.cfi_escape 0x2e,0x10
	call	_ZN6Logger9LogMsgRetEiPKcz@PLT
	.loc 1 55 70 discriminator 3
	addq	$16, %rsp
	movl	%eax, %r14d
	.loc 1 55 231 is_stmt 1 discriminator 3
	jmp	.L8
.L9:
	.loc 1 57 11
	leaq	.LC6(%rip), %rax
	movq	%rax, %rdi
	.cfi_escape 0x2e,0
	call	puts@PLT
	.loc 1 61 5
	cmpl	$0, -348(%rbp)
	je	.L10
	.loc 1 63 22
	leaq	-192(%rbx), %rax
	movq	%rax, %rdi
	call	_Z13CloseProgrammP8Programm@PLT
	.loc 1 64 35
	call	_ZN6Logger11getInstanceEv@PLT
	.loc 1 64 57
	call	_ZN6Logger11getInstanceEv@PLT
	.loc 1 64 57 is_stmt 0 discriminator 1
	movq	%rax, %r14
	.loc 1 64 70 is_stmt 1 discriminator 1
	movl	$64, %r9d
	leaq	.LC1(%rip), %r8
	movl	$64, %ecx
	leaq	.LC2(%rip), %rax
	movq	%rax, %rdx
	leaq	.LC4(%rip), %rax
	movq	%rax, %rsi
	movl	$-1, %edi
	movl	$0, %eax
	call	_Z6MsgRetiPKcz@PLT
	.loc 1 64 70 is_stmt 0 discriminator 2
	movl	%eax, %esi
	subq	$8, %rsp
	pushq	$64
	leaq	.LC1(%rip), %r9
	movl	$64, %r8d
	leaq	.LC2(%rip), %rax
	movq	%rax, %rcx
	leaq	.LC5(%rip), %rax
	movq	%rax, %rdx
	movq	%r14, %rdi
	movl	$0, %eax
	.cfi_escape 0x2e,0x10
	call	_ZN6Logger9LogMsgRetEiPKcz@PLT
	.loc 1 64 70 discriminator 3
	addq	$16, %rsp
	movl	%eax, %r14d
	.loc 1 64 231 is_stmt 1 discriminator 3
	jmp	.L8
.L10:
	.loc 1 69 18
	leaq	-192(%rbx), %rax
	movq	%rax, %rdi
	.cfi_escape 0x2e,0
	call	_Z13CloseProgrammP8Programm@PLT
.LEHE1:
	.loc 1 71 12
	movl	$0, %r14d
.L8:
	.loc 1 72 5
	leaq	-256(%rbx), %rax
	movq	%rax, %rdi
	call	_ZN14FunctionLoggerD1Ev@PLT
	movl	%r14d, %edx
	.loc 1 31 5
	cmpq	%r13, %r15
	je	.L2
	jmp	.L15
.L14:
	endbr64
	.loc 1 72 5
	movq	%rax, %r12
	leaq	-256(%rbx), %rax
	movq	%rax, %rdi
	call	_ZN14FunctionLoggerD1Ev@PLT
	movq	%r12, %rbx
	call	__asan_handle_no_return@PLT
	movq	%rbx, %rdi
.LEHB2:
	call	_Unwind_Resume@PLT
.LEHE2:
.L15:
	.loc 1 31 5
	movq	$1172321806, 0(%r13)
	movabsq	$-723401728380766731, %rbx
	movabsq	$-723401728380766731, %rsi
	movq	%rbx, 2147450880(%r12)
	movq	%rsi, 2147450888(%r12)
	movq	%rbx, 2147450896(%r12)
	movq	%rsi, 2147450904(%r12)
	movq	248(%r13), %rax
	movb	$0, (%rax)
	jmp	.L3
.L2:
	movq	$0, 2147450880(%r12)
	movl	$0, 2147450888(%r12)
	movq	$0, 2147450900(%r12)
	movl	$0, 2147450908(%r12)
.L3:
	.loc 1 72 5
	movq	-56(%rbp), %rax
	subq	%fs:40, %rax
	je	.L13
	call	__stack_chk_fail@PLT
.L13:
	movl	%edx, %eax
	leaq	-40(%rbp), %rsp
	popq	%rbx
	popq	%r12
	popq	%r13
	popq	%r14
	popq	%r15
	popq	%rbp
	.cfi_def_cfa 7, 8
	ret
	.cfi_endproc
.LFE2270:
	.globl	__gxx_personality_v0
	.section	.gcc_except_table,"a",@progbits
.LLSDA2270:
	.byte	0xff
	.byte	0xff
	.byte	0x1
	.uleb128 .LLSDACSE2270-.LLSDACSB2270
.LLSDACSB2270:
	.uleb128 .LEHB0-.LFB2270
	.uleb128 .LEHE0-.LEHB0
	.uleb128 0
	.uleb128 0
	.uleb128 .LEHB1-.LFB2270
	.uleb128 .LEHE1-.LEHB1
	.uleb128 .L14-.LFB2270
	.uleb128 0
	.uleb128 .LEHB2-.LFB2270
	.uleb128 .LEHE2-.LEHB2
	.uleb128 0
	.uleb128 0
.LLSDACSE2270:
	.text
	.size	main, .-main
	.type	_Z41__static_initialization_and_destruction_0ii, @function
_Z41__static_initialization_and_destruction_0ii:
.LASANPC2937:
.LFB2937:
	.loc 1 72 5
	.cfi_startproc
	endbr64
	pushq	%rbp
	.cfi_def_cfa_offset 16
	.cfi_offset 6, -16
	movq	%rsp, %rbp
	.cfi_def_cfa_register 6
	subq	$16, %rsp
	movl	%edi, -4(%rbp)
	movl	%esi, -8(%rbp)
	.loc 1 72 5
	cmpl	$1, -4(%rbp)
	jne	.L19
	.loc 1 72 5 is_stmt 0 discriminator 1
	leaq	.LC2(%rip), %rax
	movq	%rax, %rdi
	call	__asan_before_dynamic_init@PLT
	cmpl	$65535, -8(%rbp)
	jne	.L18
	.file 2 "/usr/include/c++/11/iostream"
	.loc 2 74 25 is_stmt 1
	leaq	_ZStL8__ioinit(%rip), %rax
	movq	%rax, %rdi
	call	_ZNSt8ios_base4InitC1Ev@PLT
	leaq	__dso_handle(%rip), %rax
	movq	%rax, %rdx
	leaq	_ZStL8__ioinit(%rip), %rax
	movq	%rax, %rsi
	movq	_ZNSt8ios_base4InitD1Ev@GOTPCREL(%rip), %rax
	movq	%rax, %rdi
	call	__cxa_atexit@PLT
.L18:
	.loc 2 74 25 is_stmt 0 discriminator 1
	call	__asan_after_dynamic_init@PLT
.L19:
	.loc 1 72 5 is_stmt 1
	nop
	leave
	.cfi_def_cfa 7, 8
	ret
	.cfi_endproc
.LFE2937:
	.size	_Z41__static_initialization_and_destruction_0ii, .-_Z41__static_initialization_and_destruction_0ii
	.type	_GLOBAL__sub_I_main, @function
_GLOBAL__sub_I_main:
.LASANPC2938:
.LFB2938:
	.loc 1 72 5
	.cfi_startproc
	endbr64
	pushq	%rbp
	.cfi_def_cfa_offset 16
	.cfi_offset 6, -16
	movq	%rsp, %rbp
	.cfi_def_cfa_register 6
	.loc 1 72 5
	movl	$65535, %esi
	movl	$1, %edi
	call	_Z41__static_initialization_and_destruction_0ii
	popq	%rbp
	.cfi_def_cfa 7, 8
	ret
	.cfi_endproc
.LFE2938:
	.size	_GLOBAL__sub_I_main, .-_GLOBAL__sub_I_main
	.section	.init_array,"aw"
	.align 8
	.quad	_GLOBAL__sub_I_main
	.section	.rodata
	.align 8
.LC7:
	.string	"../ATC/RandomStuff/CommonEnums.h"
	.section	.data.rel.local,"aw"
	.align 16
	.type	.LASANLOC1, @object
	.size	.LASANLOC1, 16
.LASANLOC1:
	.quad	.LC7
	.long	3
	.long	11
	.section	.rodata
.LC8:
	.string	"../ATC/Logger/LogConfig.h"
	.section	.data.rel.local
	.align 16
	.type	.LASANLOC2, @object
	.size	.LASANLOC2, 16
.LASANLOC2:
	.quad	.LC8
	.long	3
	.long	12
	.section	.rodata
.LC9:
	.string	"/usr/include/c++/11/iostream"
	.section	.data.rel.local
	.align 16
	.type	.LASANLOC3, @object
	.size	.LASANLOC3, 16
.LASANLOC3:
	.quad	.LC9
	.long	74
	.long	25
	.section	.rodata
.LC10:
	.string	"../ATC/Buffer/my_buffer.h"
	.section	.data.rel.local
	.align 16
	.type	.LASANLOC4, @object
	.size	.LASANLOC4, 16
.LASANLOC4:
	.quad	.LC10
	.long	32
	.long	11
	.section	.rodata
.LC11:
	.string	"../ATC/GraphVis/GVConfig.h"
	.section	.data.rel.local
	.align 16
	.type	.LASANLOC5, @object
	.size	.LASANLOC5, 16
.LASANLOC5:
	.quad	.LC11
	.long	13
	.long	11
	.align 16
	.type	.LASANLOC6, @object
	.size	.LASANLOC6, 16
.LASANLOC6:
	.quad	.LC11
	.long	11
	.long	12
	.align 16
	.type	.LASANLOC7, @object
	.size	.LASANLOC7, 16
.LASANLOC7:
	.quad	.LC11
	.long	9
	.long	12
	.align 16
	.type	.LASANLOC8, @object
	.size	.LASANLOC8, 16
.LASANLOC8:
	.quad	.LC11
	.long	8
	.long	12
	.align 16
	.type	.LASANLOC9, @object
	.size	.LASANLOC9, 16
.LASANLOC9:
	.quad	.LC11
	.long	7
	.long	12
	.align 16
	.type	.LASANLOC10, @object
	.size	.LASANLOC10, 16
.LASANLOC10:
	.quad	.LC11
	.long	4
	.long	11
	.align 16
	.type	.LASANLOC11, @object
	.size	.LASANLOC11, 16
.LASANLOC11:
	.quad	.LC11
	.long	3
	.long	11
	.section	.rodata
.LC12:
	.string	"./headers/LexicalAnalysis.h"
	.section	.data.rel.local
	.align 16
	.type	.LASANLOC12, @object
	.size	.LASANLOC12, 16
.LASANLOC12:
	.quad	.LC12
	.long	6
	.long	11
	.align 16
	.type	.LASANLOC13, @object
	.size	.LASANLOC13, 16
.LASANLOC13:
	.quad	.LC12
	.long	5
	.long	11
	.section	.rodata
.LC13:
	.string	"CRINGE"
.LC14:
	.string	"STD_LOG_NAME"
.LC15:
	.string	"__ioinit"
.LC16:
	.string	"INDENT_SIZE"
.LC17:
	.string	"SYSTEM_COMMAND_LENGTH"
.LC18:
	.string	"RANKDIR"
.LC19:
	.string	"EXTENSION"
.LC20:
	.string	"PATH_FOR_IMG"
.LC21:
	.string	"PATH_FOR_DOT"
.LC22:
	.string	"IMAGE_NAME_LENGTH"
.LC23:
	.string	"MAX_GRAPH_NAME_LENGTH"
.LC24:
	.string	"START_NUMBER_OF_STRINGS"
.LC25:
	.string	"START_NUMBER_OF_TOKENS"
.LC26:
	.string	"*.LC4"
.LC27:
	.string	"*.LC5"
.LC28:
	.string	"*.LC1"
.LC29:
	.string	"*.LC3"
.LC30:
	.string	"*.LC2"
.LC31:
	.string	"*.LC6"
	.section	.data.rel.local
	.align 32
	.type	.LASAN0, @object
	.size	.LASAN0, 1216
.LASAN0:
	.quad	_ZL6CRINGE
	.quad	4
	.quad	64
	.quad	.LC13
	.quad	.LC2
	.quad	0
	.quad	.LASANLOC1
	.quad	0
	.quad	_ZL12STD_LOG_NAME
	.quad	18
	.quad	64
	.quad	.LC14
	.quad	.LC2
	.quad	0
	.quad	.LASANLOC2
	.quad	0
	.quad	_ZStL8__ioinit
	.quad	1
	.quad	64
	.quad	.LC15
	.quad	.LC2
	.quad	1
	.quad	.LASANLOC3
	.quad	0
	.quad	_ZL11INDENT_SIZE
	.quad	4
	.quad	64
	.quad	.LC16
	.quad	.LC2
	.quad	0
	.quad	.LASANLOC4
	.quad	0
	.quad	_ZL21SYSTEM_COMMAND_LENGTH
	.quad	4
	.quad	64
	.quad	.LC17
	.quad	.LC2
	.quad	0
	.quad	.LASANLOC5
	.quad	0
	.quad	_ZL7RANKDIR
	.quad	3
	.quad	64
	.quad	.LC18
	.quad	.LC2
	.quad	0
	.quad	.LASANLOC6
	.quad	0
	.quad	_ZL9EXTENSION
	.quad	4
	.quad	64
	.quad	.LC19
	.quad	.LC2
	.quad	0
	.quad	.LASANLOC7
	.quad	0
	.quad	_ZL12PATH_FOR_IMG
	.quad	12
	.quad	64
	.quad	.LC20
	.quad	.LC2
	.quad	0
	.quad	.LASANLOC8
	.quad	0
	.quad	_ZL12PATH_FOR_DOT
	.quad	16
	.quad	64
	.quad	.LC21
	.quad	.LC2
	.quad	0
	.quad	.LASANLOC9
	.quad	0
	.quad	_ZL17IMAGE_NAME_LENGTH
	.quad	4
	.quad	64
	.quad	.LC22
	.quad	.LC2
	.quad	0
	.quad	.LASANLOC10
	.quad	0
	.quad	_ZL21MAX_GRAPH_NAME_LENGTH
	.quad	4
	.quad	64
	.quad	.LC23
	.quad	.LC2
	.quad	0
	.quad	.LASANLOC11
	.quad	0
	.quad	_ZL23START_NUMBER_OF_STRINGS
	.quad	4
	.quad	64
	.quad	.LC24
	.quad	.LC2
	.quad	0
	.quad	.LASANLOC12
	.quad	0
	.quad	_ZL22START_NUMBER_OF_TOKENS
	.quad	4
	.quad	64
	.quad	.LC25
	.quad	.LC2
	.quad	0
	.quad	.LASANLOC13
	.quad	0
	.quad	.LC4
	.quad	31
	.quad	64
	.quad	.LC26
	.quad	.LC2
	.quad	0
	.quad	0
	.quad	0
	.quad	.LC5
	.quad	22
	.quad	64
	.quad	.LC27
	.quad	.LC2
	.quad	0
	.quad	0
	.quad	0
	.quad	.LC1
	.quad	5
	.quad	64
	.quad	.LC28
	.quad	.LC2
	.quad	0
	.quad	0
	.quad	0
	.quad	.LC3
	.quad	33
	.quad	96
	.quad	.LC29
	.quad	.LC2
	.quad	0
	.quad	0
	.quad	0
	.quad	.LC2
	.quad	15
	.quad	64
	.quad	.LC30
	.quad	.LC2
	.quad	0
	.quad	0
	.quad	0
	.quad	.LC6
	.quad	16
	.quad	64
	.quad	.LC31
	.quad	.LC2
	.quad	0
	.quad	0
	.quad	0
	.text
	.type	_sub_D_00099_0, @function
_sub_D_00099_0:
.LFB2939:
	.cfi_startproc
	endbr64
	pushq	%rbp
	.cfi_def_cfa_offset 16
	.cfi_offset 6, -16
	movq	%rsp, %rbp
	.cfi_def_cfa_register 6
	movl	$19, %esi
	leaq	.LASAN0(%rip), %rax
	movq	%rax, %rdi
	call	__asan_unregister_globals@PLT
	popq	%rbp
	.cfi_def_cfa 7, 8
	ret
	.cfi_endproc
.LFE2939:
	.size	_sub_D_00099_0, .-_sub_D_00099_0
	.section	.fini_array.00099,"aw"
	.align 8
	.quad	_sub_D_00099_0
	.text
	.type	_sub_I_00099_1, @function
_sub_I_00099_1:
.LFB2940:
	.cfi_startproc
	endbr64
	pushq	%rbp
	.cfi_def_cfa_offset 16
	.cfi_offset 6, -16
	movq	%rsp, %rbp
	.cfi_def_cfa_register 6
	call	__asan_init@PLT
	call	__asan_version_mismatch_check_v8@PLT
	movl	$19, %esi
	leaq	.LASAN0(%rip), %rax
	movq	%rax, %rdi
	call	__asan_register_globals@PLT
	popq	%rbp
	.cfi_def_cfa 7, 8
	ret
	.cfi_endproc
.LFE2940:
	.size	_sub_I_00099_1, .-_sub_I_00099_1
	.section	.init_array.00099,"aw"
	.align 8
	.quad	_sub_I_00099_1
	.text
.Letext0:
	.file 3 "./headers/Token.h"
	.file 4 "./headers/Tabels.h"
	.file 5 "./headers/Programm.h"
	.file 6 "./headers/LexicalAnalysis.h"
	.file 7 "/usr/include/stdlib.h"
	.file 8 "/usr/lib/gcc/x86_64-linux-gnu/11/include/stddef.h"
	.file 9 "/usr/include/x86_64-linux-gnu/bits/types.h"
	.file 10 "/usr/include/x86_64-linux-gnu/bits/stdint-intn.h"
	.file 11 "/usr/include/c++/11/cstdlib"
	.file 12 "/usr/include/c++/11/bits/std_abs.h"
	.file 13 "/usr/include/c++/11/cwchar"
	.file 14 "/usr/include/c++/11/type_traits"
	.file 15 "/usr/include/c++/11/bits/exception_ptr.h"
	.file 16 "/usr/include/x86_64-linux-gnu/c++/11/bits/c++config.h"
	.file 17 "/usr/include/c++/11/concepts"
	.file 18 "/usr/include/c++/11/bits/iterator_concepts.h"
	.file 19 "/usr/include/c++/11/bits/ranges_cmp.h"
	.file 20 "/usr/include/c++/11/compare"
	.file 21 "/usr/include/c++/11/debug/debug.h"
	.file 22 "/usr/include/c++/11/cstdint"
	.file 23 "/usr/include/c++/11/clocale"
	.file 24 "/usr/include/c++/11/numbers"
	.file 25 "/usr/include/c++/11/cstdio"
	.file 26 "/usr/include/c++/11/bits/ios_base.h"
	.file 27 "/usr/include/c++/11/cwctype"
	.file 28 "/usr/include/c++/11/bits/predefined_ops.h"
	.file 29 "/usr/include/c++/11/stdlib.h"
	.file 30 "<built-in>"
	.file 31 "/usr/include/x86_64-linux-gnu/bits/types/__mbstate_t.h"
	.file 32 "/usr/include/x86_64-linux-gnu/bits/types/__fpos_t.h"
	.file 33 "/usr/include/x86_64-linux-gnu/bits/types/__FILE.h"
	.file 34 "/usr/include/x86_64-linux-gnu/bits/types/struct_FILE.h"
	.file 35 "/usr/include/x86_64-linux-gnu/bits/types/FILE.h"
	.file 36 "/usr/include/stdio.h"
	.file 37 "../ATC/GraphVis/GVConfig.h"
	.file 38 "../ATC/Buffer/my_buffer.h"
	.file 39 "/usr/include/x86_64-linux-gnu/bits/types/wint_t.h"
	.file 40 "/usr/include/x86_64-linux-gnu/bits/types/mbstate_t.h"
	.file 41 "/usr/include/wchar.h"
	.file 42 "/usr/include/x86_64-linux-gnu/bits/types/struct_tm.h"
	.file 43 "/usr/include/c++/11/bits/ptr_traits.h"
	.file 44 "/usr/include/x86_64-linux-gnu/bits/stdint-uintn.h"
	.file 45 "/usr/include/stdint.h"
	.file 46 "/usr/include/locale.h"
	.file 47 "/usr/include/x86_64-linux-gnu/bits/wctype-wchar.h"
	.file 48 "/usr/include/wctype.h"
	.file 49 "../ATC/Logger/LogConfig.h"
	.file 50 "../ATC/Logger/FunctionLogger.h"
	.file 51 "../ATC/RandomStuff/CommonEnums.h"
	.file 52 "./headers/SyntaxAnalysis.h"
	.file 53 "../ATC/Logger/Logger.h"
	.file 54 "../ATC/Utils/Utils.h"
	.file 55 "/usr/include/c++/11/bits/algorithmfwd.h"
	.section	.data.rel.local.DW.ref.__gxx_personality_v0,"awG",@progbits,DW.ref.__gxx_personality_v0,comdat
	.align 8
	.type	DW.ref.__gxx_personality_v0, @object
	.size	DW.ref.__gxx_personality_v0, 8
DW.ref.__gxx_personality_v0:
	.quad	__gxx_personality_v0
	.hidden	__dso_handle
	.ident	"GCC: (Ubuntu 11.3.0-1ubuntu1~22.04) 11.3.0"
	.section	.note.GNU-stack,"",@progbits
	.section	.note.gnu.property,"a"
	.align 8
	.long	1f - 0f
	.long	4f - 1f
	.long	5
0:
	.string	"GNU"
1:
	.align 8
	.long	0xc0000002
	.long	3f - 2f
2:
	.long	0x3
3:
	.align 8
4:
