	.file	"Tabels.cpp"
	.text
.Ltext0:
	.file 0 "/home/arsenyfucker/Cprojects/Lang/Translator" "./src/Tabels.cpp"
	.local	_ZStL8__ioinit
	.comm	_ZStL8__ioinit,1,1
	.section	.rodata
	.align 16
	.type	_ZL12STD_LOG_NAME, @object
	.size	_ZL12STD_LOG_NAME, 18
_ZL12STD_LOG_NAME:
	.string	"./logs/stdlog.ars"
	.align 4
	.type	_ZL6CRINGE, @object
	.size	_ZL6CRINGE, 4
_ZL6CRINGE:
	.long	3565
	.align 4
	.type	_ZL11GROWTH_RATE, @object
	.size	_ZL11GROWTH_RATE, 4
_ZL11GROWTH_RATE:
	.long	2
	.align 4
	.type	_ZL20START_LABEL_ARR_SIZE, @object
	.size	_ZL20START_LABEL_ARR_SIZE, 4
_ZL20START_LABEL_ARR_SIZE:
	.long	10
.LC0:
	.string	"tabel"
	.align 8
.LC1:
	.string	"ASSERTLOG:: Condition (%s) is false\n"
	.align 8
.LC2:
	.string	"\033[93mASSERTLOG:: \033[0mCondition\033[95m (%s) \033[0mis \033[91mfalse\n\033[0m"
.LC3:
	.string	"int FuncTabelCtor(FuncTabel*)"
.LC4:
	.string	"./src/Tabels.cpp"
.LC5:
	.string	"\t%s:%d, function: %s\n"
	.align 8
.LC6:
	.string	"It matches to error: (code %d) %s\n\n"
.LC7:
	.string	"FuncTabelCtor"
	.align 8
.LC8:
	.string	"Shutting down the system (%s:%d)"
.LC9:
	.string	"echo LOX\n"
	.align 8
.LC10:
	.string	"\033[91mFailed %s:%d (%s:%d)\n\033[0m"
.LC11:
	.string	"Failed (%s:%d, %s:%d)"
	.text
	.globl	_Z13FuncTabelCtorP9FuncTabel
	.type	_Z13FuncTabelCtorP9FuncTabel, @function
_Z13FuncTabelCtorP9FuncTabel:
.LFB2270:
	.file 1 "./src/Tabels.cpp"
	.loc 1 17 5
	.cfi_startproc
	endbr64
	pushq	%rbp
	.cfi_def_cfa_offset 16
	.cfi_offset 6, -16
	movq	%rsp, %rbp
	.cfi_def_cfa_register 6
	pushq	%rbx
	subq	$24, %rsp
	.cfi_offset 3, -24
	movq	%rdi, -24(%rbp)
	.loc 1 18 10
	cmpq	$0, -24(%rbp)
	jne	.L2
	.loc 1 18 45 discriminator 1
	call	_ZN6Logger11getInstanceEv@PLT
	movq	%rax, %rcx
	.loc 1 18 51 discriminator 1
	leaq	.LC0(%rip), %rax
	movq	%rax, %rdx
	leaq	.LC1(%rip), %rax
	movq	%rax, %rsi
	movq	%rcx, %rdi
	movl	$0, %eax
	call	_ZN6Logger3logEPKcz@PLT
	.loc 1 18 109 discriminator 1
	leaq	.LC0(%rip), %rax
	movq	%rax, %rsi
	leaq	.LC2(%rip), %rax
	movq	%rax, %rdi
	movl	$0, %eax
	call	printf@PLT
	.loc 1 18 255 discriminator 1
	call	_ZN6Logger11getInstanceEv@PLT
	movq	%rax, %rdi
	.loc 1 18 261 discriminator 1
	leaq	.LC3(%rip), %r8
	movl	$18, %ecx
	leaq	.LC4(%rip), %rax
	movq	%rax, %rdx
	leaq	.LC5(%rip), %rax
	movq	%rax, %rsi
	movl	$0, %eax
	call	_ZN6Logger3logEPKcz@PLT
	.loc 1 18 341 discriminator 1
	leaq	.LC3(%rip), %rax
	movq	%rax, %rcx
	movl	$18, %edx
	leaq	.LC4(%rip), %rax
	movq	%rax, %rsi
	leaq	.LC5(%rip), %rax
	movq	%rax, %rdi
	movl	$0, %eax
	call	printf@PLT
	.loc 1 18 434 discriminator 1
	call	_ZN6Logger11getInstanceEv@PLT
	movq	%rax, %rbx
	.loc 1 18 440 discriminator 1
	movl	$14, %edi
	call	strerror@PLT
	movq	%rax, %rcx
	movl	$14, %edx
	leaq	.LC6(%rip), %rax
	movq	%rax, %rsi
	movq	%rbx, %rdi
	movl	$0, %eax
	call	_ZN6Logger3logEPKcz@PLT
	.loc 1 18 27 discriminator 1
	call	_ZN6Logger11getInstanceEv@PLT
	movq	%rax, %rdi
	.loc 1 18 33 discriminator 1
	movl	$18, %ecx
	leaq	.LC7(%rip), %rax
	movq	%rax, %rdx
	leaq	.LC8(%rip), %rax
	movq	%rax, %rsi
	movl	$0, %eax
	call	_ZN6Logger3logEPKcz@PLT
	.loc 1 18 91 discriminator 1
	leaq	.LC9(%rip), %rax
	movq	%rax, %rdi
	call	system@PLT
	.loc 1 18 133 discriminator 1
	call	_ZN6Logger11getInstanceEv@PLT
	.loc 1 18 155 discriminator 1
	call	_ZN6Logger11getInstanceEv@PLT
	movq	%rax, %rbx
	.loc 1 18 168 discriminator 1
	movl	$18, %r9d
	leaq	.LC7(%rip), %r8
	movl	$18, %ecx
	leaq	.LC4(%rip), %rax
	movq	%rax, %rdx
	leaq	.LC10(%rip), %rax
	movq	%rax, %rsi
	movl	$-1, %edi
	movl	$0, %eax
	call	_Z6MsgRetiPKcz@PLT
	movl	%eax, %esi
	subq	$8, %rsp
	pushq	$18
	leaq	.LC7(%rip), %r9
	movl	$18, %r8d
	leaq	.LC4(%rip), %rax
	movq	%rax, %rcx
	leaq	.LC11(%rip), %rax
	movq	%rax, %rdx
	movq	%rbx, %rdi
	movl	$0, %eax
	call	_ZN6Logger9LogMsgRetEiPKcz@PLT
	addq	$16, %rsp
	.loc 1 18 333 discriminator 1
	jmp	.L3
.L2:
	.loc 1 20 59
	call	_ZN6Logger11getInstanceEv@PLT
	movq	%rax, %rdi
	.loc 1 20 70
	movl	$20, %r9d
	leaq	.LC7(%rip), %r8
	leaq	.LC4(%rip), %rax
	movq	%rax, %rcx
	movl	$8, %edx
	movl	$10, %esi
	call	_ZN6Logger7CAL_LOGEmmPKcS1_i@PLT
	.loc 1 20 24
	movq	-24(%rbp), %rdx
	movq	%rax, (%rdx)
	.loc 1 21 18
	movq	-24(%rbp), %rax
	movq	(%rax), %rax
	.loc 1 21 5
	testq	%rax, %rax
	jne	.L4
	.loc 1 22 35
	call	_ZN6Logger11getInstanceEv@PLT
	.loc 1 22 57
	call	_ZN6Logger11getInstanceEv@PLT
	movq	%rax, %rbx
	.loc 1 22 70
	movl	$22, %r9d
	leaq	.LC7(%rip), %r8
	movl	$22, %ecx
	leaq	.LC4(%rip), %rax
	movq	%rax, %rdx
	leaq	.LC10(%rip), %rax
	movq	%rax, %rsi
	movl	$-1, %edi
	movl	$0, %eax
	call	_Z6MsgRetiPKcz@PLT
	movl	%eax, %esi
	subq	$8, %rsp
	pushq	$22
	leaq	.LC7(%rip), %r9
	movl	$22, %r8d
	leaq	.LC4(%rip), %rax
	movq	%rax, %rcx
	leaq	.LC11(%rip), %rax
	movq	%rax, %rdx
	movq	%rbx, %rdi
	movl	$0, %eax
	call	_ZN6Logger9LogMsgRetEiPKcz@PLT
	addq	$16, %rsp
	.loc 1 22 235
	jmp	.L3
.L4:
	.loc 1 24 23
	movq	-24(%rbp), %rax
	movl	$10, 8(%rax)
	.loc 1 25 31
	movq	-24(%rbp), %rax
	movl	$0, 12(%rax)
	.loc 1 27 12
	movl	$0, %eax
.L3:
	.loc 1 28 5
	movq	-8(%rbp), %rbx
	leave
	.cfi_def_cfa 7, 8
	ret
	.cfi_endproc
.LFE2270:
	.size	_Z13FuncTabelCtorP9FuncTabel, .-_Z13FuncTabelCtorP9FuncTabel
	.section	.rodata
.LC12:
	.string	"func_tabel"
	.align 8
.LC13:
	.string	"FuncLabel* IsFuncLabel(int, FuncTabel*)"
.LC14:
	.string	"IsFuncLabel"
.LC15:
	.string	"Returnig null ptr (%s:%d)"
	.align 8
.LC16:
	.string	"\033[94mReturnig null ptr %s:%d (%s:%d)\n\033[0m"
.LC17:
	.string	"\t%s: "
	.align 8
.LC18:
	.string	"Empty label array in func tabel %p\n"
	.text
	.globl	_Z11IsFuncLabeliP9FuncTabel
	.type	_Z11IsFuncLabeliP9FuncTabel, @function
_Z11IsFuncLabeliP9FuncTabel:
.LFB2271:
	.loc 1 31 5
	.cfi_startproc
	endbr64
	pushq	%rbp
	.cfi_def_cfa_offset 16
	.cfi_offset 6, -16
	movq	%rsp, %rbp
	.cfi_def_cfa_register 6
	pushq	%rbx
	subq	$40, %rsp
	.cfi_offset 3, -24
	movl	%edi, -36(%rbp)
	movq	%rsi, -48(%rbp)
	.loc 1 32 10
	cmpq	$0, -48(%rbp)
	jne	.L6
	.loc 1 32 50 discriminator 1
	call	_ZN6Logger11getInstanceEv@PLT
	movq	%rax, %rcx
	.loc 1 32 56 discriminator 1
	leaq	.LC12(%rip), %rax
	movq	%rax, %rdx
	leaq	.LC1(%rip), %rax
	movq	%rax, %rsi
	movq	%rcx, %rdi
	movl	$0, %eax
	call	_ZN6Logger3logEPKcz@PLT
	.loc 1 32 119 discriminator 1
	leaq	.LC12(%rip), %rax
	movq	%rax, %rsi
	leaq	.LC2(%rip), %rax
	movq	%rax, %rdi
	movl	$0, %eax
	call	printf@PLT
	.loc 1 32 270 discriminator 1
	call	_ZN6Logger11getInstanceEv@PLT
	movq	%rax, %rdi
	.loc 1 32 276 discriminator 1
	leaq	.LC13(%rip), %r8
	movl	$32, %ecx
	leaq	.LC4(%rip), %rax
	movq	%rax, %rdx
	leaq	.LC5(%rip), %rax
	movq	%rax, %rsi
	movl	$0, %eax
	call	_ZN6Logger3logEPKcz@PLT
	.loc 1 32 356 discriminator 1
	leaq	.LC13(%rip), %rax
	movq	%rax, %rcx
	movl	$32, %edx
	leaq	.LC4(%rip), %rax
	movq	%rax, %rsi
	leaq	.LC5(%rip), %rax
	movq	%rax, %rdi
	movl	$0, %eax
	call	printf@PLT
	.loc 1 32 449 discriminator 1
	call	_ZN6Logger11getInstanceEv@PLT
	movq	%rax, %rbx
	.loc 1 32 455 discriminator 1
	movl	$14, %edi
	call	strerror@PLT
	movq	%rax, %rcx
	movl	$14, %edx
	leaq	.LC6(%rip), %rax
	movq	%rax, %rsi
	movq	%rbx, %rdi
	movl	$0, %eax
	call	_ZN6Logger3logEPKcz@PLT
	.loc 1 32 27 discriminator 1
	call	_ZN6Logger11getInstanceEv@PLT
	movq	%rax, %rdi
	.loc 1 32 33 discriminator 1
	movl	$32, %ecx
	leaq	.LC14(%rip), %rax
	movq	%rax, %rdx
	leaq	.LC8(%rip), %rax
	movq	%rax, %rsi
	movl	$0, %eax
	call	_ZN6Logger3logEPKcz@PLT
	.loc 1 32 91 discriminator 1
	leaq	.LC9(%rip), %rax
	movq	%rax, %rdi
	call	system@PLT
	.loc 1 32 133 discriminator 1
	call	_ZN6Logger11getInstanceEv@PLT
	movq	%rax, %rdi
	.loc 1 32 149 discriminator 1
	movl	$32, %ecx
	leaq	.LC14(%rip), %rax
	movq	%rax, %rdx
	leaq	.LC15(%rip), %rax
	movq	%rax, %rsi
	movl	$0, %eax
	call	_ZN6Logger13LogMsgNullRetEPKcz@PLT
	.loc 1 32 207 discriminator 1
	movl	$32, %r8d
	leaq	.LC14(%rip), %rax
	movq	%rax, %rcx
	movl	$32, %edx
	leaq	.LC4(%rip), %rax
	movq	%rax, %rsi
	leaq	.LC16(%rip), %rax
	movq	%rax, %rdi
	movl	$0, %eax
	call	_Z13LogMsgNullRetPKcz@PLT
	.loc 1 32 302 discriminator 1
	movl	$0, %eax
	jmp	.L7
.L6:
	.loc 1 34 9
	movq	-48(%rbp), %rax
	movl	12(%rax), %eax
	movl	%eax, -28(%rbp)
	.loc 1 35 5
	cmpl	$0, -28(%rbp)
	jg	.L8
	.loc 1 36 15
	movl	$0, %eax
	jmp	.L7
.L8:
	.loc 1 38 17
	movq	-48(%rbp), %rax
	movq	(%rax), %rax
	movq	%rax, -24(%rbp)
	.loc 1 39 5
	cmpq	$0, -24(%rbp)
	jne	.L9
	.loc 1 41 17
	leaq	.LC14(%rip), %rax
	movq	%rax, %rsi
	leaq	.LC17(%rip), %rax
	movq	%rax, %rdi
	movl	$0, %eax
	call	printf@PLT
	.loc 1 41 45
	movq	-48(%rbp), %rax
	movq	%rax, %rsi
	leaq	.LC18(%rip), %rax
	movq	%rax, %rdi
	movl	$0, %eax
	call	printf@PLT
	.loc 1 42 35
	call	_ZN6Logger11getInstanceEv@PLT
	movq	%rax, %rdi
	.loc 1 42 51
	movl	$42, %ecx
	leaq	.LC14(%rip), %rax
	movq	%rax, %rdx
	leaq	.LC15(%rip), %rax
	movq	%rax, %rsi
	movl	$0, %eax
	call	_ZN6Logger13LogMsgNullRetEPKcz@PLT
	.loc 1 42 109
	movl	$42, %r8d
	leaq	.LC14(%rip), %rax
	movq	%rax, %rcx
	movl	$42, %edx
	leaq	.LC4(%rip), %rax
	movq	%rax, %rsi
	leaq	.LC16(%rip), %rax
	movq	%rax, %rdi
	movl	$0, %eax
	call	_Z13LogMsgNullRetPKcz@PLT
	.loc 1 42 204
	movl	$0, %eax
	jmp	.L7
.L9:
.LBB2:
	.loc 1 45 13
	movl	$0, -32(%rbp)
	.loc 1 45 5
	jmp	.L10
.L12:
	.loc 1 47 39
	movl	-32(%rbp), %eax
	cltq
	.loc 1 47 37
	leaq	0(,%rax,8), %rdx
	movq	-24(%rbp), %rax
	addq	%rdx, %rax
	.loc 1 47 25
	movq	(%rax), %rax
	.loc 1 47 44
	movl	(%rax), %eax
	.loc 1 47 9
	cmpl	%eax, -36(%rbp)
	jne	.L11
	.loc 1 48 34
	movl	-32(%rbp), %eax
	cltq
	.loc 1 48 32
	leaq	0(,%rax,8), %rdx
	movq	-24(%rbp), %rax
	addq	%rdx, %rax
	.loc 1 48 35
	movq	(%rax), %rax
	jmp	.L7
.L11:
	.loc 1 45 5 discriminator 2
	addl	$1, -32(%rbp)
.L10:
	.loc 1 45 22 discriminator 1
	movl	-32(%rbp), %eax
	cmpl	-28(%rbp), %eax
	jl	.L12
.LBE2:
	.loc 1 51 11
	movl	$0, %eax
.L7:
	.loc 1 52 5
	movq	-8(%rbp), %rbx
	leave
	.cfi_def_cfa 7, 8
	ret
	.cfi_endproc
.LFE2271:
	.size	_Z11IsFuncLabeliP9FuncTabel, .-_Z11IsFuncLabeliP9FuncTabel
	.section	.rodata
	.align 8
.LC19:
	.string	"int AddFuncLabel(int, int, int, FuncTabel*)"
.LC20:
	.string	"AddFuncLabel"
	.align 8
.LC21:
	.string	"%s:%d::CHECK: ResizeFuncTabel(func_tabel) == SUCCESS is false\n"
	.text
	.globl	_Z12AddFuncLabeliiiP9FuncTabel
	.type	_Z12AddFuncLabeliiiP9FuncTabel, @function
_Z12AddFuncLabeliiiP9FuncTabel:
.LFB2272:
	.loc 1 56 5
	.cfi_startproc
	endbr64
	pushq	%rbp
	.cfi_def_cfa_offset 16
	.cfi_offset 6, -16
	movq	%rsp, %rbp
	.cfi_def_cfa_register 6
	pushq	%rbx
	subq	$56, %rsp
	.cfi_offset 3, -24
	movl	%edi, -36(%rbp)
	movl	%esi, -40(%rbp)
	movl	%edx, -44(%rbp)
	movq	%rcx, -56(%rbp)
	.loc 1 57 10
	cmpq	$0, -56(%rbp)
	jne	.L14
	.loc 1 57 50 discriminator 1
	call	_ZN6Logger11getInstanceEv@PLT
	movq	%rax, %rcx
	.loc 1 57 56 discriminator 1
	leaq	.LC12(%rip), %rax
	movq	%rax, %rdx
	leaq	.LC1(%rip), %rax
	movq	%rax, %rsi
	movq	%rcx, %rdi
	movl	$0, %eax
	call	_ZN6Logger3logEPKcz@PLT
	.loc 1 57 119 discriminator 1
	leaq	.LC12(%rip), %rax
	movq	%rax, %rsi
	leaq	.LC2(%rip), %rax
	movq	%rax, %rdi
	movl	$0, %eax
	call	printf@PLT
	.loc 1 57 270 discriminator 1
	call	_ZN6Logger11getInstanceEv@PLT
	movq	%rax, %rdi
	.loc 1 57 276 discriminator 1
	leaq	.LC19(%rip), %r8
	movl	$57, %ecx
	leaq	.LC4(%rip), %rax
	movq	%rax, %rdx
	leaq	.LC5(%rip), %rax
	movq	%rax, %rsi
	movl	$0, %eax
	call	_ZN6Logger3logEPKcz@PLT
	.loc 1 57 356 discriminator 1
	leaq	.LC19(%rip), %rax
	movq	%rax, %rcx
	movl	$57, %edx
	leaq	.LC4(%rip), %rax
	movq	%rax, %rsi
	leaq	.LC5(%rip), %rax
	movq	%rax, %rdi
	movl	$0, %eax
	call	printf@PLT
	.loc 1 57 449 discriminator 1
	call	_ZN6Logger11getInstanceEv@PLT
	movq	%rax, %rbx
	.loc 1 57 455 discriminator 1
	movl	$14, %edi
	call	strerror@PLT
	movq	%rax, %rcx
	movl	$14, %edx
	leaq	.LC6(%rip), %rax
	movq	%rax, %rsi
	movq	%rbx, %rdi
	movl	$0, %eax
	call	_ZN6Logger3logEPKcz@PLT
	.loc 1 57 27 discriminator 1
	call	_ZN6Logger11getInstanceEv@PLT
	movq	%rax, %rdi
	.loc 1 57 33 discriminator 1
	movl	$57, %ecx
	leaq	.LC20(%rip), %rax
	movq	%rax, %rdx
	leaq	.LC8(%rip), %rax
	movq	%rax, %rsi
	movl	$0, %eax
	call	_ZN6Logger3logEPKcz@PLT
	.loc 1 57 91 discriminator 1
	leaq	.LC9(%rip), %rax
	movq	%rax, %rdi
	call	system@PLT
	.loc 1 57 133 discriminator 1
	call	_ZN6Logger11getInstanceEv@PLT
	.loc 1 57 155 discriminator 1
	call	_ZN6Logger11getInstanceEv@PLT
	movq	%rax, %rbx
	.loc 1 57 168 discriminator 1
	movl	$57, %r9d
	leaq	.LC20(%rip), %r8
	movl	$57, %ecx
	leaq	.LC4(%rip), %rax
	movq	%rax, %rdx
	leaq	.LC10(%rip), %rax
	movq	%rax, %rsi
	movl	$-1, %edi
	movl	$0, %eax
	call	_Z6MsgRetiPKcz@PLT
	movl	%eax, %esi
	subq	$8, %rsp
	pushq	$57
	leaq	.LC20(%rip), %r9
	movl	$57, %r8d
	leaq	.LC4(%rip), %rax
	movq	%rax, %rcx
	leaq	.LC11(%rip), %rax
	movq	%rax, %rdx
	movq	%rbx, %rdi
	movl	$0, %eax
	call	_ZN6Logger9LogMsgRetEiPKcz@PLT
	addq	$16, %rsp
	.loc 1 57 333 discriminator 1
	jmp	.L15
.L14:
	.loc 1 59 22
	movq	-56(%rbp), %rax
	movl	8(%rax), %edx
	.loc 1 59 48
	movq	-56(%rbp), %rax
	movl	12(%rax), %eax
	.loc 1 59 5
	cmpl	%eax, %edx
	jg	.L16
	.loc 1 60 34
	movq	-56(%rbp), %rax
	movq	%rax, %rdi
	call	_ZL15ResizeFuncTabelP9FuncTabel
	.loc 1 60 47
	testl	%eax, %eax
	setne	%al
	.loc 1 60 14
	testb	%al, %al
	je	.L16
	.loc 1 60 80 discriminator 1
	call	_ZN6Logger11getInstanceEv@PLT
	movq	%rax, %rdi
	.loc 1 60 86 discriminator 1
	movl	$60, %ecx
	leaq	.LC20(%rip), %rax
	movq	%rax, %rdx
	leaq	.LC21(%rip), %rax
	movq	%rax, %rsi
	movl	$0, %eax
	call	_ZN6Logger3logEPKcz@PLT
	.loc 1 60 202 discriminator 1
	call	_ZN6Logger11getInstanceEv@PLT
	.loc 1 60 224 discriminator 1
	call	_ZN6Logger11getInstanceEv@PLT
	movq	%rax, %rbx
	.loc 1 60 237 discriminator 1
	movl	$60, %r9d
	leaq	.LC20(%rip), %r8
	movl	$60, %ecx
	leaq	.LC4(%rip), %rax
	movq	%rax, %rdx
	leaq	.LC10(%rip), %rax
	movq	%rax, %rsi
	movl	$-1, %edi
	movl	$0, %eax
	call	_Z6MsgRetiPKcz@PLT
	movl	%eax, %esi
	subq	$8, %rsp
	pushq	$60
	leaq	.LC20(%rip), %r9
	movl	$60, %r8d
	leaq	.LC4(%rip), %rax
	movq	%rax, %rcx
	leaq	.LC11(%rip), %rax
	movq	%rax, %rdx
	movq	%rbx, %rdi
	movl	$0, %eax
	call	_ZN6Logger9LogMsgRetEiPKcz@PLT
	addq	$16, %rsp
	.loc 1 60 402 discriminator 1
	jmp	.L15
.L16:
	.loc 1 62 60
	call	_ZN6Logger11getInstanceEv@PLT
	movq	%rax, %rdi
	.loc 1 62 71
	movl	$62, %r9d
	leaq	.LC20(%rip), %r8
	leaq	.LC4(%rip), %rax
	movq	%rax, %rcx
	movl	$40, %edx
	movl	$1, %esi
	call	_ZN6Logger7CAL_LOGEmmPKcS1_i@PLT
	movq	%rax, -24(%rbp)
	.loc 1 63 5
	cmpq	$0, -24(%rbp)
	jne	.L17
	.loc 1 64 35
	call	_ZN6Logger11getInstanceEv@PLT
	.loc 1 64 57
	call	_ZN6Logger11getInstanceEv@PLT
	movq	%rax, %rbx
	.loc 1 64 70
	movl	$64, %r9d
	leaq	.LC20(%rip), %r8
	movl	$64, %ecx
	leaq	.LC4(%rip), %rax
	movq	%rax, %rdx
	leaq	.LC10(%rip), %rax
	movq	%rax, %rsi
	movl	$-1, %edi
	movl	$0, %eax
	call	_Z6MsgRetiPKcz@PLT
	movl	%eax, %esi
	subq	$8, %rsp
	pushq	$64
	leaq	.LC20(%rip), %r9
	movl	$64, %r8d
	leaq	.LC4(%rip), %rax
	movq	%rax, %rcx
	leaq	.LC11(%rip), %rax
	movq	%rax, %rdx
	movq	%rbx, %rdi
	movl	$0, %eax
	call	_ZN6Logger9LogMsgRetEiPKcz@PLT
	addq	$16, %rsp
	.loc 1 64 235
	jmp	.L15
.L17:
	.loc 1 66 21
	movq	-24(%rbp), %rax
	movl	-36(%rbp), %edx
	movl	%edx, (%rax)
	.loc 1 67 25
	movq	-24(%rbp), %rax
	movl	-40(%rbp), %edx
	movl	%edx, 4(%rax)
	.loc 1 68 28
	movq	-24(%rbp), %rax
	movl	-44(%rbp), %edx
	movl	%edx, 8(%rax)
	.loc 1 70 36
	movq	-24(%rbp), %rax
	movl	$0, 12(%rax)
	.loc 1 71 27
	movq	-24(%rbp), %rax
	movq	$0, 16(%rax)
	movq	$0, 24(%rax)
	movq	$0, 32(%rax)
	.loc 1 73 20
	movq	-56(%rbp), %rax
	movq	(%rax), %rdx
	.loc 1 73 46
	movq	-56(%rbp), %rax
	movl	12(%rax), %eax
	cltq
	.loc 1 73 31
	salq	$3, %rax
	addq	%rax, %rdx
	.loc 1 73 65
	movq	-24(%rbp), %rax
	movq	%rax, (%rdx)
	.loc 1 74 18
	movq	-56(%rbp), %rax
	movl	12(%rax), %eax
	.loc 1 74 35
	leal	1(%rax), %edx
	movq	-56(%rbp), %rax
	movl	%edx, 12(%rax)
	.loc 1 76 12
	movl	$0, %eax
.L15:
	.loc 1 77 5
	movq	-8(%rbp), %rbx
	leave
	.cfi_def_cfa 7, 8
	ret
	.cfi_endproc
.LFE2272:
	.size	_Z12AddFuncLabeliiiP9FuncTabel, .-_Z12AddFuncLabeliiiP9FuncTabel
	.section	.rodata
.LC22:
	.string	"label"
	.align 8
.LC23:
	.string	"int AddFuncLabel(FuncLabel*, FuncTabel*)"
	.text
	.globl	_Z12AddFuncLabelP9FuncLabelP9FuncTabel
	.type	_Z12AddFuncLabelP9FuncLabelP9FuncTabel, @function
_Z12AddFuncLabelP9FuncLabelP9FuncTabel:
.LFB2273:
	.loc 1 80 5
	.cfi_startproc
	endbr64
	pushq	%rbp
	.cfi_def_cfa_offset 16
	.cfi_offset 6, -16
	movq	%rsp, %rbp
	.cfi_def_cfa_register 6
	pushq	%rbx
	subq	$24, %rsp
	.cfi_offset 3, -24
	movq	%rdi, -24(%rbp)
	movq	%rsi, -32(%rbp)
	.loc 1 81 10
	cmpq	$0, -24(%rbp)
	jne	.L19
	.loc 1 81 45 discriminator 1
	call	_ZN6Logger11getInstanceEv@PLT
	movq	%rax, %rcx
	.loc 1 81 51 discriminator 1
	leaq	.LC22(%rip), %rax
	movq	%rax, %rdx
	leaq	.LC1(%rip), %rax
	movq	%rax, %rsi
	movq	%rcx, %rdi
	movl	$0, %eax
	call	_ZN6Logger3logEPKcz@PLT
	.loc 1 81 109 discriminator 1
	leaq	.LC22(%rip), %rax
	movq	%rax, %rsi
	leaq	.LC2(%rip), %rax
	movq	%rax, %rdi
	movl	$0, %eax
	call	printf@PLT
	.loc 1 81 255 discriminator 1
	call	_ZN6Logger11getInstanceEv@PLT
	movq	%rax, %rdi
	.loc 1 81 261 discriminator 1
	leaq	.LC23(%rip), %r8
	movl	$81, %ecx
	leaq	.LC4(%rip), %rax
	movq	%rax, %rdx
	leaq	.LC5(%rip), %rax
	movq	%rax, %rsi
	movl	$0, %eax
	call	_ZN6Logger3logEPKcz@PLT
	.loc 1 81 341 discriminator 1
	leaq	.LC23(%rip), %rax
	movq	%rax, %rcx
	movl	$81, %edx
	leaq	.LC4(%rip), %rax
	movq	%rax, %rsi
	leaq	.LC5(%rip), %rax
	movq	%rax, %rdi
	movl	$0, %eax
	call	printf@PLT
	.loc 1 81 434 discriminator 1
	call	_ZN6Logger11getInstanceEv@PLT
	movq	%rax, %rbx
	.loc 1 81 440 discriminator 1
	movl	$14, %edi
	call	strerror@PLT
	movq	%rax, %rcx
	movl	$14, %edx
	leaq	.LC6(%rip), %rax
	movq	%rax, %rsi
	movq	%rbx, %rdi
	movl	$0, %eax
	call	_ZN6Logger3logEPKcz@PLT
	.loc 1 81 27 discriminator 1
	call	_ZN6Logger11getInstanceEv@PLT
	movq	%rax, %rdi
	.loc 1 81 33 discriminator 1
	movl	$81, %ecx
	leaq	.LC20(%rip), %rax
	movq	%rax, %rdx
	leaq	.LC8(%rip), %rax
	movq	%rax, %rsi
	movl	$0, %eax
	call	_ZN6Logger3logEPKcz@PLT
	.loc 1 81 91 discriminator 1
	leaq	.LC9(%rip), %rax
	movq	%rax, %rdi
	call	system@PLT
	.loc 1 81 133 discriminator 1
	call	_ZN6Logger11getInstanceEv@PLT
	.loc 1 81 155 discriminator 1
	call	_ZN6Logger11getInstanceEv@PLT
	movq	%rax, %rbx
	.loc 1 81 168 discriminator 1
	movl	$81, %r9d
	leaq	.LC20(%rip), %r8
	movl	$81, %ecx
	leaq	.LC4(%rip), %rax
	movq	%rax, %rdx
	leaq	.LC10(%rip), %rax
	movq	%rax, %rsi
	movl	$-1, %edi
	movl	$0, %eax
	call	_Z6MsgRetiPKcz@PLT
	movl	%eax, %esi
	subq	$8, %rsp
	pushq	$81
	leaq	.LC20(%rip), %r9
	movl	$81, %r8d
	leaq	.LC4(%rip), %rax
	movq	%rax, %rcx
	leaq	.LC11(%rip), %rax
	movq	%rax, %rdx
	movq	%rbx, %rdi
	movl	$0, %eax
	call	_ZN6Logger9LogMsgRetEiPKcz@PLT
	addq	$16, %rsp
	.loc 1 81 333 discriminator 1
	jmp	.L20
.L19:
	.loc 1 82 10
	cmpq	$0, -32(%rbp)
	jne	.L21
	.loc 1 82 50 discriminator 1
	call	_ZN6Logger11getInstanceEv@PLT
	movq	%rax, %rcx
	.loc 1 82 56 discriminator 1
	leaq	.LC12(%rip), %rax
	movq	%rax, %rdx
	leaq	.LC1(%rip), %rax
	movq	%rax, %rsi
	movq	%rcx, %rdi
	movl	$0, %eax
	call	_ZN6Logger3logEPKcz@PLT
	.loc 1 82 119 discriminator 1
	leaq	.LC12(%rip), %rax
	movq	%rax, %rsi
	leaq	.LC2(%rip), %rax
	movq	%rax, %rdi
	movl	$0, %eax
	call	printf@PLT
	.loc 1 82 270 discriminator 1
	call	_ZN6Logger11getInstanceEv@PLT
	movq	%rax, %rdi
	.loc 1 82 276 discriminator 1
	leaq	.LC23(%rip), %r8
	movl	$82, %ecx
	leaq	.LC4(%rip), %rax
	movq	%rax, %rdx
	leaq	.LC5(%rip), %rax
	movq	%rax, %rsi
	movl	$0, %eax
	call	_ZN6Logger3logEPKcz@PLT
	.loc 1 82 356 discriminator 1
	leaq	.LC23(%rip), %rax
	movq	%rax, %rcx
	movl	$82, %edx
	leaq	.LC4(%rip), %rax
	movq	%rax, %rsi
	leaq	.LC5(%rip), %rax
	movq	%rax, %rdi
	movl	$0, %eax
	call	printf@PLT
	.loc 1 82 449 discriminator 1
	call	_ZN6Logger11getInstanceEv@PLT
	movq	%rax, %rbx
	.loc 1 82 455 discriminator 1
	movl	$14, %edi
	call	strerror@PLT
	movq	%rax, %rcx
	movl	$14, %edx
	leaq	.LC6(%rip), %rax
	movq	%rax, %rsi
	movq	%rbx, %rdi
	movl	$0, %eax
	call	_ZN6Logger3logEPKcz@PLT
	.loc 1 82 27 discriminator 1
	call	_ZN6Logger11getInstanceEv@PLT
	movq	%rax, %rdi
	.loc 1 82 33 discriminator 1
	movl	$82, %ecx
	leaq	.LC20(%rip), %rax
	movq	%rax, %rdx
	leaq	.LC8(%rip), %rax
	movq	%rax, %rsi
	movl	$0, %eax
	call	_ZN6Logger3logEPKcz@PLT
	.loc 1 82 91 discriminator 1
	leaq	.LC9(%rip), %rax
	movq	%rax, %rdi
	call	system@PLT
	.loc 1 82 133 discriminator 1
	call	_ZN6Logger11getInstanceEv@PLT
	.loc 1 82 155 discriminator 1
	call	_ZN6Logger11getInstanceEv@PLT
	movq	%rax, %rbx
	.loc 1 82 168 discriminator 1
	movl	$82, %r9d
	leaq	.LC20(%rip), %r8
	movl	$82, %ecx
	leaq	.LC4(%rip), %rax
	movq	%rax, %rdx
	leaq	.LC10(%rip), %rax
	movq	%rax, %rsi
	movl	$-1, %edi
	movl	$0, %eax
	call	_Z6MsgRetiPKcz@PLT
	movl	%eax, %esi
	subq	$8, %rsp
	pushq	$82
	leaq	.LC20(%rip), %r9
	movl	$82, %r8d
	leaq	.LC4(%rip), %rax
	movq	%rax, %rcx
	leaq	.LC11(%rip), %rax
	movq	%rax, %rdx
	movq	%rbx, %rdi
	movl	$0, %eax
	call	_ZN6Logger9LogMsgRetEiPKcz@PLT
	addq	$16, %rsp
	.loc 1 82 333 discriminator 1
	jmp	.L20
.L21:
	.loc 1 84 22
	movq	-32(%rbp), %rax
	movl	8(%rax), %edx
	.loc 1 84 48
	movq	-32(%rbp), %rax
	movl	12(%rax), %eax
	.loc 1 84 5
	cmpl	%eax, %edx
	jg	.L22
	.loc 1 85 34
	movq	-32(%rbp), %rax
	movq	%rax, %rdi
	call	_ZL15ResizeFuncTabelP9FuncTabel
	.loc 1 85 47
	testl	%eax, %eax
	setne	%al
	.loc 1 85 14
	testb	%al, %al
	je	.L22
	.loc 1 85 80 discriminator 1
	call	_ZN6Logger11getInstanceEv@PLT
	movq	%rax, %rdi
	.loc 1 85 86 discriminator 1
	movl	$85, %ecx
	leaq	.LC20(%rip), %rax
	movq	%rax, %rdx
	leaq	.LC21(%rip), %rax
	movq	%rax, %rsi
	movl	$0, %eax
	call	_ZN6Logger3logEPKcz@PLT
	.loc 1 85 202 discriminator 1
	call	_ZN6Logger11getInstanceEv@PLT
	.loc 1 85 224 discriminator 1
	call	_ZN6Logger11getInstanceEv@PLT
	movq	%rax, %rbx
	.loc 1 85 237 discriminator 1
	movl	$85, %r9d
	leaq	.LC20(%rip), %r8
	movl	$85, %ecx
	leaq	.LC4(%rip), %rax
	movq	%rax, %rdx
	leaq	.LC10(%rip), %rax
	movq	%rax, %rsi
	movl	$-1, %edi
	movl	$0, %eax
	call	_Z6MsgRetiPKcz@PLT
	movl	%eax, %esi
	subq	$8, %rsp
	pushq	$85
	leaq	.LC20(%rip), %r9
	movl	$85, %r8d
	leaq	.LC4(%rip), %rax
	movq	%rax, %rcx
	leaq	.LC11(%rip), %rax
	movq	%rax, %rdx
	movq	%rbx, %rdi
	movl	$0, %eax
	call	_ZN6Logger9LogMsgRetEiPKcz@PLT
	addq	$16, %rsp
	.loc 1 85 402 discriminator 1
	jmp	.L20
.L22:
	.loc 1 87 20
	movq	-32(%rbp), %rax
	movq	(%rax), %rdx
	.loc 1 87 46
	movq	-32(%rbp), %rax
	movl	12(%rax), %eax
	cltq
	.loc 1 87 31
	salq	$3, %rax
	addq	%rax, %rdx
	.loc 1 87 65
	movq	-24(%rbp), %rax
	movq	%rax, (%rdx)
	.loc 1 88 18
	movq	-32(%rbp), %rax
	movl	12(%rax), %eax
	.loc 1 88 35
	leal	1(%rax), %edx
	movq	-32(%rbp), %rax
	movl	%edx, 12(%rax)
	.loc 1 90 12
	movl	$0, %eax
.L20:
	.loc 1 91 5
	movq	-8(%rbp), %rbx
	leave
	.cfi_def_cfa 7, 8
	ret
	.cfi_endproc
.LFE2273:
	.size	_Z12AddFuncLabelP9FuncLabelP9FuncTabel, .-_Z12AddFuncLabelP9FuncLabelP9FuncTabel
	.section	.rodata
.LC24:
	.string	"label1"
	.align 8
.LC25:
	.string	"int CompareFuncLabels(FuncLabel*, FuncLabel*)"
.LC26:
	.string	"CompareFuncLabels"
.LC27:
	.string	"label2"
	.text
	.globl	_Z17CompareFuncLabelsP9FuncLabelS0_
	.type	_Z17CompareFuncLabelsP9FuncLabelS0_, @function
_Z17CompareFuncLabelsP9FuncLabelS0_:
.LFB2274:
	.loc 1 94 5
	.cfi_startproc
	endbr64
	pushq	%rbp
	.cfi_def_cfa_offset 16
	.cfi_offset 6, -16
	movq	%rsp, %rbp
	.cfi_def_cfa_register 6
	pushq	%rbx
	subq	$24, %rsp
	.cfi_offset 3, -24
	movq	%rdi, -24(%rbp)
	movq	%rsi, -32(%rbp)
	.loc 1 95 10
	cmpq	$0, -24(%rbp)
	jne	.L24
	.loc 1 95 46 discriminator 1
	call	_ZN6Logger11getInstanceEv@PLT
	movq	%rax, %rcx
	.loc 1 95 52 discriminator 1
	leaq	.LC24(%rip), %rax
	movq	%rax, %rdx
	leaq	.LC1(%rip), %rax
	movq	%rax, %rsi
	movq	%rcx, %rdi
	movl	$0, %eax
	call	_ZN6Logger3logEPKcz@PLT
	.loc 1 95 111 discriminator 1
	leaq	.LC24(%rip), %rax
	movq	%rax, %rsi
	leaq	.LC2(%rip), %rax
	movq	%rax, %rdi
	movl	$0, %eax
	call	printf@PLT
	.loc 1 95 258 discriminator 1
	call	_ZN6Logger11getInstanceEv@PLT
	movq	%rax, %rdi
	.loc 1 95 264 discriminator 1
	leaq	.LC25(%rip), %r8
	movl	$95, %ecx
	leaq	.LC4(%rip), %rax
	movq	%rax, %rdx
	leaq	.LC5(%rip), %rax
	movq	%rax, %rsi
	movl	$0, %eax
	call	_ZN6Logger3logEPKcz@PLT
	.loc 1 95 344 discriminator 1
	leaq	.LC25(%rip), %rax
	movq	%rax, %rcx
	movl	$95, %edx
	leaq	.LC4(%rip), %rax
	movq	%rax, %rsi
	leaq	.LC5(%rip), %rax
	movq	%rax, %rdi
	movl	$0, %eax
	call	printf@PLT
	.loc 1 95 437 discriminator 1
	call	_ZN6Logger11getInstanceEv@PLT
	movq	%rax, %rbx
	.loc 1 95 443 discriminator 1
	movl	$14, %edi
	call	strerror@PLT
	movq	%rax, %rcx
	movl	$14, %edx
	leaq	.LC6(%rip), %rax
	movq	%rax, %rsi
	movq	%rbx, %rdi
	movl	$0, %eax
	call	_ZN6Logger3logEPKcz@PLT
	.loc 1 95 27 discriminator 1
	call	_ZN6Logger11getInstanceEv@PLT
	movq	%rax, %rdi
	.loc 1 95 33 discriminator 1
	movl	$95, %ecx
	leaq	.LC26(%rip), %rax
	movq	%rax, %rdx
	leaq	.LC8(%rip), %rax
	movq	%rax, %rsi
	movl	$0, %eax
	call	_ZN6Logger3logEPKcz@PLT
	.loc 1 95 91 discriminator 1
	leaq	.LC9(%rip), %rax
	movq	%rax, %rdi
	call	system@PLT
	.loc 1 95 114 discriminator 1
	movl	$0, %eax
	jmp	.L25
.L24:
	.loc 1 96 10
	cmpq	$0, -32(%rbp)
	jne	.L26
	.loc 1 96 46 discriminator 1
	call	_ZN6Logger11getInstanceEv@PLT
	movq	%rax, %rcx
	.loc 1 96 52 discriminator 1
	leaq	.LC27(%rip), %rax
	movq	%rax, %rdx
	leaq	.LC1(%rip), %rax
	movq	%rax, %rsi
	movq	%rcx, %rdi
	movl	$0, %eax
	call	_ZN6Logger3logEPKcz@PLT
	.loc 1 96 111 discriminator 1
	leaq	.LC27(%rip), %rax
	movq	%rax, %rsi
	leaq	.LC2(%rip), %rax
	movq	%rax, %rdi
	movl	$0, %eax
	call	printf@PLT
	.loc 1 96 258 discriminator 1
	call	_ZN6Logger11getInstanceEv@PLT
	movq	%rax, %rdi
	.loc 1 96 264 discriminator 1
	leaq	.LC25(%rip), %r8
	movl	$96, %ecx
	leaq	.LC4(%rip), %rax
	movq	%rax, %rdx
	leaq	.LC5(%rip), %rax
	movq	%rax, %rsi
	movl	$0, %eax
	call	_ZN6Logger3logEPKcz@PLT
	.loc 1 96 344 discriminator 1
	leaq	.LC25(%rip), %rax
	movq	%rax, %rcx
	movl	$96, %edx
	leaq	.LC4(%rip), %rax
	movq	%rax, %rsi
	leaq	.LC5(%rip), %rax
	movq	%rax, %rdi
	movl	$0, %eax
	call	printf@PLT
	.loc 1 96 437 discriminator 1
	call	_ZN6Logger11getInstanceEv@PLT
	movq	%rax, %rbx
	.loc 1 96 443 discriminator 1
	movl	$14, %edi
	call	strerror@PLT
	movq	%rax, %rcx
	movl	$14, %edx
	leaq	.LC6(%rip), %rax
	movq	%rax, %rsi
	movq	%rbx, %rdi
	movl	$0, %eax
	call	_ZN6Logger3logEPKcz@PLT
	.loc 1 96 27 discriminator 1
	call	_ZN6Logger11getInstanceEv@PLT
	movq	%rax, %rdi
	.loc 1 96 33 discriminator 1
	movl	$96, %ecx
	leaq	.LC26(%rip), %rax
	movq	%rax, %rdx
	leaq	.LC8(%rip), %rax
	movq	%rax, %rsi
	movl	$0, %eax
	call	_ZN6Logger3logEPKcz@PLT
	.loc 1 96 91 discriminator 1
	leaq	.LC9(%rip), %rax
	movq	%rax, %rdi
	call	system@PLT
	.loc 1 96 114 discriminator 1
	movl	$0, %eax
	jmp	.L25
.L26:
	.loc 1 98 17
	movq	-24(%rbp), %rax
	movl	(%rax), %edx
	.loc 1 98 34
	movq	-32(%rbp), %rax
	movl	(%rax), %eax
	.loc 1 98 5
	cmpl	%eax, %edx
	je	.L27
	.loc 1 99 16
	movl	$0, %eax
	jmp	.L25
.L27:
	.loc 1 101 17
	movq	-24(%rbp), %rax
	movl	4(%rax), %edx
	.loc 1 101 37
	movq	-32(%rbp), %rax
	movl	4(%rax), %eax
	.loc 1 101 5
	cmpl	%eax, %edx
	je	.L28
	.loc 1 102 16
	movl	$0, %eax
	jmp	.L25
.L28:
	.loc 1 104 17
	movq	-24(%rbp), %rax
	movl	12(%rax), %edx
	.loc 1 104 48
	movq	-32(%rbp), %rax
	movl	12(%rax), %eax
	.loc 1 104 5
	cmpl	%eax, %edx
	je	.L29
	.loc 1 105 16
	movl	$0, %eax
	jmp	.L25
.L29:
	.loc 1 107 12
	movl	$1, %eax
.L25:
	.loc 1 108 5
	movq	-8(%rbp), %rbx
	leave
	.cfi_def_cfa 7, 8
	ret
	.cfi_endproc
.LFE2274:
	.size	_Z17CompareFuncLabelsP9FuncLabelS0_, .-_Z17CompareFuncLabelsP9FuncLabelS0_
	.section	.rodata
	.align 8
.LC28:
	.string	"int ResizeFuncTabel(FuncTabel*)"
.LC29:
	.string	"ResizeFuncTabel"
	.text
	.type	_ZL15ResizeFuncTabelP9FuncTabel, @function
_ZL15ResizeFuncTabelP9FuncTabel:
.LFB2275:
	.loc 1 113 5
	.cfi_startproc
	endbr64
	pushq	%rbp
	.cfi_def_cfa_offset 16
	.cfi_offset 6, -16
	movq	%rsp, %rbp
	.cfi_def_cfa_register 6
	pushq	%rbx
	subq	$40, %rsp
	.cfi_offset 3, -24
	movq	%rdi, -40(%rbp)
	.loc 1 114 10
	cmpq	$0, -40(%rbp)
	jne	.L31
	.loc 1 114 50 discriminator 1
	call	_ZN6Logger11getInstanceEv@PLT
	movq	%rax, %rcx
	.loc 1 114 56 discriminator 1
	leaq	.LC12(%rip), %rax
	movq	%rax, %rdx
	leaq	.LC1(%rip), %rax
	movq	%rax, %rsi
	movq	%rcx, %rdi
	movl	$0, %eax
	call	_ZN6Logger3logEPKcz@PLT
	.loc 1 114 119 discriminator 1
	leaq	.LC12(%rip), %rax
	movq	%rax, %rsi
	leaq	.LC2(%rip), %rax
	movq	%rax, %rdi
	movl	$0, %eax
	call	printf@PLT
	.loc 1 114 270 discriminator 1
	call	_ZN6Logger11getInstanceEv@PLT
	movq	%rax, %rdi
	.loc 1 114 276 discriminator 1
	leaq	.LC28(%rip), %r8
	movl	$114, %ecx
	leaq	.LC4(%rip), %rax
	movq	%rax, %rdx
	leaq	.LC5(%rip), %rax
	movq	%rax, %rsi
	movl	$0, %eax
	call	_ZN6Logger3logEPKcz@PLT
	.loc 1 114 357 discriminator 1
	leaq	.LC28(%rip), %rax
	movq	%rax, %rcx
	movl	$114, %edx
	leaq	.LC4(%rip), %rax
	movq	%rax, %rsi
	leaq	.LC5(%rip), %rax
	movq	%rax, %rdi
	movl	$0, %eax
	call	printf@PLT
	.loc 1 114 451 discriminator 1
	call	_ZN6Logger11getInstanceEv@PLT
	movq	%rax, %rbx
	.loc 1 114 457 discriminator 1
	movl	$14, %edi
	call	strerror@PLT
	movq	%rax, %rcx
	movl	$14, %edx
	leaq	.LC6(%rip), %rax
	movq	%rax, %rsi
	movq	%rbx, %rdi
	movl	$0, %eax
	call	_ZN6Logger3logEPKcz@PLT
	.loc 1 114 27 discriminator 1
	call	_ZN6Logger11getInstanceEv@PLT
	movq	%rax, %rdi
	.loc 1 114 33 discriminator 1
	movl	$114, %ecx
	leaq	.LC29(%rip), %rax
	movq	%rax, %rdx
	leaq	.LC8(%rip), %rax
	movq	%rax, %rsi
	movl	$0, %eax
	call	_ZN6Logger3logEPKcz@PLT
	.loc 1 114 92 discriminator 1
	leaq	.LC9(%rip), %rax
	movq	%rax, %rdi
	call	system@PLT
	.loc 1 114 134 discriminator 1
	call	_ZN6Logger11getInstanceEv@PLT
	.loc 1 114 156 discriminator 1
	call	_ZN6Logger11getInstanceEv@PLT
	movq	%rax, %rbx
	.loc 1 114 169 discriminator 1
	movl	$114, %r9d
	leaq	.LC29(%rip), %r8
	movl	$114, %ecx
	leaq	.LC4(%rip), %rax
	movq	%rax, %rdx
	leaq	.LC10(%rip), %rax
	movq	%rax, %rsi
	movl	$-1, %edi
	movl	$0, %eax
	call	_Z6MsgRetiPKcz@PLT
	movl	%eax, %esi
	subq	$8, %rsp
	pushq	$114
	leaq	.LC29(%rip), %r9
	movl	$114, %r8d
	leaq	.LC4(%rip), %rax
	movq	%rax, %rcx
	leaq	.LC11(%rip), %rax
	movq	%rax, %rdx
	movq	%rbx, %rdi
	movl	$0, %eax
	call	_ZN6Logger9LogMsgRetEiPKcz@PLT
	addq	$16, %rsp
	.loc 1 114 338 discriminator 1
	jmp	.L32
.L31:
	.loc 1 116 61
	call	_ZN6Logger11getInstanceEv@PLT
	movq	%rax, %rdi
	.loc 1 116 113
	movq	-40(%rbp), %rax
	movl	8(%rax), %eax
	.loc 1 116 123
	addl	%eax, %eax
	cltq
	.loc 1 116 74
	leaq	0(,%rax,8), %rdx
	.loc 1 116 88
	movq	-40(%rbp), %rax
	movq	(%rax), %rax
	.loc 1 116 74
	movl	$116, %r9d
	leaq	.LC29(%rip), %r8
	leaq	.LC4(%rip), %rcx
	movq	%rax, %rsi
	call	_ZN6Logger9RECAL_LOGEPvmPKcS2_i@PLT
	movq	%rax, -24(%rbp)
	.loc 1 117 5
	cmpq	$0, -24(%rbp)
	jne	.L33
	.loc 1 118 35
	call	_ZN6Logger11getInstanceEv@PLT
	.loc 1 118 57
	call	_ZN6Logger11getInstanceEv@PLT
	movq	%rax, %rbx
	.loc 1 118 70
	movl	$118, %r9d
	leaq	.LC29(%rip), %r8
	movl	$118, %ecx
	leaq	.LC4(%rip), %rax
	movq	%rax, %rdx
	leaq	.LC10(%rip), %rax
	movq	%rax, %rsi
	movl	$-1, %edi
	movl	$0, %eax
	call	_Z6MsgRetiPKcz@PLT
	movl	%eax, %esi
	subq	$8, %rsp
	pushq	$118
	leaq	.LC29(%rip), %r9
	movl	$118, %r8d
	leaq	.LC4(%rip), %rax
	movq	%rax, %rcx
	leaq	.LC11(%rip), %rax
	movq	%rax, %rdx
	movq	%rbx, %rdi
	movl	$0, %eax
	call	_ZN6Logger9LogMsgRetEiPKcz@PLT
	addq	$16, %rsp
	.loc 1 118 239
	jmp	.L32
.L33:
	.loc 1 120 29
	movq	-40(%rbp), %rax
	movq	-24(%rbp), %rdx
	movq	%rdx, (%rax)
	.loc 1 121 29
	movq	-40(%rbp), %rax
	movl	8(%rax), %eax
	leal	(%rax,%rax), %edx
	movq	-40(%rbp), %rax
	movl	%edx, 8(%rax)
	.loc 1 123 12
	movl	$0, %eax
.L32:
	.loc 1 124 5
	movq	-8(%rbp), %rbx
	leave
	.cfi_def_cfa 7, 8
	ret
	.cfi_endproc
.LFE2275:
	.size	_ZL15ResizeFuncTabelP9FuncTabel, .-_ZL15ResizeFuncTabelP9FuncTabel
	.section	.rodata
.LC30:
	.string	"int VarTabelCtor(VarTabel*)"
.LC31:
	.string	"VarTabelCtor"
	.text
	.globl	_Z12VarTabelCtorP8VarTabel
	.type	_Z12VarTabelCtorP8VarTabel, @function
_Z12VarTabelCtorP8VarTabel:
.LFB2276:
	.loc 1 127 5
	.cfi_startproc
	endbr64
	pushq	%rbp
	.cfi_def_cfa_offset 16
	.cfi_offset 6, -16
	movq	%rsp, %rbp
	.cfi_def_cfa_register 6
	pushq	%rbx
	subq	$24, %rsp
	.cfi_offset 3, -24
	movq	%rdi, -24(%rbp)
	.loc 1 128 10
	cmpq	$0, -24(%rbp)
	jne	.L35
	.loc 1 128 45 discriminator 1
	call	_ZN6Logger11getInstanceEv@PLT
	movq	%rax, %rcx
	.loc 1 128 51 discriminator 1
	leaq	.LC0(%rip), %rax
	movq	%rax, %rdx
	leaq	.LC1(%rip), %rax
	movq	%rax, %rsi
	movq	%rcx, %rdi
	movl	$0, %eax
	call	_ZN6Logger3logEPKcz@PLT
	.loc 1 128 109 discriminator 1
	leaq	.LC0(%rip), %rax
	movq	%rax, %rsi
	leaq	.LC2(%rip), %rax
	movq	%rax, %rdi
	movl	$0, %eax
	call	printf@PLT
	.loc 1 128 255 discriminator 1
	call	_ZN6Logger11getInstanceEv@PLT
	movq	%rax, %rdi
	.loc 1 128 261 discriminator 1
	leaq	.LC30(%rip), %r8
	movl	$128, %ecx
	leaq	.LC4(%rip), %rax
	movq	%rax, %rdx
	leaq	.LC5(%rip), %rax
	movq	%rax, %rsi
	movl	$0, %eax
	call	_ZN6Logger3logEPKcz@PLT
	.loc 1 128 342 discriminator 1
	leaq	.LC30(%rip), %rax
	movq	%rax, %rcx
	movl	$128, %edx
	leaq	.LC4(%rip), %rax
	movq	%rax, %rsi
	leaq	.LC5(%rip), %rax
	movq	%rax, %rdi
	movl	$0, %eax
	call	printf@PLT
	.loc 1 128 436 discriminator 1
	call	_ZN6Logger11getInstanceEv@PLT
	movq	%rax, %rbx
	.loc 1 128 442 discriminator 1
	movl	$14, %edi
	call	strerror@PLT
	movq	%rax, %rcx
	movl	$14, %edx
	leaq	.LC6(%rip), %rax
	movq	%rax, %rsi
	movq	%rbx, %rdi
	movl	$0, %eax
	call	_ZN6Logger3logEPKcz@PLT
	.loc 1 128 27 discriminator 1
	call	_ZN6Logger11getInstanceEv@PLT
	movq	%rax, %rdi
	.loc 1 128 33 discriminator 1
	movl	$128, %ecx
	leaq	.LC31(%rip), %rax
	movq	%rax, %rdx
	leaq	.LC8(%rip), %rax
	movq	%rax, %rsi
	movl	$0, %eax
	call	_ZN6Logger3logEPKcz@PLT
	.loc 1 128 92 discriminator 1
	leaq	.LC9(%rip), %rax
	movq	%rax, %rdi
	call	system@PLT
	.loc 1 128 134 discriminator 1
	call	_ZN6Logger11getInstanceEv@PLT
	.loc 1 128 156 discriminator 1
	call	_ZN6Logger11getInstanceEv@PLT
	movq	%rax, %rbx
	.loc 1 128 169 discriminator 1
	movl	$128, %r9d
	leaq	.LC31(%rip), %r8
	movl	$128, %ecx
	leaq	.LC4(%rip), %rax
	movq	%rax, %rdx
	leaq	.LC10(%rip), %rax
	movq	%rax, %rsi
	movl	$-1, %edi
	movl	$0, %eax
	call	_Z6MsgRetiPKcz@PLT
	movl	%eax, %esi
	subq	$8, %rsp
	pushq	$128
	leaq	.LC31(%rip), %r9
	movl	$128, %r8d
	leaq	.LC4(%rip), %rax
	movq	%rax, %rcx
	leaq	.LC11(%rip), %rax
	movq	%rax, %rdx
	movq	%rbx, %rdi
	movl	$0, %eax
	call	_ZN6Logger9LogMsgRetEiPKcz@PLT
	addq	$16, %rsp
	.loc 1 128 338 discriminator 1
	jmp	.L36
.L35:
	.loc 1 130 58
	call	_ZN6Logger11getInstanceEv@PLT
	movq	%rax, %rdi
	.loc 1 130 69
	movl	$130, %r9d
	leaq	.LC31(%rip), %r8
	leaq	.LC4(%rip), %rax
	movq	%rax, %rcx
	movl	$8, %edx
	movl	$10, %esi
	call	_ZN6Logger7CAL_LOGEmmPKcS1_i@PLT
	.loc 1 130 24
	movq	-24(%rbp), %rdx
	movq	%rax, (%rdx)
	.loc 1 131 18
	movq	-24(%rbp), %rax
	movq	(%rax), %rax
	.loc 1 131 5
	testq	%rax, %rax
	jne	.L37
	.loc 1 132 35
	call	_ZN6Logger11getInstanceEv@PLT
	.loc 1 132 57
	call	_ZN6Logger11getInstanceEv@PLT
	movq	%rax, %rbx
	.loc 1 132 70
	movl	$132, %r9d
	leaq	.LC31(%rip), %r8
	movl	$132, %ecx
	leaq	.LC4(%rip), %rax
	movq	%rax, %rdx
	leaq	.LC10(%rip), %rax
	movq	%rax, %rsi
	movl	$-1, %edi
	movl	$0, %eax
	call	_Z6MsgRetiPKcz@PLT
	movl	%eax, %esi
	subq	$8, %rsp
	pushq	$132
	leaq	.LC31(%rip), %r9
	movl	$132, %r8d
	leaq	.LC4(%rip), %rax
	movq	%rax, %rcx
	leaq	.LC11(%rip), %rax
	movq	%rax, %rdx
	movq	%rbx, %rdi
	movl	$0, %eax
	call	_ZN6Logger9LogMsgRetEiPKcz@PLT
	addq	$16, %rsp
	.loc 1 132 239
	jmp	.L36
.L37:
	.loc 1 134 23
	movq	-24(%rbp), %rax
	movl	$10, 8(%rax)
	.loc 1 135 31
	movq	-24(%rbp), %rax
	movl	$0, 16(%rax)
	.loc 1 137 12
	movl	$0, %eax
.L36:
	.loc 1 138 5
	movq	-8(%rbp), %rbx
	leave
	.cfi_def_cfa 7, 8
	ret
	.cfi_endproc
.LFE2276:
	.size	_Z12VarTabelCtorP8VarTabel, .-_Z12VarTabelCtorP8VarTabel
	.section	.rodata
	.align 8
.LC32:
	.string	"int AddVarLabel(VarLabel*, VarTabel*)"
.LC33:
	.string	"AddVarLabel"
	.align 8
.LC34:
	.string	"%s:%d::CHECK: ResizeVarTabel(tabel) == SUCCESS is false\n"
	.text
	.globl	_Z11AddVarLabelP8VarLabelP8VarTabel
	.type	_Z11AddVarLabelP8VarLabelP8VarTabel, @function
_Z11AddVarLabelP8VarLabelP8VarTabel:
.LFB2277:
	.loc 1 141 5
	.cfi_startproc
	endbr64
	pushq	%rbp
	.cfi_def_cfa_offset 16
	.cfi_offset 6, -16
	movq	%rsp, %rbp
	.cfi_def_cfa_register 6
	pushq	%rbx
	subq	$24, %rsp
	.cfi_offset 3, -24
	movq	%rdi, -24(%rbp)
	movq	%rsi, -32(%rbp)
	.loc 1 142 10
	cmpq	$0, -24(%rbp)
	jne	.L39
	.loc 1 142 45 discriminator 1
	call	_ZN6Logger11getInstanceEv@PLT
	movq	%rax, %rcx
	.loc 1 142 51 discriminator 1
	leaq	.LC22(%rip), %rax
	movq	%rax, %rdx
	leaq	.LC1(%rip), %rax
	movq	%rax, %rsi
	movq	%rcx, %rdi
	movl	$0, %eax
	call	_ZN6Logger3logEPKcz@PLT
	.loc 1 142 109 discriminator 1
	leaq	.LC22(%rip), %rax
	movq	%rax, %rsi
	leaq	.LC2(%rip), %rax
	movq	%rax, %rdi
	movl	$0, %eax
	call	printf@PLT
	.loc 1 142 255 discriminator 1
	call	_ZN6Logger11getInstanceEv@PLT
	movq	%rax, %rdi
	.loc 1 142 261 discriminator 1
	leaq	.LC32(%rip), %r8
	movl	$142, %ecx
	leaq	.LC4(%rip), %rax
	movq	%rax, %rdx
	leaq	.LC5(%rip), %rax
	movq	%rax, %rsi
	movl	$0, %eax
	call	_ZN6Logger3logEPKcz@PLT
	.loc 1 142 342 discriminator 1
	leaq	.LC32(%rip), %rax
	movq	%rax, %rcx
	movl	$142, %edx
	leaq	.LC4(%rip), %rax
	movq	%rax, %rsi
	leaq	.LC5(%rip), %rax
	movq	%rax, %rdi
	movl	$0, %eax
	call	printf@PLT
	.loc 1 142 436 discriminator 1
	call	_ZN6Logger11getInstanceEv@PLT
	movq	%rax, %rbx
	.loc 1 142 442 discriminator 1
	movl	$14, %edi
	call	strerror@PLT
	movq	%rax, %rcx
	movl	$14, %edx
	leaq	.LC6(%rip), %rax
	movq	%rax, %rsi
	movq	%rbx, %rdi
	movl	$0, %eax
	call	_ZN6Logger3logEPKcz@PLT
	.loc 1 142 27 discriminator 1
	call	_ZN6Logger11getInstanceEv@PLT
	movq	%rax, %rdi
	.loc 1 142 33 discriminator 1
	movl	$142, %ecx
	leaq	.LC33(%rip), %rax
	movq	%rax, %rdx
	leaq	.LC8(%rip), %rax
	movq	%rax, %rsi
	movl	$0, %eax
	call	_ZN6Logger3logEPKcz@PLT
	.loc 1 142 92 discriminator 1
	leaq	.LC9(%rip), %rax
	movq	%rax, %rdi
	call	system@PLT
	.loc 1 142 134 discriminator 1
	call	_ZN6Logger11getInstanceEv@PLT
	.loc 1 142 156 discriminator 1
	call	_ZN6Logger11getInstanceEv@PLT
	movq	%rax, %rbx
	.loc 1 142 169 discriminator 1
	movl	$142, %r9d
	leaq	.LC33(%rip), %r8
	movl	$142, %ecx
	leaq	.LC4(%rip), %rax
	movq	%rax, %rdx
	leaq	.LC10(%rip), %rax
	movq	%rax, %rsi
	movl	$-1, %edi
	movl	$0, %eax
	call	_Z6MsgRetiPKcz@PLT
	movl	%eax, %esi
	subq	$8, %rsp
	pushq	$142
	leaq	.LC33(%rip), %r9
	movl	$142, %r8d
	leaq	.LC4(%rip), %rax
	movq	%rax, %rcx
	leaq	.LC11(%rip), %rax
	movq	%rax, %rdx
	movq	%rbx, %rdi
	movl	$0, %eax
	call	_ZN6Logger9LogMsgRetEiPKcz@PLT
	addq	$16, %rsp
	.loc 1 142 338 discriminator 1
	jmp	.L40
.L39:
	.loc 1 143 10
	cmpq	$0, -32(%rbp)
	jne	.L41
	.loc 1 143 45 discriminator 1
	call	_ZN6Logger11getInstanceEv@PLT
	movq	%rax, %rcx
	.loc 1 143 51 discriminator 1
	leaq	.LC0(%rip), %rax
	movq	%rax, %rdx
	leaq	.LC1(%rip), %rax
	movq	%rax, %rsi
	movq	%rcx, %rdi
	movl	$0, %eax
	call	_ZN6Logger3logEPKcz@PLT
	.loc 1 143 109 discriminator 1
	leaq	.LC0(%rip), %rax
	movq	%rax, %rsi
	leaq	.LC2(%rip), %rax
	movq	%rax, %rdi
	movl	$0, %eax
	call	printf@PLT
	.loc 1 143 255 discriminator 1
	call	_ZN6Logger11getInstanceEv@PLT
	movq	%rax, %rdi
	.loc 1 143 261 discriminator 1
	leaq	.LC32(%rip), %r8
	movl	$143, %ecx
	leaq	.LC4(%rip), %rax
	movq	%rax, %rdx
	leaq	.LC5(%rip), %rax
	movq	%rax, %rsi
	movl	$0, %eax
	call	_ZN6Logger3logEPKcz@PLT
	.loc 1 143 342 discriminator 1
	leaq	.LC32(%rip), %rax
	movq	%rax, %rcx
	movl	$143, %edx
	leaq	.LC4(%rip), %rax
	movq	%rax, %rsi
	leaq	.LC5(%rip), %rax
	movq	%rax, %rdi
	movl	$0, %eax
	call	printf@PLT
	.loc 1 143 436 discriminator 1
	call	_ZN6Logger11getInstanceEv@PLT
	movq	%rax, %rbx
	.loc 1 143 442 discriminator 1
	movl	$14, %edi
	call	strerror@PLT
	movq	%rax, %rcx
	movl	$14, %edx
	leaq	.LC6(%rip), %rax
	movq	%rax, %rsi
	movq	%rbx, %rdi
	movl	$0, %eax
	call	_ZN6Logger3logEPKcz@PLT
	.loc 1 143 27 discriminator 1
	call	_ZN6Logger11getInstanceEv@PLT
	movq	%rax, %rdi
	.loc 1 143 33 discriminator 1
	movl	$143, %ecx
	leaq	.LC33(%rip), %rax
	movq	%rax, %rdx
	leaq	.LC8(%rip), %rax
	movq	%rax, %rsi
	movl	$0, %eax
	call	_ZN6Logger3logEPKcz@PLT
	.loc 1 143 92 discriminator 1
	leaq	.LC9(%rip), %rax
	movq	%rax, %rdi
	call	system@PLT
	.loc 1 143 134 discriminator 1
	call	_ZN6Logger11getInstanceEv@PLT
	.loc 1 143 156 discriminator 1
	call	_ZN6Logger11getInstanceEv@PLT
	movq	%rax, %rbx
	.loc 1 143 169 discriminator 1
	movl	$143, %r9d
	leaq	.LC33(%rip), %r8
	movl	$143, %ecx
	leaq	.LC4(%rip), %rax
	movq	%rax, %rdx
	leaq	.LC10(%rip), %rax
	movq	%rax, %rsi
	movl	$-1, %edi
	movl	$0, %eax
	call	_Z6MsgRetiPKcz@PLT
	movl	%eax, %esi
	subq	$8, %rsp
	pushq	$143
	leaq	.LC33(%rip), %r9
	movl	$143, %r8d
	leaq	.LC4(%rip), %rax
	movq	%rax, %rcx
	leaq	.LC11(%rip), %rax
	movq	%rax, %rdx
	movq	%rbx, %rdi
	movl	$0, %eax
	call	_ZN6Logger9LogMsgRetEiPKcz@PLT
	addq	$16, %rsp
	.loc 1 143 338 discriminator 1
	jmp	.L40
.L41:
	.loc 1 145 17
	movq	-32(%rbp), %rax
	movl	8(%rax), %edx
	.loc 1 145 38
	movq	-32(%rbp), %rax
	movl	16(%rax), %eax
	.loc 1 145 5
	cmpl	%eax, %edx
	jg	.L42
	.loc 1 146 33
	movq	-32(%rbp), %rax
	movq	%rax, %rdi
	call	_ZL14ResizeVarTabelP8VarTabel
	.loc 1 146 41
	testl	%eax, %eax
	setne	%al
	.loc 1 146 14
	testb	%al, %al
	je	.L42
	.loc 1 146 74 discriminator 1
	call	_ZN6Logger11getInstanceEv@PLT
	movq	%rax, %rdi
	.loc 1 146 80 discriminator 1
	movl	$146, %ecx
	leaq	.LC33(%rip), %rax
	movq	%rax, %rdx
	leaq	.LC34(%rip), %rax
	movq	%rax, %rsi
	movl	$0, %eax
	call	_ZN6Logger3logEPKcz@PLT
	.loc 1 146 191 discriminator 1
	call	_ZN6Logger11getInstanceEv@PLT
	.loc 1 146 213 discriminator 1
	call	_ZN6Logger11getInstanceEv@PLT
	movq	%rax, %rbx
	.loc 1 146 226 discriminator 1
	movl	$146, %r9d
	leaq	.LC33(%rip), %r8
	movl	$146, %ecx
	leaq	.LC4(%rip), %rax
	movq	%rax, %rdx
	leaq	.LC10(%rip), %rax
	movq	%rax, %rsi
	movl	$-1, %edi
	movl	$0, %eax
	call	_Z6MsgRetiPKcz@PLT
	movl	%eax, %esi
	subq	$8, %rsp
	pushq	$146
	leaq	.LC33(%rip), %r9
	movl	$146, %r8d
	leaq	.LC4(%rip), %rax
	movq	%rax, %rcx
	leaq	.LC11(%rip), %rax
	movq	%rax, %rdx
	movq	%rbx, %rdi
	movl	$0, %eax
	call	_ZN6Logger9LogMsgRetEiPKcz@PLT
	addq	$16, %rsp
	.loc 1 146 395 discriminator 1
	jmp	.L40
.L42:
	.loc 1 148 15
	movq	-32(%rbp), %rax
	movq	(%rax), %rdx
	.loc 1 148 36
	movq	-32(%rbp), %rax
	movl	16(%rax), %eax
	cltq
	.loc 1 148 26
	salq	$3, %rax
	addq	%rax, %rdx
	.loc 1 148 55
	movq	-24(%rbp), %rax
	movq	%rax, (%rdx)
	.loc 1 149 13
	movq	-32(%rbp), %rax
	movl	16(%rax), %eax
	.loc 1 149 30
	leal	1(%rax), %edx
	movq	-32(%rbp), %rax
	movl	%edx, 16(%rax)
	.loc 1 151 12
	movl	$0, %eax
.L40:
	.loc 1 152 5
	movq	-8(%rbp), %rbx
	leave
	.cfi_def_cfa 7, 8
	ret
	.cfi_endproc
.LFE2277:
	.size	_Z11AddVarLabelP8VarLabelP8VarTabel, .-_Z11AddVarLabelP8VarLabelP8VarTabel
	.section	.rodata
.LC35:
	.string	"int ResizeVarTabel(VarTabel*)"
.LC36:
	.string	"ResizeVarTabel"
	.text
	.type	_ZL14ResizeVarTabelP8VarTabel, @function
_ZL14ResizeVarTabelP8VarTabel:
.LFB2278:
	.loc 1 155 5
	.cfi_startproc
	endbr64
	pushq	%rbp
	.cfi_def_cfa_offset 16
	.cfi_offset 6, -16
	movq	%rsp, %rbp
	.cfi_def_cfa_register 6
	pushq	%rbx
	subq	$40, %rsp
	.cfi_offset 3, -24
	movq	%rdi, -40(%rbp)
	.loc 1 156 10
	cmpq	$0, -40(%rbp)
	jne	.L44
	.loc 1 156 45 discriminator 1
	call	_ZN6Logger11getInstanceEv@PLT
	movq	%rax, %rcx
	.loc 1 156 51 discriminator 1
	leaq	.LC0(%rip), %rax
	movq	%rax, %rdx
	leaq	.LC1(%rip), %rax
	movq	%rax, %rsi
	movq	%rcx, %rdi
	movl	$0, %eax
	call	_ZN6Logger3logEPKcz@PLT
	.loc 1 156 109 discriminator 1
	leaq	.LC0(%rip), %rax
	movq	%rax, %rsi
	leaq	.LC2(%rip), %rax
	movq	%rax, %rdi
	movl	$0, %eax
	call	printf@PLT
	.loc 1 156 255 discriminator 1
	call	_ZN6Logger11getInstanceEv@PLT
	movq	%rax, %rdi
	.loc 1 156 261 discriminator 1
	leaq	.LC35(%rip), %r8
	movl	$156, %ecx
	leaq	.LC4(%rip), %rax
	movq	%rax, %rdx
	leaq	.LC5(%rip), %rax
	movq	%rax, %rsi
	movl	$0, %eax
	call	_ZN6Logger3logEPKcz@PLT
	.loc 1 156 342 discriminator 1
	leaq	.LC35(%rip), %rax
	movq	%rax, %rcx
	movl	$156, %edx
	leaq	.LC4(%rip), %rax
	movq	%rax, %rsi
	leaq	.LC5(%rip), %rax
	movq	%rax, %rdi
	movl	$0, %eax
	call	printf@PLT
	.loc 1 156 436 discriminator 1
	call	_ZN6Logger11getInstanceEv@PLT
	movq	%rax, %rbx
	.loc 1 156 442 discriminator 1
	movl	$14, %edi
	call	strerror@PLT
	movq	%rax, %rcx
	movl	$14, %edx
	leaq	.LC6(%rip), %rax
	movq	%rax, %rsi
	movq	%rbx, %rdi
	movl	$0, %eax
	call	_ZN6Logger3logEPKcz@PLT
	.loc 1 156 27 discriminator 1
	call	_ZN6Logger11getInstanceEv@PLT
	movq	%rax, %rdi
	.loc 1 156 33 discriminator 1
	movl	$156, %ecx
	leaq	.LC36(%rip), %rax
	movq	%rax, %rdx
	leaq	.LC8(%rip), %rax
	movq	%rax, %rsi
	movl	$0, %eax
	call	_ZN6Logger3logEPKcz@PLT
	.loc 1 156 92 discriminator 1
	leaq	.LC9(%rip), %rax
	movq	%rax, %rdi
	call	system@PLT
	.loc 1 156 134 discriminator 1
	call	_ZN6Logger11getInstanceEv@PLT
	.loc 1 156 156 discriminator 1
	call	_ZN6Logger11getInstanceEv@PLT
	movq	%rax, %rbx
	.loc 1 156 169 discriminator 1
	movl	$156, %r9d
	leaq	.LC36(%rip), %r8
	movl	$156, %ecx
	leaq	.LC4(%rip), %rax
	movq	%rax, %rdx
	leaq	.LC10(%rip), %rax
	movq	%rax, %rsi
	movl	$-1, %edi
	movl	$0, %eax
	call	_Z6MsgRetiPKcz@PLT
	movl	%eax, %esi
	subq	$8, %rsp
	pushq	$156
	leaq	.LC36(%rip), %r9
	movl	$156, %r8d
	leaq	.LC4(%rip), %rax
	movq	%rax, %rcx
	leaq	.LC11(%rip), %rax
	movq	%rax, %rdx
	movq	%rbx, %rdi
	movl	$0, %eax
	call	_ZN6Logger9LogMsgRetEiPKcz@PLT
	addq	$16, %rsp
	.loc 1 156 338 discriminator 1
	jmp	.L45
.L44:
	.loc 1 158 59
	call	_ZN6Logger11getInstanceEv@PLT
	movq	%rax, %rdi
	.loc 1 158 101
	movq	-40(%rbp), %rax
	movl	8(%rax), %eax
	.loc 1 158 111
	addl	%eax, %eax
	cltq
	.loc 1 158 72
	leaq	0(,%rax,8), %rdx
	.loc 1 158 81
	movq	-40(%rbp), %rax
	movq	(%rax), %rax
	.loc 1 158 72
	movl	$158, %r9d
	leaq	.LC36(%rip), %r8
	leaq	.LC4(%rip), %rcx
	movq	%rax, %rsi
	call	_ZN6Logger9RECAL_LOGEPvmPKcS2_i@PLT
	movq	%rax, -24(%rbp)
	.loc 1 159 5
	cmpq	$0, -24(%rbp)
	jne	.L46
	.loc 1 160 35
	call	_ZN6Logger11getInstanceEv@PLT
	.loc 1 160 57
	call	_ZN6Logger11getInstanceEv@PLT
	movq	%rax, %rbx
	.loc 1 160 70
	movl	$160, %r9d
	leaq	.LC36(%rip), %r8
	movl	$160, %ecx
	leaq	.LC4(%rip), %rax
	movq	%rax, %rdx
	leaq	.LC10(%rip), %rax
	movq	%rax, %rsi
	movl	$-1, %edi
	movl	$0, %eax
	call	_Z6MsgRetiPKcz@PLT
	movl	%eax, %esi
	subq	$8, %rsp
	pushq	$160
	leaq	.LC36(%rip), %r9
	movl	$160, %r8d
	leaq	.LC4(%rip), %rax
	movq	%rax, %rcx
	leaq	.LC11(%rip), %rax
	movq	%rax, %rdx
	movq	%rbx, %rdi
	movl	$0, %eax
	call	_ZN6Logger9LogMsgRetEiPKcz@PLT
	addq	$16, %rsp
	.loc 1 160 239
	jmp	.L45
.L46:
	.loc 1 162 24
	movq	-40(%rbp), %rax
	movq	-24(%rbp), %rdx
	movq	%rdx, (%rax)
	.loc 1 163 24
	movq	-40(%rbp), %rax
	movl	8(%rax), %eax
	leal	(%rax,%rax), %edx
	movq	-40(%rbp), %rax
	movl	%edx, 8(%rax)
	.loc 1 165 12
	movl	$0, %eax
.L45:
	.loc 1 166 5
	movq	-8(%rbp), %rbx
	leave
	.cfi_def_cfa 7, 8
	ret
	.cfi_endproc
.LFE2278:
	.size	_ZL14ResizeVarTabelP8VarTabel, .-_ZL14ResizeVarTabelP8VarTabel
	.section	.rodata
	.align 8
.LC37:
	.string	"VarLabel* IsVarLabel(int, VarTabel*)"
.LC38:
	.string	"IsVarLabel"
	.align 8
.LC39:
	.string	"Empty label array in var tabel %p\n"
	.text
	.globl	_Z10IsVarLabeliP8VarTabel
	.type	_Z10IsVarLabeliP8VarTabel, @function
_Z10IsVarLabeliP8VarTabel:
.LFB2279:
	.loc 1 169 9
	.cfi_startproc
	endbr64
	pushq	%rbp
	.cfi_def_cfa_offset 16
	.cfi_offset 6, -16
	movq	%rsp, %rbp
	.cfi_def_cfa_register 6
	pushq	%rbx
	subq	$40, %rsp
	.cfi_offset 3, -24
	movl	%edi, -36(%rbp)
	movq	%rsi, -48(%rbp)
	.loc 1 170 14
	cmpq	$0, -48(%rbp)
	jne	.L48
	.loc 1 170 49 discriminator 1
	call	_ZN6Logger11getInstanceEv@PLT
	movq	%rax, %rcx
	.loc 1 170 55 discriminator 1
	leaq	.LC0(%rip), %rax
	movq	%rax, %rdx
	leaq	.LC1(%rip), %rax
	movq	%rax, %rsi
	movq	%rcx, %rdi
	movl	$0, %eax
	call	_ZN6Logger3logEPKcz@PLT
	.loc 1 170 113 discriminator 1
	leaq	.LC0(%rip), %rax
	movq	%rax, %rsi
	leaq	.LC2(%rip), %rax
	movq	%rax, %rdi
	movl	$0, %eax
	call	printf@PLT
	.loc 1 170 259 discriminator 1
	call	_ZN6Logger11getInstanceEv@PLT
	movq	%rax, %rdi
	.loc 1 170 265 discriminator 1
	leaq	.LC37(%rip), %r8
	movl	$170, %ecx
	leaq	.LC4(%rip), %rax
	movq	%rax, %rdx
	leaq	.LC5(%rip), %rax
	movq	%rax, %rsi
	movl	$0, %eax
	call	_ZN6Logger3logEPKcz@PLT
	.loc 1 170 346 discriminator 1
	leaq	.LC37(%rip), %rax
	movq	%rax, %rcx
	movl	$170, %edx
	leaq	.LC4(%rip), %rax
	movq	%rax, %rsi
	leaq	.LC5(%rip), %rax
	movq	%rax, %rdi
	movl	$0, %eax
	call	printf@PLT
	.loc 1 170 440 discriminator 1
	call	_ZN6Logger11getInstanceEv@PLT
	movq	%rax, %rbx
	.loc 1 170 446 discriminator 1
	movl	$14, %edi
	call	strerror@PLT
	movq	%rax, %rcx
	movl	$14, %edx
	leaq	.LC6(%rip), %rax
	movq	%rax, %rsi
	movq	%rbx, %rdi
	movl	$0, %eax
	call	_ZN6Logger3logEPKcz@PLT
	.loc 1 170 31 discriminator 1
	call	_ZN6Logger11getInstanceEv@PLT
	movq	%rax, %rdi
	.loc 1 170 37 discriminator 1
	movl	$170, %ecx
	leaq	.LC38(%rip), %rax
	movq	%rax, %rdx
	leaq	.LC8(%rip), %rax
	movq	%rax, %rsi
	movl	$0, %eax
	call	_ZN6Logger3logEPKcz@PLT
	.loc 1 170 96 discriminator 1
	leaq	.LC9(%rip), %rax
	movq	%rax, %rdi
	call	system@PLT
	.loc 1 170 138 discriminator 1
	call	_ZN6Logger11getInstanceEv@PLT
	movq	%rax, %rdi
	.loc 1 170 154 discriminator 1
	movl	$170, %ecx
	leaq	.LC38(%rip), %rax
	movq	%rax, %rdx
	leaq	.LC15(%rip), %rax
	movq	%rax, %rsi
	movl	$0, %eax
	call	_ZN6Logger13LogMsgNullRetEPKcz@PLT
	.loc 1 170 213 discriminator 1
	movl	$170, %r8d
	leaq	.LC38(%rip), %rax
	movq	%rax, %rcx
	movl	$170, %edx
	leaq	.LC4(%rip), %rax
	movq	%rax, %rsi
	leaq	.LC16(%rip), %rax
	movq	%rax, %rdi
	movl	$0, %eax
	call	_Z13LogMsgNullRetPKcz@PLT
	.loc 1 170 310 discriminator 1
	movl	$0, %eax
	jmp	.L49
.L48:
	.loc 1 172 13
	movq	-48(%rbp), %rax
	movl	16(%rax), %eax
	movl	%eax, -28(%rbp)
	.loc 1 173 9
	cmpl	$0, -28(%rbp)
	jg	.L50
	.loc 1 174 19
	movl	$0, %eax
	jmp	.L49
.L50:
	.loc 1 176 20
	movq	-48(%rbp), %rax
	movq	(%rax), %rax
	movq	%rax, -24(%rbp)
	.loc 1 177 9
	cmpq	$0, -24(%rbp)
	jne	.L51
	.loc 1 179 21
	leaq	.LC38(%rip), %rax
	movq	%rax, %rsi
	leaq	.LC17(%rip), %rax
	movq	%rax, %rdi
	movl	$0, %eax
	call	printf@PLT
	.loc 1 179 49
	movq	-48(%rbp), %rax
	movq	%rax, %rsi
	leaq	.LC39(%rip), %rax
	movq	%rax, %rdi
	movl	$0, %eax
	call	printf@PLT
	.loc 1 180 39
	call	_ZN6Logger11getInstanceEv@PLT
	movq	%rax, %rdi
	.loc 1 180 55
	movl	$180, %ecx
	leaq	.LC38(%rip), %rax
	movq	%rax, %rdx
	leaq	.LC15(%rip), %rax
	movq	%rax, %rsi
	movl	$0, %eax
	call	_ZN6Logger13LogMsgNullRetEPKcz@PLT
	.loc 1 180 114
	movl	$180, %r8d
	leaq	.LC38(%rip), %rax
	movq	%rax, %rcx
	movl	$180, %edx
	leaq	.LC4(%rip), %rax
	movq	%rax, %rsi
	leaq	.LC16(%rip), %rax
	movq	%rax, %rdi
	movl	$0, %eax
	call	_Z13LogMsgNullRetPKcz@PLT
	.loc 1 180 211
	movl	$0, %eax
	jmp	.L49
.L51:
.LBB3:
	.loc 1 183 17
	movl	$0, -32(%rbp)
	.loc 1 183 9
	jmp	.L52
.L54:
	.loc 1 185 43
	movl	-32(%rbp), %eax
	cltq
	.loc 1 185 41
	leaq	0(,%rax,8), %rdx
	movq	-24(%rbp), %rax
	addq	%rdx, %rax
	.loc 1 185 29
	movq	(%rax), %rax
	.loc 1 185 48
	movl	(%rax), %eax
	.loc 1 185 13
	cmpl	%eax, -36(%rbp)
	jne	.L53
	.loc 1 186 38
	movl	-32(%rbp), %eax
	cltq
	.loc 1 186 36
	leaq	0(,%rax,8), %rdx
	movq	-24(%rbp), %rax
	addq	%rdx, %rax
	.loc 1 186 39
	movq	(%rax), %rax
	jmp	.L49
.L53:
	.loc 1 183 9 discriminator 2
	addl	$1, -32(%rbp)
.L52:
	.loc 1 183 26 discriminator 1
	movl	-32(%rbp), %eax
	cmpl	-28(%rbp), %eax
	jl	.L54
.LBE3:
	.loc 1 189 15
	movl	$0, %eax
.L49:
	.loc 1 190 9
	movq	-8(%rbp), %rbx
	leave
	.cfi_def_cfa 7, 8
	ret
	.cfi_endproc
.LFE2279:
	.size	_Z10IsVarLabeliP8VarTabel, .-_Z10IsVarLabeliP8VarTabel
	.section	.rodata
	.align 8
.LC40:
	.string	"int AddVarLabel(int, VarTabel*)"
	.text
	.globl	_Z11AddVarLabeliP8VarTabel
	.type	_Z11AddVarLabeliP8VarTabel, @function
_Z11AddVarLabeliP8VarTabel:
.LFB2280:
	.loc 1 193 5
	.cfi_startproc
	endbr64
	pushq	%rbp
	.cfi_def_cfa_offset 16
	.cfi_offset 6, -16
	movq	%rsp, %rbp
	.cfi_def_cfa_register 6
	pushq	%rbx
	subq	$40, %rsp
	.cfi_offset 3, -24
	movl	%edi, -36(%rbp)
	movq	%rsi, -48(%rbp)
	.loc 1 194 10
	cmpq	$0, -48(%rbp)
	jne	.L56
	.loc 1 194 45 discriminator 1
	call	_ZN6Logger11getInstanceEv@PLT
	movq	%rax, %rcx
	.loc 1 194 51 discriminator 1
	leaq	.LC0(%rip), %rax
	movq	%rax, %rdx
	leaq	.LC1(%rip), %rax
	movq	%rax, %rsi
	movq	%rcx, %rdi
	movl	$0, %eax
	call	_ZN6Logger3logEPKcz@PLT
	.loc 1 194 109 discriminator 1
	leaq	.LC0(%rip), %rax
	movq	%rax, %rsi
	leaq	.LC2(%rip), %rax
	movq	%rax, %rdi
	movl	$0, %eax
	call	printf@PLT
	.loc 1 194 255 discriminator 1
	call	_ZN6Logger11getInstanceEv@PLT
	movq	%rax, %rdi
	.loc 1 194 261 discriminator 1
	leaq	.LC40(%rip), %r8
	movl	$194, %ecx
	leaq	.LC4(%rip), %rax
	movq	%rax, %rdx
	leaq	.LC5(%rip), %rax
	movq	%rax, %rsi
	movl	$0, %eax
	call	_ZN6Logger3logEPKcz@PLT
	.loc 1 194 342 discriminator 1
	leaq	.LC40(%rip), %rax
	movq	%rax, %rcx
	movl	$194, %edx
	leaq	.LC4(%rip), %rax
	movq	%rax, %rsi
	leaq	.LC5(%rip), %rax
	movq	%rax, %rdi
	movl	$0, %eax
	call	printf@PLT
	.loc 1 194 436 discriminator 1
	call	_ZN6Logger11getInstanceEv@PLT
	movq	%rax, %rbx
	.loc 1 194 442 discriminator 1
	movl	$14, %edi
	call	strerror@PLT
	movq	%rax, %rcx
	movl	$14, %edx
	leaq	.LC6(%rip), %rax
	movq	%rax, %rsi
	movq	%rbx, %rdi
	movl	$0, %eax
	call	_ZN6Logger3logEPKcz@PLT
	.loc 1 194 27 discriminator 1
	call	_ZN6Logger11getInstanceEv@PLT
	movq	%rax, %rdi
	.loc 1 194 33 discriminator 1
	movl	$194, %ecx
	leaq	.LC33(%rip), %rax
	movq	%rax, %rdx
	leaq	.LC8(%rip), %rax
	movq	%rax, %rsi
	movl	$0, %eax
	call	_ZN6Logger3logEPKcz@PLT
	.loc 1 194 92 discriminator 1
	leaq	.LC9(%rip), %rax
	movq	%rax, %rdi
	call	system@PLT
	.loc 1 194 134 discriminator 1
	call	_ZN6Logger11getInstanceEv@PLT
	.loc 1 194 156 discriminator 1
	call	_ZN6Logger11getInstanceEv@PLT
	movq	%rax, %rbx
	.loc 1 194 169 discriminator 1
	movl	$194, %r9d
	leaq	.LC33(%rip), %r8
	movl	$194, %ecx
	leaq	.LC4(%rip), %rax
	movq	%rax, %rdx
	leaq	.LC10(%rip), %rax
	movq	%rax, %rsi
	movl	$-1, %edi
	movl	$0, %eax
	call	_Z6MsgRetiPKcz@PLT
	movl	%eax, %esi
	subq	$8, %rsp
	pushq	$194
	leaq	.LC33(%rip), %r9
	movl	$194, %r8d
	leaq	.LC4(%rip), %rax
	movq	%rax, %rcx
	leaq	.LC11(%rip), %rax
	movq	%rax, %rdx
	movq	%rbx, %rdi
	movl	$0, %eax
	call	_ZN6Logger9LogMsgRetEiPKcz@PLT
	addq	$16, %rsp
	.loc 1 194 338 discriminator 1
	jmp	.L57
.L56:
	.loc 1 196 17
	movq	-48(%rbp), %rax
	movl	8(%rax), %edx
	.loc 1 196 38
	movq	-48(%rbp), %rax
	movl	16(%rax), %eax
	.loc 1 196 5
	cmpl	%eax, %edx
	jg	.L58
	.loc 1 197 33
	movq	-48(%rbp), %rax
	movq	%rax, %rdi
	call	_ZL14ResizeVarTabelP8VarTabel
	.loc 1 197 41
	testl	%eax, %eax
	setne	%al
	.loc 1 197 14
	testb	%al, %al
	je	.L58
	.loc 1 197 74 discriminator 1
	call	_ZN6Logger11getInstanceEv@PLT
	movq	%rax, %rdi
	.loc 1 197 80 discriminator 1
	movl	$197, %ecx
	leaq	.LC33(%rip), %rax
	movq	%rax, %rdx
	leaq	.LC34(%rip), %rax
	movq	%rax, %rsi
	movl	$0, %eax
	call	_ZN6Logger3logEPKcz@PLT
	.loc 1 197 191 discriminator 1
	call	_ZN6Logger11getInstanceEv@PLT
	.loc 1 197 213 discriminator 1
	call	_ZN6Logger11getInstanceEv@PLT
	movq	%rax, %rbx
	.loc 1 197 226 discriminator 1
	movl	$197, %r9d
	leaq	.LC33(%rip), %r8
	movl	$197, %ecx
	leaq	.LC4(%rip), %rax
	movq	%rax, %rdx
	leaq	.LC10(%rip), %rax
	movq	%rax, %rsi
	movl	$-1, %edi
	movl	$0, %eax
	call	_Z6MsgRetiPKcz@PLT
	movl	%eax, %esi
	subq	$8, %rsp
	pushq	$197
	leaq	.LC33(%rip), %r9
	movl	$197, %r8d
	leaq	.LC4(%rip), %rax
	movq	%rax, %rcx
	leaq	.LC11(%rip), %rax
	movq	%rax, %rdx
	movq	%rbx, %rdi
	movl	$0, %eax
	call	_ZN6Logger9LogMsgRetEiPKcz@PLT
	addq	$16, %rsp
	.loc 1 197 395 discriminator 1
	jmp	.L57
.L58:
	.loc 1 199 58
	call	_ZN6Logger11getInstanceEv@PLT
	movq	%rax, %rdi
	.loc 1 199 69
	movl	$199, %r9d
	leaq	.LC33(%rip), %r8
	leaq	.LC4(%rip), %rax
	movq	%rax, %rcx
	movl	$8, %edx
	movl	$1, %esi
	call	_ZN6Logger7CAL_LOGEmmPKcS1_i@PLT
	movq	%rax, -24(%rbp)
	.loc 1 201 5
	cmpq	$0, -24(%rbp)
	jne	.L59
	.loc 1 202 35
	call	_ZN6Logger11getInstanceEv@PLT
	.loc 1 202 57
	call	_ZN6Logger11getInstanceEv@PLT
	movq	%rax, %rbx
	.loc 1 202 70
	movl	$202, %r9d
	leaq	.LC33(%rip), %r8
	movl	$202, %ecx
	leaq	.LC4(%rip), %rax
	movq	%rax, %rdx
	leaq	.LC10(%rip), %rax
	movq	%rax, %rsi
	movl	$-1, %edi
	movl	$0, %eax
	call	_Z6MsgRetiPKcz@PLT
	movl	%eax, %esi
	subq	$8, %rsp
	pushq	$202
	leaq	.LC33(%rip), %r9
	movl	$202, %r8d
	leaq	.LC4(%rip), %rax
	movq	%rax, %rcx
	leaq	.LC11(%rip), %rax
	movq	%rax, %rdx
	movq	%rbx, %rdi
	movl	$0, %eax
	call	_ZN6Logger9LogMsgRetEiPKcz@PLT
	addq	$16, %rsp
	.loc 1 202 239
	jmp	.L57
.L59:
	.loc 1 204 24
	movq	-24(%rbp), %rax
	movl	-36(%rbp), %edx
	movl	%edx, (%rax)
	.loc 1 206 15
	movq	-48(%rbp), %rax
	movq	(%rax), %rdx
	.loc 1 206 36
	movq	-48(%rbp), %rax
	movl	16(%rax), %eax
	cltq
	.loc 1 206 26
	salq	$3, %rax
	addq	%rax, %rdx
	.loc 1 206 55
	movq	-24(%rbp), %rax
	movq	%rax, (%rdx)
	.loc 1 207 13
	movq	-48(%rbp), %rax
	movl	16(%rax), %eax
	.loc 1 207 30
	leal	1(%rax), %edx
	movq	-48(%rbp), %rax
	movl	%edx, 16(%rax)
	.loc 1 209 12
	movl	$0, %eax
.L57:
	.loc 1 210 5
	movq	-8(%rbp), %rbx
	leave
	.cfi_def_cfa 7, 8
	ret
	.cfi_endproc
.LFE2280:
	.size	_Z11AddVarLabeliP8VarTabel, .-_Z11AddVarLabeliP8VarTabel
	.type	_Z41__static_initialization_and_destruction_0ii, @function
_Z41__static_initialization_and_destruction_0ii:
.LFB2947:
	.loc 1 210 5
	.cfi_startproc
	endbr64
	pushq	%rbp
	.cfi_def_cfa_offset 16
	.cfi_offset 6, -16
	movq	%rsp, %rbp
	.cfi_def_cfa_register 6
	subq	$16, %rsp
	movl	%edi, -4(%rbp)
	movl	%esi, -8(%rbp)
	.loc 1 210 5
	cmpl	$1, -4(%rbp)
	jne	.L62
	.loc 1 210 5 is_stmt 0 discriminator 1
	cmpl	$65535, -8(%rbp)
	jne	.L62
	.file 2 "/usr/include/c++/11/iostream"
	.loc 2 74 25 is_stmt 1
	leaq	_ZStL8__ioinit(%rip), %rax
	movq	%rax, %rdi
	call	_ZNSt8ios_base4InitC1Ev@PLT
	leaq	__dso_handle(%rip), %rax
	movq	%rax, %rdx
	leaq	_ZStL8__ioinit(%rip), %rax
	movq	%rax, %rsi
	movq	_ZNSt8ios_base4InitD1Ev@GOTPCREL(%rip), %rax
	movq	%rax, %rdi
	call	__cxa_atexit@PLT
.L62:
	.loc 1 210 5
	nop
	leave
	.cfi_def_cfa 7, 8
	ret
	.cfi_endproc
.LFE2947:
	.size	_Z41__static_initialization_and_destruction_0ii, .-_Z41__static_initialization_and_destruction_0ii
	.type	_GLOBAL__sub_I__Z13FuncTabelCtorP9FuncTabel, @function
_GLOBAL__sub_I__Z13FuncTabelCtorP9FuncTabel:
.LFB2948:
	.loc 1 210 5
	.cfi_startproc
	endbr64
	pushq	%rbp
	.cfi_def_cfa_offset 16
	.cfi_offset 6, -16
	movq	%rsp, %rbp
	.cfi_def_cfa_register 6
	.loc 1 210 5
	movl	$65535, %esi
	movl	$1, %edi
	call	_Z41__static_initialization_and_destruction_0ii
	popq	%rbp
	.cfi_def_cfa 7, 8
	ret
	.cfi_endproc
.LFE2948:
	.size	_GLOBAL__sub_I__Z13FuncTabelCtorP9FuncTabel, .-_GLOBAL__sub_I__Z13FuncTabelCtorP9FuncTabel
	.section	.init_array,"aw"
	.align 8
	.quad	_GLOBAL__sub_I__Z13FuncTabelCtorP9FuncTabel
	.text
.Letext0:
	.file 3 "./headers/Tabels.h"
	.file 4 "<built-in>"
	.file 5 "/usr/lib/gcc/x86_64-linux-gnu/11/include/stddef.h"
	.file 6 "/usr/include/x86_64-linux-gnu/bits/types/wint_t.h"
	.file 7 "/usr/include/x86_64-linux-gnu/bits/types/__mbstate_t.h"
	.file 8 "/usr/include/x86_64-linux-gnu/bits/types/mbstate_t.h"
	.file 9 "/usr/include/x86_64-linux-gnu/bits/types/__FILE.h"
	.file 10 "/usr/include/x86_64-linux-gnu/bits/types/struct_FILE.h"
	.file 11 "/usr/include/x86_64-linux-gnu/bits/types/FILE.h"
	.file 12 "/usr/include/c++/11/cwchar"
	.file 13 "/usr/include/c++/11/type_traits"
	.file 14 "/usr/include/c++/11/bits/exception_ptr.h"
	.file 15 "/usr/include/x86_64-linux-gnu/c++/11/bits/c++config.h"
	.file 16 "/usr/include/c++/11/concepts"
	.file 17 "/usr/include/c++/11/bits/iterator_concepts.h"
	.file 18 "/usr/include/c++/11/bits/ranges_cmp.h"
	.file 19 "/usr/include/c++/11/compare"
	.file 20 "/usr/include/c++/11/debug/debug.h"
	.file 21 "/usr/include/c++/11/cstdint"
	.file 22 "/usr/include/c++/11/clocale"
	.file 23 "/usr/include/c++/11/cstdlib"
	.file 24 "/usr/include/c++/11/numbers"
	.file 25 "/usr/include/c++/11/cstdio"
	.file 26 "/usr/include/c++/11/bits/ios_base.h"
	.file 27 "/usr/include/c++/11/cwctype"
	.file 28 "/usr/include/wchar.h"
	.file 29 "/usr/include/x86_64-linux-gnu/bits/types/struct_tm.h"
	.file 30 "/usr/include/c++/11/bits/predefined_ops.h"
	.file 31 "/usr/include/c++/11/bits/ptr_traits.h"
	.file 32 "/usr/include/x86_64-linux-gnu/bits/types.h"
	.file 33 "/usr/include/x86_64-linux-gnu/bits/stdint-intn.h"
	.file 34 "/usr/include/x86_64-linux-gnu/bits/stdint-uintn.h"
	.file 35 "/usr/include/stdint.h"
	.file 36 "/usr/include/locale.h"
	.file 37 "/usr/include/stdlib.h"
	.file 38 "/usr/include/x86_64-linux-gnu/bits/types/__fpos_t.h"
	.file 39 "/usr/include/stdio.h"
	.file 40 "/usr/include/x86_64-linux-gnu/bits/wctype-wchar.h"
	.file 41 "/usr/include/wctype.h"
	.file 42 "./ATC/Logger/LogConfig.h"
	.file 43 "./ATC/RandomStuff/CommonEnums.h"
	.file 44 "./ATC/Logger/Logger.h"
	.file 45 "./ATC/Utils/Utils.h"
	.file 46 "/usr/include/string.h"
	.file 47 "/usr/include/c++/11/bits/algorithmfwd.h"
	.section	.note.GNU-stack,"",@progbits
	.section	.note.gnu.property,"a"
	.align 8
	.long	1f - 0f
	.long	4f - 1f
	.long	5
0:
	.string	"GNU"
1:
	.align 8
	.long	0xc0000002
	.long	3f - 2f
2:
	.long	0x3
3:
	.align 8
4:
