	.file	"Token.cpp"
	.text
.Ltext0:
	.file 0 "/home/arsenyfucker/Cprojects/Lang/Translator" "./src/Token.cpp"
	.local	_ZStL8__ioinit
	.comm	_ZStL8__ioinit,1,1
	.section	.rodata
	.align 16
	.type	_ZL12STD_LOG_NAME, @object
	.size	_ZL12STD_LOG_NAME, 18
_ZL12STD_LOG_NAME:
	.string	"./logs/stdlog.ars"
	.align 4
	.type	_ZL6CRINGE, @object
	.size	_ZL6CRINGE, 4
_ZL6CRINGE:
	.long	3565
.LC0:
	.string	"NewToken"
.LC1:
	.string	"./src/Token.cpp"
	.align 8
.LC2:
	.string	"%s:%d::CHECK: new_defnode is false\n"
	.align 8
.LC3:
	.string	"Couldn't allocate memory for new node\n"
.LC4:
	.string	"Returnig null ptr (%s:%d)"
	.align 8
.LC5:
	.string	"\033[94mReturnig null ptr %s:%d (%s:%d)\n\033[0m"
	.text
	.globl	_Z8NewTokeni10TokenValueP5TokenS1_
	.type	_Z8NewTokeni10TokenValueP5TokenS1_, @function
_Z8NewTokeni10TokenValueP5TokenS1_:
.LFB2270:
	.file 1 "./src/Token.cpp"
	.loc 1 7 5
	.cfi_startproc
	.cfi_personality 0x9b,DW.ref.__gxx_personality_v0
	.cfi_lsda 0x1b,.LLSDA2270
	endbr64
	pushq	%rbp
	.cfi_def_cfa_offset 16
	.cfi_offset 6, -16
	movq	%rsp, %rbp
	.cfi_def_cfa_register 6
	pushq	%rbx
	subq	$88, %rsp
	.cfi_offset 3, -24
	movl	%edi, -68(%rbp)
	movq	%rsi, -80(%rbp)
	movq	%rdx, -88(%rbp)
	movq	%rcx, -96(%rbp)
	.loc 1 8 47
	leaq	-48(%rbp), %rax
	leaq	.LC0(%rip), %rdx
	movl	$1, %esi
	movq	%rax, %rdi
.LEHB0:
	call	_ZN14FunctionLoggerC1EiPKc@PLT
.LEHE0:
.LEHB1:
	.loc 1 10 54
	call	_ZN6Logger11getInstanceEv@PLT
	movq	%rax, %rdi
	.loc 1 10 65
	movl	$10, %r9d
	leaq	.LC0(%rip), %r8
	leaq	.LC1(%rip), %rax
	movq	%rax, %rcx
	movl	$40, %edx
	movl	$1, %esi
	call	_ZN6Logger7CAL_LOGEmmPKcS1_i@PLT
	.loc 1 10 65 is_stmt 0 discriminator 1
	movq	%rax, -56(%rbp)
	.loc 1 11 10 is_stmt 1 discriminator 1
	cmpq	$0, -56(%rbp)
	jne	.L2
	.loc 1 11 49 discriminator 1
	call	_ZN6Logger11getInstanceEv@PLT
	movq	%rax, %rdi
	.loc 1 11 55 discriminator 1
	movl	$11, %ecx
	leaq	.LC0(%rip), %rax
	movq	%rax, %rdx
	leaq	.LC2(%rip), %rax
	movq	%rax, %rsi
	movl	$0, %eax
	call	_ZN6Logger3logEPKcz@PLT
	.loc 1 11 137 discriminator 3
	call	_ZN6Logger11getInstanceEv@PLT
	movq	%rax, %rdx
	.loc 1 11 143 discriminator 3
	leaq	.LC3(%rip), %rax
	movq	%rax, %rsi
	movq	%rdx, %rdi
	movl	$0, %eax
	call	_ZN6Logger3logEPKcz@PLT
	.loc 1 11 216 discriminator 5
	call	_ZN6Logger11getInstanceEv@PLT
	movq	%rax, %rdi
	.loc 1 11 232 discriminator 5
	movl	$11, %ecx
	leaq	.LC0(%rip), %rax
	movq	%rax, %rdx
	leaq	.LC4(%rip), %rax
	movq	%rax, %rsi
	movl	$0, %eax
	call	_ZN6Logger13LogMsgNullRetEPKcz@PLT
	.loc 1 11 290 discriminator 7
	movl	$11, %r8d
	leaq	.LC0(%rip), %rax
	movq	%rax, %rcx
	movl	$11, %edx
	leaq	.LC1(%rip), %rax
	movq	%rax, %rsi
	leaq	.LC5(%rip), %rax
	movq	%rax, %rdi
	movl	$0, %eax
	call	_Z13LogMsgNullRetPKcz@PLT
.LEHE1:
	.loc 1 11 384 discriminator 8
	movl	$0, %ebx
	jmp	.L3
.L2:
	.loc 1 13 30
	movq	-56(%rbp), %rax
	movq	-88(%rbp), %rdx
	movq	%rdx, (%rax)
	.loc 1 14 30
	movq	-56(%rbp), %rax
	movq	-96(%rbp), %rdx
	movq	%rdx, 8(%rax)
	.loc 1 16 23
	movq	-56(%rbp), %rax
	movl	-68(%rbp), %edx
	movl	%edx, 16(%rax)
	.loc 1 17 24
	movq	-56(%rbp), %rax
	movq	-80(%rbp), %rdx
	movq	%rdx, 24(%rax)
	.loc 1 19 12
	movq	-56(%rbp), %rbx
.L3:
	.loc 1 20 5
	leaq	-48(%rbp), %rax
	movq	%rax, %rdi
	call	_ZN14FunctionLoggerD1Ev@PLT
	movq	%rbx, %rax
	jmp	.L7
.L6:
	endbr64
	movq	%rax, %rbx
	leaq	-48(%rbp), %rax
	movq	%rax, %rdi
	call	_ZN14FunctionLoggerD1Ev@PLT
	movq	%rbx, %rax
	movq	%rax, %rdi
.LEHB2:
	call	_Unwind_Resume@PLT
.LEHE2:
.L7:
	movq	-8(%rbp), %rbx
	leave
	.cfi_def_cfa 7, 8
	ret
	.cfi_endproc
.LFE2270:
	.globl	__gxx_personality_v0
	.section	.gcc_except_table,"a",@progbits
.LLSDA2270:
	.byte	0xff
	.byte	0xff
	.byte	0x1
	.uleb128 .LLSDACSE2270-.LLSDACSB2270
.LLSDACSB2270:
	.uleb128 .LEHB0-.LFB2270
	.uleb128 .LEHE0-.LEHB0
	.uleb128 0
	.uleb128 0
	.uleb128 .LEHB1-.LFB2270
	.uleb128 .LEHE1-.LEHB1
	.uleb128 .L6-.LFB2270
	.uleb128 0
	.uleb128 .LEHB2-.LFB2270
	.uleb128 .LEHE2-.LEHB2
	.uleb128 0
	.uleb128 0
.LLSDACSE2270:
	.text
	.size	_Z8NewTokeni10TokenValueP5TokenS1_, .-_Z8NewTokeni10TokenValueP5TokenS1_
	.section	.rodata
.LC6:
	.string	"DeleteBranch"
	.align 8
.LC7:
	.string	"%s:%d::CHECK: DeleteBranch (def_node->left_child) == SUCCESS is false\n"
	.align 8
.LC8:
	.string	"\033[91mFailed %s:%d (%s:%d)\n\033[0m"
.LC9:
	.string	"Failed (%s:%d, %s:%d)"
	.align 8
.LC10:
	.string	"%s:%d::CHECK: DeleteBranch (def_node->right_child) == SUCCESS is false\n"
	.text
	.globl	_Z12DeleteBranchP5Token
	.type	_Z12DeleteBranchP5Token, @function
_Z12DeleteBranchP5Token:
.LFB2271:
	.loc 1 23 5
	.cfi_startproc
	.cfi_personality 0x9b,DW.ref.__gxx_personality_v0
	.cfi_lsda 0x1b,.LLSDA2271
	endbr64
	pushq	%rbp
	.cfi_def_cfa_offset 16
	.cfi_offset 6, -16
	movq	%rsp, %rbp
	.cfi_def_cfa_register 6
	pushq	%rbx
	subq	$56, %rsp
	.cfi_offset 3, -24
	movq	%rdi, -56(%rbp)
	.loc 1 24 48
	leaq	-48(%rbp), %rax
	leaq	.LC6(%rip), %rdx
	movl	$1, %esi
	movq	%rax, %rdi
.LEHB3:
	call	_ZN14FunctionLoggerC1EiPKc@PLT
.LEHE3:
	.loc 1 26 5
	cmpq	$0, -56(%rbp)
	jne	.L9
	.loc 1 26 27 discriminator 1
	movl	$0, %ebx
	jmp	.L10
.L9:
	.loc 1 28 19
	movq	-56(%rbp), %rax
	movq	(%rax), %rax
	.loc 1 28 5
	testq	%rax, %rax
	je	.L11
	.loc 1 29 32
	movq	-56(%rbp), %rax
	movq	(%rax), %rax
	movq	%rax, %rdi
.LEHB4:
	call	_Z12DeleteBranchP5Token
	.loc 1 29 55
	testl	%eax, %eax
	setne	%al
	.loc 1 29 14
	testb	%al, %al
	je	.L11
	.loc 1 29 88 discriminator 2
	call	_ZN6Logger11getInstanceEv@PLT
	movq	%rax, %rdi
	.loc 1 29 94 discriminator 2
	movl	$29, %ecx
	leaq	.LC6(%rip), %rax
	movq	%rax, %rdx
	leaq	.LC7(%rip), %rax
	movq	%rax, %rsi
	movl	$0, %eax
	call	_ZN6Logger3logEPKcz@PLT
	.loc 1 29 218 discriminator 4
	call	_ZN6Logger11getInstanceEv@PLT
	.loc 1 29 240 discriminator 4
	call	_ZN6Logger11getInstanceEv@PLT
	.loc 1 29 240 is_stmt 0 discriminator 5
	movq	%rax, %rbx
	.loc 1 29 253 is_stmt 1 discriminator 5
	movl	$29, %r9d
	leaq	.LC6(%rip), %r8
	movl	$29, %ecx
	leaq	.LC1(%rip), %rax
	movq	%rax, %rdx
	leaq	.LC8(%rip), %rax
	movq	%rax, %rsi
	movl	$-1, %edi
	movl	$0, %eax
	call	_Z6MsgRetiPKcz@PLT
	.loc 1 29 253 is_stmt 0 discriminator 6
	movl	%eax, %esi
	subq	$8, %rsp
	pushq	$29
	leaq	.LC6(%rip), %r9
	movl	$29, %r8d
	leaq	.LC1(%rip), %rax
	movq	%rax, %rcx
	leaq	.LC9(%rip), %rax
	movq	%rax, %rdx
	movq	%rbx, %rdi
	movl	$0, %eax
	.cfi_escape 0x2e,0x10
	call	_ZN6Logger9LogMsgRetEiPKcz@PLT
	.loc 1 29 253 discriminator 7
	addq	$16, %rsp
	movl	%eax, %ebx
	.loc 1 29 416 is_stmt 1 discriminator 7
	jmp	.L10
.L11:
	.loc 1 31 19
	movq	-56(%rbp), %rax
	movq	8(%rax), %rax
	.loc 1 31 5
	testq	%rax, %rax
	je	.L12
	.loc 1 32 32
	movq	-56(%rbp), %rax
	movq	8(%rax), %rax
	movq	%rax, %rdi
	.cfi_escape 0x2e,0
	call	_Z12DeleteBranchP5Token
	.loc 1 32 56
	testl	%eax, %eax
	setne	%al
	.loc 1 32 14
	testb	%al, %al
	je	.L12
	.loc 1 32 89 discriminator 2
	call	_ZN6Logger11getInstanceEv@PLT
	movq	%rax, %rdi
	.loc 1 32 95 discriminator 2
	movl	$32, %ecx
	leaq	.LC6(%rip), %rax
	movq	%rax, %rdx
	leaq	.LC10(%rip), %rax
	movq	%rax, %rsi
	movl	$0, %eax
	call	_ZN6Logger3logEPKcz@PLT
	.loc 1 32 220 discriminator 4
	call	_ZN6Logger11getInstanceEv@PLT
	.loc 1 32 242 discriminator 4
	call	_ZN6Logger11getInstanceEv@PLT
	.loc 1 32 242 is_stmt 0 discriminator 5
	movq	%rax, %rbx
	.loc 1 32 255 is_stmt 1 discriminator 5
	movl	$32, %r9d
	leaq	.LC6(%rip), %r8
	movl	$32, %ecx
	leaq	.LC1(%rip), %rax
	movq	%rax, %rdx
	leaq	.LC8(%rip), %rax
	movq	%rax, %rsi
	movl	$-1, %edi
	movl	$0, %eax
	call	_Z6MsgRetiPKcz@PLT
	.loc 1 32 255 is_stmt 0 discriminator 6
	movl	%eax, %esi
	subq	$8, %rsp
	pushq	$32
	leaq	.LC6(%rip), %r9
	movl	$32, %r8d
	leaq	.LC1(%rip), %rax
	movq	%rax, %rcx
	leaq	.LC9(%rip), %rax
	movq	%rax, %rdx
	movq	%rbx, %rdi
	movl	$0, %eax
	.cfi_escape 0x2e,0x10
	call	_ZN6Logger9LogMsgRetEiPKcz@PLT
	.loc 1 32 255 discriminator 7
	addq	$16, %rsp
	movl	%eax, %ebx
	.loc 1 32 418 is_stmt 1 discriminator 7
	jmp	.L10
.L12:
	.cfi_escape 0x2e,0
	.loc 1 34 24
	call	_ZN6Logger11getInstanceEv@PLT
	movq	%rax, %rdi
	.loc 1 34 36
	movq	-56(%rbp), %rax
	movl	$34, %r8d
	leaq	.LC6(%rip), %rdx
	movq	%rdx, %rcx
	leaq	.LC1(%rip), %rdx
	movq	%rax, %rsi
	call	_ZN6Logger8FREE_LOGEPvPKcS2_i@PLT
.LEHE4:
	.loc 1 36 12
	movl	$0, %ebx
.L10:
	.loc 1 37 5
	leaq	-48(%rbp), %rax
	movq	%rax, %rdi
	call	_ZN14FunctionLoggerD1Ev@PLT
	movl	%ebx, %eax
	jmp	.L16
.L15:
	endbr64
	movq	%rax, %rbx
	leaq	-48(%rbp), %rax
	movq	%rax, %rdi
	call	_ZN14FunctionLoggerD1Ev@PLT
	movq	%rbx, %rax
	movq	%rax, %rdi
.LEHB5:
	call	_Unwind_Resume@PLT
.LEHE5:
.L16:
	movq	-8(%rbp), %rbx
	leave
	.cfi_def_cfa 7, 8
	ret
	.cfi_endproc
.LFE2271:
	.section	.gcc_except_table
.LLSDA2271:
	.byte	0xff
	.byte	0xff
	.byte	0x1
	.uleb128 .LLSDACSE2271-.LLSDACSB2271
.LLSDACSB2271:
	.uleb128 .LEHB3-.LFB2271
	.uleb128 .LEHE3-.LEHB3
	.uleb128 0
	.uleb128 0
	.uleb128 .LEHB4-.LFB2271
	.uleb128 .LEHE4-.LEHB4
	.uleb128 .L15-.LFB2271
	.uleb128 0
	.uleb128 .LEHB5-.LFB2271
	.uleb128 .LEHE5-.LEHB5
	.uleb128 0
	.uleb128 0
.LLSDACSE2271:
	.text
	.size	_Z12DeleteBranchP5Token, .-_Z12DeleteBranchP5Token
	.type	_Z41__static_initialization_and_destruction_0ii, @function
_Z41__static_initialization_and_destruction_0ii:
.LFB2938:
	.loc 1 37 5
	.cfi_startproc
	endbr64
	pushq	%rbp
	.cfi_def_cfa_offset 16
	.cfi_offset 6, -16
	movq	%rsp, %rbp
	.cfi_def_cfa_register 6
	subq	$16, %rsp
	movl	%edi, -4(%rbp)
	movl	%esi, -8(%rbp)
	.loc 1 37 5
	cmpl	$1, -4(%rbp)
	jne	.L19
	.loc 1 37 5 is_stmt 0 discriminator 1
	cmpl	$65535, -8(%rbp)
	jne	.L19
	.file 2 "/usr/include/c++/11/iostream"
	.loc 2 74 25 is_stmt 1
	leaq	_ZStL8__ioinit(%rip), %rax
	movq	%rax, %rdi
	call	_ZNSt8ios_base4InitC1Ev@PLT
	leaq	__dso_handle(%rip), %rax
	movq	%rax, %rdx
	leaq	_ZStL8__ioinit(%rip), %rax
	movq	%rax, %rsi
	movq	_ZNSt8ios_base4InitD1Ev@GOTPCREL(%rip), %rax
	movq	%rax, %rdi
	call	__cxa_atexit@PLT
.L19:
	.loc 1 37 5
	nop
	leave
	.cfi_def_cfa 7, 8
	ret
	.cfi_endproc
.LFE2938:
	.size	_Z41__static_initialization_and_destruction_0ii, .-_Z41__static_initialization_and_destruction_0ii
	.type	_GLOBAL__sub_I__Z8NewTokeni10TokenValueP5TokenS1_, @function
_GLOBAL__sub_I__Z8NewTokeni10TokenValueP5TokenS1_:
.LFB2939:
	.loc 1 37 5
	.cfi_startproc
	endbr64
	pushq	%rbp
	.cfi_def_cfa_offset 16
	.cfi_offset 6, -16
	movq	%rsp, %rbp
	.cfi_def_cfa_register 6
	.loc 1 37 5
	movl	$65535, %esi
	movl	$1, %edi
	call	_Z41__static_initialization_and_destruction_0ii
	popq	%rbp
	.cfi_def_cfa 7, 8
	ret
	.cfi_endproc
.LFE2939:
	.size	_GLOBAL__sub_I__Z8NewTokeni10TokenValueP5TokenS1_, .-_GLOBAL__sub_I__Z8NewTokeni10TokenValueP5TokenS1_
	.section	.init_array,"aw"
	.align 8
	.quad	_GLOBAL__sub_I__Z8NewTokeni10TokenValueP5TokenS1_
	.text
.Letext0:
	.file 3 "./headers/Token.h"
	.file 4 "<built-in>"
	.file 5 "/usr/lib/gcc/x86_64-linux-gnu/11/include/stddef.h"
	.file 6 "/usr/include/x86_64-linux-gnu/bits/types/wint_t.h"
	.file 7 "/usr/include/x86_64-linux-gnu/bits/types/__mbstate_t.h"
	.file 8 "/usr/include/x86_64-linux-gnu/bits/types/mbstate_t.h"
	.file 9 "/usr/include/x86_64-linux-gnu/bits/types/__FILE.h"
	.file 10 "/usr/include/x86_64-linux-gnu/bits/types/struct_FILE.h"
	.file 11 "/usr/include/x86_64-linux-gnu/bits/types/FILE.h"
	.file 12 "/usr/include/c++/11/cwchar"
	.file 13 "/usr/include/c++/11/type_traits"
	.file 14 "/usr/include/c++/11/bits/exception_ptr.h"
	.file 15 "/usr/include/x86_64-linux-gnu/c++/11/bits/c++config.h"
	.file 16 "/usr/include/c++/11/concepts"
	.file 17 "/usr/include/c++/11/bits/iterator_concepts.h"
	.file 18 "/usr/include/c++/11/bits/ranges_cmp.h"
	.file 19 "/usr/include/c++/11/compare"
	.file 20 "/usr/include/c++/11/debug/debug.h"
	.file 21 "/usr/include/c++/11/cstdint"
	.file 22 "/usr/include/c++/11/clocale"
	.file 23 "/usr/include/c++/11/cstdlib"
	.file 24 "/usr/include/c++/11/numbers"
	.file 25 "/usr/include/c++/11/cstdio"
	.file 26 "/usr/include/c++/11/bits/ios_base.h"
	.file 27 "/usr/include/c++/11/cwctype"
	.file 28 "/usr/include/wchar.h"
	.file 29 "/usr/include/x86_64-linux-gnu/bits/types/struct_tm.h"
	.file 30 "/usr/include/c++/11/bits/predefined_ops.h"
	.file 31 "/usr/include/c++/11/bits/ptr_traits.h"
	.file 32 "/usr/include/x86_64-linux-gnu/bits/types.h"
	.file 33 "/usr/include/x86_64-linux-gnu/bits/stdint-intn.h"
	.file 34 "/usr/include/x86_64-linux-gnu/bits/stdint-uintn.h"
	.file 35 "/usr/include/stdint.h"
	.file 36 "/usr/include/locale.h"
	.file 37 "/usr/include/stdlib.h"
	.file 38 "/usr/include/x86_64-linux-gnu/bits/types/__fpos_t.h"
	.file 39 "/usr/include/stdio.h"
	.file 40 "/usr/include/x86_64-linux-gnu/bits/wctype-wchar.h"
	.file 41 "/usr/include/wctype.h"
	.file 42 "../ATC/Logger/LogConfig.h"
	.file 43 "../ATC/Logger/FunctionLogger.h"
	.file 44 "../ATC/RandomStuff/CommonEnums.h"
	.file 45 "../ATC/Logger/Logger.h"
	.file 46 "../ATC/Utils/Utils.h"
	.file 47 "/usr/include/c++/11/bits/algorithmfwd.h"
	.section	.data.rel.local.DW.ref.__gxx_personality_v0,"awG",@progbits,DW.ref.__gxx_personality_v0,comdat
	.align 8
	.type	DW.ref.__gxx_personality_v0, @object
	.size	DW.ref.__gxx_personality_v0, 8
DW.ref.__gxx_personality_v0:
	.quad	__gxx_personality_v0
	.hidden	__dso_handle
	.ident	"GCC: (Ubuntu 11.3.0-1ubuntu1~22.04) 11.3.0"
	.section	.note.GNU-stack,"",@progbits
	.section	.note.gnu.property,"a"
	.align 8
	.long	1f - 0f
	.long	4f - 1f
	.long	5
0:
	.string	"GNU"
1:
	.align 8
	.long	0xc0000002
	.long	3f - 2f
2:
	.long	0x3
3:
	.align 8
4:
