	.file	"TranslateToAsm.cpp"
	.text
.Ltext0:
	.file 0 "/home/arsenyfucker/Cprojects/Lang/Translator" "./src/TranslateToAsm.cpp"
	.bss
	.align 32
	.type	_ZStL8__ioinit, @object
	.size	_ZStL8__ioinit, 1
_ZStL8__ioinit:
	.zero	64
	.section	.rodata
	.align 32
	.type	_ZL12STD_LOG_NAME, @object
	.size	_ZL12STD_LOG_NAME, 18
_ZL12STD_LOG_NAME:
	.string	"./logs/stdlog.ars"
	.zero	46
	.align 32
	.type	_ZL6CRINGE, @object
	.size	_ZL6CRINGE, 4
_ZL6CRINGE:
	.long	3565
	.zero	60
	.align 32
	.type	_ZL21NUMBER_OF_INSTUCTIONS, @object
	.size	_ZL21NUMBER_OF_INSTUCTIONS, 4
_ZL21NUMBER_OF_INSTUCTIONS:
	.long	5
	.zero	60
	.align 32
.LC0:
	.string	"if"
	.zero	61
	.align 32
.LC1:
	.string	"else"
	.zero	59
	.align 32
.LC2:
	.string	"while"
	.zero	58
	.align 32
.LC3:
	.string	"fout"
	.zero	59
	.align 32
.LC4:
	.string	"return"
	.zero	57
	.section	.data.rel.ro.local,"aw"
	.align 32
	.type	_ZL12INSTRUCTIONS, @object
	.size	_ZL12INSTRUCTIONS, 40
_ZL12INSTRUCTIONS:
	.quad	.LC0
	.quad	.LC1
	.quad	.LC2
	.quad	.LC3
	.quad	.LC4
	.zero	56
	.section	.rodata
	.align 32
	.type	_ZL24NUMBER_OF_INITIALIZATORS, @object
	.size	_ZL24NUMBER_OF_INITIALIZATORS, 4
_ZL24NUMBER_OF_INITIALIZATORS:
	.long	2
	.zero	60
	.align 32
.LC5:
	.string	"func"
	.zero	59
	.align 32
.LC6:
	.string	"var"
	.zero	60
	.section	.data.rel.ro.local
	.align 32
	.type	_ZL14INITIALIZATORS, @object
	.size	_ZL14INITIALIZATORS, 16
_ZL14INITIALIZATORS:
	.quad	.LC5
	.quad	.LC6
	.zero	48
	.section	.rodata
	.align 32
	.type	_ZL28NUMBER_OF_FUNCTION_RET_TYPES, @object
	.size	_ZL28NUMBER_OF_FUNCTION_RET_TYPES, 4
_ZL28NUMBER_OF_FUNCTION_RET_TYPES:
	.long	2
	.zero	60
	.align 32
.LC7:
	.string	"double"
	.zero	57
	.align 32
.LC8:
	.string	"void"
	.zero	59
	.section	.data.rel.ro.local
	.align 32
	.type	_ZL18FUNCTION_RET_TYPES, @object
	.size	_ZL18FUNCTION_RET_TYPES, 16
_ZL18FUNCTION_RET_TYPES:
	.quad	.LC7
	.quad	.LC8
	.zero	48
	.section	.rodata
	.align 32
	.type	_ZL9OPERATORS, @object
	.size	_ZL9OPERATORS, 8
_ZL9OPERATORS:
	.string	"+-/*^<<"
	.zero	56
	.align 32
	.type	_ZL7COMMENT, @object
	.size	_ZL7COMMENT, 1
_ZL7COMMENT:
	.byte	35
	.zero	63
	.align 32
	.type	_ZL24MAX_FUNCTION_NAME_LENGTH, @object
	.size	_ZL24MAX_FUNCTION_NAME_LENGTH, 4
_ZL24MAX_FUNCTION_NAME_LENGTH:
	.long	16
	.zero	60
	.align 32
	.type	_ZL15MAX_WORD_LENGTH, @object
	.size	_ZL15MAX_WORD_LENGTH, 4
_ZL15MAX_WORD_LENGTH:
	.long	16
	.zero	60
	.align 32
	.type	_ZL11INDENT_SIZE, @object
	.size	_ZL11INDENT_SIZE, 4
_ZL11INDENT_SIZE:
	.long	2
	.zero	60
	.bss
	.align 32
	.type	_ZL8ASM_FILE, @object
	.size	_ZL8ASM_FILE, 8
_ZL8ASM_FILE:
	.zero	64
	.section	.rodata
	.align 32
.LC9:
	.string	"root"
	.zero	59
	.align 32
.LC10:
	.string	"Condition (%s) is false\n"
	.zero	39
	.align 32
.LC11:
	.string	"Condition\033[91m (%s) is false\n\033[0m"
	.zero	62
	.align 32
.LC12:
	.string	"./src/TranslateToAsm.cpp"
	.zero	39
	.align 32
.LC13:
	.string	"TranslateToAsm"
	.zero	49
	.align 32
.LC14:
	.string	"\t(function: %s, file: %s, line: %d)\n"
	.zero	59
	.align 32
.LC15:
	.string	"It matches to error: (code %d) %s\n\n"
	.zero	60
	.align 32
.LC16:
	.string	"Shutting down the system (%s:%d)"
	.zero	63
	.align 32
.LC17:
	.string	"powerof"
	.zero	56
	.align 32
.LC18:
	.string	"\033[91mFailed %s:%d (%s:%d)\n\033[0m"
	.zero	33
	.align 32
.LC19:
	.string	"Failed (%s:%d, %s:%d)"
	.zero	42
	.align 32
.LC20:
	.string	"name"
	.zero	59
	.align 32
.LC21:
	.string	"Couldn't open %s for ASM file\n"
	.zero	33
	.align 32
.LC22:
	.string	"Couldn't make ASM file"
	.zero	41
	.align 32
.LC23:
	.string	"Couldn't make ASM file\n"
	.zero	40
	.align 32
.LC24:
	.string	"%s:%d returned SUCCESS "
	.zero	40
	.text
	.globl	_Z14TranslateToAsmPK5TokenPKc
	.type	_Z14TranslateToAsmPK5TokenPKc, @function
_Z14TranslateToAsmPK5TokenPKc:
.LASANPC2865:
.LFB2865:
	.file 1 "./src/TranslateToAsm.cpp"
	.loc 1 24 5
	.cfi_startproc
	endbr64
	pushq	%rbp
	.cfi_def_cfa_offset 16
	.cfi_offset 6, -16
	movq	%rsp, %rbp
	.cfi_def_cfa_register 6
	pushq	%rbx
	subq	$24, %rsp
	.cfi_offset 3, -24
	movq	%rdi, -24(%rbp)
	movq	%rsi, -32(%rbp)
	.loc 1 25 10
	cmpq	$0, -24(%rbp)
	jne	.L2
	.loc 1 25 44 discriminator 1
	call	_ZN6Logger11getInstanceEv@PLT
	movq	%rax, %rcx
	.loc 1 25 50 discriminator 1
	leaq	.LC9(%rip), %rax
	movq	%rax, %rdx
	leaq	.LC10(%rip), %rax
	movq	%rax, %rsi
	movq	%rcx, %rdi
	movl	$0, %eax
	call	_ZN6Logger3logEPKcz@PLT
	.loc 1 25 95 discriminator 1
	leaq	.LC9(%rip), %rax
	movq	%rax, %rsi
	leaq	.LC11(%rip), %rax
	movq	%rax, %rdi
	movl	$0, %eax
	call	printf@PLT
	.loc 1 25 177 discriminator 1
	call	_ZN6Logger11getInstanceEv@PLT
	movq	%rax, %rdi
	.loc 1 25 183 discriminator 1
	movl	$25, %r8d
	leaq	.LC12(%rip), %rax
	movq	%rax, %rcx
	leaq	.LC13(%rip), %rax
	movq	%rax, %rdx
	leaq	.LC14(%rip), %rax
	movq	%rax, %rsi
	movl	$0, %eax
	call	_ZN6Logger3logEPKcz@PLT
	.loc 1 25 275 discriminator 1
	movl	$25, %ecx
	leaq	.LC12(%rip), %rax
	movq	%rax, %rdx
	leaq	.LC13(%rip), %rax
	movq	%rax, %rsi
	leaq	.LC14(%rip), %rax
	movq	%rax, %rdi
	movl	$0, %eax
	call	printf@PLT
	.loc 1 25 380 discriminator 1
	call	_ZN6Logger11getInstanceEv@PLT
	movq	%rax, %rbx
	.loc 1 25 386 discriminator 1
	movl	$14, %edi
	call	strerror@PLT
	movq	%rax, %rcx
	movl	$14, %edx
	leaq	.LC15(%rip), %rax
	movq	%rax, %rsi
	movq	%rbx, %rdi
	movl	$0, %eax
	call	_ZN6Logger3logEPKcz@PLT
	.loc 1 25 27 discriminator 1
	call	_ZN6Logger11getInstanceEv@PLT
	movq	%rax, %rdi
	.loc 1 25 33 discriminator 1
	movl	$25, %ecx
	leaq	.LC13(%rip), %rax
	movq	%rax, %rdx
	leaq	.LC16(%rip), %rax
	movq	%rax, %rsi
	movl	$0, %eax
	call	_ZN6Logger3logEPKcz@PLT
	.loc 1 25 91 discriminator 1
	leaq	.LC17(%rip), %rax
	movq	%rax, %rdi
	call	system@PLT
	.loc 1 25 130 discriminator 1
	call	_ZN6Logger11getInstanceEv@PLT
	.loc 1 25 152 discriminator 1
	call	_ZN6Logger11getInstanceEv@PLT
	movq	%rax, %rbx
	.loc 1 25 165 discriminator 1
	movl	$25, %r9d
	leaq	.LC13(%rip), %r8
	movl	$25, %ecx
	leaq	.LC12(%rip), %rax
	movq	%rax, %rdx
	leaq	.LC18(%rip), %rax
	movq	%rax, %rsi
	movl	$-1, %edi
	movl	$0, %eax
	call	_Z6MsgRetiPKcz@PLT
	movl	%eax, %esi
	subq	$8, %rsp
	pushq	$25
	leaq	.LC13(%rip), %r9
	movl	$25, %r8d
	leaq	.LC12(%rip), %rax
	movq	%rax, %rcx
	leaq	.LC19(%rip), %rax
	movq	%rax, %rdx
	movq	%rbx, %rdi
	movl	$0, %eax
	call	_ZN6Logger9LogMsgRetEiPKcz@PLT
	addq	$16, %rsp
	.loc 1 25 346 discriminator 1
	jmp	.L3
.L2:
	.loc 1 26 10
	cmpq	$0, -32(%rbp)
	jne	.L4
	.loc 1 26 44 discriminator 1
	call	_ZN6Logger11getInstanceEv@PLT
	movq	%rax, %rcx
	.loc 1 26 50 discriminator 1
	leaq	.LC20(%rip), %rax
	movq	%rax, %rdx
	leaq	.LC10(%rip), %rax
	movq	%rax, %rsi
	movq	%rcx, %rdi
	movl	$0, %eax
	call	_ZN6Logger3logEPKcz@PLT
	.loc 1 26 95 discriminator 1
	leaq	.LC20(%rip), %rax
	movq	%rax, %rsi
	leaq	.LC11(%rip), %rax
	movq	%rax, %rdi
	movl	$0, %eax
	call	printf@PLT
	.loc 1 26 177 discriminator 1
	call	_ZN6Logger11getInstanceEv@PLT
	movq	%rax, %rdi
	.loc 1 26 183 discriminator 1
	movl	$26, %r8d
	leaq	.LC12(%rip), %rax
	movq	%rax, %rcx
	leaq	.LC13(%rip), %rax
	movq	%rax, %rdx
	leaq	.LC14(%rip), %rax
	movq	%rax, %rsi
	movl	$0, %eax
	call	_ZN6Logger3logEPKcz@PLT
	.loc 1 26 275 discriminator 1
	movl	$26, %ecx
	leaq	.LC12(%rip), %rax
	movq	%rax, %rdx
	leaq	.LC13(%rip), %rax
	movq	%rax, %rsi
	leaq	.LC14(%rip), %rax
	movq	%rax, %rdi
	movl	$0, %eax
	call	printf@PLT
	.loc 1 26 380 discriminator 1
	call	_ZN6Logger11getInstanceEv@PLT
	movq	%rax, %rbx
	.loc 1 26 386 discriminator 1
	movl	$14, %edi
	call	strerror@PLT
	movq	%rax, %rcx
	movl	$14, %edx
	leaq	.LC15(%rip), %rax
	movq	%rax, %rsi
	movq	%rbx, %rdi
	movl	$0, %eax
	call	_ZN6Logger3logEPKcz@PLT
	.loc 1 26 27 discriminator 1
	call	_ZN6Logger11getInstanceEv@PLT
	movq	%rax, %rdi
	.loc 1 26 33 discriminator 1
	movl	$26, %ecx
	leaq	.LC13(%rip), %rax
	movq	%rax, %rdx
	leaq	.LC16(%rip), %rax
	movq	%rax, %rsi
	movl	$0, %eax
	call	_ZN6Logger3logEPKcz@PLT
	.loc 1 26 91 discriminator 1
	leaq	.LC17(%rip), %rax
	movq	%rax, %rdi
	call	system@PLT
	.loc 1 26 130 discriminator 1
	call	_ZN6Logger11getInstanceEv@PLT
	.loc 1 26 152 discriminator 1
	call	_ZN6Logger11getInstanceEv@PLT
	movq	%rax, %rbx
	.loc 1 26 165 discriminator 1
	movl	$26, %r9d
	leaq	.LC13(%rip), %r8
	movl	$26, %ecx
	leaq	.LC12(%rip), %rax
	movq	%rax, %rdx
	leaq	.LC18(%rip), %rax
	movq	%rax, %rsi
	movl	$-1, %edi
	movl	$0, %eax
	call	_Z6MsgRetiPKcz@PLT
	movl	%eax, %esi
	subq	$8, %rsp
	pushq	$26
	leaq	.LC13(%rip), %r9
	movl	$26, %r8d
	leaq	.LC12(%rip), %rax
	movq	%rax, %rcx
	leaq	.LC19(%rip), %rax
	movq	%rax, %rdx
	movq	%rbx, %rdi
	movl	$0, %eax
	call	_ZN6Logger9LogMsgRetEiPKcz@PLT
	addq	$16, %rsp
	.loc 1 26 346 discriminator 1
	jmp	.L3
.L4:
	.loc 1 28 20
	movq	-32(%rbp), %rax
	movq	%rax, %rdi
	call	_ZL11OpenAsmFilePKc
	.loc 1 28 27
	testl	%eax, %eax
	setne	%al
	.loc 1 28 5
	testb	%al, %al
	je	.L5
	.loc 1 30 15
	movq	-32(%rbp), %rax
	movq	%rax, %rsi
	leaq	.LC21(%rip), %rax
	movq	%rax, %rdi
	movl	$0, %eax
	call	printf@PLT
	.loc 1 31 30
	call	_ZN6Logger11getInstanceEv@PLT
	movq	%rax, %rcx
	.loc 1 31 36
	movq	-32(%rbp), %rax
	movq	%rax, %rdx
	leaq	.LC21(%rip), %rax
	movq	%rax, %rsi
	movq	%rcx, %rdi
	movl	$0, %eax
	call	_ZN6Logger3logEPKcz@PLT
	.loc 1 33 35
	call	_ZN6Logger11getInstanceEv@PLT
	.loc 1 33 57
	call	_ZN6Logger11getInstanceEv@PLT
	movq	%rax, %rbx
	.loc 1 33 70
	movl	$33, %r9d
	leaq	.LC13(%rip), %r8
	movl	$33, %ecx
	leaq	.LC12(%rip), %rax
	movq	%rax, %rdx
	leaq	.LC18(%rip), %rax
	movq	%rax, %rsi
	movl	$-1, %edi
	movl	$0, %eax
	call	_Z6MsgRetiPKcz@PLT
	movl	%eax, %esi
	subq	$8, %rsp
	pushq	$33
	leaq	.LC13(%rip), %r9
	movl	$33, %r8d
	leaq	.LC12(%rip), %rax
	movq	%rax, %rcx
	leaq	.LC19(%rip), %rax
	movq	%rax, %rdx
	movq	%rbx, %rdi
	movl	$0, %eax
	call	_ZN6Logger9LogMsgRetEiPKcz@PLT
	addq	$16, %rsp
	.loc 1 33 251
	jmp	.L3
.L5:
	.loc 1 36 17
	movq	-24(%rbp), %rax
	movq	%rax, %rdi
	call	_ZL8AddToAsmPK5Token
	.loc 1 36 24
	testl	%eax, %eax
	setne	%al
	.loc 1 36 5
	testb	%al, %al
	je	.L6
	.loc 1 38 15
	leaq	.LC22(%rip), %rax
	movq	%rax, %rdi
	call	puts@PLT
	.loc 1 39 30
	call	_ZN6Logger11getInstanceEv@PLT
	movq	%rax, %rdx
	.loc 1 39 36
	leaq	.LC23(%rip), %rax
	movq	%rax, %rsi
	movq	%rdx, %rdi
	movl	$0, %eax
	call	_ZN6Logger3logEPKcz@PLT
	.loc 1 41 35
	call	_ZN6Logger11getInstanceEv@PLT
	.loc 1 41 57
	call	_ZN6Logger11getInstanceEv@PLT
	movq	%rax, %rbx
	.loc 1 41 70
	movl	$41, %r9d
	leaq	.LC13(%rip), %r8
	movl	$41, %ecx
	leaq	.LC12(%rip), %rax
	movq	%rax, %rdx
	leaq	.LC18(%rip), %rax
	movq	%rax, %rsi
	movl	$-1, %edi
	movl	$0, %eax
	call	_Z6MsgRetiPKcz@PLT
	movl	%eax, %esi
	subq	$8, %rsp
	pushq	$41
	leaq	.LC13(%rip), %r9
	movl	$41, %r8d
	leaq	.LC12(%rip), %rax
	movq	%rax, %rcx
	leaq	.LC19(%rip), %rax
	movq	%rax, %rdx
	movq	%rbx, %rdi
	movl	$0, %eax
	call	_ZN6Logger9LogMsgRetEiPKcz@PLT
	addq	$16, %rsp
	.loc 1 41 251
	jmp	.L3
.L6:
	.loc 1 44 17
	call	_ZL12CloseAsmFilev
	.loc 1 46 31
	call	_ZN6Logger11getInstanceEv@PLT
	.loc 1 46 53
	call	_ZN6Logger11getInstanceEv@PLT
	movq	%rax, %rdi
	.loc 1 46 66
	movl	$46, %r8d
	leaq	.LC13(%rip), %rax
	movq	%rax, %rcx
	leaq	.LC24(%rip), %rax
	movq	%rax, %rdx
	movl	$0, %esi
	movl	$0, %eax
	call	_ZN6Logger9LogMsgRetEiPKcz@PLT
	.loc 1 46 116
	nop
.L3:
	.loc 1 47 5
	movq	-8(%rbp), %rbx
	leave
	.cfi_def_cfa 7, 8
	ret
	.cfi_endproc
.LFE2865:
	.size	_Z14TranslateToAsmPK5TokenPKc, .-_Z14TranslateToAsmPK5TokenPKc
	.section	.rodata
	.align 32
	.type	_ZL9PRECISION, @object
	.size	_ZL9PRECISION, 4
_ZL9PRECISION:
	.long	100
	.zero	60
	.bss
	.align 32
	.type	_ZZL8AddToAsmPK5TokenE22number_of_instructions, @object
	.size	_ZZL8AddToAsmPK5TokenE22number_of_instructions, 4
_ZZL8AddToAsmPK5TokenE22number_of_instructions:
	.zero	64
	.globl	__asan_stack_malloc_1
	.section	.rodata
.LC25:
	.string	"1 32 24 10 func_69:69"
	.align 32
.LC26:
	.string	"AddToAsm"
	.zero	55
	.align 32
.LC27:
	.string	"token"
	.zero	58
	.align 32
.LC29:
	.string	"push %d\n"
	.zero	55
	.align 32
.LC30:
	.string	"\033[95mYou shouldn't be able to reach this place %s:%d (%s::%d)\n\033[0m"
	.zero	61
	.align 32
.LC31:
	.string	"You shouldn't be able to reach this place %s:%d (%s::%d)\n"
	.zero	38
	.align 32
.LC32:
	.string	"to do else\n"
	.zero	52
	.align 32
.LC33:
	.string	"\033[91m#TODO Check this place to improve it (%s:%d)\n%s\033[0m"
	.zero	39
	.align 32
.LC34:
	.string	"#TODO Check this place to improve it (%s:%d)\n%s"
	.zero	48
	.align 32
.LC35:
	.string	"NOT A INSTRUCTION"
	.zero	46
	.align 32
.LC36:
	.string	"; condition for %s_%d with else \n"
	.zero	62
	.align 32
.LC37:
	.string	"%s:%d::CHECK: AddToAsm( LEFT(token)) == SUCCESS is false\n"
	.zero	38
	.align 32
.LC38:
	.string	"\n"
	.zero	62
	.align 32
.LC39:
	.string	"je : else_label_%d\n"
	.zero	44
	.align 32
.LC40:
	.string	"; end of condition\n\n"
	.zero	43
	.align 32
.LC41:
	.string	"; if body\n"
	.zero	53
	.align 32
.LC42:
	.string	"%s:%d::CHECK: AddToAsm(if_body) == SUCCESS is false\n"
	.zero	43
	.align 32
.LC43:
	.string	"jmp : else_end_label_%d\n"
	.zero	39
	.align 32
.LC44:
	.string	"; else body\n"
	.zero	51
	.align 32
.LC45:
	.string	": else_label_%d\n"
	.zero	47
	.align 32
.LC46:
	.string	"%s:%d::CHECK: AddToAsm(else_body) == SUCCESS is false\n"
	.zero	41
	.align 32
.LC47:
	.string	": else_end_label_%d\n"
	.zero	43
	.align 32
.LC48:
	.string	"; condition for %s_%d\n"
	.zero	41
	.align 32
.LC49:
	.string	"je : %s_end_label_%d\n"
	.zero	42
	.align 32
.LC50:
	.string	"; %s body\n"
	.zero	53
	.align 32
.LC51:
	.string	"%s:%d::CHECK: AddToAsm(RIGHT(token)) == SUCCESS is false\n"
	.zero	38
	.align 32
.LC52:
	.string	": %s_end_label_%d\n"
	.zero	45
	.align 32
.LC53:
	.string	"%s:%d::CHECK: AddToAsm (LEFT(token)) == SUCCESS is false\n"
	.zero	38
	.align 32
.LC54:
	.string	"FOUT\n"
	.zero	58
	.align 32
.LC55:
	.string	"to do instructions default\n"
	.zero	36
	.align 32
.LC56:
	.string	"%s:%d::CHECK: AddToAsm (RIGHT(token)) == SUCCESS is false\n"
	.zero	37
	.align 32
.LC57:
	.string	"pop  r%cx\n"
	.zero	53
	.align 32
.LC58:
	.string	"push r%cx\n"
	.zero	53
	.align 32
.LC59:
	.string	"%s:%d::CHECK: AddToAsm ( LEFT(token)) == SUCCESS is false\n"
	.zero	37
	.align 32
.LC60:
	.string	"ADD\n"
	.zero	59
	.align 32
.LC61:
	.string	"SUB\n"
	.zero	59
	.align 32
.LC62:
	.string	"FDIV\n"
	.zero	58
	.align 32
.LC63:
	.string	"FMUL\n"
	.zero	58
	.align 32
.LC64:
	.string	"POW\n"
	.zero	59
	.align 32
.LC65:
	.string	"Wrong operator %c\n"
	.zero	45
	.text
	.type	_ZL8AddToAsmPK5Token, @function
_ZL8AddToAsmPK5Token:
.LASANPC2866:
.LFB2866:
	.loc 1 68 5
	.cfi_startproc
	.cfi_personality 0x9b,DW.ref.__gxx_personality_v0
	.cfi_lsda 0x1b,.LLSDA2866
	endbr64
	pushq	%rbp
	.cfi_def_cfa_offset 16
	.cfi_offset 6, -16
	movq	%rsp, %rbp
	.cfi_def_cfa_register 6
	pushq	%r15
	pushq	%r14
	pushq	%r13
	pushq	%r12
	pushq	%rbx
	subq	$152, %rsp
	.cfi_offset 15, -24
	.cfi_offset 14, -32
	.cfi_offset 13, -40
	.cfi_offset 12, -48
	.cfi_offset 3, -56
	movq	%rdi, -184(%rbp)
	leaq	-144(%rbp), %r12
	movq	%r12, %r15
	cmpl	$0, __asan_option_detect_stack_use_after_return(%rip)
	je	.L7
	movl	$96, %edi
	call	__asan_stack_malloc_1@PLT
	testq	%rax, %rax
	je	.L7
	movq	%rax, %r12
.L7:
	leaq	96(%r12), %rax
	movq	%rax, %r14
	movq	$1102416563, (%r12)
	leaq	.LC25(%rip), %rax
	movq	%rax, 8(%r12)
	leaq	.LASANPC2866(%rip), %rax
	movq	%rax, 16(%r12)
	movq	%r12, %r13
	shrq	$3, %r13
	movl	$-235802127, 2147450880(%r13)
	movl	$-218103808, 2147450884(%r13)
	movl	$-202116109, 2147450888(%r13)
	.loc 1 69 40
	leaq	-64(%r14), %rax
	leaq	.LC26(%rip), %rdx
	movl	$3, %esi
	movq	%rax, %rdi
.LEHB0:
	call	_ZN14FunctionLoggerC1EiPKc@PLT
.LEHE0:
	.loc 1 70 10
	cmpq	$0, -184(%rbp)
	jne	.L11
.LEHB1:
	.loc 1 70 45 discriminator 1
	call	_ZN6Logger11getInstanceEv@PLT
	movq	%rax, %rcx
	.loc 1 70 51 discriminator 1
	leaq	.LC27(%rip), %rax
	movq	%rax, %rdx
	leaq	.LC10(%rip), %rax
	movq	%rax, %rsi
	movq	%rcx, %rdi
	movl	$0, %eax
	call	_ZN6Logger3logEPKcz@PLT
	.loc 1 70 97 discriminator 3
	leaq	.LC27(%rip), %rax
	movq	%rax, %rsi
	leaq	.LC11(%rip), %rax
	movq	%rax, %rdi
	movl	$0, %eax
	call	printf@PLT
	.loc 1 70 180 discriminator 4
	call	_ZN6Logger11getInstanceEv@PLT
	movq	%rax, %rdi
	.loc 1 70 186 discriminator 4
	movl	$70, %r8d
	leaq	.LC12(%rip), %rax
	movq	%rax, %rcx
	leaq	.LC26(%rip), %rax
	movq	%rax, %rdx
	leaq	.LC14(%rip), %rax
	movq	%rax, %rsi
	movl	$0, %eax
	call	_ZN6Logger3logEPKcz@PLT
	.loc 1 70 278 discriminator 6
	movl	$70, %ecx
	leaq	.LC12(%rip), %rax
	movq	%rax, %rdx
	leaq	.LC26(%rip), %rax
	movq	%rax, %rsi
	leaq	.LC14(%rip), %rax
	movq	%rax, %rdi
	movl	$0, %eax
	call	printf@PLT
	.loc 1 70 383 discriminator 7
	call	_ZN6Logger11getInstanceEv@PLT
	movq	%rax, %rbx
	.loc 1 70 389 discriminator 7
	movl	$14, %edi
	call	strerror@PLT
	movq	%rax, %rcx
	movl	$14, %edx
	leaq	.LC15(%rip), %rax
	movq	%rax, %rsi
	movq	%rbx, %rdi
	movl	$0, %eax
	call	_ZN6Logger3logEPKcz@PLT
	.loc 1 70 27 discriminator 9
	call	_ZN6Logger11getInstanceEv@PLT
	movq	%rax, %rdi
	.loc 1 70 33 discriminator 9
	movl	$70, %ecx
	leaq	.LC26(%rip), %rax
	movq	%rax, %rdx
	leaq	.LC16(%rip), %rax
	movq	%rax, %rsi
	movl	$0, %eax
	call	_ZN6Logger3logEPKcz@PLT
	.loc 1 70 91 discriminator 11
	leaq	.LC17(%rip), %rax
	movq	%rax, %rdi
	call	system@PLT
	.loc 1 70 130 discriminator 12
	call	_ZN6Logger11getInstanceEv@PLT
	.loc 1 70 152 discriminator 12
	call	_ZN6Logger11getInstanceEv@PLT
	.loc 1 70 152 is_stmt 0 discriminator 13
	movq	%rax, %rbx
	.loc 1 70 165 is_stmt 1 discriminator 13
	movl	$70, %r9d
	leaq	.LC26(%rip), %r8
	movl	$70, %ecx
	leaq	.LC12(%rip), %rax
	movq	%rax, %rdx
	leaq	.LC18(%rip), %rax
	movq	%rax, %rsi
	movl	$-1, %edi
	movl	$0, %eax
	call	_Z6MsgRetiPKcz@PLT
	.loc 1 70 165 is_stmt 0 discriminator 14
	movl	%eax, %esi
	subq	$8, %rsp
	pushq	$70
	leaq	.LC26(%rip), %r9
	movl	$70, %r8d
	leaq	.LC12(%rip), %rax
	movq	%rax, %rcx
	leaq	.LC19(%rip), %rax
	movq	%rax, %rdx
	movq	%rbx, %rdi
	movl	$0, %eax
	.cfi_escape 0x2e,0x10
	call	_ZN6Logger9LogMsgRetEiPKcz@PLT
	.loc 1 70 165 discriminator 15
	addq	$16, %rsp
	movl	%eax, %ebx
	.loc 1 70 346 is_stmt 1 discriminator 15
	jmp	.L12
.L11:
	.loc 1 71 13
	movq	-184(%rbp), %rax
	leaq	.LC27(%rip), %rdx
	movq	%rdx, %rsi
	movq	%rax, %rdi
	.cfi_escape 0x2e,0
	call	_Z8LogTokenPK5TokenPKc@PLT
	.loc 1 73 5
	cmpq	$0, -184(%rbp)
	je	.L13
	.loc 1 73 30 discriminator 1
	movq	-184(%rbp), %rax
	addq	$16, %rax
	movq	%rax, %rdx
	movq	%rdx, %rax
	shrq	$3, %rax
	addq	$2147450880, %rax
	movzbl	(%rax), %eax
	testb	%al, %al
	setne	%cl
	cmpb	$3, %al
	setle	%al
	andl	%ecx, %eax
	testb	%al, %al
	je	.L14
	.loc 1 73 30 is_stmt 0
	movq	%rdx, %rdi
	call	__asan_report_load4@PLT
.L14:
	.loc 1 73 30 discriminator 1
	movq	-184(%rbp), %rax
	movl	16(%rax), %eax
	.loc 1 73 49 is_stmt 1 discriminator 1
	cmpl	$7, %eax
	jne	.L13
	.loc 1 74 63
	movq	-184(%rbp), %rax
	addq	$24, %rax
	movq	%rax, %rdx
	shrq	$3, %rdx
	addq	$2147450880, %rdx
	movzbl	(%rdx), %edx
	testb	%dl, %dl
	je	.L15
	movq	%rax, %rdi
	call	__asan_report_load8@PLT
.L15:
	movq	-184(%rbp), %rax
	movsd	24(%rax), %xmm1
	.loc 1 74 49
	movsd	.LC28(%rip), %xmm0
	mulsd	%xmm0, %xmm1
	movq	%xmm1, %rax
	movq	%rax, %xmm0
	call	floor@PLT
	.loc 1 74 24
	cvttsd2sil	%xmm0, %eax
	movl	%eax, %esi
	leaq	.LC29(%rip), %rax
	movq	%rax, %rdi
	movl	$0, %eax
	call	_ZL8assprintPKcz
	.loc 1 74 89 discriminator 1
	movl	$0, %ebx
	jmp	.L12
.L13:
.LBB2:
	.loc 1 76 5
	cmpq	$0, -184(%rbp)
	je	.L16
	.loc 1 76 29 discriminator 1
	movq	-184(%rbp), %rax
	addq	$16, %rax
	movq	%rax, %rdx
	movq	%rdx, %rax
	shrq	$3, %rax
	addq	$2147450880, %rax
	movzbl	(%rax), %eax
	testb	%al, %al
	setne	%cl
	cmpb	$3, %al
	setle	%al
	andl	%ecx, %eax
	testb	%al, %al
	je	.L17
	.loc 1 76 29 is_stmt 0
	movq	%rdx, %rdi
	call	__asan_report_load4@PLT
.L17:
	.loc 1 76 29 discriminator 1
	movq	-184(%rbp), %rax
	movl	16(%rax), %eax
	.loc 1 76 50 is_stmt 1 discriminator 1
	cmpl	$1, %eax
	jne	.L16
.LBB3:
	.loc 1 80 57
	movl	_ZZL8AddToAsmPK5TokenE22number_of_instructions(%rip), %eax
	leal	1(%rax), %edx
	movl	%edx, _ZZL8AddToAsmPK5TokenE22number_of_instructions(%rip)
	movl	%eax, -164(%rbp)
.LBB4:
	.loc 1 82 30
	movq	-184(%rbp), %rax
	addq	$24, %rax
	movq	%rax, %rdx
	movq	%rdx, %rax
	shrq	$3, %rax
	addq	$2147450880, %rax
	movzbl	(%rax), %eax
	testb	%al, %al
	setne	%cl
	cmpb	$3, %al
	setle	%al
	andl	%ecx, %eax
	testb	%al, %al
	je	.L18
	movq	%rdx, %rdi
	call	__asan_report_load4@PLT
.L18:
	movq	-184(%rbp), %rax
	movl	24(%rax), %eax
	.loc 1 82 9
	cmpl	$3, %eax
	je	.L19
	cmpl	$3, %eax
	jg	.L20
	cmpl	$2, %eax
	je	.L21
	cmpl	$2, %eax
	jg	.L20
	testl	%eax, %eax
	je	.L22
	cmpl	$1, %eax
	jne	.L20
.LBB5:
	.loc 1 86 23
	movl	$86, %r8d
	leaq	.LC26(%rip), %rax
	movq	%rax, %rcx
	movl	$86, %edx
	leaq	.LC12(%rip), %rax
	movq	%rax, %rsi
	leaq	.LC30(%rip), %rax
	movq	%rax, %rdi
	movl	$0, %eax
	call	printf@PLT
	.loc 1 86 174 discriminator 1
	call	_ZN6Logger11getInstanceEv@PLT
	movq	%rax, %rdi
	.loc 1 86 180 discriminator 1
	movl	$86, %r9d
	leaq	.LC26(%rip), %r8
	movl	$86, %ecx
	leaq	.LC12(%rip), %rax
	movq	%rax, %rdx
	leaq	.LC31(%rip), %rax
	movq	%rax, %rsi
	movl	$0, %eax
	call	_ZN6Logger3logEPKcz@PLT
	.loc 1 87 23
	leaq	.LC32(%rip), %rax
	movq	%rax, %rcx
	movl	$87, %edx
	leaq	.LC12(%rip), %rax
	movq	%rax, %rsi
	leaq	.LC33(%rip), %rax
	movq	%rax, %rdi
	movl	$0, %eax
	call	printf@PLT
	.loc 1 87 166 discriminator 1
	call	_ZN6Logger11getInstanceEv@PLT
	movq	%rax, %rdi
	.loc 1 87 172 discriminator 1
	leaq	.LC32(%rip), %r8
	movl	$87, %ecx
	leaq	.LC12(%rip), %rax
	movq	%rax, %rdx
	leaq	.LC34(%rip), %rax
	movq	%rax, %rsi
	movl	$0, %eax
	call	_ZN6Logger3logEPKcz@PLT
	.loc 1 87 294 discriminator 3
	call	_ZN6Logger11getInstanceEv@PLT
	movq	%rax, %rdx
	.loc 1 87 300 discriminator 3
	leaq	.LC32(%rip), %rax
	movq	%rax, %rsi
	movq	%rdx, %rdi
	movl	$0, %eax
	call	_ZN6Logger3logEPKcz@PLT
	.loc 1 88 43
	call	_ZN6Logger11getInstanceEv@PLT
	.loc 1 88 65
	call	_ZN6Logger11getInstanceEv@PLT
	.loc 1 88 65 is_stmt 0 discriminator 1
	movq	%rax, %rbx
	.loc 1 88 78 is_stmt 1 discriminator 1
	movl	$88, %r9d
	leaq	.LC26(%rip), %r8
	movl	$88, %ecx
	leaq	.LC12(%rip), %rax
	movq	%rax, %rdx
	leaq	.LC18(%rip), %rax
	movq	%rax, %rsi
	movl	$-1, %edi
	movl	$0, %eax
	call	_Z6MsgRetiPKcz@PLT
	.loc 1 88 78 is_stmt 0 discriminator 2
	movl	%eax, %esi
	subq	$8, %rsp
	pushq	$88
	leaq	.LC26(%rip), %r9
	movl	$88, %r8d
	leaq	.LC12(%rip), %rax
	movq	%rax, %rcx
	leaq	.LC19(%rip), %rax
	movq	%rax, %rdx
	movq	%rbx, %rdi
	movl	$0, %eax
	.cfi_escape 0x2e,0x10
	call	_ZN6Logger9LogMsgRetEiPKcz@PLT
	.loc 1 88 78 discriminator 3
	addq	$16, %rsp
	movl	%eax, %ebx
	.loc 1 88 259 is_stmt 1 discriminator 3
	jmp	.L12
.L22:
.LBB6:
.LBB7:
	.loc 1 92 30
	movq	-184(%rbp), %rax
	addq	$8, %rax
	movq	%rax, %rdx
	shrq	$3, %rdx
	addq	$2147450880, %rdx
	movzbl	(%rdx), %edx
	testb	%dl, %dl
	je	.L23
	movq	%rax, %rdi
	call	__asan_report_load8@PLT
.L23:
	movq	-184(%rbp), %rax
	movq	8(%rax), %rax
	.loc 1 92 17
	testq	%rax, %rax
	je	.L24
	.loc 1 92 54 discriminator 1
	movq	-184(%rbp), %rax
	movq	8(%rax), %rax
	.loc 1 92 67 discriminator 1
	leaq	16(%rax), %rdx
	movq	%rdx, %rcx
	movq	%rcx, %rdx
	shrq	$3, %rdx
	addq	$2147450880, %rdx
	movzbl	(%rdx), %edx
	testb	%dl, %dl
	setne	%sil
	cmpb	$3, %dl
	setle	%dl
	andl	%esi, %edx
	testb	%dl, %dl
	je	.L25
	.loc 1 92 67 is_stmt 0
	movq	%rcx, %rdi
	call	__asan_report_load4@PLT
.L25:
	.loc 1 92 67 discriminator 1
	movl	16(%rax), %eax
	.loc 1 92 88 is_stmt 1 discriminator 1
	cmpl	$1, %eax
	jne	.L24
	.loc 1 92 114 discriminator 2
	movq	-184(%rbp), %rax
	movq	8(%rax), %rax
	.loc 1 92 133 discriminator 2
	leaq	24(%rax), %rdx
	movq	%rdx, %rcx
	movq	%rcx, %rdx
	shrq	$3, %rdx
	addq	$2147450880, %rdx
	movzbl	(%rdx), %edx
	testb	%dl, %dl
	setne	%sil
	cmpb	$3, %dl
	setle	%dl
	andl	%esi, %edx
	testb	%dl, %dl
	je	.L26
	.loc 1 92 133 is_stmt 0
	movq	%rcx, %rdi
	call	__asan_report_load4@PLT
.L26:
	.loc 1 92 133 discriminator 2
	movl	24(%rax), %eax
	.loc 1 92 104 is_stmt 1 discriminator 2
	cmpl	$1, %eax
	jne	.L24
.LBB8:
	.loc 1 94 45
	movq	-184(%rbp), %rax
	movq	8(%rax), %rax
	.loc 1 94 28
	movq	%rax, %rdx
	movq	%rdx, %rcx
	shrq	$3, %rcx
	addq	$2147450880, %rcx
	movzbl	(%rcx), %ecx
	testb	%cl, %cl
	je	.L27
	movq	%rdx, %rdi
	call	__asan_report_load8@PLT
.L27:
	movq	(%rax), %rax
	movq	%rax, -160(%rbp)
	.loc 1 95 47
	movq	-184(%rbp), %rax
	movq	8(%rax), %rax
	.loc 1 95 28
	leaq	8(%rax), %rdx
	movq	%rdx, %rcx
	shrq	$3, %rcx
	addq	$2147450880, %rcx
	movzbl	(%rcx), %ecx
	testb	%cl, %cl
	je	.L28
	movq	%rdx, %rdi
	call	__asan_report_load8@PLT
.L28:
	movq	8(%rax), %rax
	movq	%rax, -152(%rbp)
	.loc 1 97 30
	cmpq	$0, -184(%rbp)
	je	.L29
	.loc 1 97 90 discriminator 1
	movq	-184(%rbp), %rax
	addq	$16, %rax
	movq	%rax, %rdx
	movq	%rdx, %rax
	shrq	$3, %rax
	addq	$2147450880, %rax
	movzbl	(%rax), %eax
	testb	%al, %al
	setne	%cl
	cmpb	$3, %al
	setle	%al
	andl	%ecx, %eax
	testb	%al, %al
	je	.L30
	.loc 1 97 90 is_stmt 0
	movq	%rdx, %rdi
	call	__asan_report_load4@PLT
.L30:
	.loc 1 97 90 discriminator 1
	movq	-184(%rbp), %rax
	movl	16(%rax), %eax
	.loc 1 97 111 is_stmt 1 discriminator 1
	cmpl	$1, %eax
	jne	.L29
	.loc 1 97 155 discriminator 3
	movq	-184(%rbp), %rax
	addq	$24, %rax
	movq	%rax, %rdx
	movq	%rdx, %rax
	shrq	$3, %rax
	addq	$2147450880, %rax
	movzbl	(%rax), %eax
	testb	%al, %al
	setne	%cl
	cmpb	$3, %al
	setle	%al
	andl	%ecx, %eax
	testb	%al, %al
	je	.L31
	.loc 1 97 155 is_stmt 0
	movq	%rdx, %rdi
	call	__asan_report_load4@PLT
.L31:
	.loc 1 97 155 discriminator 3
	movq	-184(%rbp), %rax
	movl	24(%rax), %eax
	.loc 1 97 30 is_stmt 1 discriminator 3
	movslq	%eax, %rdx
	leaq	0(,%rdx,8), %rcx
	leaq	_ZL12INSTRUCTIONS(%rip), %rdx
	addq	%rcx, %rdx
	movq	%rdx, %rcx
	shrq	$3, %rcx
	addq	$2147450880, %rcx
	movzbl	(%rcx), %ecx
	testb	%cl, %cl
	je	.L32
	.loc 1 97 30 is_stmt 0
	movq	%rdx, %rdi
	call	__asan_report_load8@PLT
.L32:
	.loc 1 97 30 discriminator 3
	cltq
	leaq	0(,%rax,8), %rdx
	leaq	_ZL12INSTRUCTIONS(%rip), %rax
	movq	(%rdx,%rax), %rax
	jmp	.L33
.L29:
	.loc 1 97 30 discriminator 4
	leaq	.LC35(%rip), %rax
.L33:
	.loc 1 97 30 discriminator 6
	movl	-164(%rbp), %edx
	movq	%rax, %rsi
	leaq	.LC36(%rip), %rax
	movq	%rax, %rdi
	movl	$0, %eax
	.cfi_escape 0x2e,0
	call	_ZL8assprintPKcz
	.loc 1 98 48 is_stmt 1
	movq	-184(%rbp), %rax
	movq	%rax, %rdx
	shrq	$3, %rdx
	addq	$2147450880, %rdx
	movzbl	(%rdx), %edx
	testb	%dl, %dl
	je	.L34
	movq	%rax, %rdi
	call	__asan_report_load8@PLT
.L34:
	movq	-184(%rbp), %rax
	movq	(%rax), %rax
	.loc 1 98 39
	movq	%rax, %rdi
	call	_ZL8AddToAsmPK5Token
	.loc 1 98 60
	testl	%eax, %eax
	setne	%al
	.loc 1 98 26
	testb	%al, %al
	je	.L35
	.loc 1 98 93 discriminator 2
	call	_ZN6Logger11getInstanceEv@PLT
	movq	%rax, %rdi
	.loc 1 98 99 discriminator 2
	movl	$98, %ecx
	leaq	.LC26(%rip), %rax
	movq	%rax, %rdx
	leaq	.LC37(%rip), %rax
	movq	%rax, %rsi
	movl	$0, %eax
	call	_ZN6Logger3logEPKcz@PLT
	.loc 1 98 191 discriminator 4
	movl	$-1, %ebx
	jmp	.L12
.L35:
	.loc 1 100 29
	leaq	.LC38(%rip), %rax
	movq	%rax, %rdi
	movl	$0, %eax
	call	_ZL8assprintPKcz
	.loc 1 101 54
	movl	$0, %edi
	call	_ZSt5floorIiEN9__gnu_cxx11__enable_ifIXsrSt12__is_integerIT_E7__valueEdE6__typeES3_
	.loc 1 101 29
	cvttsd2sil	%xmm0, %eax
	movl	%eax, %esi
	leaq	.LC29(%rip), %rax
	movq	%rax, %rdi
	movl	$0, %eax
	call	_ZL8assprintPKcz
	.loc 1 102 30
	movl	-164(%rbp), %eax
	movl	%eax, %esi
	leaq	.LC39(%rip), %rax
	movq	%rax, %rdi
	movl	$0, %eax
	call	_ZL8assprintPKcz
	.loc 1 103 30
	leaq	.LC40(%rip), %rax
	movq	%rax, %rdi
	movl	$0, %eax
	call	_ZL8assprintPKcz
	.loc 1 105 29
	leaq	.LC41(%rip), %rax
	movq	%rax, %rdi
	movl	$0, %eax
	call	_ZL8assprintPKcz
	.loc 1 106 39
	movq	-160(%rbp), %rax
	movq	%rax, %rdi
	call	_ZL8AddToAsmPK5Token
	.loc 1 106 49
	testl	%eax, %eax
	setne	%al
	.loc 1 106 26
	testb	%al, %al
	je	.L36
	.loc 1 106 82 discriminator 2
	call	_ZN6Logger11getInstanceEv@PLT
	movq	%rax, %rdi
	.loc 1 106 88 discriminator 2
	movl	$106, %ecx
	leaq	.LC26(%rip), %rax
	movq	%rax, %rdx
	leaq	.LC42(%rip), %rax
	movq	%rax, %rsi
	movl	$0, %eax
	call	_ZN6Logger3logEPKcz@PLT
	.loc 1 106 176 discriminator 4
	movl	$-1, %ebx
	jmp	.L12
.L36:
	.loc 1 107 30
	movl	-164(%rbp), %eax
	movl	%eax, %esi
	leaq	.LC43(%rip), %rax
	movq	%rax, %rdi
	movl	$0, %eax
	call	_ZL8assprintPKcz
	.loc 1 109 29
	leaq	.LC44(%rip), %rax
	movq	%rax, %rdi
	movl	$0, %eax
	call	_ZL8assprintPKcz
	.loc 1 110 29
	movl	-164(%rbp), %eax
	movl	%eax, %esi
	leaq	.LC45(%rip), %rax
	movq	%rax, %rdi
	movl	$0, %eax
	call	_ZL8assprintPKcz
	.loc 1 111 39
	movq	-152(%rbp), %rax
	movq	%rax, %rdi
	call	_ZL8AddToAsmPK5Token
	.loc 1 111 51
	testl	%eax, %eax
	setne	%al
	.loc 1 111 26
	testb	%al, %al
	je	.L37
	.loc 1 111 84 discriminator 2
	call	_ZN6Logger11getInstanceEv@PLT
	movq	%rax, %rdi
	.loc 1 111 90 discriminator 2
	movl	$111, %ecx
	leaq	.LC26(%rip), %rax
	movq	%rax, %rdx
	leaq	.LC46(%rip), %rax
	movq	%rax, %rsi
	movl	$0, %eax
	call	_ZN6Logger3logEPKcz@PLT
	.loc 1 111 180 discriminator 4
	movl	$-1, %ebx
	jmp	.L12
.L37:
	.loc 1 113 30
	movl	-164(%rbp), %eax
	movl	%eax, %esi
	leaq	.LC47(%rip), %rax
	movq	%rax, %rdi
	movl	$0, %eax
	call	_ZL8assprintPKcz
.LBE8:
	.loc 1 114 21
	jmp	.L121
.L24:
	.loc 1 117 30
	cmpq	$0, -184(%rbp)
	je	.L39
	.loc 1 117 79 discriminator 1
	movq	-184(%rbp), %rax
	addq	$16, %rax
	movq	%rax, %rdx
	movq	%rdx, %rax
	shrq	$3, %rax
	addq	$2147450880, %rax
	movzbl	(%rax), %eax
	testb	%al, %al
	setne	%cl
	cmpb	$3, %al
	setle	%al
	andl	%ecx, %eax
	testb	%al, %al
	je	.L40
	.loc 1 117 79 is_stmt 0
	movq	%rdx, %rdi
	call	__asan_report_load4@PLT
.L40:
	.loc 1 117 79 discriminator 1
	movq	-184(%rbp), %rax
	movl	16(%rax), %eax
	.loc 1 117 100 is_stmt 1 discriminator 1
	cmpl	$1, %eax
	jne	.L39
	.loc 1 117 144 discriminator 3
	movq	-184(%rbp), %rax
	addq	$24, %rax
	movq	%rax, %rdx
	movq	%rdx, %rax
	shrq	$3, %rax
	addq	$2147450880, %rax
	movzbl	(%rax), %eax
	testb	%al, %al
	setne	%cl
	cmpb	$3, %al
	setle	%al
	andl	%ecx, %eax
	testb	%al, %al
	je	.L41
	.loc 1 117 144 is_stmt 0
	movq	%rdx, %rdi
	call	__asan_report_load4@PLT
.L41:
	.loc 1 117 144 discriminator 3
	movq	-184(%rbp), %rax
	movl	24(%rax), %eax
	.loc 1 117 30 is_stmt 1 discriminator 3
	movslq	%eax, %rdx
	leaq	0(,%rdx,8), %rcx
	leaq	_ZL12INSTRUCTIONS(%rip), %rdx
	addq	%rcx, %rdx
	movq	%rdx, %rcx
	shrq	$3, %rcx
	addq	$2147450880, %rcx
	movzbl	(%rcx), %ecx
	testb	%cl, %cl
	je	.L42
	.loc 1 117 30 is_stmt 0
	movq	%rdx, %rdi
	call	__asan_report_load8@PLT
.L42:
	.loc 1 117 30 discriminator 3
	cltq
	leaq	0(,%rax,8), %rdx
	leaq	_ZL12INSTRUCTIONS(%rip), %rax
	movq	(%rdx,%rax), %rax
	jmp	.L43
.L39:
	.loc 1 117 30 discriminator 4
	leaq	.LC35(%rip), %rax
.L43:
	.loc 1 117 30 discriminator 6
	movl	-164(%rbp), %edx
	movq	%rax, %rsi
	leaq	.LC48(%rip), %rax
	movq	%rax, %rdi
	movl	$0, %eax
	call	_ZL8assprintPKcz
	.loc 1 118 48 is_stmt 1
	movq	-184(%rbp), %rax
	movq	%rax, %rdx
	shrq	$3, %rdx
	addq	$2147450880, %rdx
	movzbl	(%rdx), %edx
	testb	%dl, %dl
	je	.L44
	movq	%rax, %rdi
	call	__asan_report_load8@PLT
.L44:
	movq	-184(%rbp), %rax
	movq	(%rax), %rax
	.loc 1 118 39
	movq	%rax, %rdi
	call	_ZL8AddToAsmPK5Token
	.loc 1 118 60
	testl	%eax, %eax
	setne	%al
	.loc 1 118 26
	testb	%al, %al
	je	.L45
	.loc 1 118 93 discriminator 2
	call	_ZN6Logger11getInstanceEv@PLT
	movq	%rax, %rdi
	.loc 1 118 99 discriminator 2
	movl	$118, %ecx
	leaq	.LC26(%rip), %rax
	movq	%rax, %rdx
	leaq	.LC37(%rip), %rax
	movq	%rax, %rsi
	movl	$0, %eax
	call	_ZN6Logger3logEPKcz@PLT
	.loc 1 118 192 discriminator 4
	movl	$-1, %ebx
	jmp	.L12
.L45:
	.loc 1 120 29
	leaq	.LC38(%rip), %rax
	movq	%rax, %rdi
	movl	$0, %eax
	call	_ZL8assprintPKcz
	.loc 1 121 54
	movl	$0, %edi
	call	_ZSt5floorIiEN9__gnu_cxx11__enable_ifIXsrSt12__is_integerIT_E7__valueEdE6__typeES3_
	.loc 1 121 29
	cvttsd2sil	%xmm0, %eax
	movl	%eax, %esi
	leaq	.LC29(%rip), %rax
	movq	%rax, %rdi
	movl	$0, %eax
	call	_ZL8assprintPKcz
	.loc 1 122 30
	cmpq	$0, -184(%rbp)
	je	.L46
	.loc 1 122 78 discriminator 1
	movq	-184(%rbp), %rax
	addq	$16, %rax
	movq	%rax, %rdx
	movq	%rdx, %rax
	shrq	$3, %rax
	addq	$2147450880, %rax
	movzbl	(%rax), %eax
	testb	%al, %al
	setne	%cl
	cmpb	$3, %al
	setle	%al
	andl	%ecx, %eax
	testb	%al, %al
	je	.L47
	.loc 1 122 78 is_stmt 0
	movq	%rdx, %rdi
	call	__asan_report_load4@PLT
.L47:
	.loc 1 122 78 discriminator 1
	movq	-184(%rbp), %rax
	movl	16(%rax), %eax
	.loc 1 122 99 is_stmt 1 discriminator 1
	cmpl	$1, %eax
	jne	.L46
	.loc 1 122 143 discriminator 3
	movq	-184(%rbp), %rax
	addq	$24, %rax
	movq	%rax, %rdx
	movq	%rdx, %rax
	shrq	$3, %rax
	addq	$2147450880, %rax
	movzbl	(%rax), %eax
	testb	%al, %al
	setne	%cl
	cmpb	$3, %al
	setle	%al
	andl	%ecx, %eax
	testb	%al, %al
	je	.L48
	.loc 1 122 143 is_stmt 0
	movq	%rdx, %rdi
	call	__asan_report_load4@PLT
.L48:
	.loc 1 122 143 discriminator 3
	movq	-184(%rbp), %rax
	movl	24(%rax), %eax
	.loc 1 122 30 is_stmt 1 discriminator 3
	movslq	%eax, %rdx
	leaq	0(,%rdx,8), %rcx
	leaq	_ZL12INSTRUCTIONS(%rip), %rdx
	addq	%rcx, %rdx
	movq	%rdx, %rcx
	shrq	$3, %rcx
	addq	$2147450880, %rcx
	movzbl	(%rcx), %ecx
	testb	%cl, %cl
	je	.L49
	.loc 1 122 30 is_stmt 0
	movq	%rdx, %rdi
	call	__asan_report_load8@PLT
.L49:
	.loc 1 122 30 discriminator 3
	cltq
	leaq	0(,%rax,8), %rdx
	leaq	_ZL12INSTRUCTIONS(%rip), %rax
	movq	(%rdx,%rax), %rax
	jmp	.L50
.L46:
	.loc 1 122 30 discriminator 4
	leaq	.LC35(%rip), %rax
.L50:
	.loc 1 122 30 discriminator 6
	movl	-164(%rbp), %edx
	movq	%rax, %rsi
	leaq	.LC49(%rip), %rax
	movq	%rax, %rdi
	movl	$0, %eax
	call	_ZL8assprintPKcz
	.loc 1 123 30 is_stmt 1
	leaq	.LC40(%rip), %rax
	movq	%rax, %rdi
	movl	$0, %eax
	call	_ZL8assprintPKcz
	.loc 1 125 29
	cmpq	$0, -184(%rbp)
	je	.L51
	.loc 1 125 66 discriminator 1
	movq	-184(%rbp), %rax
	addq	$16, %rax
	movq	%rax, %rdx
	movq	%rdx, %rax
	shrq	$3, %rax
	addq	$2147450880, %rax
	movzbl	(%rax), %eax
	testb	%al, %al
	setne	%cl
	cmpb	$3, %al
	setle	%al
	andl	%ecx, %eax
	testb	%al, %al
	je	.L52
	.loc 1 125 66 is_stmt 0
	movq	%rdx, %rdi
	call	__asan_report_load4@PLT
.L52:
	.loc 1 125 66 discriminator 1
	movq	-184(%rbp), %rax
	movl	16(%rax), %eax
	.loc 1 125 87 is_stmt 1 discriminator 1
	cmpl	$1, %eax
	jne	.L51
	.loc 1 125 131 discriminator 3
	movq	-184(%rbp), %rax
	addq	$24, %rax
	movq	%rax, %rdx
	movq	%rdx, %rax
	shrq	$3, %rax
	addq	$2147450880, %rax
	movzbl	(%rax), %eax
	testb	%al, %al
	setne	%cl
	cmpb	$3, %al
	setle	%al
	andl	%ecx, %eax
	testb	%al, %al
	je	.L53
	.loc 1 125 131 is_stmt 0
	movq	%rdx, %rdi
	call	__asan_report_load4@PLT
.L53:
	.loc 1 125 131 discriminator 3
	movq	-184(%rbp), %rax
	movl	24(%rax), %eax
	.loc 1 125 29 is_stmt 1 discriminator 3
	movslq	%eax, %rdx
	leaq	0(,%rdx,8), %rcx
	leaq	_ZL12INSTRUCTIONS(%rip), %rdx
	addq	%rcx, %rdx
	movq	%rdx, %rcx
	shrq	$3, %rcx
	addq	$2147450880, %rcx
	movzbl	(%rcx), %ecx
	testb	%cl, %cl
	je	.L54
	.loc 1 125 29 is_stmt 0
	movq	%rdx, %rdi
	call	__asan_report_load8@PLT
.L54:
	.loc 1 125 29 discriminator 3
	cltq
	leaq	0(,%rax,8), %rdx
	leaq	_ZL12INSTRUCTIONS(%rip), %rax
	movq	(%rdx,%rax), %rax
	jmp	.L55
.L51:
	.loc 1 125 29 discriminator 4
	leaq	.LC35(%rip), %rax
.L55:
	.loc 1 125 29 discriminator 6
	movq	%rax, %rsi
	leaq	.LC50(%rip), %rax
	movq	%rax, %rdi
	movl	$0, %eax
	call	_ZL8assprintPKcz
	.loc 1 126 47 is_stmt 1
	movq	-184(%rbp), %rax
	addq	$8, %rax
	movq	%rax, %rdx
	shrq	$3, %rdx
	addq	$2147450880, %rdx
	movzbl	(%rdx), %edx
	testb	%dl, %dl
	je	.L56
	movq	%rax, %rdi
	call	__asan_report_load8@PLT
.L56:
	movq	-184(%rbp), %rax
	movq	8(%rax), %rax
	.loc 1 126 39
	movq	%rax, %rdi
	call	_ZL8AddToAsmPK5Token
	.loc 1 126 60
	testl	%eax, %eax
	setne	%al
	.loc 1 126 26
	testb	%al, %al
	je	.L57
	.loc 1 126 93 discriminator 2
	call	_ZN6Logger11getInstanceEv@PLT
	movq	%rax, %rdi
	.loc 1 126 99 discriminator 2
	movl	$126, %ecx
	leaq	.LC26(%rip), %rax
	movq	%rax, %rdx
	leaq	.LC51(%rip), %rax
	movq	%rax, %rsi
	movl	$0, %eax
	call	_ZN6Logger3logEPKcz@PLT
	.loc 1 126 192 discriminator 4
	movl	$-1, %ebx
	jmp	.L12
.L57:
	.loc 1 127 30
	cmpq	$0, -184(%rbp)
	je	.L58
	.loc 1 127 75 discriminator 1
	movq	-184(%rbp), %rax
	addq	$16, %rax
	movq	%rax, %rdx
	movq	%rdx, %rax
	shrq	$3, %rax
	addq	$2147450880, %rax
	movzbl	(%rax), %eax
	testb	%al, %al
	setne	%cl
	cmpb	$3, %al
	setle	%al
	andl	%ecx, %eax
	testb	%al, %al
	je	.L59
	.loc 1 127 75 is_stmt 0
	movq	%rdx, %rdi
	call	__asan_report_load4@PLT
.L59:
	.loc 1 127 75 discriminator 1
	movq	-184(%rbp), %rax
	movl	16(%rax), %eax
	.loc 1 127 96 is_stmt 1 discriminator 1
	cmpl	$1, %eax
	jne	.L58
	.loc 1 127 140 discriminator 3
	movq	-184(%rbp), %rax
	addq	$24, %rax
	movq	%rax, %rdx
	movq	%rdx, %rax
	shrq	$3, %rax
	addq	$2147450880, %rax
	movzbl	(%rax), %eax
	testb	%al, %al
	setne	%cl
	cmpb	$3, %al
	setle	%al
	andl	%ecx, %eax
	testb	%al, %al
	je	.L60
	.loc 1 127 140 is_stmt 0
	movq	%rdx, %rdi
	call	__asan_report_load4@PLT
.L60:
	.loc 1 127 140 discriminator 3
	movq	-184(%rbp), %rax
	movl	24(%rax), %eax
	.loc 1 127 30 is_stmt 1 discriminator 3
	movslq	%eax, %rdx
	leaq	0(,%rdx,8), %rcx
	leaq	_ZL12INSTRUCTIONS(%rip), %rdx
	addq	%rcx, %rdx
	movq	%rdx, %rcx
	shrq	$3, %rcx
	addq	$2147450880, %rcx
	movzbl	(%rcx), %ecx
	testb	%cl, %cl
	je	.L61
	.loc 1 127 30 is_stmt 0
	movq	%rdx, %rdi
	call	__asan_report_load8@PLT
.L61:
	.loc 1 127 30 discriminator 3
	cltq
	leaq	0(,%rax,8), %rdx
	leaq	_ZL12INSTRUCTIONS(%rip), %rax
	movq	(%rdx,%rax), %rax
	jmp	.L62
.L58:
	.loc 1 127 30 discriminator 4
	leaq	.LC35(%rip), %rax
.L62:
	.loc 1 127 30 discriminator 6
	movl	-164(%rbp), %edx
	movq	%rax, %rsi
	leaq	.LC52(%rip), %rax
	movq	%rax, %rdi
	movl	$0, %eax
	call	_ZL8assprintPKcz
.LBE7:
	.loc 1 130 17 is_stmt 1
	jmp	.L63
.L121:
	jmp	.L63
.L21:
.LBE6:
	.loc 1 134 26
	cmpq	$0, -184(%rbp)
	je	.L64
	.loc 1 134 75 discriminator 1
	movq	-184(%rbp), %rax
	addq	$16, %rax
	movq	%rax, %rdx
	movq	%rdx, %rax
	shrq	$3, %rax
	addq	$2147450880, %rax
	movzbl	(%rax), %eax
	testb	%al, %al
	setne	%cl
	cmpb	$3, %al
	setle	%al
	andl	%ecx, %eax
	testb	%al, %al
	je	.L65
	.loc 1 134 75 is_stmt 0
	movq	%rdx, %rdi
	call	__asan_report_load4@PLT
.L65:
	.loc 1 134 75 discriminator 1
	movq	-184(%rbp), %rax
	movl	16(%rax), %eax
	.loc 1 134 96 is_stmt 1 discriminator 1
	cmpl	$1, %eax
	jne	.L64
	.loc 1 134 140 discriminator 3
	movq	-184(%rbp), %rax
	addq	$24, %rax
	movq	%rax, %rdx
	movq	%rdx, %rax
	shrq	$3, %rax
	addq	$2147450880, %rax
	movzbl	(%rax), %eax
	testb	%al, %al
	setne	%cl
	cmpb	$3, %al
	setle	%al
	andl	%ecx, %eax
	testb	%al, %al
	je	.L66
	.loc 1 134 140 is_stmt 0
	movq	%rdx, %rdi
	call	__asan_report_load4@PLT
.L66:
	.loc 1 134 140 discriminator 3
	movq	-184(%rbp), %rax
	movl	24(%rax), %eax
	.loc 1 134 26 is_stmt 1 discriminator 3
	movslq	%eax, %rdx
	leaq	0(,%rdx,8), %rcx
	leaq	_ZL12INSTRUCTIONS(%rip), %rdx
	addq	%rcx, %rdx
	movq	%rdx, %rcx
	shrq	$3, %rcx
	addq	$2147450880, %rcx
	movzbl	(%rcx), %ecx
	testb	%cl, %cl
	je	.L67
	.loc 1 134 26 is_stmt 0
	movq	%rdx, %rdi
	call	__asan_report_load8@PLT
.L67:
	.loc 1 134 26 discriminator 3
	cltq
	leaq	0(,%rax,8), %rdx
	leaq	_ZL12INSTRUCTIONS(%rip), %rax
	movq	(%rdx,%rax), %rax
	jmp	.L68
.L64:
	.loc 1 134 26 discriminator 4
	leaq	.LC35(%rip), %rax
.L68:
	.loc 1 134 26 discriminator 6
	movl	-164(%rbp), %edx
	movq	%rax, %rsi
	leaq	.LC48(%rip), %rax
	movq	%rax, %rdi
	movl	$0, %eax
	call	_ZL8assprintPKcz
	.loc 1 135 44 is_stmt 1
	movq	-184(%rbp), %rax
	movq	%rax, %rdx
	shrq	$3, %rdx
	addq	$2147450880, %rdx
	movzbl	(%rdx), %edx
	testb	%dl, %dl
	je	.L69
	movq	%rax, %rdi
	call	__asan_report_load8@PLT
.L69:
	movq	-184(%rbp), %rax
	movq	(%rax), %rax
	.loc 1 135 35
	movq	%rax, %rdi
	call	_ZL8AddToAsmPK5Token
	.loc 1 135 56
	testl	%eax, %eax
	setne	%al
	.loc 1 135 22
	testb	%al, %al
	je	.L70
	.loc 1 135 89 discriminator 2
	call	_ZN6Logger11getInstanceEv@PLT
	movq	%rax, %rdi
	.loc 1 135 95 discriminator 2
	movl	$135, %ecx
	leaq	.LC26(%rip), %rax
	movq	%rax, %rdx
	leaq	.LC37(%rip), %rax
	movq	%rax, %rsi
	movl	$0, %eax
	call	_ZN6Logger3logEPKcz@PLT
	.loc 1 135 188 discriminator 4
	movl	$-1, %ebx
	jmp	.L12
.L70:
	.loc 1 137 25
	leaq	.LC38(%rip), %rax
	movq	%rax, %rdi
	movl	$0, %eax
	call	_ZL8assprintPKcz
	.loc 1 138 50
	movl	$0, %edi
	call	_ZSt5floorIiEN9__gnu_cxx11__enable_ifIXsrSt12__is_integerIT_E7__valueEdE6__typeES3_
	.loc 1 138 25
	cvttsd2sil	%xmm0, %eax
	movl	%eax, %esi
	leaq	.LC29(%rip), %rax
	movq	%rax, %rdi
	movl	$0, %eax
	call	_ZL8assprintPKcz
	.loc 1 139 26
	cmpq	$0, -184(%rbp)
	je	.L71
	.loc 1 139 74 discriminator 1
	movq	-184(%rbp), %rax
	addq	$16, %rax
	movq	%rax, %rdx
	movq	%rdx, %rax
	shrq	$3, %rax
	addq	$2147450880, %rax
	movzbl	(%rax), %eax
	testb	%al, %al
	setne	%cl
	cmpb	$3, %al
	setle	%al
	andl	%ecx, %eax
	testb	%al, %al
	je	.L72
	.loc 1 139 74 is_stmt 0
	movq	%rdx, %rdi
	call	__asan_report_load4@PLT
.L72:
	.loc 1 139 74 discriminator 1
	movq	-184(%rbp), %rax
	movl	16(%rax), %eax
	.loc 1 139 95 is_stmt 1 discriminator 1
	cmpl	$1, %eax
	jne	.L71
	.loc 1 139 139 discriminator 3
	movq	-184(%rbp), %rax
	addq	$24, %rax
	movq	%rax, %rdx
	movq	%rdx, %rax
	shrq	$3, %rax
	addq	$2147450880, %rax
	movzbl	(%rax), %eax
	testb	%al, %al
	setne	%cl
	cmpb	$3, %al
	setle	%al
	andl	%ecx, %eax
	testb	%al, %al
	je	.L73
	.loc 1 139 139 is_stmt 0
	movq	%rdx, %rdi
	call	__asan_report_load4@PLT
.L73:
	.loc 1 139 139 discriminator 3
	movq	-184(%rbp), %rax
	movl	24(%rax), %eax
	.loc 1 139 26 is_stmt 1 discriminator 3
	movslq	%eax, %rdx
	leaq	0(,%rdx,8), %rcx
	leaq	_ZL12INSTRUCTIONS(%rip), %rdx
	addq	%rcx, %rdx
	movq	%rdx, %rcx
	shrq	$3, %rcx
	addq	$2147450880, %rcx
	movzbl	(%rcx), %ecx
	testb	%cl, %cl
	je	.L74
	.loc 1 139 26 is_stmt 0
	movq	%rdx, %rdi
	call	__asan_report_load8@PLT
.L74:
	.loc 1 139 26 discriminator 3
	cltq
	leaq	0(,%rax,8), %rdx
	leaq	_ZL12INSTRUCTIONS(%rip), %rax
	movq	(%rdx,%rax), %rax
	jmp	.L75
.L71:
	.loc 1 139 26 discriminator 4
	leaq	.LC35(%rip), %rax
.L75:
	.loc 1 139 26 discriminator 6
	movl	-164(%rbp), %edx
	movq	%rax, %rsi
	leaq	.LC49(%rip), %rax
	movq	%rax, %rdi
	movl	$0, %eax
	call	_ZL8assprintPKcz
	.loc 1 140 26 is_stmt 1
	leaq	.LC40(%rip), %rax
	movq	%rax, %rdi
	movl	$0, %eax
	call	_ZL8assprintPKcz
	.loc 1 142 25
	cmpq	$0, -184(%rbp)
	je	.L76
	.loc 1 142 62 discriminator 1
	movq	-184(%rbp), %rax
	addq	$16, %rax
	movq	%rax, %rdx
	movq	%rdx, %rax
	shrq	$3, %rax
	addq	$2147450880, %rax
	movzbl	(%rax), %eax
	testb	%al, %al
	setne	%cl
	cmpb	$3, %al
	setle	%al
	andl	%ecx, %eax
	testb	%al, %al
	je	.L77
	.loc 1 142 62 is_stmt 0
	movq	%rdx, %rdi
	call	__asan_report_load4@PLT
.L77:
	.loc 1 142 62 discriminator 1
	movq	-184(%rbp), %rax
	movl	16(%rax), %eax
	.loc 1 142 83 is_stmt 1 discriminator 1
	cmpl	$1, %eax
	jne	.L76
	.loc 1 142 127 discriminator 3
	movq	-184(%rbp), %rax
	addq	$24, %rax
	movq	%rax, %rdx
	movq	%rdx, %rax
	shrq	$3, %rax
	addq	$2147450880, %rax
	movzbl	(%rax), %eax
	testb	%al, %al
	setne	%cl
	cmpb	$3, %al
	setle	%al
	andl	%ecx, %eax
	testb	%al, %al
	je	.L78
	.loc 1 142 127 is_stmt 0
	movq	%rdx, %rdi
	call	__asan_report_load4@PLT
.L78:
	.loc 1 142 127 discriminator 3
	movq	-184(%rbp), %rax
	movl	24(%rax), %eax
	.loc 1 142 25 is_stmt 1 discriminator 3
	movslq	%eax, %rdx
	leaq	0(,%rdx,8), %rcx
	leaq	_ZL12INSTRUCTIONS(%rip), %rdx
	addq	%rcx, %rdx
	movq	%rdx, %rcx
	shrq	$3, %rcx
	addq	$2147450880, %rcx
	movzbl	(%rcx), %ecx
	testb	%cl, %cl
	je	.L79
	.loc 1 142 25 is_stmt 0
	movq	%rdx, %rdi
	call	__asan_report_load8@PLT
.L79:
	.loc 1 142 25 discriminator 3
	cltq
	leaq	0(,%rax,8), %rdx
	leaq	_ZL12INSTRUCTIONS(%rip), %rax
	movq	(%rdx,%rax), %rax
	jmp	.L80
.L76:
	.loc 1 142 25 discriminator 4
	leaq	.LC35(%rip), %rax
.L80:
	.loc 1 142 25 discriminator 6
	movq	%rax, %rsi
	leaq	.LC50(%rip), %rax
	movq	%rax, %rdi
	movl	$0, %eax
	call	_ZL8assprintPKcz
	.loc 1 143 43 is_stmt 1
	movq	-184(%rbp), %rax
	addq	$8, %rax
	movq	%rax, %rdx
	shrq	$3, %rdx
	addq	$2147450880, %rdx
	movzbl	(%rdx), %edx
	testb	%dl, %dl
	je	.L81
	movq	%rax, %rdi
	call	__asan_report_load8@PLT
.L81:
	movq	-184(%rbp), %rax
	movq	8(%rax), %rax
	.loc 1 143 35
	movq	%rax, %rdi
	call	_ZL8AddToAsmPK5Token
	.loc 1 143 56
	testl	%eax, %eax
	setne	%al
	.loc 1 143 22
	testb	%al, %al
	je	.L82
	.loc 1 143 89 discriminator 2
	call	_ZN6Logger11getInstanceEv@PLT
	movq	%rax, %rdi
	.loc 1 143 95 discriminator 2
	movl	$143, %ecx
	leaq	.LC26(%rip), %rax
	movq	%rax, %rdx
	leaq	.LC51(%rip), %rax
	movq	%rax, %rsi
	movl	$0, %eax
	call	_ZN6Logger3logEPKcz@PLT
	.loc 1 143 188 discriminator 4
	movl	$-1, %ebx
	jmp	.L12
.L82:
	.loc 1 144 26
	cmpq	$0, -184(%rbp)
	je	.L83
	.loc 1 144 71 discriminator 1
	movq	-184(%rbp), %rax
	addq	$16, %rax
	movq	%rax, %rdx
	movq	%rdx, %rax
	shrq	$3, %rax
	addq	$2147450880, %rax
	movzbl	(%rax), %eax
	testb	%al, %al
	setne	%cl
	cmpb	$3, %al
	setle	%al
	andl	%ecx, %eax
	testb	%al, %al
	je	.L84
	.loc 1 144 71 is_stmt 0
	movq	%rdx, %rdi
	call	__asan_report_load4@PLT
.L84:
	.loc 1 144 71 discriminator 1
	movq	-184(%rbp), %rax
	movl	16(%rax), %eax
	.loc 1 144 92 is_stmt 1 discriminator 1
	cmpl	$1, %eax
	jne	.L83
	.loc 1 144 136 discriminator 3
	movq	-184(%rbp), %rax
	addq	$24, %rax
	movq	%rax, %rdx
	movq	%rdx, %rax
	shrq	$3, %rax
	addq	$2147450880, %rax
	movzbl	(%rax), %eax
	testb	%al, %al
	setne	%cl
	cmpb	$3, %al
	setle	%al
	andl	%ecx, %eax
	testb	%al, %al
	je	.L85
	.loc 1 144 136 is_stmt 0
	movq	%rdx, %rdi
	call	__asan_report_load4@PLT
.L85:
	.loc 1 144 136 discriminator 3
	movq	-184(%rbp), %rax
	movl	24(%rax), %eax
	.loc 1 144 26 is_stmt 1 discriminator 3
	movslq	%eax, %rdx
	leaq	0(,%rdx,8), %rcx
	leaq	_ZL12INSTRUCTIONS(%rip), %rdx
	addq	%rcx, %rdx
	movq	%rdx, %rcx
	shrq	$3, %rcx
	addq	$2147450880, %rcx
	movzbl	(%rcx), %ecx
	testb	%cl, %cl
	je	.L86
	.loc 1 144 26 is_stmt 0
	movq	%rdx, %rdi
	call	__asan_report_load8@PLT
.L86:
	.loc 1 144 26 discriminator 3
	cltq
	leaq	0(,%rax,8), %rdx
	leaq	_ZL12INSTRUCTIONS(%rip), %rax
	movq	(%rdx,%rax), %rax
	jmp	.L87
.L83:
	.loc 1 144 26 discriminator 4
	leaq	.LC35(%rip), %rax
.L87:
	.loc 1 144 26 discriminator 6
	movl	-164(%rbp), %edx
	movq	%rax, %rsi
	leaq	.LC52(%rip), %rax
	movq	%rax, %rdi
	movl	$0, %eax
	call	_ZL8assprintPKcz
	.loc 1 146 17 is_stmt 1
	jmp	.L63
.L19:
	.loc 1 150 29
	movq	-184(%rbp), %rax
	movq	%rax, %rdx
	shrq	$3, %rdx
	addq	$2147450880, %rdx
	movzbl	(%rdx), %edx
	testb	%dl, %dl
	je	.L88
	movq	%rax, %rdi
	call	__asan_report_load8@PLT
.L88:
	movq	-184(%rbp), %rax
	movq	(%rax), %rax
	.loc 1 150 18
	testq	%rax, %rax
	je	.L89
	.loc 1 151 48
	movq	-184(%rbp), %rax
	movq	(%rax), %rax
	.loc 1 151 40
	movq	%rax, %rdi
	call	_ZL8AddToAsmPK5Token
	.loc 1 151 60
	testl	%eax, %eax
	setne	%al
	.loc 1 151 26
	testb	%al, %al
	je	.L89
	.loc 1 151 93 discriminator 2
	call	_ZN6Logger11getInstanceEv@PLT
	movq	%rax, %rdi
	.loc 1 151 99 discriminator 2
	movl	$151, %ecx
	leaq	.LC26(%rip), %rax
	movq	%rax, %rdx
	leaq	.LC53(%rip), %rax
	movq	%rax, %rsi
	movl	$0, %eax
	call	_ZN6Logger3logEPKcz@PLT
	.loc 1 151 192 discriminator 4
	movl	$-1, %ebx
	jmp	.L12
.L89:
	.loc 1 153 25
	leaq	.LC54(%rip), %rax
	movq	%rax, %rdi
	movl	$0, %eax
	call	_ZL8assprintPKcz
	.loc 1 155 24
	movl	$0, %ebx
	jmp	.L12
.L20:
	.loc 1 158 23
	movl	$158, %r8d
	leaq	.LC26(%rip), %rax
	movq	%rax, %rcx
	movl	$158, %edx
	leaq	.LC12(%rip), %rax
	movq	%rax, %rsi
	leaq	.LC30(%rip), %rax
	movq	%rax, %rdi
	movl	$0, %eax
	call	printf@PLT
	.loc 1 158 176 discriminator 1
	call	_ZN6Logger11getInstanceEv@PLT
	movq	%rax, %rdi
	.loc 1 158 182 discriminator 1
	movl	$158, %r9d
	leaq	.LC26(%rip), %r8
	movl	$158, %ecx
	leaq	.LC12(%rip), %rax
	movq	%rax, %rdx
	leaq	.LC31(%rip), %rax
	movq	%rax, %rsi
	movl	$0, %eax
	call	_ZN6Logger3logEPKcz@PLT
	.loc 1 159 23
	leaq	.LC55(%rip), %rax
	movq	%rax, %rcx
	movl	$159, %edx
	leaq	.LC12(%rip), %rax
	movq	%rax, %rsi
	leaq	.LC33(%rip), %rax
	movq	%rax, %rdi
	movl	$0, %eax
	call	printf@PLT
	.loc 1 159 183 discriminator 1
	call	_ZN6Logger11getInstanceEv@PLT
	movq	%rax, %rdi
	.loc 1 159 189 discriminator 1
	leaq	.LC55(%rip), %r8
	movl	$159, %ecx
	leaq	.LC12(%rip), %rax
	movq	%rax, %rdx
	leaq	.LC34(%rip), %rax
	movq	%rax, %rsi
	movl	$0, %eax
	call	_ZN6Logger3logEPKcz@PLT
	.loc 1 159 328 discriminator 3
	call	_ZN6Logger11getInstanceEv@PLT
	movq	%rax, %rdx
	.loc 1 159 334 discriminator 3
	leaq	.LC55(%rip), %rax
	movq	%rax, %rsi
	movq	%rdx, %rdi
	movl	$0, %eax
	call	_ZN6Logger3logEPKcz@PLT
	.loc 1 160 43
	call	_ZN6Logger11getInstanceEv@PLT
	.loc 1 160 65
	call	_ZN6Logger11getInstanceEv@PLT
	.loc 1 160 65 is_stmt 0 discriminator 1
	movq	%rax, %rbx
	.loc 1 160 78 is_stmt 1 discriminator 1
	movl	$160, %r9d
	leaq	.LC26(%rip), %r8
	movl	$160, %ecx
	leaq	.LC12(%rip), %rax
	movq	%rax, %rdx
	leaq	.LC18(%rip), %rax
	movq	%rax, %rsi
	movl	$-1, %edi
	movl	$0, %eax
	call	_Z6MsgRetiPKcz@PLT
	.loc 1 160 78 is_stmt 0 discriminator 2
	movl	%eax, %esi
	subq	$8, %rsp
	pushq	$160
	leaq	.LC26(%rip), %r9
	movl	$160, %r8d
	leaq	.LC12(%rip), %rax
	movq	%rax, %rcx
	leaq	.LC19(%rip), %rax
	movq	%rax, %rdx
	movq	%rbx, %rdi
	movl	$0, %eax
	.cfi_escape 0x2e,0x10
	call	_ZN6Logger9LogMsgRetEiPKcz@PLT
	.loc 1 160 78 discriminator 3
	addq	$16, %rsp
	movl	%eax, %ebx
	.loc 1 160 263 is_stmt 1 discriminator 3
	jmp	.L12
.L63:
.LBE5:
.LBE4:
	.loc 1 163 16
	movl	$0, %ebx
	jmp	.L12
.L16:
.LBE3:
.LBE2:
	.loc 1 166 5
	cmpq	$0, -184(%rbp)
	je	.L90
	.loc 1 166 30 discriminator 1
	movq	-184(%rbp), %rax
	addq	$16, %rax
	movq	%rax, %rdx
	movq	%rdx, %rax
	shrq	$3, %rax
	addq	$2147450880, %rax
	movzbl	(%rax), %eax
	testb	%al, %al
	setne	%cl
	cmpb	$3, %al
	setle	%al
	andl	%ecx, %eax
	testb	%al, %al
	je	.L91
	.loc 1 166 30 is_stmt 0
	movq	%rdx, %rdi
	call	__asan_report_load4@PLT
.L91:
	.loc 1 166 30 discriminator 1
	movq	-184(%rbp), %rax
	movl	16(%rax), %eax
	.loc 1 166 49 is_stmt 1 discriminator 1
	cmpl	$61, %eax
	jne	.L90
	.loc 1 168 36
	movq	-184(%rbp), %rax
	addq	$8, %rax
	movq	%rax, %rdx
	shrq	$3, %rdx
	addq	$2147450880, %rdx
	movzbl	(%rdx), %edx
	testb	%dl, %dl
	je	.L92
	movq	%rax, %rdi
	call	__asan_report_load8@PLT
.L92:
	movq	-184(%rbp), %rax
	movq	8(%rax), %rax
	.loc 1 168 28
	movq	%rax, %rdi
	.cfi_escape 0x2e,0
	call	_ZL8AddToAsmPK5Token
	.loc 1 168 49
	testl	%eax, %eax
	setne	%al
	.loc 1 168 14
	testb	%al, %al
	je	.L93
	.loc 1 168 82 discriminator 2
	call	_ZN6Logger11getInstanceEv@PLT
	movq	%rax, %rdi
	.loc 1 168 88 discriminator 2
	movl	$168, %ecx
	leaq	.LC26(%rip), %rax
	movq	%rax, %rdx
	leaq	.LC56(%rip), %rax
	movq	%rax, %rsi
	movl	$0, %eax
	call	_ZN6Logger3logEPKcz@PLT
	.loc 1 168 182 discriminator 4
	movl	$-1, %ebx
	jmp	.L12
.L93:
	.loc 1 170 17
	movl	$97, %esi
	leaq	.LC57(%rip), %rax
	movq	%rax, %rdi
	movl	$0, %eax
	call	_ZL8assprintPKcz
	.loc 1 171 17
	leaq	.LC38(%rip), %rax
	movq	%rax, %rdi
	movl	$0, %eax
	call	_ZL8assprintPKcz
	.loc 1 173 16
	movl	$0, %ebx
	jmp	.L12
.L90:
	.loc 1 177 5
	cmpq	$0, -184(%rbp)
	je	.L94
	.loc 1 177 30 discriminator 1
	movq	-184(%rbp), %rax
	addq	$16, %rax
	movq	%rax, %rdx
	movq	%rdx, %rax
	shrq	$3, %rax
	addq	$2147450880, %rax
	movzbl	(%rax), %eax
	testb	%al, %al
	setne	%cl
	cmpb	$3, %al
	setle	%al
	andl	%ecx, %eax
	testb	%al, %al
	je	.L95
	.loc 1 177 30 is_stmt 0
	movq	%rdx, %rdi
	call	__asan_report_load4@PLT
.L95:
	.loc 1 177 30 discriminator 1
	movq	-184(%rbp), %rax
	movl	16(%rax), %eax
	.loc 1 177 49 is_stmt 1 discriminator 1
	cmpl	$6, %eax
	jne	.L94
	.loc 1 178 24
	movl	$97, %esi
	leaq	.LC58(%rip), %rax
	movq	%rax, %rdi
	movl	$0, %eax
	call	_ZL8assprintPKcz
	.loc 1 178 54 discriminator 1
	movl	$0, %ebx
	jmp	.L12
.L94:
	.loc 1 180 5
	cmpq	$0, -184(%rbp)
	je	.L96
	.loc 1 180 30 discriminator 1
	movq	-184(%rbp), %rax
	addq	$16, %rax
	movq	%rax, %rdx
	movq	%rdx, %rax
	shrq	$3, %rax
	addq	$2147450880, %rax
	movzbl	(%rax), %eax
	testb	%al, %al
	setne	%cl
	cmpb	$3, %al
	setle	%al
	andl	%ecx, %eax
	testb	%al, %al
	je	.L97
	.loc 1 180 30 is_stmt 0
	movq	%rdx, %rdi
	call	__asan_report_load4@PLT
.L97:
	.loc 1 180 30 discriminator 1
	movq	-184(%rbp), %rax
	movl	16(%rax), %eax
	.loc 1 180 49 is_stmt 1 discriminator 1
	cmpl	$4, %eax
	jne	.L96
	.loc 1 182 30
	movq	-184(%rbp), %rax
	addq	$24, %rax
	movq	%rax, %rdx
	movq	%rdx, %rax
	shrq	$3, %rax
	addq	$2147450880, %rax
	movzbl	(%rax), %eax
	testb	%al, %al
	setne	%cl
	testb	%al, %al
	setle	%al
	andl	%ecx, %eax
	testb	%al, %al
	je	.L98
	movq	%rdx, %rdi
	call	__asan_report_load1@PLT
.L98:
	movq	-184(%rbp), %rax
	movzbl	24(%rax), %eax
	movsbl	%al, %eax
	.loc 1 182 9
	subl	$42, %eax
	cmpl	$52, %eax
	seta	%dl
	testb	%dl, %dl
	jne	.L99
	movabsq	$4503599627370539, %rdx
	movl	%eax, %ecx
	shrq	%cl, %rdx
	movq	%rdx, %rax
	andl	$1, %eax
	testq	%rax, %rax
	setne	%al
	testb	%al, %al
	je	.L99
	.loc 1 190 44
	movq	-184(%rbp), %rax
	addq	$8, %rax
	movq	%rax, %rdx
	shrq	$3, %rdx
	addq	$2147450880, %rdx
	movzbl	(%rdx), %edx
	testb	%dl, %dl
	je	.L100
	movq	%rax, %rdi
	call	__asan_report_load8@PLT
.L100:
	movq	-184(%rbp), %rax
	movq	8(%rax), %rax
	.loc 1 190 36
	movq	%rax, %rdi
	call	_ZL8AddToAsmPK5Token
	.loc 1 190 57
	testl	%eax, %eax
	setne	%al
	.loc 1 190 22
	testb	%al, %al
	je	.L101
	.loc 1 190 90 discriminator 2
	call	_ZN6Logger11getInstanceEv@PLT
	movq	%rax, %rdi
	.loc 1 190 96 discriminator 2
	movl	$190, %ecx
	leaq	.LC26(%rip), %rax
	movq	%rax, %rdx
	leaq	.LC56(%rip), %rax
	movq	%rax, %rsi
	movl	$0, %eax
	call	_ZN6Logger3logEPKcz@PLT
	.loc 1 190 190 discriminator 4
	movl	$-1, %ebx
	jmp	.L12
.L101:
	.loc 1 191 45
	movq	-184(%rbp), %rax
	movq	%rax, %rdx
	shrq	$3, %rdx
	addq	$2147450880, %rdx
	movzbl	(%rdx), %edx
	testb	%dl, %dl
	je	.L102
	movq	%rax, %rdi
	call	__asan_report_load8@PLT
.L102:
	movq	-184(%rbp), %rax
	movq	(%rax), %rax
	.loc 1 191 36
	movq	%rax, %rdi
	call	_ZL8AddToAsmPK5Token
	.loc 1 191 57
	testl	%eax, %eax
	setne	%al
	.loc 1 191 22
	testb	%al, %al
	je	.L103
	.loc 1 191 90 discriminator 2
	call	_ZN6Logger11getInstanceEv@PLT
	movq	%rax, %rdi
	.loc 1 191 96 discriminator 2
	movl	$191, %ecx
	leaq	.LC26(%rip), %rax
	movq	%rax, %rdx
	leaq	.LC59(%rip), %rax
	movq	%rax, %rsi
	movl	$0, %eax
	call	_ZN6Logger3logEPKcz@PLT
	.loc 1 191 190 discriminator 4
	movl	$-1, %ebx
	jmp	.L12
.L103:
	.loc 1 192 38
	movq	-184(%rbp), %rax
	addq	$24, %rax
	movq	%rax, %rdx
	movq	%rdx, %rax
	shrq	$3, %rax
	addq	$2147450880, %rax
	movzbl	(%rax), %eax
	testb	%al, %al
	setne	%cl
	testb	%al, %al
	setle	%al
	andl	%ecx, %eax
	testb	%al, %al
	je	.L104
	movq	%rdx, %rdi
	call	__asan_report_load1@PLT
.L104:
	movq	-184(%rbp), %rax
	movzbl	24(%rax), %eax
	movsbl	%al, %eax
	cmpl	$94, %eax
	je	.L105
	cmpl	$94, %eax
	jg	.L123
	cmpl	$47, %eax
	je	.L107
	cmpl	$47, %eax
	jg	.L123
	cmpl	$45, %eax
	je	.L108
	cmpl	$45, %eax
	jg	.L123
	cmpl	$42, %eax
	je	.L109
	cmpl	$43, %eax
	jne	.L123
	.loc 1 192 70
	leaq	.LC60(%rip), %rax
	movq	%rax, %rdi
	movl	$0, %eax
	call	_ZL8assprintPKcz
	.loc 1 192 81
	jmp	.L110
.L108:
	.loc 1 192 106
	leaq	.LC61(%rip), %rax
	movq	%rax, %rdi
	movl	$0, %eax
	call	_ZL8assprintPKcz
	.loc 1 192 117
	jmp	.L110
.L107:
	.loc 1 192 142
	leaq	.LC62(%rip), %rax
	movq	%rax, %rdi
	movl	$0, %eax
	call	_ZL8assprintPKcz
	.loc 1 192 154
	jmp	.L110
.L109:
	.loc 1 192 179
	leaq	.LC63(%rip), %rax
	movq	%rax, %rdi
	movl	$0, %eax
	call	_ZL8assprintPKcz
	.loc 1 192 191
	jmp	.L110
.L105:
	.loc 1 192 216
	leaq	.LC64(%rip), %rax
	movq	%rax, %rdi
	movl	$0, %eax
	call	_ZL8assprintPKcz
	.loc 1 192 227
	jmp	.L110
.L123:
	.loc 1 192 243
	nop
.L110:
	.loc 1 194 24
	movl	$0, %ebx
	jmp	.L12
.L99:
	.loc 1 197 60
	movq	-184(%rbp), %rax
	addq	$24, %rax
	movq	%rax, %rdx
	movq	%rdx, %rax
	shrq	$3, %rax
	addq	$2147450880, %rax
	movzbl	(%rax), %eax
	testb	%al, %al
	setne	%cl
	testb	%al, %al
	setle	%al
	andl	%ecx, %eax
	testb	%al, %al
	je	.L111
	movq	%rdx, %rdi
	call	__asan_report_load1@PLT
.L111:
	movq	-184(%rbp), %rax
	movzbl	24(%rax), %eax
	.loc 1 197 23
	movsbl	%al, %eax
	movl	%eax, %esi
	leaq	.LC65(%rip), %rax
	movq	%rax, %rdi
	movl	$0, %eax
	call	printf@PLT
	.loc 1 198 27
	movq	-184(%rbp), %rax
	movq	%rax, %rdi
	call	_Z10PrintTokenPK5Token@PLT
	.loc 1 200 43
	call	_ZN6Logger11getInstanceEv@PLT
	.loc 1 200 65
	call	_ZN6Logger11getInstanceEv@PLT
	.loc 1 200 65 is_stmt 0 discriminator 1
	movq	%rax, %rbx
	.loc 1 200 78 is_stmt 1 discriminator 1
	movl	$200, %r9d
	leaq	.LC26(%rip), %r8
	movl	$200, %ecx
	leaq	.LC12(%rip), %rax
	movq	%rax, %rdx
	leaq	.LC18(%rip), %rax
	movq	%rax, %rsi
	movl	$-1, %edi
	movl	$0, %eax
	call	_Z6MsgRetiPKcz@PLT
	.loc 1 200 78 is_stmt 0 discriminator 2
	movl	%eax, %esi
	subq	$8, %rsp
	pushq	$200
	leaq	.LC26(%rip), %r9
	movl	$200, %r8d
	leaq	.LC12(%rip), %rax
	movq	%rax, %rcx
	leaq	.LC19(%rip), %rax
	movq	%rax, %rdx
	movq	%rbx, %rdi
	movl	$0, %eax
	.cfi_escape 0x2e,0x10
	call	_ZN6Logger9LogMsgRetEiPKcz@PLT
	.loc 1 200 78 discriminator 3
	addq	$16, %rsp
	movl	%eax, %ebx
	.loc 1 200 263 is_stmt 1 discriminator 3
	jmp	.L12
.L96:
	.loc 1 204 5
	cmpq	$0, -184(%rbp)
	je	.L112
	.loc 1 204 30 discriminator 1
	movq	-184(%rbp), %rax
	addq	$16, %rax
	movq	%rax, %rdx
	movq	%rdx, %rax
	shrq	$3, %rax
	addq	$2147450880, %rax
	movzbl	(%rax), %eax
	testb	%al, %al
	setne	%cl
	cmpb	$3, %al
	setle	%al
	andl	%ecx, %eax
	testb	%al, %al
	je	.L113
	.loc 1 204 30 is_stmt 0
	movq	%rdx, %rdi
	call	__asan_report_load4@PLT
.L113:
	.loc 1 204 30 discriminator 1
	movq	-184(%rbp), %rax
	movl	16(%rax), %eax
	.loc 1 204 49 is_stmt 1 discriminator 1
	testl	%eax, %eax
	jne	.L112
	.loc 1 206 37
	movq	-184(%rbp), %rax
	movq	%rax, %rdx
	shrq	$3, %rdx
	addq	$2147450880, %rdx
	movzbl	(%rdx), %edx
	testb	%dl, %dl
	je	.L114
	movq	%rax, %rdi
	call	__asan_report_load8@PLT
.L114:
	movq	-184(%rbp), %rax
	movq	(%rax), %rax
	.loc 1 206 28
	movq	%rax, %rdi
	.cfi_escape 0x2e,0
	call	_ZL8AddToAsmPK5Token
	.loc 1 206 49
	testl	%eax, %eax
	setne	%al
	.loc 1 206 14
	testb	%al, %al
	je	.L115
	.loc 1 206 82 discriminator 2
	call	_ZN6Logger11getInstanceEv@PLT
	movq	%rax, %rdi
	.loc 1 206 88 discriminator 2
	movl	$206, %ecx
	leaq	.LC26(%rip), %rax
	movq	%rax, %rdx
	leaq	.LC59(%rip), %rax
	movq	%rax, %rsi
	movl	$0, %eax
	call	_ZN6Logger3logEPKcz@PLT
	.loc 1 206 182 discriminator 4
	movl	$-1, %ebx
	jmp	.L12
.L115:
	.loc 1 208 20
	movq	-184(%rbp), %rax
	addq	$8, %rax
	movq	%rax, %rdx
	shrq	$3, %rdx
	addq	$2147450880, %rdx
	movzbl	(%rdx), %edx
	testb	%dl, %dl
	je	.L116
	movq	%rax, %rdi
	call	__asan_report_load8@PLT
.L116:
	movq	-184(%rbp), %rax
	movq	8(%rax), %rax
	.loc 1 208 9
	testq	%rax, %rax
	je	.L117
	.loc 1 209 41
	movq	-184(%rbp), %rax
	movq	8(%rax), %rax
	.loc 1 209 33
	movq	%rax, %rdi
	call	_ZL8AddToAsmPK5Token
	.loc 1 209 54
	testl	%eax, %eax
	setne	%al
	.loc 1 209 19
	testb	%al, %al
	je	.L117
	.loc 1 209 87 discriminator 2
	call	_ZN6Logger11getInstanceEv@PLT
	movq	%rax, %rdi
	.loc 1 209 93 discriminator 2
	movl	$209, %ecx
	leaq	.LC26(%rip), %rax
	movq	%rax, %rdx
	leaq	.LC56(%rip), %rax
	movq	%rax, %rsi
	movl	$0, %eax
	call	_ZN6Logger3logEPKcz@PLT
	.loc 1 209 187 discriminator 4
	movl	$-1, %ebx
	jmp	.L12
.L117:
	.loc 1 211 16
	movl	$0, %ebx
	jmp	.L12
.L112:
	.loc 1 214 11
	movl	$214, %r8d
	leaq	.LC26(%rip), %rax
	movq	%rax, %rcx
	movl	$214, %edx
	leaq	.LC12(%rip), %rax
	movq	%rax, %rsi
	leaq	.LC30(%rip), %rax
	movq	%rax, %rdi
	movl	$0, %eax
	call	printf@PLT
	.loc 1 214 164 discriminator 1
	call	_ZN6Logger11getInstanceEv@PLT
	movq	%rax, %rdi
	.loc 1 214 170 discriminator 1
	movl	$214, %r9d
	leaq	.LC26(%rip), %r8
	movl	$214, %ecx
	leaq	.LC12(%rip), %rax
	movq	%rax, %rdx
	leaq	.LC31(%rip), %rax
	movq	%rax, %rsi
	movl	$0, %eax
	call	_ZN6Logger3logEPKcz@PLT
	.loc 1 215 15
	movq	-184(%rbp), %rax
	movq	%rax, %rdi
	call	_Z10PrintTokenPK5Token@PLT
	.loc 1 217 31
	call	_ZN6Logger11getInstanceEv@PLT
	.loc 1 217 53
	call	_ZN6Logger11getInstanceEv@PLT
	.loc 1 217 53 is_stmt 0 discriminator 1
	movq	%rax, %rbx
	.loc 1 217 66 is_stmt 1 discriminator 1
	movl	$217, %r9d
	leaq	.LC26(%rip), %r8
	movl	$217, %ecx
	leaq	.LC12(%rip), %rax
	movq	%rax, %rdx
	leaq	.LC18(%rip), %rax
	movq	%rax, %rsi
	movl	$-1, %edi
	movl	$0, %eax
	call	_Z6MsgRetiPKcz@PLT
	.loc 1 217 66 is_stmt 0 discriminator 2
	movl	%eax, %esi
	subq	$8, %rsp
	pushq	$217
	leaq	.LC26(%rip), %r9
	movl	$217, %r8d
	leaq	.LC12(%rip), %rax
	movq	%rax, %rcx
	leaq	.LC19(%rip), %rax
	movq	%rax, %rdx
	movq	%rbx, %rdi
	movl	$0, %eax
	.cfi_escape 0x2e,0x10
	call	_ZN6Logger9LogMsgRetEiPKcz@PLT
.LEHE1:
	.loc 1 217 66 discriminator 3
	addq	$16, %rsp
	movl	%eax, %ebx
	.loc 1 217 251 is_stmt 1 discriminator 3
	nop
.L12:
	.loc 1 218 5
	leaq	-64(%r14), %rax
	movq	%rax, %rdi
	call	_ZN14FunctionLoggerD1Ev@PLT
	movl	%ebx, %edx
	.loc 1 68 5
	cmpq	%r12, %r15
	je	.L8
	jmp	.L122
.L120:
	endbr64
	.loc 1 218 5
	movq	%rax, %rbx
	leaq	-64(%r14), %rax
	movq	%rax, %rdi
	call	_ZN14FunctionLoggerD1Ev@PLT
	call	__asan_handle_no_return@PLT
	movq	%rbx, %rdi
.LEHB2:
	call	_Unwind_Resume@PLT
.LEHE2:
.L122:
	.loc 1 68 5
	movq	$1172321806, (%r12)
	movabsq	$-723401728380766731, %rax
	movq	%rax, 2147450880(%r13)
	movl	$-168430091, 2147450888(%r13)
	movq	120(%r12), %rax
	movb	$0, (%rax)
	jmp	.L9
.L8:
	movq	$0, 2147450880(%r13)
	movl	$0, 2147450888(%r13)
.L9:
	.loc 1 218 5
	movl	%edx, %eax
	leaq	-40(%rbp), %rsp
	popq	%rbx
	popq	%r12
	popq	%r13
	popq	%r14
	popq	%r15
	popq	%rbp
	.cfi_def_cfa 7, 8
	ret
	.cfi_endproc
.LFE2866:
	.globl	__gxx_personality_v0
	.section	.gcc_except_table,"a",@progbits
.LLSDA2866:
	.byte	0xff
	.byte	0xff
	.byte	0x1
	.uleb128 .LLSDACSE2866-.LLSDACSB2866
.LLSDACSB2866:
	.uleb128 .LEHB0-.LFB2866
	.uleb128 .LEHE0-.LEHB0
	.uleb128 0
	.uleb128 0
	.uleb128 .LEHB1-.LFB2866
	.uleb128 .LEHE1-.LEHB1
	.uleb128 .L120-.LFB2866
	.uleb128 0
	.uleb128 .LEHB2-.LFB2866
	.uleb128 .LEHE2-.LEHB2
	.uleb128 0
	.uleb128 0
.LLSDACSE2866:
	.text
	.size	_ZL8AddToAsmPK5Token, .-_ZL8AddToAsmPK5Token
	.section	.rodata
.LC66:
	.string	"1 32 24 7 ptr:222"
	.text
	.type	_ZL8assprintPKcz, @function
_ZL8assprintPKcz:
.LASANPC2867:
.LFB2867:
	.loc 1 221 5
	.cfi_startproc
	endbr64
	pushq	%rbp
	.cfi_def_cfa_offset 16
	.cfi_offset 6, -16
	movq	%rsp, %rbp
	.cfi_def_cfa_register 6
	pushq	%r13
	pushq	%r12
	pushq	%rbx
	subq	$296, %rsp
	.cfi_offset 13, -24
	.cfi_offset 12, -32
	.cfi_offset 3, -40
	movq	%rdi, -312(%rbp)
	movq	%rsi, -200(%rbp)
	movq	%rdx, -192(%rbp)
	movq	%rcx, -184(%rbp)
	movq	%r8, -176(%rbp)
	movq	%r9, -168(%rbp)
	testb	%al, %al
	je	.L128
	movaps	%xmm0, -160(%rbp)
	movaps	%xmm1, -144(%rbp)
	movaps	%xmm2, -128(%rbp)
	movaps	%xmm3, -112(%rbp)
	movaps	%xmm4, -96(%rbp)
	movaps	%xmm5, -80(%rbp)
	movaps	%xmm6, -64(%rbp)
	movaps	%xmm7, -48(%rbp)
.L128:
	leaq	-304(%rbp), %rbx
	movq	%rbx, %r13
	cmpl	$0, __asan_option_detect_stack_use_after_return(%rip)
	je	.L124
	movl	$96, %edi
	call	__asan_stack_malloc_1@PLT
	testq	%rax, %rax
	je	.L124
	movq	%rax, %rbx
.L124:
	leaq	96(%rbx), %rax
	movq	$1102416563, (%rbx)
	leaq	.LC66(%rip), %rdx
	movq	%rdx, 8(%rbx)
	leaq	.LASANPC2867(%rip), %rdx
	movq	%rdx, 16(%rbx)
	movq	%rbx, %r12
	shrq	$3, %r12
	movl	$-235802127, 2147450880(%r12)
	movl	$-218103808, 2147450884(%r12)
	movl	$-202116109, 2147450888(%r12)
	.loc 1 223 22
	movl	$8, -64(%rax)
	movl	$48, -60(%rax)
	leaq	16(%rbp), %rsi
	movq	%rsi, -56(%rax)
	leaq	-208(%rbp), %rcx
	movq	%rcx, -48(%rax)
	.loc 1 225 14
	movq	_ZL8ASM_FILE(%rip), %rcx
	leaq	-64(%rax), %rdx
	movq	-312(%rbp), %rax
	movq	%rax, %rsi
	movq	%rcx, %rdi
	call	vfprintf@PLT
	.loc 1 229 5
	nop
	.loc 1 221 5
	cmpq	%rbx, %r13
	je	.L125
	movq	$1172321806, (%rbx)
	movabsq	$-723401728380766731, %rax
	movq	%rax, 2147450880(%r12)
	movl	$-168430091, 2147450888(%r12)
	movq	120(%rbx), %rax
	movb	$0, (%rax)
	jmp	.L126
.L125:
	movq	$0, 2147450880(%r12)
	movl	$0, 2147450888(%r12)
.L126:
	.loc 1 230 5
	addq	$296, %rsp
	popq	%rbx
	popq	%r12
	popq	%r13
	popq	%rbp
	.cfi_def_cfa 7, 8
	ret
	.cfi_endproc
.LFE2867:
	.size	_ZL8assprintPKcz, .-_ZL8assprintPKcz
	.globl	__asan_stack_malloc_0
	.section	.rodata
.LC67:
	.string	"1 32 8 11 NewYorkTime"
	.align 32
.LC68:
	.string	"wb"
	.zero	61
	.align 32
.LC69:
	.string	"Couldn't create ASM_FILE %s"
	.zero	36
	.align 32
.LC70:
	.string	"OpenAsmFile"
	.zero	52
	.align 32
.LC71:
	.string	";%s\n"
	.zero	59
	.text
	.type	_ZL11OpenAsmFilePKc, @function
_ZL11OpenAsmFilePKc:
.LASANPC2868:
.LFB2868:
	.loc 1 233 5
	.cfi_startproc
	endbr64
	pushq	%rbp
	.cfi_def_cfa_offset 16
	.cfi_offset 6, -16
	movq	%rsp, %rbp
	.cfi_def_cfa_register 6
	pushq	%r14
	pushq	%r13
	pushq	%r12
	pushq	%rbx
	subq	$80, %rsp
	.cfi_offset 14, -24
	.cfi_offset 13, -32
	.cfi_offset 12, -40
	.cfi_offset 3, -48
	movq	%rdi, -104(%rbp)
	leaq	-96(%rbp), %rbx
	movq	%rbx, %r14
	cmpl	$0, __asan_option_detect_stack_use_after_return(%rip)
	je	.L130
	movl	$64, %edi
	call	__asan_stack_malloc_0@PLT
	testq	%rax, %rax
	je	.L130
	movq	%rax, %rbx
.L130:
	leaq	64(%rbx), %rax
	movq	%rax, %r13
	movq	$1102416563, (%rbx)
	leaq	.LC67(%rip), %rax
	movq	%rax, 8(%rbx)
	leaq	.LASANPC2868(%rip), %rax
	movq	%rax, 16(%rbx)
	movq	%rbx, %r12
	shrq	$3, %r12
	movl	$-235802127, 2147450880(%r12)
	movl	$-202116352, 2147450884(%r12)
	.loc 1 234 5
	cmpq	$0, -104(%rbp)
	jne	.L134
	.loc 1 234 23 discriminator 1
	movl	$0, %eax
	jmp	.L138
.L134:
	.loc 1 236 22
	movq	-104(%rbp), %rax
	leaq	.LC68(%rip), %rdx
	movq	%rdx, %rsi
	movq	%rax, %rdi
	call	fopen@PLT
	.loc 1 236 14
	movq	%rax, _ZL8ASM_FILE(%rip)
	.loc 1 237 9
	movq	_ZL8ASM_FILE(%rip), %rax
	.loc 1 237 5
	testq	%rax, %rax
	jne	.L136
	.loc 1 239 30
	call	_ZN6Logger11getInstanceEv@PLT
	movq	%rax, %rcx
	.loc 1 239 36
	movq	-104(%rbp), %rax
	movq	%rax, %rdx
	leaq	.LC69(%rip), %rax
	movq	%rax, %rsi
	movq	%rcx, %rdi
	movl	$0, %eax
	call	_ZN6Logger3logEPKcz@PLT
	.loc 1 240 15
	movq	-104(%rbp), %rax
	movq	%rax, %rsi
	leaq	.LC69(%rip), %rax
	movq	%rax, %rdi
	movl	$0, %eax
	call	printf@PLT
	.loc 1 241 35
	call	_ZN6Logger11getInstanceEv@PLT
	.loc 1 241 57
	call	_ZN6Logger11getInstanceEv@PLT
	movq	%rax, %r13
	.loc 1 241 70
	movl	$241, %r9d
	leaq	.LC70(%rip), %r8
	movl	$241, %ecx
	leaq	.LC12(%rip), %rax
	movq	%rax, %rdx
	leaq	.LC18(%rip), %rax
	movq	%rax, %rsi
	movl	$-1, %edi
	movl	$0, %eax
	call	_Z6MsgRetiPKcz@PLT
	movl	%eax, %esi
	subq	$8, %rsp
	pushq	$241
	leaq	.LC70(%rip), %r9
	movl	$241, %r8d
	leaq	.LC12(%rip), %rax
	movq	%rax, %rcx
	leaq	.LC19(%rip), %rax
	movq	%rax, %rdx
	movq	%r13, %rdi
	movl	$0, %eax
	call	_ZN6Logger9LogMsgRetEiPKcz@PLT
	addq	$16, %rsp
	.loc 1 241 255
	jmp	.L138
.L136:
	.loc 1 244 30
	movl	$0, %edi
	call	time@PLT
	.loc 1 244 34
	leaq	-32(%r13), %rdx
	movq	%rdx, %rcx
	shrq	$3, %rcx
	addq	$2147450880, %rcx
	movzbl	(%rcx), %ecx
	testb	%cl, %cl
	je	.L137
	movq	%rdx, %rdi
	call	__asan_report_store8@PLT
.L137:
	movq	%rax, -32(%r13)
	.loc 1 245 14
	leaq	-32(%r13), %rax
	movq	%rax, %rdi
	call	ctime@PLT
	movq	%rax, %rsi
	leaq	.LC71(%rip), %rax
	movq	%rax, %rdi
	movl	$0, %eax
	call	_ZL8assprintPKcz
	.loc 1 247 31
	call	_ZN6Logger11getInstanceEv@PLT
	.loc 1 247 53
	call	_ZN6Logger11getInstanceEv@PLT
	movq	%rax, %rdi
	.loc 1 247 66
	movl	$247, %r8d
	leaq	.LC70(%rip), %rax
	movq	%rax, %rcx
	leaq	.LC24(%rip), %rax
	movq	%rax, %rdx
	movl	$0, %esi
	movl	$0, %eax
	call	_ZN6Logger9LogMsgRetEiPKcz@PLT
	.loc 1 247 117
	nop
.L138:
	.loc 1 248 5 discriminator 1
	movl	%eax, %edx
	.loc 1 233 5 discriminator 1
	cmpq	%rbx, %r14
	je	.L131
	.loc 1 233 5 is_stmt 0
	movq	$1172321806, (%rbx)
	movabsq	$-723401728380766731, %rax
	movq	%rax, 2147450880(%r12)
	movq	56(%rbx), %rax
	movb	$0, (%rax)
	jmp	.L132
.L131:
	movq	$0, 2147450880(%r12)
.L132:
	.loc 1 248 5 is_stmt 1
	movl	%edx, %eax
	leaq	-32(%rbp), %rsp
	popq	%rbx
	popq	%r12
	popq	%r13
	popq	%r14
	popq	%rbp
	.cfi_def_cfa 7, 8
	ret
	.cfi_endproc
.LFE2868:
	.size	_ZL11OpenAsmFilePKc, .-_ZL11OpenAsmFilePKc
	.section	.rodata
	.align 32
.LC72:
	.string	"hlt\n"
	.zero	59
	.align 32
.LC73:
	.string	";end {document}\n"
	.zero	47
	.text
	.type	_ZL12CloseAsmFilev, @function
_ZL12CloseAsmFilev:
.LASANPC2869:
.LFB2869:
	.loc 1 251 5
	.cfi_startproc
	endbr64
	pushq	%rbp
	.cfi_def_cfa_offset 16
	.cfi_offset 6, -16
	movq	%rsp, %rbp
	.cfi_def_cfa_register 6
	.loc 1 252 9
	movq	_ZL8ASM_FILE(%rip), %rax
	.loc 1 252 5
	testq	%rax, %rax
	je	.L142
	.loc 1 255 13
	leaq	.LC72(%rip), %rax
	movq	%rax, %rdi
	movl	$0, %eax
	call	_ZL8assprintPKcz
	.loc 1 256 13
	leaq	.LC73(%rip), %rax
	movq	%rax, %rdi
	movl	$0, %eax
	call	_ZL8assprintPKcz
	.loc 1 257 12
	movq	_ZL8ASM_FILE(%rip), %rax
	movq	%rax, %rdi
	call	fflush@PLT
	.loc 1 259 12
	movq	_ZL8ASM_FILE(%rip), %rax
	movq	%rax, %rdi
	call	fclose@PLT
	.loc 1 261 14
	movq	$0, _ZL8ASM_FILE(%rip)
	.loc 1 263 5
	jmp	.L139
.L142:
	.loc 1 253 9
	nop
.L139:
	.loc 1 264 5
	popq	%rbp
	.cfi_def_cfa 7, 8
	ret
	.cfi_endproc
.LFE2869:
	.size	_ZL12CloseAsmFilev, .-_ZL12CloseAsmFilev
	.section	.text._ZSt5floorIiEN9__gnu_cxx11__enable_ifIXsrSt12__is_integerIT_E7__valueEdE6__typeES3_,"axG",@progbits,_ZSt5floorIiEN9__gnu_cxx11__enable_ifIXsrSt12__is_integerIT_E7__valueEdE6__typeES3_,comdat
	.weak	_ZSt5floorIiEN9__gnu_cxx11__enable_ifIXsrSt12__is_integerIT_E7__valueEdE6__typeES3_
	.type	_ZSt5floorIiEN9__gnu_cxx11__enable_ifIXsrSt12__is_integerIT_E7__valueEdE6__typeES3_, @function
_ZSt5floorIiEN9__gnu_cxx11__enable_ifIXsrSt12__is_integerIT_E7__valueEdE6__typeES3_:
.LASANPC3225:
.LFB3225:
	.file 2 "/usr/include/c++/11/cmath"
	.loc 2 272 5
	.cfi_startproc
	endbr64
	pushq	%rbp
	.cfi_def_cfa_offset 16
	.cfi_offset 6, -16
	movq	%rsp, %rbp
	.cfi_def_cfa_register 6
	movl	%edi, -4(%rbp)
	.loc 2 273 29
	pxor	%xmm0, %xmm0
	cvtsi2sdl	-4(%rbp), %xmm0
	.loc 2 273 33
	movq	%xmm0, %rax
	.loc 2 273 36
	movq	%rax, %xmm0
	popq	%rbp
	.cfi_def_cfa 7, 8
	ret
	.cfi_endproc
.LFE3225:
	.size	_ZSt5floorIiEN9__gnu_cxx11__enable_ifIXsrSt12__is_integerIT_E7__valueEdE6__typeES3_, .-_ZSt5floorIiEN9__gnu_cxx11__enable_ifIXsrSt12__is_integerIT_E7__valueEdE6__typeES3_
	.text
	.type	_Z41__static_initialization_and_destruction_0ii, @function
_Z41__static_initialization_and_destruction_0ii:
.LASANPC3654:
.LFB3654:
	.loc 1 264 5
	.cfi_startproc
	endbr64
	pushq	%rbp
	.cfi_def_cfa_offset 16
	.cfi_offset 6, -16
	movq	%rsp, %rbp
	.cfi_def_cfa_register 6
	subq	$16, %rsp
	movl	%edi, -4(%rbp)
	movl	%esi, -8(%rbp)
	.loc 1 264 5
	cmpl	$1, -4(%rbp)
	jne	.L148
	.loc 1 264 5 is_stmt 0 discriminator 1
	leaq	.LC12(%rip), %rax
	movq	%rax, %rdi
	call	__asan_before_dynamic_init@PLT
	cmpl	$65535, -8(%rbp)
	jne	.L147
	.file 3 "/usr/include/c++/11/iostream"
	.loc 3 74 25 is_stmt 1
	leaq	_ZStL8__ioinit(%rip), %rax
	movq	%rax, %rdi
	call	_ZNSt8ios_base4InitC1Ev@PLT
	leaq	__dso_handle(%rip), %rax
	movq	%rax, %rdx
	leaq	_ZStL8__ioinit(%rip), %rax
	movq	%rax, %rsi
	movq	_ZNSt8ios_base4InitD1Ev@GOTPCREL(%rip), %rax
	movq	%rax, %rdi
	call	__cxa_atexit@PLT
.L147:
	.loc 3 74 25 is_stmt 0 discriminator 1
	call	__asan_after_dynamic_init@PLT
.L148:
	.loc 1 264 5 is_stmt 1
	nop
	leave
	.cfi_def_cfa 7, 8
	ret
	.cfi_endproc
.LFE3654:
	.size	_Z41__static_initialization_and_destruction_0ii, .-_Z41__static_initialization_and_destruction_0ii
	.type	_GLOBAL__sub_I__Z14TranslateToAsmPK5TokenPKc, @function
_GLOBAL__sub_I__Z14TranslateToAsmPK5TokenPKc:
.LASANPC3655:
.LFB3655:
	.loc 1 264 5
	.cfi_startproc
	endbr64
	pushq	%rbp
	.cfi_def_cfa_offset 16
	.cfi_offset 6, -16
	movq	%rsp, %rbp
	.cfi_def_cfa_register 6
	.loc 1 264 5
	movl	$65535, %esi
	movl	$1, %edi
	call	_Z41__static_initialization_and_destruction_0ii
	popq	%rbp
	.cfi_def_cfa 7, 8
	ret
	.cfi_endproc
.LFE3655:
	.size	_GLOBAL__sub_I__Z14TranslateToAsmPK5TokenPKc, .-_GLOBAL__sub_I__Z14TranslateToAsmPK5TokenPKc
	.section	.init_array,"aw"
	.align 8
	.quad	_GLOBAL__sub_I__Z14TranslateToAsmPK5TokenPKc
	.section	.data.rel.local,"aw"
	.align 16
	.type	.LASANLOC1, @object
	.size	.LASANLOC1, 16
.LASANLOC1:
	.quad	.LC12
	.long	78
	.long	20
	.align 16
	.type	.LASANLOC2, @object
	.size	.LASANLOC2, 16
.LASANLOC2:
	.quad	.LC12
	.long	49
	.long	11
	.align 16
	.type	.LASANLOC3, @object
	.size	.LASANLOC3, 16
.LASANLOC3:
	.quad	.LC12
	.long	14
	.long	14
	.section	.rodata
.LC74:
	.string	"../ATC/Buffer/my_buffer.h"
	.section	.data.rel.local
	.align 16
	.type	.LASANLOC4, @object
	.size	.LASANLOC4, 16
.LASANLOC4:
	.quad	.LC74
	.long	32
	.long	11
	.section	.rodata
.LC75:
	.string	"./headers/Grammar.h"
	.section	.data.rel.local
	.align 16
	.type	.LASANLOC5, @object
	.size	.LASANLOC5, 16
.LASANLOC5:
	.quad	.LC75
	.long	84
	.long	11
	.align 16
	.type	.LASANLOC6, @object
	.size	.LASANLOC6, 16
.LASANLOC6:
	.quad	.LC75
	.long	83
	.long	11
	.align 16
	.type	.LASANLOC7, @object
	.size	.LASANLOC7, 16
.LASANLOC7:
	.quad	.LC75
	.long	81
	.long	12
	.align 16
	.type	.LASANLOC8, @object
	.size	.LASANLOC8, 16
.LASANLOC8:
	.quad	.LC75
	.long	70
	.long	12
	.align 16
	.type	.LASANLOC9, @object
	.size	.LASANLOC9, 16
.LASANLOC9:
	.quad	.LC75
	.long	61
	.long	19
	.align 16
	.type	.LASANLOC10, @object
	.size	.LASANLOC10, 16
.LASANLOC10:
	.quad	.LC75
	.long	60
	.long	11
	.align 16
	.type	.LASANLOC11, @object
	.size	.LASANLOC11, 16
.LASANLOC11:
	.quad	.LC75
	.long	51
	.long	19
	.align 16
	.type	.LASANLOC12, @object
	.size	.LASANLOC12, 16
.LASANLOC12:
	.quad	.LC75
	.long	50
	.long	11
	.align 16
	.type	.LASANLOC13, @object
	.size	.LASANLOC13, 16
.LASANLOC13:
	.quad	.LC75
	.long	38
	.long	19
	.align 16
	.type	.LASANLOC14, @object
	.size	.LASANLOC14, 16
.LASANLOC14:
	.quad	.LC75
	.long	37
	.long	11
	.section	.rodata
	.align 8
.LC76:
	.string	"../ATC/RandomStuff/CommonEnums.h"
	.section	.data.rel.local
	.align 16
	.type	.LASANLOC15, @object
	.size	.LASANLOC15, 16
.LASANLOC15:
	.quad	.LC76
	.long	3
	.long	11
	.section	.rodata
.LC77:
	.string	"../ATC/Logger/LogConfig.h"
	.section	.data.rel.local
	.align 16
	.type	.LASANLOC16, @object
	.size	.LASANLOC16, 16
.LASANLOC16:
	.quad	.LC77
	.long	3
	.long	12
	.section	.rodata
.LC78:
	.string	"/usr/include/c++/11/iostream"
	.section	.data.rel.local
	.align 16
	.type	.LASANLOC17, @object
	.size	.LASANLOC17, 16
.LASANLOC17:
	.quad	.LC78
	.long	74
	.long	25
	.section	.rodata
.LC79:
	.string	"number_of_instructions"
.LC80:
	.string	"PRECISION"
.LC81:
	.string	"ASM_FILE"
.LC82:
	.string	"INDENT_SIZE"
.LC83:
	.string	"MAX_WORD_LENGTH"
.LC84:
	.string	"MAX_FUNCTION_NAME_LENGTH"
.LC85:
	.string	"COMMENT"
.LC86:
	.string	"OPERATORS"
.LC87:
	.string	"FUNCTION_RET_TYPES"
.LC88:
	.string	"NUMBER_OF_FUNCTION_RET_TYPES"
.LC89:
	.string	"INITIALIZATORS"
.LC90:
	.string	"NUMBER_OF_INITIALIZATORS"
.LC91:
	.string	"INSTRUCTIONS"
.LC92:
	.string	"NUMBER_OF_INSTUCTIONS"
.LC93:
	.string	"CRINGE"
.LC94:
	.string	"STD_LOG_NAME"
.LC95:
	.string	"__ioinit"
.LC96:
	.string	"*.LC15"
.LC97:
	.string	"*.LC12"
.LC98:
	.string	"*.LC63"
.LC99:
	.string	"*.LC49"
.LC100:
	.string	"*.LC27"
.LC101:
	.string	"*.LC70"
.LC102:
	.string	"*.LC47"
.LC103:
	.string	"*.LC44"
.LC104:
	.string	"*.LC41"
.LC105:
	.string	"*.LC65"
.LC106:
	.string	"*.LC5"
.LC107:
	.string	"*.LC3"
.LC108:
	.string	"*.LC50"
.LC109:
	.string	"*.LC33"
.LC110:
	.string	"*.LC62"
.LC111:
	.string	"*.LC61"
.LC112:
	.string	"*.LC2"
.LC113:
	.string	"*.LC18"
.LC114:
	.string	"*.LC59"
.LC115:
	.string	"*.LC24"
.LC116:
	.string	"*.LC30"
.LC117:
	.string	"*.LC48"
.LC118:
	.string	"*.LC17"
.LC119:
	.string	"*.LC45"
.LC120:
	.string	"*.LC46"
.LC121:
	.string	"*.LC40"
.LC122:
	.string	"*.LC16"
.LC123:
	.string	"*.LC60"
.LC124:
	.string	"*.LC20"
.LC125:
	.string	"*.LC64"
.LC126:
	.string	"*.LC73"
.LC127:
	.string	"*.LC0"
.LC128:
	.string	"*.LC9"
.LC129:
	.string	"*.LC43"
.LC130:
	.string	"*.LC58"
.LC131:
	.string	"*.LC6"
.LC132:
	.string	"*.LC31"
.LC133:
	.string	"*.LC37"
.LC134:
	.string	"*.LC29"
.LC135:
	.string	"*.LC42"
.LC136:
	.string	"*.LC32"
.LC137:
	.string	"*.LC56"
.LC138:
	.string	"*.LC38"
.LC139:
	.string	"*.LC57"
.LC140:
	.string	"*.LC72"
.LC141:
	.string	"*.LC34"
.LC142:
	.string	"*.LC26"
.LC143:
	.string	"*.LC4"
.LC144:
	.string	"*.LC1"
.LC145:
	.string	"*.LC52"
.LC146:
	.string	"*.LC55"
.LC147:
	.string	"*.LC11"
.LC148:
	.string	"*.LC51"
.LC149:
	.string	"*.LC10"
.LC150:
	.string	"*.LC36"
.LC151:
	.string	"*.LC7"
.LC152:
	.string	"*.LC54"
.LC153:
	.string	"*.LC19"
.LC154:
	.string	"*.LC53"
.LC155:
	.string	"*.LC23"
.LC156:
	.string	"*.LC14"
.LC157:
	.string	"*.LC22"
.LC158:
	.string	"*.LC71"
.LC159:
	.string	"*.LC8"
.LC160:
	.string	"*.LC69"
.LC161:
	.string	"*.LC68"
.LC162:
	.string	"*.LC39"
.LC163:
	.string	"*.LC35"
.LC164:
	.string	"*.LC21"
.LC165:
	.string	"*.LC13"
	.section	.data.rel.local
	.align 32
	.type	.LASAN0, @object
	.size	.LASAN0, 5568
.LASAN0:
	.quad	_ZZL8AddToAsmPK5TokenE22number_of_instructions
	.quad	4
	.quad	64
	.quad	.LC79
	.quad	.LC12
	.quad	0
	.quad	.LASANLOC1
	.quad	0
	.quad	_ZL9PRECISION
	.quad	4
	.quad	64
	.quad	.LC80
	.quad	.LC12
	.quad	0
	.quad	.LASANLOC2
	.quad	0
	.quad	_ZL8ASM_FILE
	.quad	8
	.quad	64
	.quad	.LC81
	.quad	.LC12
	.quad	0
	.quad	.LASANLOC3
	.quad	0
	.quad	_ZL11INDENT_SIZE
	.quad	4
	.quad	64
	.quad	.LC82
	.quad	.LC12
	.quad	0
	.quad	.LASANLOC4
	.quad	0
	.quad	_ZL15MAX_WORD_LENGTH
	.quad	4
	.quad	64
	.quad	.LC83
	.quad	.LC12
	.quad	0
	.quad	.LASANLOC5
	.quad	0
	.quad	_ZL24MAX_FUNCTION_NAME_LENGTH
	.quad	4
	.quad	64
	.quad	.LC84
	.quad	.LC12
	.quad	0
	.quad	.LASANLOC6
	.quad	0
	.quad	_ZL7COMMENT
	.quad	1
	.quad	64
	.quad	.LC85
	.quad	.LC12
	.quad	0
	.quad	.LASANLOC7
	.quad	0
	.quad	_ZL9OPERATORS
	.quad	8
	.quad	64
	.quad	.LC86
	.quad	.LC12
	.quad	0
	.quad	.LASANLOC8
	.quad	0
	.quad	_ZL18FUNCTION_RET_TYPES
	.quad	16
	.quad	64
	.quad	.LC87
	.quad	.LC12
	.quad	0
	.quad	.LASANLOC9
	.quad	0
	.quad	_ZL28NUMBER_OF_FUNCTION_RET_TYPES
	.quad	4
	.quad	64
	.quad	.LC88
	.quad	.LC12
	.quad	0
	.quad	.LASANLOC10
	.quad	0
	.quad	_ZL14INITIALIZATORS
	.quad	16
	.quad	64
	.quad	.LC89
	.quad	.LC12
	.quad	0
	.quad	.LASANLOC11
	.quad	0
	.quad	_ZL24NUMBER_OF_INITIALIZATORS
	.quad	4
	.quad	64
	.quad	.LC90
	.quad	.LC12
	.quad	0
	.quad	.LASANLOC12
	.quad	0
	.quad	_ZL12INSTRUCTIONS
	.quad	40
	.quad	96
	.quad	.LC91
	.quad	.LC12
	.quad	0
	.quad	.LASANLOC13
	.quad	0
	.quad	_ZL21NUMBER_OF_INSTUCTIONS
	.quad	4
	.quad	64
	.quad	.LC92
	.quad	.LC12
	.quad	0
	.quad	.LASANLOC14
	.quad	0
	.quad	_ZL6CRINGE
	.quad	4
	.quad	64
	.quad	.LC93
	.quad	.LC12
	.quad	0
	.quad	.LASANLOC15
	.quad	0
	.quad	_ZL12STD_LOG_NAME
	.quad	18
	.quad	64
	.quad	.LC94
	.quad	.LC12
	.quad	0
	.quad	.LASANLOC16
	.quad	0
	.quad	_ZStL8__ioinit
	.quad	1
	.quad	64
	.quad	.LC95
	.quad	.LC12
	.quad	1
	.quad	.LASANLOC17
	.quad	0
	.quad	.LC15
	.quad	36
	.quad	96
	.quad	.LC96
	.quad	.LC12
	.quad	0
	.quad	0
	.quad	0
	.quad	.LC12
	.quad	25
	.quad	64
	.quad	.LC97
	.quad	.LC12
	.quad	0
	.quad	0
	.quad	0
	.quad	.LC63
	.quad	6
	.quad	64
	.quad	.LC98
	.quad	.LC12
	.quad	0
	.quad	0
	.quad	0
	.quad	.LC49
	.quad	22
	.quad	64
	.quad	.LC99
	.quad	.LC12
	.quad	0
	.quad	0
	.quad	0
	.quad	.LC27
	.quad	6
	.quad	64
	.quad	.LC100
	.quad	.LC12
	.quad	0
	.quad	0
	.quad	0
	.quad	.LC70
	.quad	12
	.quad	64
	.quad	.LC101
	.quad	.LC12
	.quad	0
	.quad	0
	.quad	0
	.quad	.LC47
	.quad	21
	.quad	64
	.quad	.LC102
	.quad	.LC12
	.quad	0
	.quad	0
	.quad	0
	.quad	.LC44
	.quad	13
	.quad	64
	.quad	.LC103
	.quad	.LC12
	.quad	0
	.quad	0
	.quad	0
	.quad	.LC41
	.quad	11
	.quad	64
	.quad	.LC104
	.quad	.LC12
	.quad	0
	.quad	0
	.quad	0
	.quad	.LC65
	.quad	19
	.quad	64
	.quad	.LC105
	.quad	.LC12
	.quad	0
	.quad	0
	.quad	0
	.quad	.LC5
	.quad	5
	.quad	64
	.quad	.LC106
	.quad	.LC12
	.quad	0
	.quad	0
	.quad	0
	.quad	.LC3
	.quad	5
	.quad	64
	.quad	.LC107
	.quad	.LC12
	.quad	0
	.quad	0
	.quad	0
	.quad	.LC50
	.quad	11
	.quad	64
	.quad	.LC108
	.quad	.LC12
	.quad	0
	.quad	0
	.quad	0
	.quad	.LC33
	.quad	57
	.quad	96
	.quad	.LC109
	.quad	.LC12
	.quad	0
	.quad	0
	.quad	0
	.quad	.LC62
	.quad	6
	.quad	64
	.quad	.LC110
	.quad	.LC12
	.quad	0
	.quad	0
	.quad	0
	.quad	.LC61
	.quad	5
	.quad	64
	.quad	.LC111
	.quad	.LC12
	.quad	0
	.quad	0
	.quad	0
	.quad	.LC2
	.quad	6
	.quad	64
	.quad	.LC112
	.quad	.LC12
	.quad	0
	.quad	0
	.quad	0
	.quad	.LC18
	.quad	31
	.quad	64
	.quad	.LC113
	.quad	.LC12
	.quad	0
	.quad	0
	.quad	0
	.quad	.LC59
	.quad	59
	.quad	96
	.quad	.LC114
	.quad	.LC12
	.quad	0
	.quad	0
	.quad	0
	.quad	.LC24
	.quad	24
	.quad	64
	.quad	.LC115
	.quad	.LC12
	.quad	0
	.quad	0
	.quad	0
	.quad	.LC30
	.quad	67
	.quad	128
	.quad	.LC116
	.quad	.LC12
	.quad	0
	.quad	0
	.quad	0
	.quad	.LC48
	.quad	23
	.quad	64
	.quad	.LC117
	.quad	.LC12
	.quad	0
	.quad	0
	.quad	0
	.quad	.LC17
	.quad	8
	.quad	64
	.quad	.LC118
	.quad	.LC12
	.quad	0
	.quad	0
	.quad	0
	.quad	.LC45
	.quad	17
	.quad	64
	.quad	.LC119
	.quad	.LC12
	.quad	0
	.quad	0
	.quad	0
	.quad	.LC46
	.quad	55
	.quad	96
	.quad	.LC120
	.quad	.LC12
	.quad	0
	.quad	0
	.quad	0
	.quad	.LC40
	.quad	21
	.quad	64
	.quad	.LC121
	.quad	.LC12
	.quad	0
	.quad	0
	.quad	0
	.quad	.LC16
	.quad	33
	.quad	96
	.quad	.LC122
	.quad	.LC12
	.quad	0
	.quad	0
	.quad	0
	.quad	.LC60
	.quad	5
	.quad	64
	.quad	.LC123
	.quad	.LC12
	.quad	0
	.quad	0
	.quad	0
	.quad	.LC20
	.quad	5
	.quad	64
	.quad	.LC124
	.quad	.LC12
	.quad	0
	.quad	0
	.quad	0
	.quad	.LC64
	.quad	5
	.quad	64
	.quad	.LC125
	.quad	.LC12
	.quad	0
	.quad	0
	.quad	0
	.quad	.LC73
	.quad	17
	.quad	64
	.quad	.LC126
	.quad	.LC12
	.quad	0
	.quad	0
	.quad	0
	.quad	.LC0
	.quad	3
	.quad	64
	.quad	.LC127
	.quad	.LC12
	.quad	0
	.quad	0
	.quad	0
	.quad	.LC9
	.quad	5
	.quad	64
	.quad	.LC128
	.quad	.LC12
	.quad	0
	.quad	0
	.quad	0
	.quad	.LC43
	.quad	25
	.quad	64
	.quad	.LC129
	.quad	.LC12
	.quad	0
	.quad	0
	.quad	0
	.quad	.LC58
	.quad	11
	.quad	64
	.quad	.LC130
	.quad	.LC12
	.quad	0
	.quad	0
	.quad	0
	.quad	.LC6
	.quad	4
	.quad	64
	.quad	.LC131
	.quad	.LC12
	.quad	0
	.quad	0
	.quad	0
	.quad	.LC31
	.quad	58
	.quad	96
	.quad	.LC132
	.quad	.LC12
	.quad	0
	.quad	0
	.quad	0
	.quad	.LC37
	.quad	58
	.quad	96
	.quad	.LC133
	.quad	.LC12
	.quad	0
	.quad	0
	.quad	0
	.quad	.LC29
	.quad	9
	.quad	64
	.quad	.LC134
	.quad	.LC12
	.quad	0
	.quad	0
	.quad	0
	.quad	.LC42
	.quad	53
	.quad	96
	.quad	.LC135
	.quad	.LC12
	.quad	0
	.quad	0
	.quad	0
	.quad	.LC32
	.quad	12
	.quad	64
	.quad	.LC136
	.quad	.LC12
	.quad	0
	.quad	0
	.quad	0
	.quad	.LC56
	.quad	59
	.quad	96
	.quad	.LC137
	.quad	.LC12
	.quad	0
	.quad	0
	.quad	0
	.quad	.LC38
	.quad	2
	.quad	64
	.quad	.LC138
	.quad	.LC12
	.quad	0
	.quad	0
	.quad	0
	.quad	.LC57
	.quad	11
	.quad	64
	.quad	.LC139
	.quad	.LC12
	.quad	0
	.quad	0
	.quad	0
	.quad	.LC72
	.quad	5
	.quad	64
	.quad	.LC140
	.quad	.LC12
	.quad	0
	.quad	0
	.quad	0
	.quad	.LC34
	.quad	48
	.quad	96
	.quad	.LC141
	.quad	.LC12
	.quad	0
	.quad	0
	.quad	0
	.quad	.LC26
	.quad	9
	.quad	64
	.quad	.LC142
	.quad	.LC12
	.quad	0
	.quad	0
	.quad	0
	.quad	.LC4
	.quad	7
	.quad	64
	.quad	.LC143
	.quad	.LC12
	.quad	0
	.quad	0
	.quad	0
	.quad	.LC1
	.quad	5
	.quad	64
	.quad	.LC144
	.quad	.LC12
	.quad	0
	.quad	0
	.quad	0
	.quad	.LC52
	.quad	19
	.quad	64
	.quad	.LC145
	.quad	.LC12
	.quad	0
	.quad	0
	.quad	0
	.quad	.LC55
	.quad	28
	.quad	64
	.quad	.LC146
	.quad	.LC12
	.quad	0
	.quad	0
	.quad	0
	.quad	.LC11
	.quad	34
	.quad	96
	.quad	.LC147
	.quad	.LC12
	.quad	0
	.quad	0
	.quad	0
	.quad	.LC51
	.quad	58
	.quad	96
	.quad	.LC148
	.quad	.LC12
	.quad	0
	.quad	0
	.quad	0
	.quad	.LC10
	.quad	25
	.quad	64
	.quad	.LC149
	.quad	.LC12
	.quad	0
	.quad	0
	.quad	0
	.quad	.LC36
	.quad	34
	.quad	96
	.quad	.LC150
	.quad	.LC12
	.quad	0
	.quad	0
	.quad	0
	.quad	.LC7
	.quad	7
	.quad	64
	.quad	.LC151
	.quad	.LC12
	.quad	0
	.quad	0
	.quad	0
	.quad	.LC54
	.quad	6
	.quad	64
	.quad	.LC152
	.quad	.LC12
	.quad	0
	.quad	0
	.quad	0
	.quad	.LC19
	.quad	22
	.quad	64
	.quad	.LC153
	.quad	.LC12
	.quad	0
	.quad	0
	.quad	0
	.quad	.LC53
	.quad	58
	.quad	96
	.quad	.LC154
	.quad	.LC12
	.quad	0
	.quad	0
	.quad	0
	.quad	.LC23
	.quad	24
	.quad	64
	.quad	.LC155
	.quad	.LC12
	.quad	0
	.quad	0
	.quad	0
	.quad	.LC14
	.quad	37
	.quad	96
	.quad	.LC156
	.quad	.LC12
	.quad	0
	.quad	0
	.quad	0
	.quad	.LC22
	.quad	23
	.quad	64
	.quad	.LC157
	.quad	.LC12
	.quad	0
	.quad	0
	.quad	0
	.quad	.LC71
	.quad	5
	.quad	64
	.quad	.LC158
	.quad	.LC12
	.quad	0
	.quad	0
	.quad	0
	.quad	.LC8
	.quad	5
	.quad	64
	.quad	.LC159
	.quad	.LC12
	.quad	0
	.quad	0
	.quad	0
	.quad	.LC69
	.quad	28
	.quad	64
	.quad	.LC160
	.quad	.LC12
	.quad	0
	.quad	0
	.quad	0
	.quad	.LC68
	.quad	3
	.quad	64
	.quad	.LC161
	.quad	.LC12
	.quad	0
	.quad	0
	.quad	0
	.quad	.LC39
	.quad	20
	.quad	64
	.quad	.LC162
	.quad	.LC12
	.quad	0
	.quad	0
	.quad	0
	.quad	.LC35
	.quad	18
	.quad	64
	.quad	.LC163
	.quad	.LC12
	.quad	0
	.quad	0
	.quad	0
	.quad	.LC21
	.quad	31
	.quad	64
	.quad	.LC164
	.quad	.LC12
	.quad	0
	.quad	0
	.quad	0
	.quad	.LC13
	.quad	15
	.quad	64
	.quad	.LC165
	.quad	.LC12
	.quad	0
	.quad	0
	.quad	0
	.text
	.type	_sub_D_00099_0, @function
_sub_D_00099_0:
.LFB3656:
	.cfi_startproc
	endbr64
	pushq	%rbp
	.cfi_def_cfa_offset 16
	.cfi_offset 6, -16
	movq	%rsp, %rbp
	.cfi_def_cfa_register 6
	movl	$87, %esi
	leaq	.LASAN0(%rip), %rax
	movq	%rax, %rdi
	call	__asan_unregister_globals@PLT
	popq	%rbp
	.cfi_def_cfa 7, 8
	ret
	.cfi_endproc
.LFE3656:
	.size	_sub_D_00099_0, .-_sub_D_00099_0
	.section	.fini_array.00099,"aw"
	.align 8
	.quad	_sub_D_00099_0
	.text
	.type	_sub_I_00099_1, @function
_sub_I_00099_1:
.LFB3657:
	.cfi_startproc
	endbr64
	pushq	%rbp
	.cfi_def_cfa_offset 16
	.cfi_offset 6, -16
	movq	%rsp, %rbp
	.cfi_def_cfa_register 6
	call	__asan_init@PLT
	call	__asan_version_mismatch_check_v8@PLT
	movl	$87, %esi
	leaq	.LASAN0(%rip), %rax
	movq	%rax, %rdi
	call	__asan_register_globals@PLT
	popq	%rbp
	.cfi_def_cfa 7, 8
	ret
	.cfi_endproc
.LFE3657:
	.size	_sub_I_00099_1, .-_sub_I_00099_1
	.section	.init_array.00099,"aw"
	.align 8
	.quad	_sub_I_00099_1
	.section	.rodata
	.align 8
.LC28:
	.long	0
	.long	1079574528
	.text
.Letext0:
	.file 4 "./headers/Token.h"
	.file 5 "/usr/lib/gcc/x86_64-linux-gnu/11/include/stddef.h"
	.file 6 "/usr/lib/gcc/x86_64-linux-gnu/11/include/stdarg.h"
	.file 7 "<built-in>"
	.file 8 "/usr/include/x86_64-linux-gnu/bits/types.h"
	.file 9 "/usr/include/x86_64-linux-gnu/bits/types/__mbstate_t.h"
	.file 10 "/usr/include/x86_64-linux-gnu/bits/types/__fpos_t.h"
	.file 11 "/usr/include/x86_64-linux-gnu/bits/types/__FILE.h"
	.file 12 "/usr/include/x86_64-linux-gnu/bits/types/struct_FILE.h"
	.file 13 "/usr/include/x86_64-linux-gnu/bits/types/FILE.h"
	.file 14 "/usr/include/stdio.h"
	.file 15 "/usr/include/c++/11/type_traits"
	.file 16 "/usr/include/c++/11/concepts"
	.file 17 "/usr/include/c++/11/bits/iterator_concepts.h"
	.file 18 "/usr/include/c++/11/bits/ranges_cmp.h"
	.file 19 "/usr/include/c++/11/compare"
	.file 20 "/usr/include/c++/11/debug/debug.h"
	.file 21 "/usr/include/c++/11/bits/std_abs.h"
	.file 22 "/usr/include/c++/11/cwchar"
	.file 23 "/usr/include/c++/11/bits/exception_ptr.h"
	.file 24 "/usr/include/x86_64-linux-gnu/c++/11/bits/c++config.h"
	.file 25 "/usr/include/c++/11/cstdint"
	.file 26 "/usr/include/c++/11/clocale"
	.file 27 "/usr/include/c++/11/cstdlib"
	.file 28 "/usr/include/c++/11/numbers"
	.file 29 "/usr/include/c++/11/cstdio"
	.file 30 "/usr/include/c++/11/bits/ios_base.h"
	.file 31 "/usr/include/c++/11/cwctype"
	.file 32 "/usr/include/c++/11/bits/predefined_ops.h"
	.file 33 "/usr/include/c++/11/ext/type_traits.h"
	.file 34 "/usr/include/math.h"
	.file 35 "/usr/include/stdlib.h"
	.file 36 "/usr/include/x86_64-linux-gnu/bits/types/time_t.h"
	.file 37 "/usr/include/x86_64-linux-gnu/bits/stdint-intn.h"
	.file 38 "/usr/include/c++/11/bits/ptr_traits.h"
	.file 39 "/usr/include/c++/11/math.h"
	.file 40 "/usr/include/x86_64-linux-gnu/bits/types/struct_tm.h"
	.file 41 "/usr/include/x86_64-linux-gnu/bits/types/wint_t.h"
	.file 42 "/usr/include/x86_64-linux-gnu/bits/types/mbstate_t.h"
	.file 43 "/usr/include/wchar.h"
	.file 44 "/usr/include/x86_64-linux-gnu/bits/stdint-uintn.h"
	.file 45 "/usr/include/stdint.h"
	.file 46 "/usr/include/locale.h"
	.file 47 "/usr/include/x86_64-linux-gnu/bits/wctype-wchar.h"
	.file 48 "/usr/include/wctype.h"
	.file 49 "../ATC/Logger/LogConfig.h"
	.file 50 "../ATC/Logger/FunctionLogger.h"
	.file 51 "../ATC/RandomStuff/CommonEnums.h"
	.file 52 "./headers/Grammar.h"
	.file 53 "/usr/include/c++/11/stdlib.h"
	.file 54 "../ATC/Buffer/my_buffer.h"
	.file 55 "/usr/include/time.h"
	.file 56 "./headers/LangUtils.h"
	.file 57 "/usr/include/x86_64-linux-gnu/bits/mathcalls.h"
	.file 58 "../ATC/Logger/Logger.h"
	.file 59 "../ATC/Utils/Utils.h"
	.file 60 "/usr/include/string.h"
	.file 61 "/usr/include/c++/11/bits/algorithmfwd.h"
	.section	.data.rel.local.DW.ref.__gxx_personality_v0,"awG",@progbits,DW.ref.__gxx_personality_v0,comdat
	.align 8
	.type	DW.ref.__gxx_personality_v0, @object
	.size	DW.ref.__gxx_personality_v0, 8
DW.ref.__gxx_personality_v0:
	.quad	__gxx_personality_v0
	.hidden	__dso_handle
	.ident	"GCC: (Ubuntu 11.3.0-1ubuntu1~22.04) 11.3.0"
	.section	.note.GNU-stack,"",@progbits
	.section	.note.gnu.property,"a"
	.align 8
	.long	1f - 0f
	.long	4f - 1f
	.long	5
0:
	.string	"GNU"
1:
	.align 8
	.long	0xc0000002
	.long	3f - 2f
2:
	.long	0x3
3:
	.align 8
4:
