	.file	"TranslateToGars.cpp"
	.text
.Ltext0:
	.file 0 "/home/arsenyfucker/Cprojects/Lang/Translator/Retranslator" "./src/TranslateToGars.cpp"
	.section	.rodata
	.align 32
	.type	_ZL12NOT_DECLARED, @object
	.size	_ZL12NOT_DECLARED, 4
_ZL12NOT_DECLARED:
	.long	-111
	.zero	60
	.align 32
	.type	_ZL11NOT_A_LABEL, @object
	.size	_ZL11NOT_A_LABEL, 4
_ZL11NOT_A_LABEL:
	.long	-9
	.zero	60
	.bss
	.align 32
	.type	_ZStL8__ioinit, @object
	.size	_ZStL8__ioinit, 1
_ZStL8__ioinit:
	.zero	64
	.section	.rodata
	.align 32
	.type	_ZL12STD_LOG_NAME, @object
	.size	_ZL12STD_LOG_NAME, 18
_ZL12STD_LOG_NAME:
	.string	"./logs/stdlog.ars"
	.zero	46
	.align 32
	.type	_ZL6CRINGE, @object
	.size	_ZL6CRINGE, 4
_ZL6CRINGE:
	.long	3565
	.zero	60
	.align 32
.LC0:
	.string	"if"
	.zero	61
	.align 32
.LC1:
	.string	"else"
	.zero	59
	.align 32
.LC2:
	.string	"while"
	.zero	58
	.align 32
.LC3:
	.string	"return"
	.zero	57
	.section	.data.rel.ro.local,"aw"
	.align 32
	.type	_ZL12INSTRUCTIONS, @object
	.size	_ZL12INSTRUCTIONS, 32
_ZL12INSTRUCTIONS:
	.quad	.LC0
	.quad	.LC1
	.quad	.LC2
	.quad	.LC3
	.zero	32
	.section	.rodata
	.align 32
.LC4:
	.string	"fout"
	.zero	59
	.align 32
.LC5:
	.string	"fin"
	.zero	60
	.align 32
.LC6:
	.string	"sin"
	.zero	60
	.align 32
.LC7:
	.string	"cos"
	.zero	60
	.align 32
.LC8:
	.string	"pow"
	.zero	60
	.section	.data.rel.ro.local
	.align 32
	.type	_ZL16NATIVE_FUNCTIONS, @object
	.size	_ZL16NATIVE_FUNCTIONS, 80
_ZL16NATIVE_FUNCTIONS:
	.quad	.LC4
	.long	0
	.long	1
	.quad	.LC5
	.long	1
	.long	1
	.quad	.LC6
	.long	2
	.long	1
	.quad	.LC7
	.long	3
	.long	1
	.quad	.LC8
	.long	4
	.long	2
	.zero	48
	.section	.rodata
	.align 32
	.type	_ZL33NUMBER_OF_NATIVE_FUNCTIONS_STRUCT, @object
	.size	_ZL33NUMBER_OF_NATIVE_FUNCTIONS_STRUCT, 4
_ZL33NUMBER_OF_NATIVE_FUNCTIONS_STRUCT:
	.long	5
	.zero	60
	.align 32
.LC9:
	.string	"extern"
	.zero	57
	.align 32
.LC10:
	.string	"var"
	.zero	60
	.section	.data.rel.ro.local
	.align 32
	.type	_ZL14INITIALIZATORS, @object
	.size	_ZL14INITIALIZATORS, 16
_ZL14INITIALIZATORS:
	.quad	.LC9
	.quad	.LC10
	.zero	48
	.section	.rodata
	.align 32
.LC11:
	.string	"double"
	.zero	57
	.align 32
.LC12:
	.string	"void"
	.zero	59
	.section	.data.rel.ro.local
	.align 32
	.type	_ZL18FUNCTION_RET_TYPES, @object
	.size	_ZL18FUNCTION_RET_TYPES, 16
_ZL18FUNCTION_RET_TYPES:
	.quad	.LC11
	.quad	.LC12
	.zero	48
	.section	.rodata
	.align 32
	.type	_ZL9OPERATORS, @object
	.size	_ZL9OPERATORS, 9
_ZL9OPERATORS:
	.string	"+-/*<<>>"
	.zero	55
	.align 32
	.type	_ZL7COMMENT, @object
	.size	_ZL7COMMENT, 1
_ZL7COMMENT:
	.byte	35
	.zero	63
	.align 32
.LC13:
	.string	"main"
	.zero	59
	.section	.data.rel.ro.local
	.align 32
	.type	_ZL9MAIN_NAME, @object
	.size	_ZL9MAIN_NAME, 8
_ZL9MAIN_NAME:
	.quad	.LC13
	.zero	56
	.section	.rodata
	.align 32
	.type	_ZL24MAX_FUNCTION_NAME_LENGTH, @object
	.size	_ZL24MAX_FUNCTION_NAME_LENGTH, 4
_ZL24MAX_FUNCTION_NAME_LENGTH:
	.long	256
	.zero	60
	.align 32
	.type	_ZL15MAX_WORD_LENGTH, @object
	.size	_ZL15MAX_WORD_LENGTH, 4
_ZL15MAX_WORD_LENGTH:
	.long	256
	.zero	60
	.align 32
	.type	_ZL11INDENT_SIZE, @object
	.size	_ZL11INDENT_SIZE, 4
_ZL11INDENT_SIZE:
	.long	2
	.zero	60
	.bss
	.align 32
	.type	_ZL9GARS_FILE, @object
	.size	_ZL9GARS_FILE, 8
_ZL9GARS_FILE:
	.zero	64
	.globl	INDENT
	.align 32
	.type	INDENT, @object
	.size	INDENT, 4
INDENT:
	.zero	64
	.section	.rodata
	.align 32
.LC14:
	.string	"program"
	.zero	56
	.align 32
.LC15:
	.string	"ASSERTLOG:: Condition (%s) is false\n"
	.zero	59
	.align 32
.LC16:
	.string	"\033[93mASSERTLOG:: \033[0mCondition\033[95m (%s) \033[0mis \033[91mfalse\n\033[0m"
	.zero	32
	.align 32
.LC17:
	.string	"int TranslateToGars(const Program*, const char*)"
	.zero	47
	.align 32
.LC18:
	.string	"./src/TranslateToGars.cpp"
	.zero	38
	.align 32
.LC19:
	.string	"\t%s:%d, function: %s\n"
	.zero	42
	.align 32
.LC20:
	.string	"It matches to error: (code %d) %s\n\n"
	.zero	60
	.align 32
.LC21:
	.string	"TranslateToGars"
	.zero	48
	.align 32
.LC22:
	.string	"Shutting down the system (%s:%d)"
	.zero	63
	.align 32
.LC23:
	.string	"echo LOX\n"
	.zero	54
	.align 32
.LC24:
	.string	"path_to_gars_file"
	.zero	46
	.align 32
.LC25:
	.string	"w"
	.zero	62
	.align 32
.LC26:
	.string	"\t%s: "
	.zero	58
	.align 32
.LC27:
	.string	"Couldn't open file %s\n"
	.zero	41
	.align 32
.LC28:
	.string	" (%s:%d)\n"
	.zero	54
	.align 32
.LC29:
	.string	"Failed (%s:%d, %s:%d)"
	.zero	42
	.text
	.globl	_Z15TranslateToGarsPK7ProgramPKc
	.type	_Z15TranslateToGarsPK7ProgramPKc, @function
_Z15TranslateToGarsPK7ProgramPKc:
.LASANPC2270:
.LFB2270:
	.file 1 "./src/TranslateToGars.cpp"
	.loc 1 19 5
	.cfi_startproc
	endbr64
	pushq	%rbp
	.cfi_def_cfa_offset 16
	.cfi_offset 6, -16
	movq	%rsp, %rbp
	.cfi_def_cfa_register 6
	pushq	%rbx
	subq	$24, %rsp
	.cfi_offset 3, -24
	movq	%rdi, -24(%rbp)
	movq	%rsi, -32(%rbp)
	.loc 1 20 10
	cmpq	$0, -24(%rbp)
	jne	.L2
	.loc 1 20 47 discriminator 1
	call	_ZN6Logger11getInstanceEv@PLT
	movq	%rax, %rcx
	.loc 1 20 53 discriminator 1
	leaq	.LC14(%rip), %rax
	movq	%rax, %rdx
	leaq	.LC15(%rip), %rax
	movq	%rax, %rsi
	movq	%rcx, %rdi
	movl	$0, %eax
	call	_ZN6Logger3logEPKcz@PLT
	.loc 1 20 113 discriminator 1
	leaq	.LC14(%rip), %rax
	movq	%rax, %rsi
	leaq	.LC16(%rip), %rax
	movq	%rax, %rdi
	movl	$0, %eax
	call	printf@PLT
	.loc 1 20 261 discriminator 1
	call	_ZN6Logger11getInstanceEv@PLT
	movq	%rax, %rdi
	.loc 1 20 267 discriminator 1
	leaq	.LC17(%rip), %r8
	movl	$20, %ecx
	leaq	.LC18(%rip), %rax
	movq	%rax, %rdx
	leaq	.LC19(%rip), %rax
	movq	%rax, %rsi
	movl	$0, %eax
	call	_ZN6Logger3logEPKcz@PLT
	.loc 1 20 356 discriminator 1
	leaq	.LC17(%rip), %rax
	movq	%rax, %rcx
	movl	$20, %edx
	leaq	.LC18(%rip), %rax
	movq	%rax, %rsi
	leaq	.LC19(%rip), %rax
	movq	%rax, %rdi
	movl	$0, %eax
	call	printf@PLT
	.loc 1 20 458 discriminator 1
	call	_ZN6Logger11getInstanceEv@PLT
	movq	%rax, %rbx
	.loc 1 20 464 discriminator 1
	movl	$14, %edi
	call	strerror@PLT
	movq	%rax, %rcx
	movl	$14, %edx
	leaq	.LC20(%rip), %rax
	movq	%rax, %rsi
	movq	%rbx, %rdi
	movl	$0, %eax
	call	_ZN6Logger3logEPKcz@PLT
	.loc 1 20 27 discriminator 1
	call	_ZN6Logger11getInstanceEv@PLT
	movq	%rax, %rdi
	.loc 1 20 33 discriminator 1
	movl	$20, %ecx
	leaq	.LC21(%rip), %rax
	movq	%rax, %rdx
	leaq	.LC22(%rip), %rax
	movq	%rax, %rsi
	movl	$0, %eax
	call	_ZN6Logger3logEPKcz@PLT
	.loc 1 20 91 discriminator 1
	leaq	.LC23(%rip), %rax
	movq	%rax, %rdi
	call	system@PLT
	.loc 1 20 114 discriminator 1
	movl	$-2, %eax
	jmp	.L3
.L2:
	.loc 1 21 10
	cmpq	$0, -32(%rbp)
	jne	.L4
	.loc 1 21 57 discriminator 1
	call	_ZN6Logger11getInstanceEv@PLT
	movq	%rax, %rcx
	.loc 1 21 63 discriminator 1
	leaq	.LC24(%rip), %rax
	movq	%rax, %rdx
	leaq	.LC15(%rip), %rax
	movq	%rax, %rsi
	movq	%rcx, %rdi
	movl	$0, %eax
	call	_ZN6Logger3logEPKcz@PLT
	.loc 1 21 133 discriminator 1
	leaq	.LC24(%rip), %rax
	movq	%rax, %rsi
	leaq	.LC16(%rip), %rax
	movq	%rax, %rdi
	movl	$0, %eax
	call	printf@PLT
	.loc 1 21 291 discriminator 1
	call	_ZN6Logger11getInstanceEv@PLT
	movq	%rax, %rdi
	.loc 1 21 297 discriminator 1
	leaq	.LC17(%rip), %r8
	movl	$21, %ecx
	leaq	.LC18(%rip), %rax
	movq	%rax, %rdx
	leaq	.LC19(%rip), %rax
	movq	%rax, %rsi
	movl	$0, %eax
	call	_ZN6Logger3logEPKcz@PLT
	.loc 1 21 386 discriminator 1
	leaq	.LC17(%rip), %rax
	movq	%rax, %rcx
	movl	$21, %edx
	leaq	.LC18(%rip), %rax
	movq	%rax, %rsi
	leaq	.LC19(%rip), %rax
	movq	%rax, %rdi
	movl	$0, %eax
	call	printf@PLT
	.loc 1 21 488 discriminator 1
	call	_ZN6Logger11getInstanceEv@PLT
	movq	%rax, %rbx
	.loc 1 21 494 discriminator 1
	movl	$14, %edi
	call	strerror@PLT
	movq	%rax, %rcx
	movl	$14, %edx
	leaq	.LC20(%rip), %rax
	movq	%rax, %rsi
	movq	%rbx, %rdi
	movl	$0, %eax
	call	_ZN6Logger3logEPKcz@PLT
	.loc 1 21 27 discriminator 1
	call	_ZN6Logger11getInstanceEv@PLT
	movq	%rax, %rdi
	.loc 1 21 33 discriminator 1
	movl	$21, %ecx
	leaq	.LC21(%rip), %rax
	movq	%rax, %rdx
	leaq	.LC22(%rip), %rax
	movq	%rax, %rsi
	movl	$0, %eax
	call	_ZN6Logger3logEPKcz@PLT
	.loc 1 21 91 discriminator 1
	leaq	.LC23(%rip), %rax
	movq	%rax, %rdi
	call	system@PLT
	.loc 1 21 114 discriminator 1
	movl	$-2, %eax
	jmp	.L3
.L4:
	.loc 1 23 23
	movq	-32(%rbp), %rax
	leaq	.LC25(%rip), %rdx
	movq	%rdx, %rsi
	movq	%rax, %rdi
	call	fopen@PLT
	.loc 1 23 15
	movq	%rax, _ZL9GARS_FILE(%rip)
	.loc 1 24 9
	movq	_ZL9GARS_FILE(%rip), %rax
	.loc 1 24 5
	testq	%rax, %rax
	jne	.L5
	.loc 1 26 17
	leaq	.LC21(%rip), %rax
	movq	%rax, %rsi
	leaq	.LC26(%rip), %rax
	movq	%rax, %rdi
	movl	$0, %eax
	call	printf@PLT
	.loc 1 26 45
	movq	-32(%rbp), %rax
	movq	%rax, %rsi
	leaq	.LC27(%rip), %rax
	movq	%rax, %rdi
	movl	$0, %eax
	call	printf@PLT
	.loc 1 26 99
	movl	$26, %edx
	leaq	.LC18(%rip), %rax
	movq	%rax, %rsi
	leaq	.LC28(%rip), %rax
	movq	%rax, %rdi
	movl	$0, %eax
	call	printf@PLT
	.loc 1 27 35
	call	_ZN6Logger11getInstanceEv@PLT
	.loc 1 27 57
	call	_ZN6Logger11getInstanceEv@PLT
	movq	%rax, %rdi
	.loc 1 27 70
	subq	$8, %rsp
	pushq	$27
	leaq	.LC21(%rip), %r9
	movl	$27, %r8d
	leaq	.LC18(%rip), %rax
	movq	%rax, %rcx
	leaq	.LC29(%rip), %rax
	movq	%rax, %rdx
	movl	$-1, %esi
	movl	$0, %eax
	call	_ZN6Logger9LogMsgRetEiPKcz@PLT
	addq	$16, %rsp
	.loc 1 27 151
	jmp	.L3
.L5:
	.loc 1 30 42
	movq	-24(%rbp), %rax
	addq	$24, %rax
	movq	%rax, %rdx
	shrq	$3, %rdx
	addq	$2147450880, %rdx
	movzbl	(%rdx), %edx
	testb	%dl, %dl
	je	.L6
	movq	%rax, %rdi
	call	__asan_report_load8@PLT
.L6:
	movq	-24(%rbp), %rax
	movq	24(%rax), %rdx
	.loc 1 30 27
	movq	-24(%rbp), %rax
	addq	$16, %rax
	movq	%rax, %rcx
	shrq	$3, %rcx
	addq	$2147450880, %rcx
	movzbl	(%rcx), %ecx
	testb	%cl, %cl
	je	.L7
	movq	%rax, %rdi
	call	__asan_report_load8@PLT
.L7:
	movq	-24(%rbp), %rax
	movq	16(%rax), %rax
	.loc 1 30 17
	movq	%rdx, %rsi
	movq	%rax, %rdi
	call	_ZL8PutTokenPK5TokenPPKc
	.loc 1 30 54
	testl	%eax, %eax
	setne	%al
	.loc 1 30 5
	testb	%al, %al
	je	.L8
	.loc 1 31 35
	call	_ZN6Logger11getInstanceEv@PLT
	.loc 1 31 57
	call	_ZN6Logger11getInstanceEv@PLT
	movq	%rax, %rdi
	.loc 1 31 70
	subq	$8, %rsp
	pushq	$31
	leaq	.LC21(%rip), %r9
	movl	$31, %r8d
	leaq	.LC18(%rip), %rax
	movq	%rax, %rcx
	leaq	.LC29(%rip), %rax
	movq	%rax, %rdx
	movl	$-1, %esi
	movl	$0, %eax
	call	_ZN6Logger9LogMsgRetEiPKcz@PLT
	addq	$16, %rsp
	.loc 1 31 151
	jmp	.L3
.L8:
	.loc 1 33 12
	movl	$0, %eax
.L3:
	.loc 1 34 5
	movq	-8(%rbp), %rbx
	leave
	.cfi_def_cfa 7, 8
	ret
	.cfi_endproc
.LFE2270:
	.size	_Z15TranslateToGarsPK7ProgramPKc, .-_Z15TranslateToGarsPK7ProgramPKc
	.bss
	.align 32
	.type	_ZZL8PutTokenPK5TokenPPKcE11string_pool, @object
	.size	_ZZL8PutTokenPK5TokenPPKcE11string_pool, 8
_ZZL8PutTokenPK5TokenPPKcE11string_pool:
	.zero	64
	.section	.rodata
	.align 32
.LC30:
	.string	"\n"
	.zero	62
	.align 32
.LC31:
	.string	"%s ("
	.zero	59
	.align 32
.LC32:
	.string	")\n"
	.zero	61
	.align 32
.LC33:
	.string	"{\n"
	.zero	61
	.align 32
.LC34:
	.string	"}\n"
	.zero	61
	.align 32
.LC35:
	.string	"else\n"
	.zero	58
	.align 32
.LC36:
	.string	"PutToken"
	.zero	55
	.align 32
.LC37:
	.string	"\033[95mYou shouldn't be able to reach this place %s:%d (%s::%d)\n\033[0m"
	.zero	61
	.align 32
.LC38:
	.string	"You shouldn't be able to reach this place %s:%d (%s::%d)\n"
	.zero	38
	.align 32
.LC39:
	.string	"var "
	.zero	59
	.align 32
.LC40:
	.string	"= "
	.zero	61
	.align 32
.LC41:
	.string	";"
	.zero	62
	.align 32
.LC42:
	.string	"return "
	.zero	56
	.align 32
.LC43:
	.string	";\n"
	.zero	61
	.align 32
.LC44:
	.string	" %c "
	.zero	59
	.align 32
.LC45:
	.string	"%s "
	.zero	60
	.align 32
.LC46:
	.string	"( "
	.zero	61
	.align 32
.LC47:
	.string	", "
	.zero	61
	.align 32
.LC48:
	.string	" = "
	.zero	60
	.align 32
.LC49:
	.string	"("
	.zero	62
	.align 32
.LC50:
	.string	")"
	.zero	62
	.align 32
.LC51:
	.string	">> "
	.zero	60
	.align 32
.LC52:
	.string	"<< "
	.zero	60
	.align 32
.LC53:
	.string	") "
	.zero	61
	.align 32
.LC54:
	.string	"%lg "
	.zero	59
	.align 32
.LC55:
	.string	"xz chto delat"
	.zero	50
	.align 32
.LC56:
	.string	"UNCKNOW TYPE"
	.zero	51
	.text
	.type	_ZL8PutTokenPK5TokenPPKc, @function
_ZL8PutTokenPK5TokenPPKc:
.LASANPC2271:
.LFB2271:
	.loc 1 37 5
	.cfi_startproc
	endbr64
	pushq	%rbp
	.cfi_def_cfa_offset 16
	.cfi_offset 6, -16
	movq	%rsp, %rbp
	.cfi_def_cfa_register 6
	subq	$16, %rsp
	movq	%rdi, -8(%rbp)
	movq	%rsi, -16(%rbp)
	.loc 1 42 5
	cmpq	$0, -16(%rbp)
	je	.L10
	.loc 1 43 21
	movq	-16(%rbp), %rax
	movq	%rax, _ZZL8PutTokenPK5TokenPPKcE11string_pool(%rip)
.L10:
	.loc 1 45 5
	cmpq	$0, -8(%rbp)
	jne	.L11
	.loc 1 45 24 discriminator 1
	movl	$0, %eax
	jmp	.L12
.L11:
	.loc 1 47 20
	movq	-8(%rbp), %rax
	addq	$16, %rax
	movq	%rax, %rdx
	movq	%rdx, %rax
	shrq	$3, %rax
	addq	$2147450880, %rax
	movzbl	(%rax), %eax
	testb	%al, %al
	setne	%cl
	cmpb	$3, %al
	setle	%al
	andl	%ecx, %eax
	testb	%al, %al
	je	.L13
	movq	%rdx, %rdi
	call	__asan_report_load4@PLT
.L13:
	movq	-8(%rbp), %rax
	movl	16(%rax), %eax
	.loc 1 47 5
	cmpl	$61, %eax
	ja	.L14
	movl	%eax, %eax
	leaq	0(,%rax,4), %rdx
	leaq	.L16(%rip), %rax
	movl	(%rdx,%rax), %eax
	cltq
	leaq	.L16(%rip), %rdx
	addq	%rdx, %rax
	notrack jmp	*%rax
	.section	.rodata
	.align 4
	.align 4
.L16:
	.long	.L14-.L16
	.long	.L28-.L16
	.long	.L27-.L16
	.long	.L26-.L16
	.long	.L25-.L16
	.long	.L24-.L16
	.long	.L23-.L16
	.long	.L22-.L16
	.long	.L21-.L16
	.long	.L20-.L16
	.long	.L19-.L16
	.long	.L18-.L16
	.long	.L17-.L16
	.long	.L14-.L16
	.long	.L14-.L16
	.long	.L14-.L16
	.long	.L14-.L16
	.long	.L14-.L16
	.long	.L14-.L16
	.long	.L14-.L16
	.long	.L14-.L16
	.long	.L14-.L16
	.long	.L14-.L16
	.long	.L14-.L16
	.long	.L14-.L16
	.long	.L14-.L16
	.long	.L14-.L16
	.long	.L14-.L16
	.long	.L14-.L16
	.long	.L14-.L16
	.long	.L14-.L16
	.long	.L14-.L16
	.long	.L14-.L16
	.long	.L14-.L16
	.long	.L14-.L16
	.long	.L14-.L16
	.long	.L14-.L16
	.long	.L14-.L16
	.long	.L14-.L16
	.long	.L14-.L16
	.long	.L14-.L16
	.long	.L14-.L16
	.long	.L14-.L16
	.long	.L14-.L16
	.long	.L14-.L16
	.long	.L14-.L16
	.long	.L14-.L16
	.long	.L14-.L16
	.long	.L14-.L16
	.long	.L14-.L16
	.long	.L14-.L16
	.long	.L14-.L16
	.long	.L14-.L16
	.long	.L14-.L16
	.long	.L14-.L16
	.long	.L14-.L16
	.long	.L14-.L16
	.long	.L14-.L16
	.long	.L14-.L16
	.long	.L14-.L16
	.long	.L14-.L16
	.long	.L15-.L16
	.text
.L28:
	.loc 1 49 37
	movq	-8(%rbp), %rax
	movq	%rax, %rdx
	shrq	$3, %rdx
	addq	$2147450880, %rdx
	movzbl	(%rdx), %edx
	testb	%dl, %dl
	je	.L29
	movq	%rax, %rdi
	call	__asan_report_load8@PLT
.L29:
	movq	-8(%rbp), %rax
	movq	(%rax), %rax
	.loc 1 49 29
	movl	$0, %esi
	movq	%rax, %rdi
	call	_ZL8PutTokenPK5TokenPPKc
	.loc 1 50 35
	leaq	.LC30(%rip), %rax
	movq	%rax, %rdi
	movl	$0, %eax
	call	_ZL6gprintPKcz
	.loc 1 52 52
	movq	-8(%rbp), %rax
	addq	$8, %rax
	movq	%rax, %rdx
	shrq	$3, %rdx
	addq	$2147450880, %rdx
	movzbl	(%rdx), %edx
	testb	%dl, %dl
	je	.L30
	movq	%rax, %rdi
	call	__asan_report_load8@PLT
.L30:
	movq	-8(%rbp), %rax
	movq	8(%rax), %rax
	.loc 1 52 44
	movl	$0, %esi
	movq	%rax, %rdi
	call	_ZL8PutTokenPK5TokenPPKc
	.loc 1 52 63
	jmp	.L12
.L27:
	.loc 1 54 40
	movq	-8(%rbp), %rax
	addq	$24, %rax
	movq	%rax, %rdx
	movq	%rdx, %rax
	shrq	$3, %rax
	addq	$2147450880, %rax
	movzbl	(%rax), %eax
	testb	%al, %al
	setne	%cl
	cmpb	$3, %al
	setle	%al
	andl	%ecx, %eax
	testb	%al, %al
	je	.L31
	movq	%rdx, %rdi
	call	__asan_report_load4@PLT
.L31:
	movq	-8(%rbp), %rax
	movl	24(%rax), %eax
	.loc 1 54 23
	testl	%eax, %eax
	jne	.L32
	.loc 1 56 74
	movq	-8(%rbp), %rax
	movl	24(%rax), %eax
	.loc 1 56 87
	movslq	%eax, %rdx
	leaq	0(,%rdx,8), %rcx
	leaq	_ZL12INSTRUCTIONS(%rip), %rdx
	addq	%rcx, %rdx
	movq	%rdx, %rcx
	shrq	$3, %rcx
	addq	$2147450880, %rcx
	movzbl	(%rcx), %ecx
	testb	%cl, %cl
	je	.L33
	movq	%rdx, %rdi
	call	__asan_report_load8@PLT
.L33:
	cltq
	leaq	0(,%rax,8), %rdx
	leaq	_ZL12INSTRUCTIONS(%rip), %rax
	movq	(%rdx,%rax), %rax
	.loc 1 56 39
	movq	%rax, %rsi
	leaq	.LC31(%rip), %rax
	movq	%rax, %rdi
	movl	$0, %eax
	call	_ZL6gprintPKcz
	.loc 1 57 49
	movq	-8(%rbp), %rax
	movq	%rax, %rdx
	shrq	$3, %rdx
	addq	$2147450880, %rdx
	movzbl	(%rdx), %edx
	testb	%dl, %dl
	je	.L34
	movq	%rax, %rdi
	call	__asan_report_load8@PLT
.L34:
	movq	-8(%rbp), %rax
	movq	(%rax), %rax
	.loc 1 57 41
	movl	$0, %esi
	movq	%rax, %rdi
	call	_ZL8PutTokenPK5TokenPPKc
	.loc 1 58 39
	leaq	.LC32(%rip), %rax
	movq	%rax, %rdi
	movl	$0, %eax
	call	_ZL6gprintPKcz
	.loc 1 60 44
	movq	-8(%rbp), %rax
	addq	$8, %rax
	movq	%rax, %rdx
	shrq	$3, %rdx
	addq	$2147450880, %rdx
	movzbl	(%rdx), %edx
	testb	%dl, %dl
	je	.L35
	movq	%rax, %rdi
	call	__asan_report_load8@PLT
.L35:
	movq	-8(%rbp), %rax
	movq	8(%rax), %rax
	.loc 1 60 57
	leaq	16(%rax), %rdx
	movq	%rdx, %rcx
	movq	%rcx, %rdx
	shrq	$3, %rdx
	addq	$2147450880, %rdx
	movzbl	(%rdx), %edx
	testb	%dl, %dl
	setne	%sil
	cmpb	$3, %dl
	setle	%dl
	andl	%esi, %edx
	testb	%dl, %dl
	je	.L36
	movq	%rcx, %rdi
	call	__asan_report_load4@PLT
.L36:
	movl	16(%rax), %eax
	.loc 1 60 33
	cmpl	$2, %eax
	je	.L37
	.loc 1 62 43
	leaq	.LC33(%rip), %rax
	movq	%rax, %rdi
	movl	$0, %eax
	call	_ZL6gprintPKcz
	.loc 1 64 53
	movq	-8(%rbp), %rax
	addq	$8, %rax
	movq	%rax, %rdx
	shrq	$3, %rdx
	addq	$2147450880, %rdx
	movzbl	(%rdx), %edx
	testb	%dl, %dl
	je	.L38
	movq	%rax, %rdi
	call	__asan_report_load8@PLT
.L38:
	movq	-8(%rbp), %rax
	movq	8(%rax), %rax
	.loc 1 64 45
	movl	$0, %esi
	movq	%rax, %rdi
	call	_ZL8PutTokenPK5TokenPPKc
	.loc 1 65 43
	leaq	.LC34(%rip), %rax
	movq	%rax, %rdi
	movl	$0, %eax
	call	_ZL6gprintPKcz
	.loc 1 66 44
	movl	$0, %eax
	jmp	.L12
.L37:
	.loc 1 69 49
	movq	-8(%rbp), %rax
	addq	$8, %rax
	movq	%rax, %rdx
	shrq	$3, %rdx
	addq	$2147450880, %rdx
	movzbl	(%rdx), %edx
	testb	%dl, %dl
	je	.L39
	movq	%rax, %rdi
	call	__asan_report_load8@PLT
.L39:
	movq	-8(%rbp), %rax
	movq	8(%rax), %rax
	.loc 1 69 41
	movl	$0, %esi
	movq	%rax, %rdi
	call	_ZL8PutTokenPK5TokenPPKc
	.loc 1 71 40
	movl	$0, %eax
	jmp	.L12
.L32:
	.loc 1 74 46
	movq	-8(%rbp), %rax
	addq	$24, %rax
	movq	%rax, %rdx
	movq	%rdx, %rax
	shrq	$3, %rax
	addq	$2147450880, %rax
	movzbl	(%rax), %eax
	testb	%al, %al
	setne	%cl
	cmpb	$3, %al
	setle	%al
	andl	%ecx, %eax
	testb	%al, %al
	je	.L40
	movq	%rdx, %rdi
	call	__asan_report_load4@PLT
.L40:
	movq	-8(%rbp), %rax
	movl	24(%rax), %eax
	.loc 1 74 29
	cmpl	$1, %eax
	jne	.L41
	.loc 1 76 39
	leaq	.LC33(%rip), %rax
	movq	%rax, %rdi
	movl	$0, %eax
	call	_ZL6gprintPKcz
	.loc 1 77 49
	movq	-8(%rbp), %rax
	movq	%rax, %rdx
	shrq	$3, %rdx
	addq	$2147450880, %rdx
	movzbl	(%rdx), %edx
	testb	%dl, %dl
	je	.L42
	movq	%rax, %rdi
	call	__asan_report_load8@PLT
.L42:
	movq	-8(%rbp), %rax
	movq	(%rax), %rax
	.loc 1 77 41
	movl	$0, %esi
	movq	%rax, %rdi
	call	_ZL8PutTokenPK5TokenPPKc
	.loc 1 78 39
	leaq	.LC34(%rip), %rax
	movq	%rax, %rdi
	movl	$0, %eax
	call	_ZL6gprintPKcz
	.loc 1 80 39
	leaq	.LC35(%rip), %rax
	movq	%rax, %rdi
	movl	$0, %eax
	call	_ZL6gprintPKcz
	.loc 1 82 39
	leaq	.LC33(%rip), %rax
	movq	%rax, %rdi
	movl	$0, %eax
	call	_ZL6gprintPKcz
	.loc 1 83 49
	movq	-8(%rbp), %rax
	addq	$8, %rax
	movq	%rax, %rdx
	shrq	$3, %rdx
	addq	$2147450880, %rdx
	movzbl	(%rdx), %edx
	testb	%dl, %dl
	je	.L43
	movq	%rax, %rdi
	call	__asan_report_load8@PLT
.L43:
	movq	-8(%rbp), %rax
	movq	8(%rax), %rax
	.loc 1 83 41
	movl	$0, %esi
	movq	%rax, %rdi
	call	_ZL8PutTokenPK5TokenPPKc
	.loc 1 84 39
	leaq	.LC34(%rip), %rax
	movq	%rax, %rdi
	movl	$0, %eax
	call	_ZL6gprintPKcz
	.loc 1 86 40
	movl	$0, %eax
	jmp	.L12
.L41:
	.loc 1 89 35
	movl	$89, %r8d
	leaq	.LC36(%rip), %rax
	movq	%rax, %rcx
	movl	$89, %edx
	leaq	.LC18(%rip), %rax
	movq	%rax, %rsi
	leaq	.LC37(%rip), %rax
	movq	%rax, %rdi
	movl	$0, %eax
	call	printf@PLT
	.loc 1 89 187
	call	_ZN6Logger11getInstanceEv@PLT
	movq	%rax, %rdi
	.loc 1 89 193
	movl	$89, %r9d
	leaq	.LC36(%rip), %r8
	movl	$89, %ecx
	leaq	.LC18(%rip), %rax
	movq	%rax, %rdx
	leaq	.LC38(%rip), %rax
	movq	%rax, %rsi
	movl	$0, %eax
	call	_ZN6Logger3logEPKcz@PLT
	.loc 1 90 36
	movl	$-1, %eax
	jmp	.L12
.L26:
	.loc 1 92 31
	leaq	.LC39(%rip), %rax
	movq	%rax, %rdi
	movl	$0, %eax
	call	_ZL6gprintPKcz
	.loc 1 94 43
	movq	-8(%rbp), %rax
	movq	%rax, %rdx
	shrq	$3, %rdx
	addq	$2147450880, %rdx
	movzbl	(%rdx), %edx
	testb	%dl, %dl
	je	.L44
	movq	%rax, %rdi
	call	__asan_report_load8@PLT
.L44:
	movq	-8(%rbp), %rax
	movq	(%rax), %rax
	.loc 1 94 35
	movl	$0, %esi
	movq	%rax, %rdi
	call	_ZL8PutTokenPK5TokenPPKc
	.loc 1 96 38
	movq	-8(%rbp), %rax
	addq	$8, %rax
	movq	%rax, %rdx
	shrq	$3, %rdx
	addq	$2147450880, %rdx
	movzbl	(%rdx), %edx
	testb	%dl, %dl
	je	.L45
	movq	%rax, %rdi
	call	__asan_report_load8@PLT
.L45:
	movq	-8(%rbp), %rax
	movq	8(%rax), %rax
	.loc 1 96 27
	testq	%rax, %rax
	je	.L46
	.loc 1 98 35
	leaq	.LC40(%rip), %rax
	movq	%rax, %rdi
	movl	$0, %eax
	call	_ZL6gprintPKcz
	.loc 1 99 45
	movq	-8(%rbp), %rax
	addq	$8, %rax
	movq	%rax, %rdx
	shrq	$3, %rdx
	addq	$2147450880, %rdx
	movzbl	(%rdx), %edx
	testb	%dl, %dl
	je	.L47
	movq	%rax, %rdi
	call	__asan_report_load8@PLT
.L47:
	movq	-8(%rbp), %rax
	movq	8(%rax), %rax
	.loc 1 99 37
	movl	$0, %esi
	movq	%rax, %rdi
	call	_ZL8PutTokenPK5TokenPPKc
.L46:
	.loc 1 102 35
	leaq	.LC41(%rip), %rax
	movq	%rax, %rdi
	movl	$0, %eax
	call	_ZL6gprintPKcz
	.loc 1 104 32
	movl	$0, %eax
	jmp	.L12
.L25:
	.loc 1 107 31
	leaq	.LC42(%rip), %rax
	movq	%rax, %rdi
	movl	$0, %eax
	call	_ZL6gprintPKcz
	.loc 1 108 41
	movq	-8(%rbp), %rax
	movq	%rax, %rdx
	shrq	$3, %rdx
	addq	$2147450880, %rdx
	movzbl	(%rdx), %edx
	testb	%dl, %dl
	je	.L48
	movq	%rax, %rdi
	call	__asan_report_load8@PLT
.L48:
	movq	-8(%rbp), %rax
	movq	(%rax), %rax
	.loc 1 108 33
	movl	$0, %esi
	movq	%rax, %rdi
	call	_ZL8PutTokenPK5TokenPPKc
	.loc 1 109 31
	leaq	.LC43(%rip), %rax
	movq	%rax, %rdi
	movl	$0, %eax
	call	_ZL6gprintPKcz
	.loc 1 111 32
	movl	$0, %eax
	jmp	.L12
.L24:
	.loc 1 114 37
	movq	-8(%rbp), %rax
	movq	%rax, %rdx
	shrq	$3, %rdx
	addq	$2147450880, %rdx
	movzbl	(%rdx), %edx
	testb	%dl, %dl
	je	.L49
	movq	%rax, %rdi
	call	__asan_report_load8@PLT
.L49:
	movq	-8(%rbp), %rax
	movq	(%rax), %rax
	.loc 1 114 29
	movl	$0, %esi
	movq	%rax, %rdi
	call	_ZL8PutTokenPK5TokenPPKc
	.loc 1 115 49
	movq	-8(%rbp), %rax
	addq	$24, %rax
	movq	%rax, %rdx
	movq	%rdx, %rax
	shrq	$3, %rax
	addq	$2147450880, %rax
	movzbl	(%rax), %eax
	testb	%al, %al
	setne	%cl
	testb	%al, %al
	setle	%al
	andl	%ecx, %eax
	testb	%al, %al
	je	.L50
	movq	%rdx, %rdi
	call	__asan_report_load1@PLT
.L50:
	movq	-8(%rbp), %rax
	movzbl	24(%rax), %eax
	.loc 1 115 27
	movsbl	%al, %eax
	movl	%eax, %esi
	leaq	.LC44(%rip), %rax
	movq	%rax, %rdi
	movl	$0, %eax
	call	_ZL6gprintPKcz
	.loc 1 116 37
	movq	-8(%rbp), %rax
	addq	$8, %rax
	movq	%rax, %rdx
	shrq	$3, %rdx
	addq	$2147450880, %rdx
	movzbl	(%rdx), %edx
	testb	%dl, %dl
	je	.L51
	movq	%rax, %rdi
	call	__asan_report_load8@PLT
.L51:
	movq	-8(%rbp), %rax
	movq	8(%rax), %rax
	.loc 1 116 29
	movl	$0, %esi
	movq	%rax, %rdi
	call	_ZL8PutTokenPK5TokenPPKc
	.loc 1 118 28
	movl	$0, %eax
	jmp	.L12
.L20:
	.loc 1 122 61
	movq	-8(%rbp), %rax
	movq	%rax, %rdx
	shrq	$3, %rdx
	addq	$2147450880, %rdx
	movzbl	(%rdx), %edx
	testb	%dl, %dl
	je	.L52
	movq	%rax, %rdi
	call	__asan_report_load8@PLT
.L52:
	movq	-8(%rbp), %rax
	movq	(%rax), %rax
	.loc 1 122 73
	leaq	8(%rax), %rdx
	movq	%rdx, %rcx
	shrq	$3, %rcx
	addq	$2147450880, %rcx
	movzbl	(%rcx), %ecx
	testb	%cl, %cl
	je	.L53
	movq	%rdx, %rdi
	call	__asan_report_load8@PLT
.L53:
	movq	8(%rax), %rax
	.loc 1 122 92
	leaq	24(%rax), %rdx
	movq	%rdx, %rcx
	movq	%rcx, %rdx
	shrq	$3, %rdx
	addq	$2147450880, %rdx
	movzbl	(%rdx), %edx
	testb	%dl, %dl
	setne	%sil
	cmpb	$3, %dl
	setle	%dl
	andl	%esi, %edx
	testb	%dl, %dl
	je	.L54
	movq	%rcx, %rdi
	call	__asan_report_load4@PLT
.L54:
	movl	24(%rax), %eax
	.loc 1 122 111
	movslq	%eax, %rdx
	leaq	0(,%rdx,8), %rcx
	leaq	_ZL18FUNCTION_RET_TYPES(%rip), %rdx
	addq	%rcx, %rdx
	movq	%rdx, %rcx
	shrq	$3, %rcx
	addq	$2147450880, %rcx
	movzbl	(%rcx), %ecx
	testb	%cl, %cl
	je	.L55
	movq	%rdx, %rdi
	call	__asan_report_load8@PLT
.L55:
	cltq
	leaq	0(,%rax,8), %rdx
	leaq	_ZL18FUNCTION_RET_TYPES(%rip), %rax
	movq	(%rdx,%rax), %rax
	.loc 1 122 27
	movq	%rax, %rsi
	leaq	.LC45(%rip), %rax
	movq	%rax, %rdi
	movl	$0, %eax
	call	_ZL6gprintPKcz
	.loc 1 123 37
	movq	-8(%rbp), %rax
	movq	%rax, %rdx
	shrq	$3, %rdx
	addq	$2147450880, %rdx
	movzbl	(%rdx), %edx
	testb	%dl, %dl
	je	.L56
	movq	%rax, %rdi
	call	__asan_report_load8@PLT
.L56:
	movq	-8(%rbp), %rax
	movq	(%rax), %rax
	.loc 1 123 29
	movl	$0, %esi
	movq	%rax, %rdi
	call	_ZL8PutTokenPK5TokenPPKc
	.loc 1 125 27
	leaq	.LC46(%rip), %rax
	movq	%rax, %rdi
	movl	$0, %eax
	call	_ZL6gprintPKcz
	.loc 1 126 37
	movq	-8(%rbp), %rax
	movq	%rax, %rdx
	shrq	$3, %rdx
	addq	$2147450880, %rdx
	movzbl	(%rdx), %edx
	testb	%dl, %dl
	je	.L57
	movq	%rax, %rdi
	call	__asan_report_load8@PLT
.L57:
	movq	-8(%rbp), %rax
	movq	(%rax), %rax
	.loc 1 126 49
	movq	%rax, %rdx
	movq	%rdx, %rcx
	shrq	$3, %rcx
	addq	$2147450880, %rcx
	movzbl	(%rcx), %ecx
	testb	%cl, %cl
	je	.L58
	movq	%rdx, %rdi
	call	__asan_report_load8@PLT
.L58:
	movq	(%rax), %rax
	.loc 1 126 29
	movl	$0, %esi
	movq	%rax, %rdi
	call	_ZL8PutTokenPK5TokenPPKc
	.loc 1 127 27
	leaq	.LC32(%rip), %rax
	movq	%rax, %rdi
	movl	$0, %eax
	call	_ZL6gprintPKcz
	.loc 1 129 27
	leaq	.LC33(%rip), %rax
	movq	%rax, %rdi
	movl	$0, %eax
	call	_ZL6gprintPKcz
	.loc 1 130 27
	movl	INDENT(%rip), %eax
	addl	$1, %eax
	movl	%eax, INDENT(%rip)
	.loc 1 131 37
	movq	-8(%rbp), %rax
	addq	$8, %rax
	movq	%rax, %rdx
	shrq	$3, %rdx
	addq	$2147450880, %rdx
	movzbl	(%rdx), %edx
	testb	%dl, %dl
	je	.L59
	movq	%rax, %rdi
	call	__asan_report_load8@PLT
.L59:
	movq	-8(%rbp), %rax
	movq	8(%rax), %rax
	.loc 1 131 29
	movl	$0, %esi
	movq	%rax, %rdi
	call	_ZL8PutTokenPK5TokenPPKc
	.loc 1 132 27
	leaq	.LC34(%rip), %rax
	movq	%rax, %rdi
	movl	$0, %eax
	call	_ZL6gprintPKcz
	.loc 1 133 27
	movl	INDENT(%rip), %eax
	subl	$1, %eax
	movl	%eax, INDENT(%rip)
	.loc 1 135 28
	movl	$0, %eax
	jmp	.L12
.L17:
	.loc 1 140 32
	movq	-8(%rbp), %rax
	addq	$8, %rax
	movq	%rax, %rdx
	shrq	$3, %rdx
	addq	$2147450880, %rdx
	movzbl	(%rdx), %edx
	testb	%dl, %dl
	je	.L60
	movq	%rax, %rdi
	call	__asan_report_load8@PLT
.L60:
	movq	-8(%rbp), %rax
	movq	8(%rax), %rax
	.loc 1 140 21
	testq	%rax, %rax
	je	.L86
	.loc 1 142 31
	leaq	.LC47(%rip), %rax
	movq	%rax, %rdi
	movl	$0, %eax
	call	_ZL6gprintPKcz
	.loc 1 143 41
	movq	-8(%rbp), %rax
	addq	$8, %rax
	movq	%rax, %rdx
	shrq	$3, %rdx
	addq	$2147450880, %rdx
	movzbl	(%rdx), %edx
	testb	%dl, %dl
	je	.L62
	movq	%rax, %rdi
	call	__asan_report_load8@PLT
.L62:
	movq	-8(%rbp), %rax
	movq	8(%rax), %rax
	.loc 1 143 33
	movl	$0, %esi
	movq	%rax, %rdi
	call	_ZL8PutTokenPK5TokenPPKc
	.loc 1 146 21
	jmp	.L86
.L15:
	.loc 1 148 37
	movq	-8(%rbp), %rax
	movq	%rax, %rdx
	shrq	$3, %rdx
	addq	$2147450880, %rdx
	movzbl	(%rdx), %edx
	testb	%dl, %dl
	je	.L64
	movq	%rax, %rdi
	call	__asan_report_load8@PLT
.L64:
	movq	-8(%rbp), %rax
	movq	(%rax), %rax
	.loc 1 148 29
	movl	$0, %esi
	movq	%rax, %rdi
	call	_ZL8PutTokenPK5TokenPPKc
	.loc 1 149 27
	leaq	.LC48(%rip), %rax
	movq	%rax, %rdi
	movl	$0, %eax
	call	_ZL6gprintPKcz
	.loc 1 150 38
	movq	-8(%rbp), %rax
	addq	$8, %rax
	movq	%rax, %rdx
	shrq	$3, %rdx
	addq	$2147450880, %rdx
	movzbl	(%rdx), %edx
	testb	%dl, %dl
	je	.L65
	movq	%rax, %rdi
	call	__asan_report_load8@PLT
.L65:
	movq	-8(%rbp), %rax
	movq	8(%rax), %rax
	.loc 1 150 29
	movl	$0, %esi
	movq	%rax, %rdi
	call	_ZL8PutTokenPK5TokenPPKc
	.loc 1 151 27
	leaq	.LC43(%rip), %rax
	movq	%rax, %rdi
	movl	$0, %eax
	call	_ZL6gprintPKcz
	.loc 1 152 28
	movl	$0, %eax
	jmp	.L12
.L18:
	.loc 1 156 65
	movq	-8(%rbp), %rax
	addq	$24, %rax
	movq	%rax, %rdx
	movq	%rdx, %rax
	shrq	$3, %rax
	addq	$2147450880, %rax
	movzbl	(%rax), %eax
	testb	%al, %al
	setne	%cl
	cmpb	$3, %al
	setle	%al
	andl	%ecx, %eax
	testb	%al, %al
	je	.L66
	movq	%rdx, %rdi
	call	__asan_report_load4@PLT
.L66:
	movq	-8(%rbp), %rax
	movl	24(%rax), %eax
	.loc 1 156 84
	movslq	%eax, %rdx
	movq	%rdx, %rcx
	salq	$4, %rcx
	leaq	_ZL16NATIVE_FUNCTIONS(%rip), %rdx
	addq	%rcx, %rdx
	movq	%rdx, %rcx
	shrq	$3, %rcx
	addq	$2147450880, %rcx
	movzbl	(%rcx), %ecx
	testb	%cl, %cl
	je	.L67
	movq	%rdx, %rdi
	call	__asan_report_load8@PLT
.L67:
	cltq
	salq	$4, %rax
	movq	%rax, %rdx
	leaq	_ZL16NATIVE_FUNCTIONS(%rip), %rax
	movq	(%rdx,%rax), %rax
	.loc 1 156 27
	movq	%rax, %rsi
	leaq	.LC45(%rip), %rax
	movq	%rax, %rdi
	movl	$0, %eax
	call	_ZL6gprintPKcz
	.loc 1 158 38
	movq	-8(%rbp), %rax
	addq	$24, %rax
	movq	%rax, %rdx
	movq	%rdx, %rax
	shrq	$3, %rax
	addq	$2147450880, %rax
	movzbl	(%rax), %eax
	testb	%al, %al
	setne	%cl
	cmpb	$3, %al
	setle	%al
	andl	%ecx, %eax
	testb	%al, %al
	je	.L68
	movq	%rdx, %rdi
	call	__asan_report_load4@PLT
.L68:
	movq	-8(%rbp), %rax
	movl	24(%rax), %eax
	.loc 1 158 21
	cmpl	$4, %eax
	jne	.L69
	.loc 1 160 31
	leaq	.LC49(%rip), %rax
	movq	%rax, %rdi
	movl	$0, %eax
	call	_ZL6gprintPKcz
	.loc 1 161 41
	movq	-8(%rbp), %rax
	movq	%rax, %rdx
	shrq	$3, %rdx
	addq	$2147450880, %rdx
	movzbl	(%rdx), %edx
	testb	%dl, %dl
	je	.L70
	movq	%rax, %rdi
	call	__asan_report_load8@PLT
.L70:
	movq	-8(%rbp), %rax
	movq	(%rax), %rax
	.loc 1 161 33
	movl	$0, %esi
	movq	%rax, %rdi
	call	_ZL8PutTokenPK5TokenPPKc
	.loc 1 162 31
	leaq	.LC47(%rip), %rax
	movq	%rax, %rdi
	movl	$0, %eax
	call	_ZL6gprintPKcz
	.loc 1 163 41
	movq	-8(%rbp), %rax
	addq	$8, %rax
	movq	%rax, %rdx
	shrq	$3, %rdx
	addq	$2147450880, %rdx
	movzbl	(%rdx), %edx
	testb	%dl, %dl
	je	.L71
	movq	%rax, %rdi
	call	__asan_report_load8@PLT
.L71:
	movq	-8(%rbp), %rax
	movq	8(%rax), %rax
	.loc 1 163 33
	movl	$0, %esi
	movq	%rax, %rdi
	call	_ZL8PutTokenPK5TokenPPKc
	.loc 1 164 31
	leaq	.LC50(%rip), %rax
	movq	%rax, %rdi
	movl	$0, %eax
	call	_ZL6gprintPKcz
	.loc 1 166 32
	movl	$0, %eax
	jmp	.L12
.L69:
	.loc 1 169 38
	movq	-8(%rbp), %rax
	addq	$24, %rax
	movq	%rax, %rdx
	movq	%rdx, %rax
	shrq	$3, %rax
	addq	$2147450880, %rax
	movzbl	(%rax), %eax
	testb	%al, %al
	setne	%cl
	cmpb	$3, %al
	setle	%al
	andl	%ecx, %eax
	testb	%al, %al
	je	.L72
	movq	%rdx, %rdi
	call	__asan_report_load4@PLT
.L72:
	movq	-8(%rbp), %rax
	movl	24(%rax), %eax
	.loc 1 169 21
	cmpl	$1, %eax
	jne	.L73
	.loc 1 171 31
	leaq	.LC51(%rip), %rax
	movq	%rax, %rdi
	movl	$0, %eax
	call	_ZL6gprintPKcz
	.loc 1 173 41
	movq	-8(%rbp), %rax
	movq	%rax, %rdx
	shrq	$3, %rdx
	addq	$2147450880, %rdx
	movzbl	(%rdx), %edx
	testb	%dl, %dl
	je	.L74
	movq	%rax, %rdi
	call	__asan_report_load8@PLT
.L74:
	movq	-8(%rbp), %rax
	movq	(%rax), %rax
	.loc 1 173 33
	movl	$0, %esi
	movq	%rax, %rdi
	call	_ZL8PutTokenPK5TokenPPKc
	.loc 1 175 31
	leaq	.LC43(%rip), %rax
	movq	%rax, %rdi
	movl	$0, %eax
	call	_ZL6gprintPKcz
	.loc 1 176 32
	movl	$0, %eax
	jmp	.L12
.L73:
	.loc 1 179 38
	movq	-8(%rbp), %rax
	addq	$24, %rax
	movq	%rax, %rdx
	movq	%rdx, %rax
	shrq	$3, %rax
	addq	$2147450880, %rax
	movzbl	(%rax), %eax
	testb	%al, %al
	setne	%cl
	cmpb	$3, %al
	setle	%al
	andl	%ecx, %eax
	testb	%al, %al
	je	.L75
	movq	%rdx, %rdi
	call	__asan_report_load4@PLT
.L75:
	movq	-8(%rbp), %rax
	movl	24(%rax), %eax
	.loc 1 179 21
	testl	%eax, %eax
	jne	.L76
	.loc 1 181 31
	leaq	.LC52(%rip), %rax
	movq	%rax, %rdi
	movl	$0, %eax
	call	_ZL6gprintPKcz
	.loc 1 182 42
	movq	-8(%rbp), %rax
	movq	%rax, %rdx
	shrq	$3, %rdx
	addq	$2147450880, %rdx
	movzbl	(%rdx), %edx
	testb	%dl, %dl
	je	.L77
	movq	%rax, %rdi
	call	__asan_report_load8@PLT
.L77:
	movq	-8(%rbp), %rax
	movq	(%rax), %rax
	.loc 1 182 34
	movl	$0, %esi
	movq	%rax, %rdi
	call	_ZL8PutTokenPK5TokenPPKc
	.loc 1 184 31
	leaq	.LC43(%rip), %rax
	movq	%rax, %rdi
	movl	$0, %eax
	call	_ZL6gprintPKcz
	.loc 1 185 32
	movl	$0, %eax
	jmp	.L12
.L76:
	.loc 1 189 31
	leaq	.LC46(%rip), %rax
	movq	%rax, %rdi
	movl	$0, %eax
	call	_ZL6gprintPKcz
	.loc 1 191 41
	movq	-8(%rbp), %rax
	addq	$8, %rax
	movq	%rax, %rdx
	shrq	$3, %rdx
	addq	$2147450880, %rdx
	movzbl	(%rdx), %edx
	testb	%dl, %dl
	je	.L78
	movq	%rax, %rdi
	call	__asan_report_load8@PLT
.L78:
	movq	-8(%rbp), %rax
	movq	8(%rax), %rax
	.loc 1 191 33
	movl	$0, %esi
	movq	%rax, %rdi
	call	_ZL8PutTokenPK5TokenPPKc
	.loc 1 192 31
	leaq	.LC53(%rip), %rax
	movq	%rax, %rdi
	movl	$0, %eax
	call	_ZL6gprintPKcz
	.loc 1 193 32
	movl	$0, %eax
	jmp	.L12
.L19:
	.loc 1 202 32
	movq	-8(%rbp), %rax
	movq	%rax, %rdx
	shrq	$3, %rdx
	addq	$2147450880, %rdx
	movzbl	(%rdx), %edx
	testb	%dl, %dl
	je	.L79
	movq	%rax, %rdi
	call	__asan_report_load8@PLT
.L79:
	movq	-8(%rbp), %rax
	movq	(%rax), %rax
	.loc 1 202 24
	movl	$0, %esi
	movq	%rax, %rdi
	call	_ZL8PutTokenPK5TokenPPKc
	.loc 1 203 23
	leaq	.LC46(%rip), %rax
	movq	%rax, %rdi
	movl	$0, %eax
	call	_ZL6gprintPKcz
	.loc 1 204 32
	movq	-8(%rbp), %rax
	addq	$8, %rax
	movq	%rax, %rdx
	shrq	$3, %rdx
	addq	$2147450880, %rdx
	movzbl	(%rdx), %edx
	testb	%dl, %dl
	je	.L80
	movq	%rax, %rdi
	call	__asan_report_load8@PLT
.L80:
	movq	-8(%rbp), %rax
	movq	8(%rax), %rax
	.loc 1 204 24
	movl	$0, %esi
	movq	%rax, %rdi
	call	_ZL8PutTokenPK5TokenPPKc
	.loc 1 205 23
	leaq	.LC53(%rip), %rax
	movq	%rax, %rdi
	movl	$0, %eax
	call	_ZL6gprintPKcz
	.loc 1 207 24
	movl	$0, %eax
	jmp	.L12
.L21:
	.loc 1 210 45
	movq	-8(%rbp), %rax
	addq	$24, %rax
	movq	%rax, %rdx
	shrq	$3, %rdx
	addq	$2147450880, %rdx
	movzbl	(%rdx), %edx
	testb	%dl, %dl
	je	.L81
	movq	%rax, %rdi
	call	__asan_report_load8@PLT
.L81:
	movq	-8(%rbp), %rax
	movq	24(%rax), %rax
	.loc 1 210 23
	movq	%rax, %xmm0
	leaq	.LC54(%rip), %rax
	movq	%rax, %rdi
	movl	$1, %eax
	call	_ZL6gprintPKcz
	.loc 1 211 24
	movl	$0, %eax
	jmp	.L12
.L23:
	.loc 1 214 65
	movq	_ZZL8PutTokenPK5TokenPPKcE11string_pool(%rip), %rcx
	.loc 1 214 56
	movq	-8(%rbp), %rax
	addq	$24, %rax
	movq	%rax, %rdx
	movq	%rdx, %rax
	shrq	$3, %rax
	addq	$2147450880, %rax
	movzbl	(%rax), %eax
	testb	%al, %al
	setne	%sil
	cmpb	$3, %al
	setle	%al
	andl	%esi, %eax
	testb	%al, %al
	je	.L82
	movq	%rdx, %rdi
	call	__asan_report_load4@PLT
.L82:
	movq	-8(%rbp), %rax
	movl	24(%rax), %eax
	cltq
	.loc 1 214 65
	salq	$3, %rax
	addq	%rcx, %rax
	.loc 1 214 23
	movq	%rax, %rdx
	movq	%rdx, %rcx
	shrq	$3, %rcx
	addq	$2147450880, %rcx
	movzbl	(%rcx), %ecx
	testb	%cl, %cl
	je	.L83
	movq	%rdx, %rdi
	call	__asan_report_load8@PLT
.L83:
	movq	(%rax), %rax
	movq	%rax, %rsi
	leaq	.LC45(%rip), %rax
	movq	%rax, %rdi
	movl	$0, %eax
	call	_ZL6gprintPKcz
	.loc 1 215 24
	movl	$0, %eax
	jmp	.L12
.L22:
	.loc 1 219 25
	leaq	.LC36(%rip), %rax
	movq	%rax, %rsi
	leaq	.LC26(%rip), %rax
	movq	%rax, %rdi
	movl	$0, %eax
	call	printf@PLT
	.loc 1 219 53
	leaq	.LC55(%rip), %rax
	movq	%rax, %rdi
	call	puts@PLT
	.loc 1 219 80
	movl	$219, %edx
	leaq	.LC18(%rip), %rax
	movq	%rax, %rsi
	leaq	.LC28(%rip), %rax
	movq	%rax, %rdi
	movl	$0, %eax
	call	printf@PLT
	.loc 1 220 17
	jmp	.L63
.L14:
	.loc 1 222 17
	leaq	.LC36(%rip), %rax
	movq	%rax, %rsi
	leaq	.LC26(%rip), %rax
	movq	%rax, %rdi
	movl	$0, %eax
	call	printf@PLT
	.loc 1 222 45
	leaq	.LC56(%rip), %rax
	movq	%rax, %rdi
	call	puts@PLT
	.loc 1 222 71
	movl	$222, %edx
	leaq	.LC18(%rip), %rax
	movq	%rax, %rsi
	leaq	.LC28(%rip), %rax
	movq	%rax, %rdi
	movl	$0, %eax
	call	printf@PLT
	.loc 1 223 16
	movl	$-1, %eax
	jmp	.L12
.L86:
	.loc 1 146 21
	nop
.L63:
	.loc 1 227 22
	movq	-8(%rbp), %rax
	movq	%rax, %rdx
	shrq	$3, %rdx
	addq	$2147450880, %rdx
	movzbl	(%rdx), %edx
	testb	%dl, %dl
	je	.L84
	movq	%rax, %rdi
	call	__asan_report_load8@PLT
.L84:
	movq	-8(%rbp), %rax
	movq	(%rax), %rax
	.loc 1 227 13
	movl	$0, %esi
	movq	%rax, %rdi
	call	_ZL8PutTokenPK5TokenPPKc
	.loc 1 228 21
	movq	-8(%rbp), %rax
	addq	$8, %rax
	movq	%rax, %rdx
	shrq	$3, %rdx
	addq	$2147450880, %rdx
	movzbl	(%rdx), %edx
	testb	%dl, %dl
	je	.L85
	movq	%rax, %rdi
	call	__asan_report_load8@PLT
.L85:
	movq	-8(%rbp), %rax
	movq	8(%rax), %rax
	.loc 1 228 13
	movl	$0, %esi
	movq	%rax, %rdi
	call	_ZL8PutTokenPK5TokenPPKc
	.loc 1 230 12
	movl	$0, %eax
.L12:
	.loc 1 231 5
	leave
	.cfi_def_cfa 7, 8
	ret
	.cfi_endproc
.LFE2271:
	.size	_ZL8PutTokenPK5TokenPPKc, .-_ZL8PutTokenPK5TokenPPKc
	.globl	__asan_stack_malloc_1
	.section	.rodata
.LC57:
	.string	"1 32 24 3 ptr"
	.align 32
.LC58:
	.string	"format"
	.zero	57
	.align 32
.LC59:
	.string	"void gprint(const char*, ...)"
	.zero	34
	.align 32
.LC60:
	.string	"gprint"
	.zero	57
	.text
	.type	_ZL6gprintPKcz, @function
_ZL6gprintPKcz:
.LASANPC2272:
.LFB2272:
	.loc 1 235 5
	.cfi_startproc
	endbr64
	pushq	%rbp
	.cfi_def_cfa_offset 16
	.cfi_offset 6, -16
	movq	%rsp, %rbp
	.cfi_def_cfa_register 6
	pushq	%r14
	pushq	%r13
	pushq	%r12
	pushq	%rbx
	subq	$288, %rsp
	.cfi_offset 14, -24
	.cfi_offset 13, -32
	.cfi_offset 12, -40
	.cfi_offset 3, -48
	movq	%rdi, -312(%rbp)
	movq	%rsi, -200(%rbp)
	movq	%rdx, -192(%rbp)
	movq	%rcx, -184(%rbp)
	movq	%r8, -176(%rbp)
	movq	%r9, -168(%rbp)
	testb	%al, %al
	je	.L91
	movaps	%xmm0, -160(%rbp)
	movaps	%xmm1, -144(%rbp)
	movaps	%xmm2, -128(%rbp)
	movaps	%xmm3, -112(%rbp)
	movaps	%xmm4, -96(%rbp)
	movaps	%xmm5, -80(%rbp)
	movaps	%xmm6, -64(%rbp)
	movaps	%xmm7, -48(%rbp)
.L91:
	leaq	-304(%rbp), %rbx
	movq	%rbx, %r14
	cmpl	$0, __asan_option_detect_stack_use_after_return(%rip)
	je	.L87
	movl	$96, %edi
	call	__asan_stack_malloc_1@PLT
	testq	%rax, %rax
	je	.L87
	movq	%rax, %rbx
.L87:
	leaq	96(%rbx), %rax
	movq	%rax, %r13
	movq	$1102416563, (%rbx)
	leaq	.LC57(%rip), %rax
	movq	%rax, 8(%rbx)
	leaq	.LASANPC2272(%rip), %rax
	movq	%rax, 16(%rbx)
	movq	%rbx, %r12
	shrq	$3, %r12
	movl	$-235802127, 2147450880(%r12)
	movl	$-218103808, 2147450884(%r12)
	movl	$-202116109, 2147450888(%r12)
	.loc 1 236 10
	cmpq	$0, -312(%rbp)
	jne	.L92
	.loc 1 236 46 discriminator 1
	call	_ZN6Logger11getInstanceEv@PLT
	movq	%rax, %rcx
	.loc 1 236 52 discriminator 1
	leaq	.LC58(%rip), %rax
	movq	%rax, %rdx
	leaq	.LC15(%rip), %rax
	movq	%rax, %rsi
	movq	%rcx, %rdi
	movl	$0, %eax
	call	_ZN6Logger3logEPKcz@PLT
	.loc 1 236 111 discriminator 1
	leaq	.LC58(%rip), %rax
	movq	%rax, %rsi
	leaq	.LC16(%rip), %rax
	movq	%rax, %rdi
	movl	$0, %eax
	call	printf@PLT
	.loc 1 236 258 discriminator 1
	call	_ZN6Logger11getInstanceEv@PLT
	movq	%rax, %rdi
	.loc 1 236 264 discriminator 1
	leaq	.LC59(%rip), %r8
	movl	$236, %ecx
	leaq	.LC18(%rip), %rax
	movq	%rax, %rdx
	leaq	.LC19(%rip), %rax
	movq	%rax, %rsi
	movl	$0, %eax
	call	_ZN6Logger3logEPKcz@PLT
	.loc 1 236 354 discriminator 1
	leaq	.LC59(%rip), %rax
	movq	%rax, %rcx
	movl	$236, %edx
	leaq	.LC18(%rip), %rax
	movq	%rax, %rsi
	leaq	.LC19(%rip), %rax
	movq	%rax, %rdi
	movl	$0, %eax
	call	printf@PLT
	.loc 1 236 457 discriminator 1
	call	_ZN6Logger11getInstanceEv@PLT
	movq	%rax, %r13
	.loc 1 236 463 discriminator 1
	movl	$14, %edi
	call	strerror@PLT
	movq	%rax, %rcx
	movl	$14, %edx
	leaq	.LC20(%rip), %rax
	movq	%rax, %rsi
	movq	%r13, %rdi
	movl	$0, %eax
	call	_ZN6Logger3logEPKcz@PLT
	.loc 1 236 27 discriminator 1
	call	_ZN6Logger11getInstanceEv@PLT
	movq	%rax, %rdi
	.loc 1 236 33 discriminator 1
	movl	$236, %ecx
	leaq	.LC60(%rip), %rax
	movq	%rax, %rdx
	leaq	.LC22(%rip), %rax
	movq	%rax, %rsi
	movl	$0, %eax
	call	_ZN6Logger3logEPKcz@PLT
	.loc 1 236 92 discriminator 1
	leaq	.LC23(%rip), %rax
	movq	%rax, %rdi
	call	system@PLT
	.loc 1 236 108 discriminator 1
	jmp	.L90
.L92:
	.loc 1 238 13
	leaq	-64(%r13), %rax
	movq	%rax, %rdx
	shrq	$3, %rdx
	addq	$2147450880, %rdx
	movzbl	(%rdx), %edx
	testb	%dl, %dl
	setne	%cl
	testb	%dl, %dl
	setle	%dl
	movl	%ecx, %esi
	andl	%edx, %esi
	movl	$24, %edx
	subq	$1, %rdx
	leaq	(%rax,%rdx), %rcx
	movq	%rcx, %rdx
	shrq	$3, %rdx
	addq	$2147450880, %rdx
	movzbl	(%rdx), %edx
	testb	%dl, %dl
	setne	%dil
	andl	$7, %ecx
	cmpb	%dl, %cl
	setge	%dl
	andl	%edi, %edx
	orl	%esi, %edx
	testb	%dl, %dl
	je	.L94
	movl	$24, %esi
	movq	%rax, %rdi
	call	__asan_report_store_n@PLT
.L94:
	movq	$0, -64(%r13)
	movq	$0, -56(%r13)
	movq	$0, -48(%r13)
	.loc 1 239 22
	movl	$8, -64(%r13)
	movl	$48, -60(%r13)
	leaq	16(%rbp), %rax
	movq	%rax, -56(%r13)
	leaq	-208(%rbp), %rax
	movq	%rax, -48(%r13)
	.loc 1 241 15
	movl	INDENT(%rip), %eax
	leal	0(,%rax,4), %edx
	movq	_ZL9GARS_FILE(%rip), %rax
	movl	%edx, %esi
	movq	%rax, %rdi
	call	_Z10fsetindentP8_IO_FILEi@PLT
	.loc 1 243 13
	movq	_ZL9GARS_FILE(%rip), %rax
	leaq	-64(%r13), %rdx
	movq	-312(%rbp), %rcx
	movq	%rcx, %rsi
	movq	%rax, %rdi
	call	vfprintf@PLT
	.loc 1 247 5
	nop
.L90:
	.loc 1 235 5
	cmpq	%rbx, %r14
	je	.L88
	movq	$1172321806, (%rbx)
	movabsq	$-723401728380766731, %rax
	movq	%rax, 2147450880(%r12)
	movl	$-168430091, 2147450888(%r12)
	movq	120(%rbx), %rax
	movb	$0, (%rax)
	jmp	.L89
.L88:
	movq	$0, 2147450880(%r12)
	movl	$0, 2147450888(%r12)
.L89:
	.loc 1 248 5
	addq	$288, %rsp
	popq	%rbx
	popq	%r12
	popq	%r13
	popq	%r14
	popq	%rbp
	.cfi_def_cfa 7, 8
	ret
	.cfi_endproc
.LFE2272:
	.size	_ZL6gprintPKcz, .-_ZL6gprintPKcz
	.type	_Z41__static_initialization_and_destruction_0ii, @function
_Z41__static_initialization_and_destruction_0ii:
.LASANPC2939:
.LFB2939:
	.loc 1 248 5
	.cfi_startproc
	endbr64
	pushq	%rbp
	.cfi_def_cfa_offset 16
	.cfi_offset 6, -16
	movq	%rsp, %rbp
	.cfi_def_cfa_register 6
	subq	$16, %rsp
	movl	%edi, -4(%rbp)
	movl	%esi, -8(%rbp)
	.loc 1 248 5
	cmpl	$1, -4(%rbp)
	jne	.L99
	.loc 1 248 5 is_stmt 0 discriminator 1
	leaq	.LC18(%rip), %rax
	movq	%rax, %rdi
	call	__asan_before_dynamic_init@PLT
	cmpl	$65535, -8(%rbp)
	jne	.L98
	.file 2 "/usr/include/c++/11/iostream"
	.loc 2 74 25 is_stmt 1
	leaq	_ZStL8__ioinit(%rip), %rax
	movq	%rax, %rdi
	call	_ZNSt8ios_base4InitC1Ev@PLT
	leaq	__dso_handle(%rip), %rax
	movq	%rax, %rdx
	leaq	_ZStL8__ioinit(%rip), %rax
	movq	%rax, %rsi
	movq	_ZNSt8ios_base4InitD1Ev@GOTPCREL(%rip), %rax
	movq	%rax, %rdi
	call	__cxa_atexit@PLT
.L98:
	.loc 2 74 25 is_stmt 0 discriminator 1
	call	__asan_after_dynamic_init@PLT
.L99:
	.loc 1 248 5 is_stmt 1
	nop
	leave
	.cfi_def_cfa 7, 8
	ret
	.cfi_endproc
.LFE2939:
	.size	_Z41__static_initialization_and_destruction_0ii, .-_Z41__static_initialization_and_destruction_0ii
	.type	_GLOBAL__sub_I_INDENT, @function
_GLOBAL__sub_I_INDENT:
.LASANPC2940:
.LFB2940:
	.loc 1 248 5
	.cfi_startproc
	endbr64
	pushq	%rbp
	.cfi_def_cfa_offset 16
	.cfi_offset 6, -16
	movq	%rsp, %rbp
	.cfi_def_cfa_register 6
	.loc 1 248 5
	movl	$65535, %esi
	movl	$1, %edi
	call	_Z41__static_initialization_and_destruction_0ii
	popq	%rbp
	.cfi_def_cfa 7, 8
	ret
	.cfi_endproc
.LFE2940:
	.size	_GLOBAL__sub_I_INDENT, .-_GLOBAL__sub_I_INDENT
	.section	.init_array,"aw"
	.align 8
	.quad	_GLOBAL__sub_I_INDENT
	.section	.data.rel.local,"aw"
	.align 16
	.type	.LASANLOC1, @object
	.size	.LASANLOC1, 16
.LASANLOC1:
	.quad	.LC18
	.long	40
	.long	25
	.globl	__odr_asan.INDENT
	.bss
	.type	__odr_asan.INDENT, @object
	.size	__odr_asan.INDENT, 1
__odr_asan.INDENT:
	.zero	1
	.section	.data.rel.local
	.align 16
	.type	.LASANLOC2, @object
	.size	.LASANLOC2, 16
.LASANLOC2:
	.quad	.LC18
	.long	16
	.long	5
	.align 16
	.type	.LASANLOC3, @object
	.size	.LASANLOC3, 16
.LASANLOC3:
	.quad	.LC18
	.long	11
	.long	14
	.section	.rodata
.LC61:
	.string	"./ATC/Buffer/my_buffer.h"
	.section	.data.rel.local
	.align 16
	.type	.LASANLOC4, @object
	.size	.LASANLOC4, 16
.LASANLOC4:
	.quad	.LC61
	.long	32
	.long	11
	.section	.rodata
.LC62:
	.string	"../Common/Grammar.h"
	.section	.data.rel.local
	.align 16
	.type	.LASANLOC5, @object
	.size	.LASANLOC5, 16
.LASANLOC5:
	.quad	.LC62
	.long	80
	.long	11
	.align 16
	.type	.LASANLOC6, @object
	.size	.LASANLOC6, 16
.LASANLOC6:
	.quad	.LC62
	.long	79
	.long	11
	.align 16
	.type	.LASANLOC7, @object
	.size	.LASANLOC7, 16
.LASANLOC7:
	.quad	.LC62
	.long	77
	.long	19
	.align 16
	.type	.LASANLOC8, @object
	.size	.LASANLOC8, 16
.LASANLOC8:
	.quad	.LC62
	.long	75
	.long	12
	.align 16
	.type	.LASANLOC9, @object
	.size	.LASANLOC9, 16
.LASANLOC9:
	.quad	.LC62
	.long	60
	.long	12
	.align 16
	.type	.LASANLOC10, @object
	.size	.LASANLOC10, 16
.LASANLOC10:
	.quad	.LC62
	.long	58
	.long	19
	.align 16
	.type	.LASANLOC11, @object
	.size	.LASANLOC11, 16
.LASANLOC11:
	.quad	.LC62
	.long	54
	.long	19
	.align 16
	.type	.LASANLOC12, @object
	.size	.LASANLOC12, 16
.LASANLOC12:
	.quad	.LC62
	.long	48
	.long	11
	.align 16
	.type	.LASANLOC13, @object
	.size	.LASANLOC13, 16
.LASANLOC13:
	.quad	.LC62
	.long	40
	.long	28
	.align 16
	.type	.LASANLOC14, @object
	.size	.LASANLOC14, 16
.LASANLOC14:
	.quad	.LC62
	.long	15
	.long	19
	.section	.rodata
	.align 8
.LC63:
	.string	"./ATC/RandomStuff/CommonEnums.h"
	.section	.data.rel.local
	.align 16
	.type	.LASANLOC15, @object
	.size	.LASANLOC15, 16
.LASANLOC15:
	.quad	.LC63
	.long	3
	.long	11
	.section	.rodata
.LC64:
	.string	"./ATC/Logger/LogConfig.h"
	.section	.data.rel.local
	.align 16
	.type	.LASANLOC16, @object
	.size	.LASANLOC16, 16
.LASANLOC16:
	.quad	.LC64
	.long	3
	.long	12
	.section	.rodata
.LC65:
	.string	"/usr/include/c++/11/iostream"
	.section	.data.rel.local
	.align 16
	.type	.LASANLOC17, @object
	.size	.LASANLOC17, 16
.LASANLOC17:
	.quad	.LC65
	.long	74
	.long	25
	.section	.rodata
	.align 8
.LC66:
	.string	"../Common/Structures/Tabels/Tabels.h"
	.section	.data.rel.local
	.align 16
	.type	.LASANLOC18, @object
	.size	.LASANLOC18, 16
.LASANLOC18:
	.quad	.LC66
	.long	8
	.long	11
	.align 16
	.type	.LASANLOC19, @object
	.size	.LASANLOC19, 16
.LASANLOC19:
	.quad	.LC66
	.long	7
	.long	11
	.section	.rodata
.LC67:
	.string	"string_pool"
.LC68:
	.string	"INDENT"
.LC69:
	.string	"GARS_FILE"
.LC70:
	.string	"INDENT_SIZE"
.LC71:
	.string	"MAX_WORD_LENGTH"
.LC72:
	.string	"MAX_FUNCTION_NAME_LENGTH"
.LC73:
	.string	"MAIN_NAME"
.LC74:
	.string	"COMMENT"
.LC75:
	.string	"OPERATORS"
.LC76:
	.string	"FUNCTION_RET_TYPES"
.LC77:
	.string	"INITIALIZATORS"
	.align 8
.LC78:
	.string	"NUMBER_OF_NATIVE_FUNCTIONS_STRUCT"
.LC79:
	.string	"NATIVE_FUNCTIONS"
.LC80:
	.string	"INSTRUCTIONS"
.LC81:
	.string	"CRINGE"
.LC82:
	.string	"STD_LOG_NAME"
.LC83:
	.string	"__ioinit"
.LC84:
	.string	"NOT_A_LABEL"
.LC85:
	.string	"NOT_DECLARED"
.LC86:
	.string	"*.LC21"
.LC87:
	.string	"*.LC19"
.LC88:
	.string	"*.LC26"
.LC89:
	.string	"*.LC9"
.LC90:
	.string	"*.LC35"
.LC91:
	.string	"*.LC6"
.LC92:
	.string	"*.LC34"
.LC93:
	.string	"*.LC40"
.LC94:
	.string	"*.LC11"
.LC95:
	.string	"*.LC15"
.LC96:
	.string	"*.LC54"
.LC97:
	.string	"*.LC31"
.LC98:
	.string	"*.LC5"
.LC99:
	.string	"*.LC53"
.LC100:
	.string	"*.LC14"
.LC101:
	.string	"*.LC2"
.LC102:
	.string	"*.LC12"
.LC103:
	.string	"*.LC18"
.LC104:
	.string	"*.LC33"
.LC105:
	.string	"*.LC55"
.LC106:
	.string	"*.LC28"
.LC107:
	.string	"*.LC48"
.LC108:
	.string	"*.LC36"
.LC109:
	.string	"*.LC46"
.LC110:
	.string	"*.LC10"
.LC111:
	.string	"*.LC41"
.LC112:
	.string	"*.LC23"
.LC113:
	.string	"*.LC44"
.LC114:
	.string	"*.LC58"
.LC115:
	.string	"*.LC50"
.LC116:
	.string	"*.LC4"
.LC117:
	.string	"*.LC24"
.LC118:
	.string	"*.LC3"
.LC119:
	.string	"*.LC43"
.LC120:
	.string	"*.LC47"
.LC121:
	.string	"*.LC56"
.LC122:
	.string	"*.LC52"
.LC123:
	.string	"*.LC49"
.LC124:
	.string	"*.LC7"
.LC125:
	.string	"*.LC59"
.LC126:
	.string	"*.LC16"
.LC127:
	.string	"*.LC25"
.LC128:
	.string	"*.LC51"
.LC129:
	.string	"*.LC27"
.LC130:
	.string	"*.LC20"
.LC131:
	.string	"*.LC42"
.LC132:
	.string	"*.LC1"
.LC133:
	.string	"*.LC39"
.LC134:
	.string	"*.LC22"
.LC135:
	.string	"*.LC60"
.LC136:
	.string	"*.LC13"
.LC137:
	.string	"*.LC30"
.LC138:
	.string	"*.LC37"
.LC139:
	.string	"*.LC8"
.LC140:
	.string	"*.LC45"
.LC141:
	.string	"*.LC38"
.LC142:
	.string	"*.LC0"
.LC143:
	.string	"*.LC29"
.LC144:
	.string	"*.LC17"
.LC145:
	.string	"*.LC32"
	.section	.data.rel.local
	.align 32
	.type	.LASAN0, @object
	.size	.LASAN0, 5056
.LASAN0:
	.quad	_ZZL8PutTokenPK5TokenPPKcE11string_pool
	.quad	8
	.quad	64
	.quad	.LC67
	.quad	.LC18
	.quad	0
	.quad	.LASANLOC1
	.quad	0
	.quad	INDENT
	.quad	4
	.quad	64
	.quad	.LC68
	.quad	.LC18
	.quad	0
	.quad	.LASANLOC2
	.quad	__odr_asan.INDENT
	.quad	_ZL9GARS_FILE
	.quad	8
	.quad	64
	.quad	.LC69
	.quad	.LC18
	.quad	0
	.quad	.LASANLOC3
	.quad	0
	.quad	_ZL11INDENT_SIZE
	.quad	4
	.quad	64
	.quad	.LC70
	.quad	.LC18
	.quad	0
	.quad	.LASANLOC4
	.quad	0
	.quad	_ZL15MAX_WORD_LENGTH
	.quad	4
	.quad	64
	.quad	.LC71
	.quad	.LC18
	.quad	0
	.quad	.LASANLOC5
	.quad	0
	.quad	_ZL24MAX_FUNCTION_NAME_LENGTH
	.quad	4
	.quad	64
	.quad	.LC72
	.quad	.LC18
	.quad	0
	.quad	.LASANLOC6
	.quad	0
	.quad	_ZL9MAIN_NAME
	.quad	8
	.quad	64
	.quad	.LC73
	.quad	.LC18
	.quad	0
	.quad	.LASANLOC7
	.quad	0
	.quad	_ZL7COMMENT
	.quad	1
	.quad	64
	.quad	.LC74
	.quad	.LC18
	.quad	0
	.quad	.LASANLOC8
	.quad	0
	.quad	_ZL9OPERATORS
	.quad	9
	.quad	64
	.quad	.LC75
	.quad	.LC18
	.quad	0
	.quad	.LASANLOC9
	.quad	0
	.quad	_ZL18FUNCTION_RET_TYPES
	.quad	16
	.quad	64
	.quad	.LC76
	.quad	.LC18
	.quad	0
	.quad	.LASANLOC10
	.quad	0
	.quad	_ZL14INITIALIZATORS
	.quad	16
	.quad	64
	.quad	.LC77
	.quad	.LC18
	.quad	0
	.quad	.LASANLOC11
	.quad	0
	.quad	_ZL33NUMBER_OF_NATIVE_FUNCTIONS_STRUCT
	.quad	4
	.quad	64
	.quad	.LC78
	.quad	.LC18
	.quad	0
	.quad	.LASANLOC12
	.quad	0
	.quad	_ZL16NATIVE_FUNCTIONS
	.quad	80
	.quad	128
	.quad	.LC79
	.quad	.LC18
	.quad	0
	.quad	.LASANLOC13
	.quad	0
	.quad	_ZL12INSTRUCTIONS
	.quad	32
	.quad	64
	.quad	.LC80
	.quad	.LC18
	.quad	0
	.quad	.LASANLOC14
	.quad	0
	.quad	_ZL6CRINGE
	.quad	4
	.quad	64
	.quad	.LC81
	.quad	.LC18
	.quad	0
	.quad	.LASANLOC15
	.quad	0
	.quad	_ZL12STD_LOG_NAME
	.quad	18
	.quad	64
	.quad	.LC82
	.quad	.LC18
	.quad	0
	.quad	.LASANLOC16
	.quad	0
	.quad	_ZStL8__ioinit
	.quad	1
	.quad	64
	.quad	.LC83
	.quad	.LC18
	.quad	1
	.quad	.LASANLOC17
	.quad	0
	.quad	_ZL11NOT_A_LABEL
	.quad	4
	.quad	64
	.quad	.LC84
	.quad	.LC18
	.quad	0
	.quad	.LASANLOC18
	.quad	0
	.quad	_ZL12NOT_DECLARED
	.quad	4
	.quad	64
	.quad	.LC85
	.quad	.LC18
	.quad	0
	.quad	.LASANLOC19
	.quad	0
	.quad	.LC21
	.quad	16
	.quad	64
	.quad	.LC86
	.quad	.LC18
	.quad	0
	.quad	0
	.quad	0
	.quad	.LC19
	.quad	22
	.quad	64
	.quad	.LC87
	.quad	.LC18
	.quad	0
	.quad	0
	.quad	0
	.quad	.LC26
	.quad	6
	.quad	64
	.quad	.LC88
	.quad	.LC18
	.quad	0
	.quad	0
	.quad	0
	.quad	.LC9
	.quad	7
	.quad	64
	.quad	.LC89
	.quad	.LC18
	.quad	0
	.quad	0
	.quad	0
	.quad	.LC35
	.quad	6
	.quad	64
	.quad	.LC90
	.quad	.LC18
	.quad	0
	.quad	0
	.quad	0
	.quad	.LC6
	.quad	4
	.quad	64
	.quad	.LC91
	.quad	.LC18
	.quad	0
	.quad	0
	.quad	0
	.quad	.LC34
	.quad	3
	.quad	64
	.quad	.LC92
	.quad	.LC18
	.quad	0
	.quad	0
	.quad	0
	.quad	.LC40
	.quad	3
	.quad	64
	.quad	.LC93
	.quad	.LC18
	.quad	0
	.quad	0
	.quad	0
	.quad	.LC11
	.quad	7
	.quad	64
	.quad	.LC94
	.quad	.LC18
	.quad	0
	.quad	0
	.quad	0
	.quad	.LC15
	.quad	37
	.quad	96
	.quad	.LC95
	.quad	.LC18
	.quad	0
	.quad	0
	.quad	0
	.quad	.LC54
	.quad	5
	.quad	64
	.quad	.LC96
	.quad	.LC18
	.quad	0
	.quad	0
	.quad	0
	.quad	.LC31
	.quad	5
	.quad	64
	.quad	.LC97
	.quad	.LC18
	.quad	0
	.quad	0
	.quad	0
	.quad	.LC5
	.quad	4
	.quad	64
	.quad	.LC98
	.quad	.LC18
	.quad	0
	.quad	0
	.quad	0
	.quad	.LC53
	.quad	3
	.quad	64
	.quad	.LC99
	.quad	.LC18
	.quad	0
	.quad	0
	.quad	0
	.quad	.LC14
	.quad	8
	.quad	64
	.quad	.LC100
	.quad	.LC18
	.quad	0
	.quad	0
	.quad	0
	.quad	.LC2
	.quad	6
	.quad	64
	.quad	.LC101
	.quad	.LC18
	.quad	0
	.quad	0
	.quad	0
	.quad	.LC12
	.quad	5
	.quad	64
	.quad	.LC102
	.quad	.LC18
	.quad	0
	.quad	0
	.quad	0
	.quad	.LC18
	.quad	26
	.quad	64
	.quad	.LC103
	.quad	.LC18
	.quad	0
	.quad	0
	.quad	0
	.quad	.LC33
	.quad	3
	.quad	64
	.quad	.LC104
	.quad	.LC18
	.quad	0
	.quad	0
	.quad	0
	.quad	.LC55
	.quad	14
	.quad	64
	.quad	.LC105
	.quad	.LC18
	.quad	0
	.quad	0
	.quad	0
	.quad	.LC28
	.quad	10
	.quad	64
	.quad	.LC106
	.quad	.LC18
	.quad	0
	.quad	0
	.quad	0
	.quad	.LC48
	.quad	4
	.quad	64
	.quad	.LC107
	.quad	.LC18
	.quad	0
	.quad	0
	.quad	0
	.quad	.LC36
	.quad	9
	.quad	64
	.quad	.LC108
	.quad	.LC18
	.quad	0
	.quad	0
	.quad	0
	.quad	.LC46
	.quad	3
	.quad	64
	.quad	.LC109
	.quad	.LC18
	.quad	0
	.quad	0
	.quad	0
	.quad	.LC10
	.quad	4
	.quad	64
	.quad	.LC110
	.quad	.LC18
	.quad	0
	.quad	0
	.quad	0
	.quad	.LC41
	.quad	2
	.quad	64
	.quad	.LC111
	.quad	.LC18
	.quad	0
	.quad	0
	.quad	0
	.quad	.LC23
	.quad	10
	.quad	64
	.quad	.LC112
	.quad	.LC18
	.quad	0
	.quad	0
	.quad	0
	.quad	.LC44
	.quad	5
	.quad	64
	.quad	.LC113
	.quad	.LC18
	.quad	0
	.quad	0
	.quad	0
	.quad	.LC58
	.quad	7
	.quad	64
	.quad	.LC114
	.quad	.LC18
	.quad	0
	.quad	0
	.quad	0
	.quad	.LC50
	.quad	2
	.quad	64
	.quad	.LC115
	.quad	.LC18
	.quad	0
	.quad	0
	.quad	0
	.quad	.LC4
	.quad	5
	.quad	64
	.quad	.LC116
	.quad	.LC18
	.quad	0
	.quad	0
	.quad	0
	.quad	.LC24
	.quad	18
	.quad	64
	.quad	.LC117
	.quad	.LC18
	.quad	0
	.quad	0
	.quad	0
	.quad	.LC3
	.quad	7
	.quad	64
	.quad	.LC118
	.quad	.LC18
	.quad	0
	.quad	0
	.quad	0
	.quad	.LC43
	.quad	3
	.quad	64
	.quad	.LC119
	.quad	.LC18
	.quad	0
	.quad	0
	.quad	0
	.quad	.LC47
	.quad	3
	.quad	64
	.quad	.LC120
	.quad	.LC18
	.quad	0
	.quad	0
	.quad	0
	.quad	.LC56
	.quad	13
	.quad	64
	.quad	.LC121
	.quad	.LC18
	.quad	0
	.quad	0
	.quad	0
	.quad	.LC52
	.quad	4
	.quad	64
	.quad	.LC122
	.quad	.LC18
	.quad	0
	.quad	0
	.quad	0
	.quad	.LC49
	.quad	2
	.quad	64
	.quad	.LC123
	.quad	.LC18
	.quad	0
	.quad	0
	.quad	0
	.quad	.LC7
	.quad	4
	.quad	64
	.quad	.LC124
	.quad	.LC18
	.quad	0
	.quad	0
	.quad	0
	.quad	.LC59
	.quad	30
	.quad	64
	.quad	.LC125
	.quad	.LC18
	.quad	0
	.quad	0
	.quad	0
	.quad	.LC16
	.quad	64
	.quad	96
	.quad	.LC126
	.quad	.LC18
	.quad	0
	.quad	0
	.quad	0
	.quad	.LC25
	.quad	2
	.quad	64
	.quad	.LC127
	.quad	.LC18
	.quad	0
	.quad	0
	.quad	0
	.quad	.LC51
	.quad	4
	.quad	64
	.quad	.LC128
	.quad	.LC18
	.quad	0
	.quad	0
	.quad	0
	.quad	.LC27
	.quad	23
	.quad	64
	.quad	.LC129
	.quad	.LC18
	.quad	0
	.quad	0
	.quad	0
	.quad	.LC20
	.quad	36
	.quad	96
	.quad	.LC130
	.quad	.LC18
	.quad	0
	.quad	0
	.quad	0
	.quad	.LC42
	.quad	8
	.quad	64
	.quad	.LC131
	.quad	.LC18
	.quad	0
	.quad	0
	.quad	0
	.quad	.LC1
	.quad	5
	.quad	64
	.quad	.LC132
	.quad	.LC18
	.quad	0
	.quad	0
	.quad	0
	.quad	.LC39
	.quad	5
	.quad	64
	.quad	.LC133
	.quad	.LC18
	.quad	0
	.quad	0
	.quad	0
	.quad	.LC22
	.quad	33
	.quad	96
	.quad	.LC134
	.quad	.LC18
	.quad	0
	.quad	0
	.quad	0
	.quad	.LC60
	.quad	7
	.quad	64
	.quad	.LC135
	.quad	.LC18
	.quad	0
	.quad	0
	.quad	0
	.quad	.LC13
	.quad	5
	.quad	64
	.quad	.LC136
	.quad	.LC18
	.quad	0
	.quad	0
	.quad	0
	.quad	.LC30
	.quad	2
	.quad	64
	.quad	.LC137
	.quad	.LC18
	.quad	0
	.quad	0
	.quad	0
	.quad	.LC37
	.quad	67
	.quad	128
	.quad	.LC138
	.quad	.LC18
	.quad	0
	.quad	0
	.quad	0
	.quad	.LC8
	.quad	4
	.quad	64
	.quad	.LC139
	.quad	.LC18
	.quad	0
	.quad	0
	.quad	0
	.quad	.LC45
	.quad	4
	.quad	64
	.quad	.LC140
	.quad	.LC18
	.quad	0
	.quad	0
	.quad	0
	.quad	.LC38
	.quad	58
	.quad	96
	.quad	.LC141
	.quad	.LC18
	.quad	0
	.quad	0
	.quad	0
	.quad	.LC0
	.quad	3
	.quad	64
	.quad	.LC142
	.quad	.LC18
	.quad	0
	.quad	0
	.quad	0
	.quad	.LC29
	.quad	22
	.quad	64
	.quad	.LC143
	.quad	.LC18
	.quad	0
	.quad	0
	.quad	0
	.quad	.LC17
	.quad	49
	.quad	96
	.quad	.LC144
	.quad	.LC18
	.quad	0
	.quad	0
	.quad	0
	.quad	.LC32
	.quad	3
	.quad	64
	.quad	.LC145
	.quad	.LC18
	.quad	0
	.quad	0
	.quad	0
	.text
	.type	_sub_D_00099_0, @function
_sub_D_00099_0:
.LFB2941:
	.cfi_startproc
	endbr64
	pushq	%rbp
	.cfi_def_cfa_offset 16
	.cfi_offset 6, -16
	movq	%rsp, %rbp
	.cfi_def_cfa_register 6
	movl	$79, %esi
	leaq	.LASAN0(%rip), %rax
	movq	%rax, %rdi
	call	__asan_unregister_globals@PLT
	popq	%rbp
	.cfi_def_cfa 7, 8
	ret
	.cfi_endproc
.LFE2941:
	.size	_sub_D_00099_0, .-_sub_D_00099_0
	.section	.fini_array.00099,"aw"
	.align 8
	.quad	_sub_D_00099_0
	.text
	.type	_sub_I_00099_1, @function
_sub_I_00099_1:
.LFB2942:
	.cfi_startproc
	endbr64
	pushq	%rbp
	.cfi_def_cfa_offset 16
	.cfi_offset 6, -16
	movq	%rsp, %rbp
	.cfi_def_cfa_register 6
	call	__asan_init@PLT
	call	__asan_version_mismatch_check_v8@PLT
	movl	$79, %esi
	leaq	.LASAN0(%rip), %rax
	movq	%rax, %rdi
	call	__asan_register_globals@PLT
	popq	%rbp
	.cfi_def_cfa 7, 8
	ret
	.cfi_endproc
.LFE2942:
	.size	_sub_I_00099_1, .-_sub_I_00099_1
	.section	.init_array.00099,"aw"
	.align 8
	.quad	_sub_I_00099_1
	.text
.Letext0:
	.file 3 "../Common/Structures/Tabels/NameTable.h"
	.file 4 "../Common/Structures/Token/Token.h"
	.file 5 "../Common/Structures/Tabels/Tabels.h"
	.file 6 "../Common/Structures/Program/Program.h"
	.file 7 "/usr/lib/gcc/x86_64-linux-gnu/11/include/stddef.h"
	.file 8 "/usr/lib/gcc/x86_64-linux-gnu/11/include/stdarg.h"
	.file 9 "<built-in>"
	.file 10 "/usr/include/x86_64-linux-gnu/bits/types.h"
	.file 11 "/usr/include/x86_64-linux-gnu/bits/types/__mbstate_t.h"
	.file 12 "/usr/include/x86_64-linux-gnu/bits/types/__fpos_t.h"
	.file 13 "/usr/include/x86_64-linux-gnu/bits/types/__FILE.h"
	.file 14 "/usr/include/x86_64-linux-gnu/bits/types/struct_FILE.h"
	.file 15 "/usr/include/x86_64-linux-gnu/bits/types/FILE.h"
	.file 16 "/usr/include/stdio.h"
	.file 17 "/usr/include/stdlib.h"
	.file 18 "/usr/include/x86_64-linux-gnu/bits/stdint-intn.h"
	.file 19 "/usr/include/c++/11/cstdlib"
	.file 20 "/usr/include/c++/11/bits/std_abs.h"
	.file 21 "/usr/include/c++/11/cwchar"
	.file 22 "/usr/include/c++/11/type_traits"
	.file 23 "/usr/include/c++/11/bits/exception_ptr.h"
	.file 24 "/usr/include/x86_64-linux-gnu/c++/11/bits/c++config.h"
	.file 25 "/usr/include/c++/11/concepts"
	.file 26 "/usr/include/c++/11/bits/iterator_concepts.h"
	.file 27 "/usr/include/c++/11/bits/ranges_cmp.h"
	.file 28 "/usr/include/c++/11/compare"
	.file 29 "/usr/include/c++/11/debug/debug.h"
	.file 30 "/usr/include/c++/11/cstdint"
	.file 31 "/usr/include/c++/11/clocale"
	.file 32 "/usr/include/c++/11/numbers"
	.file 33 "/usr/include/c++/11/cstdio"
	.file 34 "/usr/include/c++/11/bits/ios_base.h"
	.file 35 "/usr/include/c++/11/cwctype"
	.file 36 "/usr/include/c++/11/bits/predefined_ops.h"
	.file 37 "/usr/include/c++/11/stdlib.h"
	.file 38 "/usr/include/x86_64-linux-gnu/bits/types/wint_t.h"
	.file 39 "/usr/include/x86_64-linux-gnu/bits/types/mbstate_t.h"
	.file 40 "/usr/include/wchar.h"
	.file 41 "/usr/include/x86_64-linux-gnu/bits/types/struct_tm.h"
	.file 42 "/usr/include/c++/11/bits/ptr_traits.h"
	.file 43 "/usr/include/x86_64-linux-gnu/bits/stdint-uintn.h"
	.file 44 "/usr/include/stdint.h"
	.file 45 "/usr/include/locale.h"
	.file 46 "/usr/include/x86_64-linux-gnu/bits/wctype-wchar.h"
	.file 47 "/usr/include/wctype.h"
	.file 48 "./ATC/Logger/LogConfig.h"
	.file 49 "./ATC/RandomStuff/CommonEnums.h"
	.file 50 "../Common/Grammar.h"
	.file 51 "./ATC/Buffer/my_buffer.h"
	.file 52 "./ATC/Logger/Logger.h"
	.file 53 "/usr/include/string.h"
	.file 54 "/usr/include/c++/11/bits/algorithmfwd.h"
	.section	.note.GNU-stack,"",@progbits
	.section	.note.gnu.property,"a"
	.align 8
	.long	1f - 0f
	.long	4f - 1f
	.long	5
0:
	.string	"GNU"
1:
	.align 8
	.long	0xc0000002
	.long	3f - 2f
2:
	.long	0x3
3:
	.align 8
4:
